
.elf:     file format elf32-littlearm


Disassembly of section .text:

00008000 <__code_start__>:
    8000:	e3a00013 	mov	r0, #19, 0
    8004:	e3800080 	orr	r0, r0, #128, 0	; 0x80
    8008:	e129f000 	msr	CPSR_fc, r0
    800c:	e3a01000 	mov	r1, #0, 0
    8010:	ee071f95 	mcr	15, 0, r1, cr7, cr5, {4}
    8014:	e3a0d302 	mov	sp, #134217728	; 0x8000000
    8018:	e3a0b000 	mov	fp, #0, 0
    801c:	eb0002ea 	bl	8bcc <_cstart>
    8020:	eb0002f7 	bl	8c04 <rpi_reboot>

00008024 <PUT32>:
    8024:	e5801000 	str	r1, [r0]
    8028:	e12fff1e 	bx	lr

0000802c <GET32>:
    802c:	e5900000 	ldr	r0, [r0]
    8030:	e12fff1e 	bx	lr

00008034 <BRANCHTO>:
    8034:	e12fff10 	bx	r0

00008038 <uart_put_int>:
    8038:	e92d4010 	push	{r4, lr}
    803c:	e24dd010 	sub	sp, sp, #16, 0
    8040:	e3a03000 	mov	r3, #0, 0
    8044:	e5cd300e 	strb	r3, [sp, #14]
    8048:	e2504000 	subs	r4, r0, #0, 0
    804c:	ba00000d 	blt	8088 <uart_put_int+0x50>
    8050:	e3540000 	cmp	r4, #0, 0
    8054:	1a00000f 	bne	8098 <uart_put_int+0x60>
    8058:	e3a00030 	mov	r0, #48, 0	; 0x30
    805c:	e5cd000d 	strb	r0, [sp, #13]
    8060:	e3a01008 	mov	r1, #8, 0
    8064:	e28d3010 	add	r3, sp, #16, 0
    8068:	e0831001 	add	r1, r3, r1
    806c:	e241400b 	sub	r4, r1, #11, 0
    8070:	eb00034c 	bl	8da8 <uart_put8>
    8074:	e5f40001 	ldrb	r0, [r4, #1]!
    8078:	e3500000 	cmp	r0, #0, 0
    807c:	1afffffb 	bne	8070 <uart_put_int+0x38>
    8080:	e28dd010 	add	sp, sp, #16, 0
    8084:	e8bd8010 	pop	{r4, pc}
    8088:	e3a0002d 	mov	r0, #45, 0	; 0x2d
    808c:	eb000345 	bl	8da8 <uart_put8>
    8090:	e2644000 	rsb	r4, r4, #0, 0
    8094:	ea000001 	b	80a0 <uart_put_int+0x68>
    8098:	e3540000 	cmp	r4, #0, 0
    809c:	da000014 	ble	80f4 <uart_put_int+0xbc>
    80a0:	e28d000c 	add	r0, sp, #12, 0
    80a4:	e3a01008 	mov	r1, #8, 0
    80a8:	e59fc04c 	ldr	ip, [pc, #76]	; 80fc <uart_put_int+0xc4>
    80ac:	e0c2349c 	smull	r3, r2, ip, r4
    80b0:	e1a03fc4 	asr	r3, r4, #31
    80b4:	e0633142 	rsb	r3, r3, r2, asr #2
    80b8:	e0832103 	add	r2, r3, r3, lsl #2
    80bc:	e0442082 	sub	r2, r4, r2, lsl #1
    80c0:	e2822030 	add	r2, r2, #48, 0	; 0x30
    80c4:	e4402001 	strb	r2, [r0], #-1
    80c8:	e2411001 	sub	r1, r1, #1, 0
    80cc:	e1a02004 	mov	r2, r4
    80d0:	e1a04003 	mov	r4, r3
    80d4:	e3520009 	cmp	r2, #9, 0
    80d8:	cafffff3 	bgt	80ac <uart_put_int+0x74>
    80dc:	e28d3010 	add	r3, sp, #16, 0
    80e0:	e0833001 	add	r3, r3, r1
    80e4:	e553000b 	ldrb	r0, [r3, #-11]
    80e8:	e3500000 	cmp	r0, #0, 0
    80ec:	1affffdc 	bne	8064 <uart_put_int+0x2c>
    80f0:	eaffffe2 	b	8080 <uart_put_int+0x48>
    80f4:	e3a01008 	mov	r1, #8, 0
    80f8:	eafffff7 	b	80dc <uart_put_int+0xa4>
    80fc:	66666667 	strbtvs	r6, [r6], -r7, ror #12

00008100 <do_move>:
    8100:	e92d4010 	push	{r4, lr}
    8104:	e3500077 	cmp	r0, #119, 0	; 0x77
    8108:	0a000009 	beq	8134 <do_move+0x34>
    810c:	e3500061 	cmp	r0, #97, 0	; 0x61
    8110:	0a000021 	beq	819c <do_move+0x9c>
    8114:	e3500073 	cmp	r0, #115, 0	; 0x73
    8118:	0a000024 	beq	81b0 <do_move+0xb0>
    811c:	e3500064 	cmp	r0, #100, 0	; 0x64
    8120:	059f209c 	ldreq	r2, [pc, #156]	; 81c4 <do_move+0xc4>
    8124:	05923004 	ldreq	r3, [r2, #4]
    8128:	02433001 	subeq	r3, r3, #1, 0
    812c:	05823004 	streq	r3, [r2, #4]
    8130:	ea000003 	b	8144 <do_move+0x44>
    8134:	e59f2088 	ldr	r2, [pc, #136]	; 81c4 <do_move+0xc4>
    8138:	e5923000 	ldr	r3, [r2]
    813c:	e2833001 	add	r3, r3, #1, 0
    8140:	e5823000 	str	r3, [r2]
    8144:	e59f407c 	ldr	r4, [pc, #124]	; 81c8 <do_move+0xc8>
    8148:	e3a00050 	mov	r0, #80, 0	; 0x50
    814c:	eb000315 	bl	8da8 <uart_put8>
    8150:	e5f40001 	ldrb	r0, [r4, #1]!
    8154:	e3500000 	cmp	r0, #0, 0
    8158:	1afffffb 	bne	814c <do_move+0x4c>
    815c:	e3a00020 	mov	r0, #32, 0
    8160:	eb000310 	bl	8da8 <uart_put8>
    8164:	e59f4058 	ldr	r4, [pc, #88]	; 81c4 <do_move+0xc4>
    8168:	e5940000 	ldr	r0, [r4]
    816c:	ebffffb1 	bl	8038 <uart_put_int>
    8170:	e3a00020 	mov	r0, #32, 0
    8174:	eb00030b 	bl	8da8 <uart_put8>
    8178:	e5940004 	ldr	r0, [r4, #4]
    817c:	ebffffad 	bl	8038 <uart_put_int>
    8180:	e3a00020 	mov	r0, #32, 0
    8184:	eb000307 	bl	8da8 <uart_put8>
    8188:	e5940008 	ldr	r0, [r4, #8]
    818c:	ebffffa9 	bl	8038 <uart_put_int>
    8190:	e3a0000a 	mov	r0, #10, 0
    8194:	eb000303 	bl	8da8 <uart_put8>
    8198:	e8bd8010 	pop	{r4, pc}
    819c:	e59f2020 	ldr	r2, [pc, #32]	; 81c4 <do_move+0xc4>
    81a0:	e5923004 	ldr	r3, [r2, #4]
    81a4:	e2433001 	sub	r3, r3, #1, 0
    81a8:	e5823004 	str	r3, [r2, #4]
    81ac:	eaffffe4 	b	8144 <do_move+0x44>
    81b0:	e59f200c 	ldr	r2, [pc, #12]	; 81c4 <do_move+0xc4>
    81b4:	e5923000 	ldr	r3, [r2]
    81b8:	e2833001 	add	r3, r3, #1, 0
    81bc:	e5823000 	str	r3, [r2]
    81c0:	eaffffdf 	b	8144 <do_move+0x44>
    81c4:	000094bc 			; <UNDEFINED> instruction: 0x000094bc
    81c8:	000090b8 	strheq	r9, [r0], -r8

000081cc <change_block>:
    81cc:	e92d4070 	push	{r4, r5, r6, lr}
    81d0:	e3500070 	cmp	r0, #112, 0	; 0x70
    81d4:	0a000022 	beq	8264 <change_block+0x98>
    81d8:	e59f4090 	ldr	r4, [pc, #144]	; 8270 <change_block+0xa4>
    81dc:	e59f3090 	ldr	r3, [pc, #144]	; 8274 <change_block+0xa8>
    81e0:	e3500072 	cmp	r0, #114, 0	; 0x72
    81e4:	01a04003 	moveq	r4, r3
    81e8:	e59f5088 	ldr	r5, [pc, #136]	; 8278 <change_block+0xac>
    81ec:	e3a00042 	mov	r0, #66, 0	; 0x42
    81f0:	eb0002ec 	bl	8da8 <uart_put8>
    81f4:	e5f50001 	ldrb	r0, [r5, #1]!
    81f8:	e3500000 	cmp	r0, #0, 0
    81fc:	1afffffb 	bne	81f0 <change_block+0x24>
    8200:	e3a00020 	mov	r0, #32, 0
    8204:	eb0002e7 	bl	8da8 <uart_put8>
    8208:	e59f506c 	ldr	r5, [pc, #108]	; 827c <change_block+0xb0>
    820c:	e5950000 	ldr	r0, [r5]
    8210:	ebffff88 	bl	8038 <uart_put_int>
    8214:	e3a00020 	mov	r0, #32, 0
    8218:	eb0002e2 	bl	8da8 <uart_put8>
    821c:	e5950004 	ldr	r0, [r5, #4]
    8220:	ebffff84 	bl	8038 <uart_put_int>
    8224:	e3a00020 	mov	r0, #32, 0
    8228:	eb0002de 	bl	8da8 <uart_put8>
    822c:	e5950008 	ldr	r0, [r5, #8]
    8230:	ebffff80 	bl	8038 <uart_put_int>
    8234:	e3a00020 	mov	r0, #32, 0
    8238:	eb0002da 	bl	8da8 <uart_put8>
    823c:	e5d40000 	ldrb	r0, [r4]
    8240:	e3500000 	cmp	r0, #0, 0
    8244:	0a000003 	beq	8258 <change_block+0x8c>
    8248:	eb0002d6 	bl	8da8 <uart_put8>
    824c:	e5f40001 	ldrb	r0, [r4, #1]!
    8250:	e3500000 	cmp	r0, #0, 0
    8254:	1afffffb 	bne	8248 <change_block+0x7c>
    8258:	e3a0000a 	mov	r0, #10, 0
    825c:	eb0002d1 	bl	8da8 <uart_put8>
    8260:	e8bd8070 	pop	{r4, r5, r6, pc}
    8264:	e59f3014 	ldr	r3, [pc, #20]	; 8280 <change_block+0xb4>
    8268:	e5934000 	ldr	r4, [r3]
    826c:	eaffffdd 	b	81e8 <change_block+0x1c>
    8270:	000093dc 	ldrdeq	r9, [r0], -ip
    8274:	000090c0 	andeq	r9, r0, r0, asr #1
    8278:	000090c4 	andeq	r9, r0, r4, asr #1
    827c:	000094bc 			; <UNDEFINED> instruction: 0x000094bc
    8280:	000094a8 	andeq	r9, r0, r8, lsr #9

00008284 <notmain>:
    8284:	e92d4010 	push	{r4, lr}
    8288:	eb00028d 	bl	8cc4 <uart_init>
    828c:	ea000000 	b	8294 <notmain+0x10>
    8290:	ebffff9a 	bl	8100 <do_move>
    8294:	eb0002d0 	bl	8ddc <uart_has_data>
    8298:	e3500000 	cmp	r0, #0, 0
    829c:	0afffffc 	beq	8294 <notmain+0x10>
    82a0:	eb0002d3 	bl	8df4 <uart_get8>
    82a4:	e6ef0070 	uxtb	r0, r0
    82a8:	e3500061 	cmp	r0, #97, 0	; 0x61
    82ac:	0afffff7 	beq	8290 <notmain+0xc>
    82b0:	e20030fb 	and	r3, r0, #251, 0	; 0xfb
    82b4:	e3500064 	cmp	r0, #100, 0	; 0x64
    82b8:	13530073 	cmpne	r3, #115, 0	; 0x73
    82bc:	0afffff3 	beq	8290 <notmain+0xc>
    82c0:	e20030fd 	and	r3, r0, #253, 0	; 0xfd
    82c4:	e3530070 	cmp	r3, #112, 0	; 0x70
    82c8:	0a000004 	beq	82e0 <notmain+0x5c>
    82cc:	e3500071 	cmp	r0, #113, 0	; 0x71
    82d0:	1affffef 	bne	8294 <notmain+0x10>
    82d4:	eb0002e9 	bl	8e80 <uart_flush_tx>
    82d8:	eb0002ee 	bl	8e98 <uart_disable>
    82dc:	e8bd8010 	pop	{r4, pc}
    82e0:	ebffffb9 	bl	81cc <change_block>
    82e4:	eaffffea 	b	8294 <notmain+0x10>

000082e8 <kmalloc_heap_end>:
    82e8:	e59f3004 	ldr	r3, [pc, #4]	; 82f4 <kmalloc_heap_end+0xc>
    82ec:	e5930000 	ldr	r0, [r3]
    82f0:	e12fff1e 	bx	lr
    82f4:	000094ac 	andeq	r9, r0, ip, lsr #9

000082f8 <kmalloc_heap_start>:
    82f8:	e59f3004 	ldr	r3, [pc, #4]	; 8304 <kmalloc_heap_start+0xc>
    82fc:	e5930004 	ldr	r0, [r3, #4]
    8300:	e12fff1e 	bx	lr
    8304:	000094ac 	andeq	r9, r0, ip, lsr #9

00008308 <kmalloc_heap_ptr>:
    8308:	e59f3004 	ldr	r3, [pc, #4]	; 8314 <kmalloc_heap_ptr+0xc>
    830c:	e5930008 	ldr	r0, [r3, #8]
    8310:	e12fff1e 	bx	lr
    8314:	000094ac 	andeq	r9, r0, ip, lsr #9

00008318 <kmalloc_init_set_start>:
    8318:	e92d4030 	push	{r4, r5, lr}
    831c:	e24dd00c 	sub	sp, sp, #12, 0
    8320:	e1a05001 	mov	r5, r1
    8324:	e3510201 	cmp	r1, #268435456	; 0x10000000
    8328:	8a000014 	bhi	8380 <kmalloc_init_set_start+0x68>
    832c:	e1a04000 	mov	r4, r0
    8330:	eb000222 	bl	8bc0 <program_end>
    8334:	e1540000 	cmp	r4, r0
    8338:	3a000017 	bcc	839c <kmalloc_init_set_start+0x84>
    833c:	e3550000 	cmp	r5, #0, 0
    8340:	0a00001b 	beq	83b4 <kmalloc_init_set_start+0x9c>
    8344:	e59f30d0 	ldr	r3, [pc, #208]	; 841c <kmalloc_init_set_start+0x104>
    8348:	e5933004 	ldr	r3, [r3, #4]
    834c:	e1530004 	cmp	r3, r4
    8350:	8a00001f 	bhi	83d4 <kmalloc_init_set_start+0xbc>
    8354:	e59f30c0 	ldr	r3, [pc, #192]	; 841c <kmalloc_init_set_start+0x104>
    8358:	e5933008 	ldr	r3, [r3, #8]
    835c:	e1530004 	cmp	r3, r4
    8360:	8a000023 	bhi	83f4 <kmalloc_init_set_start+0xdc>
    8364:	e59f30b0 	ldr	r3, [pc, #176]	; 841c <kmalloc_init_set_start+0x104>
    8368:	e5834008 	str	r4, [r3, #8]
    836c:	e5834004 	str	r4, [r3, #4]
    8370:	e0844005 	add	r4, r4, r5
    8374:	e5834000 	str	r4, [r3]
    8378:	e28dd00c 	add	sp, sp, #12, 0
    837c:	e8bd8030 	pop	{r4, r5, pc}
    8380:	e58d1000 	str	r1, [sp]
    8384:	e3a0303c 	mov	r3, #60, 0	; 0x3c
    8388:	e59f2090 	ldr	r2, [pc, #144]	; 8420 <kmalloc_init_set_start+0x108>
    838c:	e59f1090 	ldr	r1, [pc, #144]	; 8424 <kmalloc_init_set_start+0x10c>
    8390:	e59f0090 	ldr	r0, [pc, #144]	; 8428 <kmalloc_init_set_start+0x110>
    8394:	eb0000ee 	bl	8754 <printk>
    8398:	eb000200 	bl	8ba0 <clean_reboot>
    839c:	e3a03040 	mov	r3, #64, 0	; 0x40
    83a0:	e59f2078 	ldr	r2, [pc, #120]	; 8420 <kmalloc_init_set_start+0x108>
    83a4:	e59f1078 	ldr	r1, [pc, #120]	; 8424 <kmalloc_init_set_start+0x10c>
    83a8:	e59f007c 	ldr	r0, [pc, #124]	; 842c <kmalloc_init_set_start+0x114>
    83ac:	eb0000e8 	bl	8754 <printk>
    83b0:	eb0001fa 	bl	8ba0 <clean_reboot>
    83b4:	e59f3074 	ldr	r3, [pc, #116]	; 8430 <kmalloc_init_set_start+0x118>
    83b8:	e58d3000 	str	r3, [sp]
    83bc:	e3a03042 	mov	r3, #66, 0	; 0x42
    83c0:	e59f2058 	ldr	r2, [pc, #88]	; 8420 <kmalloc_init_set_start+0x108>
    83c4:	e59f1058 	ldr	r1, [pc, #88]	; 8424 <kmalloc_init_set_start+0x10c>
    83c8:	e59f0064 	ldr	r0, [pc, #100]	; 8434 <kmalloc_init_set_start+0x11c>
    83cc:	eb0000e0 	bl	8754 <printk>
    83d0:	eb0001f2 	bl	8ba0 <clean_reboot>
    83d4:	e58d4004 	str	r4, [sp, #4]
    83d8:	e58d3000 	str	r3, [sp]
    83dc:	e3a03044 	mov	r3, #68, 0	; 0x44
    83e0:	e59f2038 	ldr	r2, [pc, #56]	; 8420 <kmalloc_init_set_start+0x108>
    83e4:	e59f1038 	ldr	r1, [pc, #56]	; 8424 <kmalloc_init_set_start+0x10c>
    83e8:	e59f0048 	ldr	r0, [pc, #72]	; 8438 <kmalloc_init_set_start+0x120>
    83ec:	eb0000d8 	bl	8754 <printk>
    83f0:	eb0001ea 	bl	8ba0 <clean_reboot>
    83f4:	e59f3020 	ldr	r3, [pc, #32]	; 841c <kmalloc_init_set_start+0x104>
    83f8:	e5933000 	ldr	r3, [r3]
    83fc:	e58d3004 	str	r3, [sp, #4]
    8400:	e58d4000 	str	r4, [sp]
    8404:	e3a03048 	mov	r3, #72, 0	; 0x48
    8408:	e59f2010 	ldr	r2, [pc, #16]	; 8420 <kmalloc_init_set_start+0x108>
    840c:	e59f1010 	ldr	r1, [pc, #16]	; 8424 <kmalloc_init_set_start+0x10c>
    8410:	e59f0024 	ldr	r0, [pc, #36]	; 843c <kmalloc_init_set_start+0x124>
    8414:	eb0000ce 	bl	8754 <printk>
    8418:	eb0001e0 	bl	8ba0 <clean_reboot>
    841c:	000094ac 	andeq	r9, r0, ip, lsr #9
    8420:	00009364 	andeq	r9, r0, r4, ror #6
    8424:	000090d4 	ldrdeq	r9, [r0], -r4
    8428:	000090e4 	andeq	r9, r0, r4, ror #1
    842c:	00009114 	andeq	r9, r0, r4, lsl r1
    8430:	0000916c 	andeq	r9, r0, ip, ror #2
    8434:	0000913c 	andeq	r9, r0, ip, lsr r1
    8438:	00009178 	andeq	r9, r0, r8, ror r1
    843c:	000091e0 	andeq	r9, r0, r0, ror #3

00008440 <kmalloc_notzero>:
    8440:	e52de004 	push	{lr}		; (str lr, [sp, #-4]!)
    8444:	e24dd00c 	sub	sp, sp, #12, 0
    8448:	e3500000 	cmp	r0, #0, 0
    844c:	0a00000f 	beq	8490 <kmalloc_notzero+0x50>
    8450:	e2800007 	add	r0, r0, #7, 0
    8454:	e3c03007 	bic	r3, r0, #7, 0
    8458:	e59f20ac 	ldr	r2, [pc, #172]	; 850c <kmalloc_notzero+0xcc>
    845c:	e5920008 	ldr	r0, [r2, #8]
    8460:	e3100007 	tst	r0, #7, 0
    8464:	1a000011 	bne	84b0 <kmalloc_notzero+0x70>
    8468:	e3500000 	cmp	r0, #0, 0
    846c:	0a000017 	beq	84d0 <kmalloc_notzero+0x90>
    8470:	e0802003 	add	r2, r0, r3
    8474:	e59f1090 	ldr	r1, [pc, #144]	; 850c <kmalloc_notzero+0xcc>
    8478:	e5812008 	str	r2, [r1, #8]
    847c:	e5911000 	ldr	r1, [r1]
    8480:	e1520001 	cmp	r2, r1
    8484:	8a000017 	bhi	84e8 <kmalloc_notzero+0xa8>
    8488:	e28dd00c 	add	sp, sp, #12, 0
    848c:	e49df004 	pop	{pc}		; (ldr pc, [sp], #4)
    8490:	e59f3078 	ldr	r3, [pc, #120]	; 8510 <kmalloc_notzero+0xd0>
    8494:	e58d3000 	str	r3, [sp]
    8498:	e3a03051 	mov	r3, #81, 0	; 0x51
    849c:	e59f2070 	ldr	r2, [pc, #112]	; 8514 <kmalloc_notzero+0xd4>
    84a0:	e59f1070 	ldr	r1, [pc, #112]	; 8518 <kmalloc_notzero+0xd8>
    84a4:	e59f0070 	ldr	r0, [pc, #112]	; 851c <kmalloc_notzero+0xdc>
    84a8:	eb0000a9 	bl	8754 <printk>
    84ac:	eb0001bb 	bl	8ba0 <clean_reboot>
    84b0:	e59f3068 	ldr	r3, [pc, #104]	; 8520 <kmalloc_notzero+0xe0>
    84b4:	e58d3000 	str	r3, [sp]
    84b8:	e3a03054 	mov	r3, #84, 0	; 0x54
    84bc:	e59f2050 	ldr	r2, [pc, #80]	; 8514 <kmalloc_notzero+0xd4>
    84c0:	e59f1050 	ldr	r1, [pc, #80]	; 8518 <kmalloc_notzero+0xd8>
    84c4:	e59f0050 	ldr	r0, [pc, #80]	; 851c <kmalloc_notzero+0xdc>
    84c8:	eb0000a1 	bl	8754 <printk>
    84cc:	eb0001b3 	bl	8ba0 <clean_reboot>
    84d0:	e3a03058 	mov	r3, #88, 0	; 0x58
    84d4:	e59f2038 	ldr	r2, [pc, #56]	; 8514 <kmalloc_notzero+0xd4>
    84d8:	e59f1038 	ldr	r1, [pc, #56]	; 8518 <kmalloc_notzero+0xd8>
    84dc:	e59f0040 	ldr	r0, [pc, #64]	; 8524 <kmalloc_notzero+0xe4>
    84e0:	eb00009b 	bl	8754 <printk>
    84e4:	eb0001ad 	bl	8ba0 <clean_reboot>
    84e8:	e0422001 	sub	r2, r2, r1
    84ec:	e58d2004 	str	r2, [sp, #4]
    84f0:	e58d3000 	str	r3, [sp]
    84f4:	e3a0305c 	mov	r3, #92, 0	; 0x5c
    84f8:	e59f2014 	ldr	r2, [pc, #20]	; 8514 <kmalloc_notzero+0xd4>
    84fc:	e59f1014 	ldr	r1, [pc, #20]	; 8518 <kmalloc_notzero+0xd8>
    8500:	e59f0020 	ldr	r0, [pc, #32]	; 8528 <kmalloc_notzero+0xe8>
    8504:	eb000092 	bl	8754 <printk>
    8508:	eb0001a4 	bl	8ba0 <clean_reboot>
    850c:	000094ac 	andeq	r9, r0, ip, lsr #9
    8510:	00009170 	andeq	r9, r0, r0, ror r1
    8514:	0000937c 	andeq	r9, r0, ip, ror r3
    8518:	000090d4 	ldrdeq	r9, [r0], -r4
    851c:	0000913c 	andeq	r9, r0, ip, lsr r1
    8520:	00009224 	andeq	r9, r0, r4, lsr #4
    8524:	0000923c 	andeq	r9, r0, ip, lsr r2
    8528:	00009268 	andeq	r9, r0, r8, ror #4

0000852c <kmalloc>:
    852c:	e92d4030 	push	{r4, r5, lr}
    8530:	e24dd00c 	sub	sp, sp, #12, 0
    8534:	e2504000 	subs	r4, r0, #0, 0
    8538:	0a000008 	beq	8560 <kmalloc+0x34>
    853c:	e1a00004 	mov	r0, r4
    8540:	ebffffbe 	bl	8440 <kmalloc_notzero>
    8544:	e1a05000 	mov	r5, r0
    8548:	e1a02004 	mov	r2, r4
    854c:	e3a01000 	mov	r1, #0, 0
    8550:	eb000057 	bl	86b4 <memset>
    8554:	e1a00005 	mov	r0, r5
    8558:	e28dd00c 	add	sp, sp, #12, 0
    855c:	e8bd8030 	pop	{r4, r5, pc}
    8560:	e59f3018 	ldr	r3, [pc, #24]	; 8580 <kmalloc+0x54>
    8564:	e58d3000 	str	r3, [sp]
    8568:	e3a03064 	mov	r3, #100, 0	; 0x64
    856c:	e59f2010 	ldr	r2, [pc, #16]	; 8584 <kmalloc+0x58>
    8570:	e59f1010 	ldr	r1, [pc, #16]	; 8588 <kmalloc+0x5c>
    8574:	e59f0010 	ldr	r0, [pc, #16]	; 858c <kmalloc+0x60>
    8578:	eb000075 	bl	8754 <printk>
    857c:	eb000187 	bl	8ba0 <clean_reboot>
    8580:	00009170 	andeq	r9, r0, r0, ror r1
    8584:	0000938c 	andeq	r9, r0, ip, lsl #7
    8588:	000090d4 	ldrdeq	r9, [r0], -r4
    858c:	0000913c 	andeq	r9, r0, ip, lsr r1

00008590 <kmalloc_aligned>:
    8590:	e52de004 	push	{lr}		; (str lr, [sp, #-4]!)
    8594:	e24dd00c 	sub	sp, sp, #12, 0
    8598:	e3500000 	cmp	r0, #0, 0
    859c:	0a000014 	beq	85f4 <kmalloc_aligned+0x64>
    85a0:	e2613000 	rsb	r3, r1, #0, 0
    85a4:	e1d13003 	bics	r3, r1, r3
    85a8:	1a000019 	bne	8614 <kmalloc_aligned+0x84>
    85ac:	e3510008 	cmp	r1, #8, 0
    85b0:	33a01008 	movcc	r1, #8, 0
    85b4:	e59f30b8 	ldr	r3, [pc, #184]	; 8674 <kmalloc_aligned+0xe4>
    85b8:	e5932008 	ldr	r2, [r3, #8]
    85bc:	e2613000 	rsb	r3, r1, #0, 0
    85c0:	e1d1c003 	bics	ip, r1, r3
    85c4:	1a00001a 	bne	8634 <kmalloc_aligned+0xa4>
    85c8:	e0822001 	add	r2, r2, r1
    85cc:	e2422001 	sub	r2, r2, #1, 0
    85d0:	e0033002 	and	r3, r3, r2
    85d4:	e2411001 	sub	r1, r1, #1, 0
    85d8:	e1110003 	tst	r1, r3
    85dc:	1a00001c 	bne	8654 <kmalloc_aligned+0xc4>
    85e0:	e59f208c 	ldr	r2, [pc, #140]	; 8674 <kmalloc_aligned+0xe4>
    85e4:	e5823008 	str	r3, [r2, #8]
    85e8:	ebffffcf 	bl	852c <kmalloc>
    85ec:	e28dd00c 	add	sp, sp, #12, 0
    85f0:	e49df004 	pop	{pc}		; (ldr pc, [sp], #4)
    85f4:	e59f307c 	ldr	r3, [pc, #124]	; 8678 <kmalloc_aligned+0xe8>
    85f8:	e58d3000 	str	r3, [sp]
    85fc:	e3a0306e 	mov	r3, #110, 0	; 0x6e
    8600:	e59f2074 	ldr	r2, [pc, #116]	; 867c <kmalloc_aligned+0xec>
    8604:	e59f1074 	ldr	r1, [pc, #116]	; 8680 <kmalloc_aligned+0xf0>
    8608:	e59f0074 	ldr	r0, [pc, #116]	; 8684 <kmalloc_aligned+0xf4>
    860c:	eb000050 	bl	8754 <printk>
    8610:	eb000162 	bl	8ba0 <clean_reboot>
    8614:	e59f306c 	ldr	r3, [pc, #108]	; 8688 <kmalloc_aligned+0xf8>
    8618:	e58d3000 	str	r3, [sp]
    861c:	e3a0306f 	mov	r3, #111, 0	; 0x6f
    8620:	e59f2054 	ldr	r2, [pc, #84]	; 867c <kmalloc_aligned+0xec>
    8624:	e59f1054 	ldr	r1, [pc, #84]	; 8680 <kmalloc_aligned+0xf0>
    8628:	e59f005c 	ldr	r0, [pc, #92]	; 868c <kmalloc_aligned+0xfc>
    862c:	eb000048 	bl	8754 <printk>
    8630:	eb00015a 	bl	8ba0 <clean_reboot>
    8634:	e59f3054 	ldr	r3, [pc, #84]	; 8690 <kmalloc_aligned+0x100>
    8638:	e58d3000 	str	r3, [sp]
    863c:	e3a03011 	mov	r3, #17, 0
    8640:	e59f204c 	ldr	r2, [pc, #76]	; 8694 <kmalloc_aligned+0x104>
    8644:	e59f1034 	ldr	r1, [pc, #52]	; 8680 <kmalloc_aligned+0xf0>
    8648:	e59f0034 	ldr	r0, [pc, #52]	; 8684 <kmalloc_aligned+0xf4>
    864c:	eb000040 	bl	8754 <printk>
    8650:	eb000152 	bl	8ba0 <clean_reboot>
    8654:	e59f303c 	ldr	r3, [pc, #60]	; 8698 <kmalloc_aligned+0x108>
    8658:	e58d3000 	str	r3, [sp]
    865c:	e3a03076 	mov	r3, #118, 0	; 0x76
    8660:	e59f2014 	ldr	r2, [pc, #20]	; 867c <kmalloc_aligned+0xec>
    8664:	e59f1014 	ldr	r1, [pc, #20]	; 8680 <kmalloc_aligned+0xf0>
    8668:	e59f002c 	ldr	r0, [pc, #44]	; 869c <kmalloc_aligned+0x10c>
    866c:	eb000038 	bl	8754 <printk>
    8670:	eb00014a 	bl	8ba0 <clean_reboot>
    8674:	000094ac 	andeq	r9, r0, ip, lsr #9
    8678:	00009170 	andeq	r9, r0, r0, ror r1
    867c:	00009394 	muleq	r0, r4, r3
    8680:	000090d4 	ldrdeq	r9, [r0], -r4
    8684:	0000913c 	andeq	r9, r0, ip, lsr r1
    8688:	000092f0 	strdeq	r9, [r0], -r0
    868c:	000092b0 			; <UNDEFINED> instruction: 0x000092b0
    8690:	00009304 	andeq	r9, r0, r4, lsl #6
    8694:	000093a4 	andeq	r9, r0, r4, lsr #7
    8698:	00009348 	andeq	r9, r0, r8, asr #6
    869c:	00009310 	andeq	r9, r0, r0, lsl r3

000086a0 <kfree_all>:
    86a0:	e59f3008 	ldr	r3, [pc, #8]	; 86b0 <kfree_all+0x10>
    86a4:	e5932004 	ldr	r2, [r3, #4]
    86a8:	e5832008 	str	r2, [r3, #8]
    86ac:	e12fff1e 	bx	lr
    86b0:	000094ac 	andeq	r9, r0, ip, lsr #9

000086b4 <memset>:
    86b4:	e3520000 	cmp	r2, #0, 0
    86b8:	012fff1e 	bxeq	lr
    86bc:	e3510000 	cmp	r1, #0, 0
    86c0:	1a000007 	bne	86e4 <memset+0x30>
    86c4:	e3100007 	tst	r0, #7, 0
    86c8:	1a000001 	bne	86d4 <memset+0x20>
    86cc:	e3120007 	tst	r2, #7, 0
    86d0:	0a000011 	beq	871c <memset+0x68>
    86d4:	e3100003 	tst	r0, #3, 0
    86d8:	1a000001 	bne	86e4 <memset+0x30>
    86dc:	e3120003 	tst	r2, #3, 0
    86e0:	0a000001 	beq	86ec <memset+0x38>
    86e4:	e0802002 	add	r2, r0, r2
    86e8:	ea000008 	b	8710 <memset+0x5c>
    86ec:	e1a02122 	lsr	r2, r2, #2
    86f0:	ea000001 	b	86fc <memset+0x48>
    86f4:	e4801004 	str	r1, [r0], #4
    86f8:	e1a02003 	mov	r2, r3
    86fc:	e2423001 	sub	r3, r2, #1, 0
    8700:	e3520000 	cmp	r2, #0, 0
    8704:	1afffffa 	bne	86f4 <memset+0x40>
    8708:	e12fff1e 	bx	lr
    870c:	e4c01001 	strb	r1, [r0], #1
    8710:	e1500002 	cmp	r0, r2
    8714:	3afffffc 	bcc	870c <memset+0x58>
    8718:	e12fff1e 	bx	lr
    871c:	e1a021a2 	lsr	r2, r2, #3
    8720:	e2423001 	sub	r3, r2, #1, 0
    8724:	e3520000 	cmp	r2, #0, 0
    8728:	012fff1e 	bxeq	lr
    872c:	e92d0030 	push	{r4, r5}
    8730:	e1a04001 	mov	r4, r1
    8734:	e1a05fc1 	asr	r5, r1, #31
    8738:	e0c040f8 	strd	r4, [r0], #8
    873c:	e1a02003 	mov	r2, r3
    8740:	e2433001 	sub	r3, r3, #1, 0
    8744:	e3520000 	cmp	r2, #0, 0
    8748:	1afffff8 	bne	8730 <memset+0x7c>
    874c:	e8bd0030 	pop	{r4, r5}
    8750:	e12fff1e 	bx	lr

00008754 <printk>:
    8754:	e92d000f 	push	{r0, r1, r2, r3}
    8758:	e52de004 	push	{lr}		; (str lr, [sp, #-4]!)
    875c:	e24dd00c 	sub	sp, sp, #12, 0
    8760:	e28d1014 	add	r1, sp, #20, 0
    8764:	e58d1004 	str	r1, [sp, #4]
    8768:	e59d0010 	ldr	r0, [sp, #16]
    876c:	eb000047 	bl	8890 <vprintk>
    8770:	e28dd00c 	add	sp, sp, #12, 0
    8774:	e49de004 	pop	{lr}		; (ldr lr, [sp], #4)
    8778:	e28dd010 	add	sp, sp, #16, 0
    877c:	e12fff1e 	bx	lr

00008780 <emit_val>:
    8780:	e92d4010 	push	{r4, lr}
    8784:	e24dd030 	sub	sp, sp, #48, 0	; 0x30
    8788:	e350000a 	cmp	r0, #10, 0
    878c:	0a000014 	beq	87e4 <emit_val+0x64>
    8790:	e3500010 	cmp	r0, #16, 0
    8794:	0a000022 	beq	8824 <emit_val+0xa4>
    8798:	e3500002 	cmp	r0, #2, 0
    879c:	0a000006 	beq	87bc <emit_val+0x3c>
    87a0:	e58d0000 	str	r0, [sp]
    87a4:	e3a0301b 	mov	r3, #27, 0
    87a8:	e59f20c0 	ldr	r2, [pc, #192]	; 8870 <emit_val+0xf0>
    87ac:	e59f10c0 	ldr	r1, [pc, #192]	; 8874 <emit_val+0xf4>
    87b0:	e59f00c0 	ldr	r0, [pc, #192]	; 8878 <emit_val+0xf8>
    87b4:	ebffffe6 	bl	8754 <printk>
    87b8:	eb0000f8 	bl	8ba0 <clean_reboot>
    87bc:	e28d400c 	add	r4, sp, #12, 0
    87c0:	e2012001 	and	r2, r1, #1, 0
    87c4:	e59f00b0 	ldr	r0, [pc, #176]	; 887c <emit_val+0xfc>
    87c8:	e7d02002 	ldrb	r2, [r0, r2]
    87cc:	e5c42000 	strb	r2, [r4]
    87d0:	e2844001 	add	r4, r4, #1, 0
    87d4:	e3510001 	cmp	r1, #1, 0
    87d8:	e1a010a1 	lsr	r1, r1, #1
    87dc:	8afffff7 	bhi	87c0 <emit_val+0x40>
    87e0:	ea00001d 	b	885c <emit_val+0xdc>
    87e4:	e28d400c 	add	r4, sp, #12, 0
    87e8:	e59f3090 	ldr	r3, [pc, #144]	; 8880 <emit_val+0x100>
    87ec:	e0832193 	umull	r2, r3, r3, r1
    87f0:	e1a031a3 	lsr	r3, r3, #3
    87f4:	e1a00003 	mov	r0, r3
    87f8:	e0833103 	add	r3, r3, r3, lsl #2
    87fc:	e0413083 	sub	r3, r1, r3, lsl #1
    8800:	e59fc07c 	ldr	ip, [pc, #124]	; 8884 <emit_val+0x104>
    8804:	e7dcc003 	ldrb	ip, [ip, r3]
    8808:	e5c4c000 	strb	ip, [r4]
    880c:	e2844001 	add	r4, r4, #1, 0
    8810:	e1a03001 	mov	r3, r1
    8814:	e1a01000 	mov	r1, r0
    8818:	e3530009 	cmp	r3, #9, 0
    881c:	8afffff1 	bhi	87e8 <emit_val+0x68>
    8820:	ea00000d 	b	885c <emit_val+0xdc>
    8824:	e28d400c 	add	r4, sp, #12, 0
    8828:	e201200f 	and	r2, r1, #15, 0
    882c:	e59f0054 	ldr	r0, [pc, #84]	; 8888 <emit_val+0x108>
    8830:	e7d02002 	ldrb	r2, [r0, r2]
    8834:	e5c42000 	strb	r2, [r4]
    8838:	e2844001 	add	r4, r4, #1, 0
    883c:	e351000f 	cmp	r1, #15, 0
    8840:	e1a01221 	lsr	r1, r1, #4
    8844:	8afffff7 	bhi	8828 <emit_val+0xa8>
    8848:	ea000003 	b	885c <emit_val+0xdc>
    884c:	e59f3038 	ldr	r3, [pc, #56]	; 888c <emit_val+0x10c>
    8850:	e5933000 	ldr	r3, [r3]
    8854:	e5740001 	ldrb	r0, [r4, #-1]!
    8858:	e12fff33 	blx	r3
    885c:	e28d300c 	add	r3, sp, #12, 0
    8860:	e1540003 	cmp	r4, r3
    8864:	8afffff8 	bhi	884c <emit_val+0xcc>
    8868:	e28dd030 	add	sp, sp, #48, 0	; 0x30
    886c:	e8bd8010 	pop	{r4, pc}
    8870:	00009464 	andeq	r9, r0, r4, ror #8
    8874:	000093ac 	andeq	r9, r0, ip, lsr #7
    8878:	000093bc 			; <UNDEFINED> instruction: 0x000093bc
    887c:	000093e0 	andeq	r9, r0, r0, ror #7
    8880:	cccccccd 	stclgt	12, cr12, [ip], {205}	; 0xcd
    8884:	000093e4 	andeq	r9, r0, r4, ror #7
    8888:	000093f0 	strdeq	r9, [r0], -r0
    888c:	000094b8 			; <UNDEFINED> instruction: 0x000094b8

00008890 <vprintk>:
    8890:	e92d4030 	push	{r4, r5, lr}
    8894:	e24dd014 	sub	sp, sp, #20, 0
    8898:	e1a04000 	mov	r4, r0
    889c:	e58d100c 	str	r1, [sp, #12]
    88a0:	ea000003 	b	88b4 <vprintk+0x24>
    88a4:	e59f32b0 	ldr	r3, [pc, #688]	; 8b5c <vprintk+0x2cc>
    88a8:	e5933000 	ldr	r3, [r3]
    88ac:	e12fff33 	blx	r3
    88b0:	e2844001 	add	r4, r4, #1, 0
    88b4:	e5d40000 	ldrb	r0, [r4]
    88b8:	e3500000 	cmp	r0, #0, 0
    88bc:	0a0000a4 	beq	8b54 <vprintk+0x2c4>
    88c0:	e3500025 	cmp	r0, #37, 0	; 0x25
    88c4:	1afffff6 	bne	88a4 <vprintk+0x14>
    88c8:	e2845001 	add	r5, r4, #1, 0
    88cc:	e5d42001 	ldrb	r2, [r4, #1]
    88d0:	e2423058 	sub	r3, r2, #88, 0	; 0x58
    88d4:	e3530020 	cmp	r3, #32, 0
    88d8:	979ff103 	ldrls	pc, [pc, r3, lsl #2]
    88dc:	ea000095 	b	8b38 <vprintk+0x2a8>
    88e0:	00008a9c 	muleq	r0, ip, sl
    88e4:	00008b38 	andeq	r8, r0, r8, lsr fp
    88e8:	00008b38 	andeq	r8, r0, r8, lsr fp
    88ec:	00008b38 	andeq	r8, r0, r8, lsr fp
    88f0:	00008b38 	andeq	r8, r0, r8, lsr fp
    88f4:	00008b38 	andeq	r8, r0, r8, lsr fp
    88f8:	00008b38 	andeq	r8, r0, r8, lsr fp
    88fc:	00008b38 	andeq	r8, r0, r8, lsr fp
    8900:	00008b38 	andeq	r8, r0, r8, lsr fp
    8904:	00008b38 	andeq	r8, r0, r8, lsr fp
    8908:	00008964 	andeq	r8, r0, r4, ror #18
    890c:	000089a4 	andeq	r8, r0, r4, lsr #19
    8910:	00008abc 			; <UNDEFINED> instruction: 0x00008abc
    8914:	00008b38 	andeq	r8, r0, r8, lsr fp
    8918:	00008b38 	andeq	r8, r0, r8, lsr fp
    891c:	00008b38 	andeq	r8, r0, r8, lsr fp
    8920:	00008b38 	andeq	r8, r0, r8, lsr fp
    8924:	00008b38 	andeq	r8, r0, r8, lsr fp
    8928:	00008b38 	andeq	r8, r0, r8, lsr fp
    892c:	00008b38 	andeq	r8, r0, r8, lsr fp
    8930:	000089c8 	andeq	r8, r0, r8, asr #19
    8934:	00008b38 	andeq	r8, r0, r8, lsr fp
    8938:	00008b38 	andeq	r8, r0, r8, lsr fp
    893c:	00008b38 	andeq	r8, r0, r8, lsr fp
    8940:	00008a80 	andeq	r8, r0, r0, lsl #21
    8944:	00008b38 	andeq	r8, r0, r8, lsr fp
    8948:	00008b38 	andeq	r8, r0, r8, lsr fp
    894c:	00008b00 	andeq	r8, r0, r0, lsl #22
    8950:	00008b38 	andeq	r8, r0, r8, lsr fp
    8954:	00008984 	andeq	r8, r0, r4, lsl #19
    8958:	00008b38 	andeq	r8, r0, r8, lsr fp
    895c:	00008b38 	andeq	r8, r0, r8, lsr fp
    8960:	00008a80 	andeq	r8, r0, r0, lsl #21
    8964:	e59d300c 	ldr	r3, [sp, #12]
    8968:	e2832004 	add	r2, r3, #4, 0
    896c:	e58d200c 	str	r2, [sp, #12]
    8970:	e5931000 	ldr	r1, [r3]
    8974:	e3a00002 	mov	r0, #2, 0
    8978:	ebffff80 	bl	8780 <emit_val>
    897c:	e1a04005 	mov	r4, r5
    8980:	eaffffca 	b	88b0 <vprintk+0x20>
    8984:	e59d300c 	ldr	r3, [sp, #12]
    8988:	e2832004 	add	r2, r3, #4, 0
    898c:	e58d200c 	str	r2, [sp, #12]
    8990:	e5931000 	ldr	r1, [r3]
    8994:	e3a0000a 	mov	r0, #10, 0
    8998:	ebffff78 	bl	8780 <emit_val>
    899c:	e1a04005 	mov	r4, r5
    89a0:	eaffffc2 	b	88b0 <vprintk+0x20>
    89a4:	e59f31b0 	ldr	r3, [pc, #432]	; 8b5c <vprintk+0x2cc>
    89a8:	e5932000 	ldr	r2, [r3]
    89ac:	e59d300c 	ldr	r3, [sp, #12]
    89b0:	e2831004 	add	r1, r3, #4, 0
    89b4:	e58d100c 	str	r1, [sp, #12]
    89b8:	e5930000 	ldr	r0, [r3]
    89bc:	e12fff32 	blx	r2
    89c0:	e1a04005 	mov	r4, r5
    89c4:	eaffffb9 	b	88b0 <vprintk+0x20>
    89c8:	e2842002 	add	r2, r4, #2, 0
    89cc:	e5d43002 	ldrb	r3, [r4, #2]
    89d0:	e353006c 	cmp	r3, #108, 0	; 0x6c
    89d4:	1a000018 	bne	8a3c <vprintk+0x1ac>
    89d8:	e2845003 	add	r5, r4, #3, 0
    89dc:	e5d43003 	ldrb	r3, [r4, #3]
    89e0:	e3530078 	cmp	r3, #120, 0	; 0x78
    89e4:	1a00001b 	bne	8a58 <vprintk+0x1c8>
    89e8:	e59f416c 	ldr	r4, [pc, #364]	; 8b5c <vprintk+0x2cc>
    89ec:	e5943000 	ldr	r3, [r4]
    89f0:	e3a00030 	mov	r0, #48, 0	; 0x30
    89f4:	e12fff33 	blx	r3
    89f8:	e5943000 	ldr	r3, [r4]
    89fc:	e3a00078 	mov	r0, #120, 0	; 0x78
    8a00:	e12fff33 	blx	r3
    8a04:	e59d300c 	ldr	r3, [sp, #12]
    8a08:	e2833007 	add	r3, r3, #7, 0
    8a0c:	e3c33007 	bic	r3, r3, #7, 0
    8a10:	e2832008 	add	r2, r3, #8, 0
    8a14:	e58d200c 	str	r2, [sp, #12]
    8a18:	e5934000 	ldr	r4, [r3]
    8a1c:	e5931004 	ldr	r1, [r3, #4]
    8a20:	e3510000 	cmp	r1, #0, 0
    8a24:	1a000012 	bne	8a74 <vprintk+0x1e4>
    8a28:	e1a01004 	mov	r1, r4
    8a2c:	e3a00010 	mov	r0, #16, 0
    8a30:	ebffff52 	bl	8780 <emit_val>
    8a34:	e1a04005 	mov	r4, r5
    8a38:	eaffff9c 	b	88b0 <vprintk+0x20>
    8a3c:	e58d2000 	str	r2, [sp]
    8a40:	e3a0303b 	mov	r3, #59, 0	; 0x3b
    8a44:	e59f2114 	ldr	r2, [pc, #276]	; 8b60 <vprintk+0x2d0>
    8a48:	e59f1114 	ldr	r1, [pc, #276]	; 8b64 <vprintk+0x2d4>
    8a4c:	e59f0114 	ldr	r0, [pc, #276]	; 8b68 <vprintk+0x2d8>
    8a50:	ebffff3f 	bl	8754 <printk>
    8a54:	eb000051 	bl	8ba0 <clean_reboot>
    8a58:	e58d5000 	str	r5, [sp]
    8a5c:	e3a0303e 	mov	r3, #62, 0	; 0x3e
    8a60:	e59f20f8 	ldr	r2, [pc, #248]	; 8b60 <vprintk+0x2d0>
    8a64:	e59f10f8 	ldr	r1, [pc, #248]	; 8b64 <vprintk+0x2d4>
    8a68:	e59f00f8 	ldr	r0, [pc, #248]	; 8b68 <vprintk+0x2d8>
    8a6c:	ebffff38 	bl	8754 <printk>
    8a70:	eb00004a 	bl	8ba0 <clean_reboot>
    8a74:	e3a00010 	mov	r0, #16, 0
    8a78:	ebffff40 	bl	8780 <emit_val>
    8a7c:	eaffffe9 	b	8a28 <vprintk+0x198>
    8a80:	e59f40d4 	ldr	r4, [pc, #212]	; 8b5c <vprintk+0x2cc>
    8a84:	e5943000 	ldr	r3, [r4]
    8a88:	e3a00030 	mov	r0, #48, 0	; 0x30
    8a8c:	e12fff33 	blx	r3
    8a90:	e5943000 	ldr	r3, [r4]
    8a94:	e3a00078 	mov	r0, #120, 0	; 0x78
    8a98:	e12fff33 	blx	r3
    8a9c:	e59d300c 	ldr	r3, [sp, #12]
    8aa0:	e2832004 	add	r2, r3, #4, 0
    8aa4:	e58d200c 	str	r2, [sp, #12]
    8aa8:	e5931000 	ldr	r1, [r3]
    8aac:	e3a00010 	mov	r0, #16, 0
    8ab0:	ebffff32 	bl	8780 <emit_val>
    8ab4:	e1a04005 	mov	r4, r5
    8ab8:	eaffff7c 	b	88b0 <vprintk+0x20>
    8abc:	e59d300c 	ldr	r3, [sp, #12]
    8ac0:	e2832004 	add	r2, r3, #4, 0
    8ac4:	e58d200c 	str	r2, [sp, #12]
    8ac8:	e5934000 	ldr	r4, [r3]
    8acc:	e3540000 	cmp	r4, #0, 0
    8ad0:	ba000004 	blt	8ae8 <vprintk+0x258>
    8ad4:	e1a01004 	mov	r1, r4
    8ad8:	e3a0000a 	mov	r0, #10, 0
    8adc:	ebffff27 	bl	8780 <emit_val>
    8ae0:	e1a04005 	mov	r4, r5
    8ae4:	eaffff71 	b	88b0 <vprintk+0x20>
    8ae8:	e59f306c 	ldr	r3, [pc, #108]	; 8b5c <vprintk+0x2cc>
    8aec:	e5933000 	ldr	r3, [r3]
    8af0:	e3a0002d 	mov	r0, #45, 0	; 0x2d
    8af4:	e12fff33 	blx	r3
    8af8:	e2644000 	rsb	r4, r4, #0, 0
    8afc:	eafffff4 	b	8ad4 <vprintk+0x244>
    8b00:	e59d300c 	ldr	r3, [sp, #12]
    8b04:	e2832004 	add	r2, r3, #4, 0
    8b08:	e58d200c 	str	r2, [sp, #12]
    8b0c:	e5934000 	ldr	r4, [r3]
    8b10:	e5d40000 	ldrb	r0, [r4]
    8b14:	e3500000 	cmp	r0, #0, 0
    8b18:	0a000004 	beq	8b30 <vprintk+0x2a0>
    8b1c:	e59f3038 	ldr	r3, [pc, #56]	; 8b5c <vprintk+0x2cc>
    8b20:	e5933000 	ldr	r3, [r3]
    8b24:	e12fff33 	blx	r3
    8b28:	e2844001 	add	r4, r4, #1, 0
    8b2c:	eafffff7 	b	8b10 <vprintk+0x280>
    8b30:	e1a04005 	mov	r4, r5
    8b34:	eaffff5d 	b	88b0 <vprintk+0x20>
    8b38:	e58d2000 	str	r2, [sp]
    8b3c:	e3a03063 	mov	r3, #99, 0	; 0x63
    8b40:	e59f2018 	ldr	r2, [pc, #24]	; 8b60 <vprintk+0x2d0>
    8b44:	e59f1018 	ldr	r1, [pc, #24]	; 8b64 <vprintk+0x2d4>
    8b48:	e59f001c 	ldr	r0, [pc, #28]	; 8b6c <vprintk+0x2dc>
    8b4c:	ebffff00 	bl	8754 <printk>
    8b50:	eb000012 	bl	8ba0 <clean_reboot>
    8b54:	e28dd014 	add	sp, sp, #20, 0
    8b58:	e8bd8030 	pop	{r4, r5, pc}
    8b5c:	000094b8 			; <UNDEFINED> instruction: 0x000094b8
    8b60:	00009470 	andeq	r9, r0, r0, ror r4
    8b64:	000093ac 	andeq	r9, r0, ip, lsr #7
    8b68:	00009404 	andeq	r9, r0, r4, lsl #8
    8b6c:	0000943c 	andeq	r9, r0, ip, lsr r4

00008b70 <default_putchar>:
    8b70:	e92d4010 	push	{r4, lr}
    8b74:	e1a04000 	mov	r4, r0
    8b78:	e6ef0070 	uxtb	r0, r0
    8b7c:	eb000089 	bl	8da8 <uart_put8>
    8b80:	e1a00004 	mov	r0, r4
    8b84:	e8bd8010 	pop	{r4, pc}

00008b88 <rpi_putchar_set>:
    8b88:	e59f300c 	ldr	r3, [pc, #12]	; 8b9c <rpi_putchar_set+0x14>
    8b8c:	e5932000 	ldr	r2, [r3]
    8b90:	e5830000 	str	r0, [r3]
    8b94:	e1a00002 	mov	r0, r2
    8b98:	e12fff1e 	bx	lr
    8b9c:	000094b8 			; <UNDEFINED> instruction: 0x000094b8

00008ba0 <clean_reboot>:
    8ba0:	e92d4010 	push	{r4, lr}
    8ba4:	e59f0010 	ldr	r0, [pc, #16]	; 8bbc <clean_reboot+0x1c>
    8ba8:	eb00012e 	bl	9068 <putk>
    8bac:	eb0000b3 	bl	8e80 <uart_flush_tx>
    8bb0:	e3a0000a 	mov	r0, #10, 0
    8bb4:	eb000036 	bl	8c94 <delay_ms>
    8bb8:	eb000011 	bl	8c04 <rpi_reboot>
    8bbc:	00009478 	andeq	r9, r0, r8, ror r4

00008bc0 <program_end>:
    8bc0:	e59f0000 	ldr	r0, [pc]	; 8bc8 <program_end+0x8>
    8bc4:	e12fff1e 	bx	lr
    8bc8:	000094c8 	andeq	r9, r0, r8, asr #9

00008bcc <_cstart>:
    8bcc:	e92d4010 	push	{r4, lr}
    8bd0:	e59f3024 	ldr	r3, [pc, #36]	; 8bfc <_cstart+0x30>
    8bd4:	e59f2024 	ldr	r2, [pc, #36]	; 8c00 <_cstart+0x34>
    8bd8:	e1530002 	cmp	r3, r2
    8bdc:	33a02000 	movcc	r2, #0, 0
    8be0:	34c32001 	strbcc	r2, [r3], #1
    8be4:	3afffffa 	bcc	8bd4 <_cstart+0x8>
    8be8:	eb000035 	bl	8cc4 <uart_init>
    8bec:	e3a03001 	mov	r3, #1, 0
    8bf0:	ee0f3f1c 	mcr	15, 0, r3, cr15, cr12, {0}
    8bf4:	ebfffda2 	bl	8284 <notmain>
    8bf8:	ebffffe8 	bl	8ba0 <clean_reboot>
    8bfc:	000094bc 			; <UNDEFINED> instruction: 0x000094bc
    8c00:	000094c8 	andeq	r9, r0, r8, asr #9

00008c04 <rpi_reboot>:
    8c04:	e92d4010 	push	{r4, lr}
    8c08:	eb00009c 	bl	8e80 <uart_flush_tx>
    8c0c:	e3a0000a 	mov	r0, #10, 0
    8c10:	eb00001f 	bl	8c94 <delay_ms>
    8c14:	e59f1014 	ldr	r1, [pc, #20]	; 8c30 <rpi_reboot+0x2c>
    8c18:	e59f0014 	ldr	r0, [pc, #20]	; 8c34 <rpi_reboot+0x30>
    8c1c:	ebfffd00 	bl	8024 <PUT32>
    8c20:	e59f1010 	ldr	r1, [pc, #16]	; 8c38 <rpi_reboot+0x34>
    8c24:	e59f0010 	ldr	r0, [pc, #16]	; 8c3c <rpi_reboot+0x38>
    8c28:	ebfffcfd 	bl	8024 <PUT32>
    8c2c:	eafffffe 	b	8c2c <rpi_reboot+0x28>
    8c30:	5a000001 	bpl	8c3c <rpi_reboot+0x38>
    8c34:	20100024 	andscs	r0, r0, r4, lsr #32
    8c38:	5a000020 	bpl	8cc0 <delay_sec+0x14>
    8c3c:	2010001c 	andscs	r0, r0, ip, lsl r0

00008c40 <timer_get_usec_raw>:
    8c40:	e92d4010 	push	{r4, lr}
    8c44:	e59f0004 	ldr	r0, [pc, #4]	; 8c50 <timer_get_usec_raw+0x10>
    8c48:	ebfffcf7 	bl	802c <GET32>
    8c4c:	e8bd8010 	pop	{r4, pc}
    8c50:	20003004 	andcs	r3, r0, r4

00008c54 <timer_get_usec>:
    8c54:	e92d4010 	push	{r4, lr}
    8c58:	eb00010f 	bl	909c <dev_barrier>
    8c5c:	ebfffff7 	bl	8c40 <timer_get_usec_raw>
    8c60:	e1a04000 	mov	r4, r0
    8c64:	eb00010c 	bl	909c <dev_barrier>
    8c68:	e1a00004 	mov	r0, r4
    8c6c:	e8bd8010 	pop	{r4, pc}

00008c70 <delay_us>:
    8c70:	e92d4070 	push	{r4, r5, r6, lr}
    8c74:	e1a05000 	mov	r5, r0
    8c78:	ebfffff5 	bl	8c54 <timer_get_usec>
    8c7c:	e1a04000 	mov	r4, r0
    8c80:	ebfffff3 	bl	8c54 <timer_get_usec>
    8c84:	e0400004 	sub	r0, r0, r4
    8c88:	e1500005 	cmp	r0, r5
    8c8c:	3afffffb 	bcc	8c80 <delay_us+0x10>
    8c90:	e8bd8070 	pop	{r4, r5, r6, pc}

00008c94 <delay_ms>:
    8c94:	e92d4010 	push	{r4, lr}
    8c98:	e0603280 	rsb	r3, r0, r0, lsl #5
    8c9c:	e0800103 	add	r0, r0, r3, lsl #2
    8ca0:	e1a00180 	lsl	r0, r0, #3
    8ca4:	ebfffff1 	bl	8c70 <delay_us>
    8ca8:	e8bd8010 	pop	{r4, pc}

00008cac <delay_sec>:
    8cac:	e92d4010 	push	{r4, lr}
    8cb0:	e0603280 	rsb	r3, r0, r0, lsl #5
    8cb4:	e0800103 	add	r0, r0, r3, lsl #2
    8cb8:	e1a00180 	lsl	r0, r0, #3
    8cbc:	ebfffff4 	bl	8c94 <delay_ms>
    8cc0:	e8bd8010 	pop	{r4, pc}

00008cc4 <uart_init>:
    8cc4:	e92d4010 	push	{r4, lr}
    8cc8:	eb0000f3 	bl	909c <dev_barrier>
    8ccc:	e3a01002 	mov	r1, #2, 0
    8cd0:	e3a0000e 	mov	r0, #14, 0
    8cd4:	eb0000bb 	bl	8fc8 <gpio_set_function>
    8cd8:	e3a01002 	mov	r1, #2, 0
    8cdc:	e3a0000f 	mov	r0, #15, 0
    8ce0:	eb0000b8 	bl	8fc8 <gpio_set_function>
    8ce4:	eb0000ec 	bl	909c <dev_barrier>
    8ce8:	e59f4074 	ldr	r4, [pc, #116]	; 8d64 <uart_init+0xa0>
    8cec:	e1a00004 	mov	r0, r4
    8cf0:	ebfffccd 	bl	802c <GET32>
    8cf4:	e3801001 	orr	r1, r0, #1, 0
    8cf8:	e1a00004 	mov	r0, r4
    8cfc:	ebfffcc8 	bl	8024 <PUT32>
    8d00:	eb0000e5 	bl	909c <dev_barrier>
    8d04:	e284405c 	add	r4, r4, #92, 0	; 0x5c
    8d08:	e3a01000 	mov	r1, #0, 0
    8d0c:	e1a00004 	mov	r0, r4
    8d10:	ebfffcc3 	bl	8024 <PUT32>
    8d14:	e3a01000 	mov	r1, #0, 0
    8d18:	e59f0048 	ldr	r0, [pc, #72]	; 8d68 <uart_init+0xa4>
    8d1c:	ebfffcc0 	bl	8024 <PUT32>
    8d20:	e3a01006 	mov	r1, #6, 0
    8d24:	e59f0040 	ldr	r0, [pc, #64]	; 8d6c <uart_init+0xa8>
    8d28:	ebfffcbd 	bl	8024 <PUT32>
    8d2c:	e3a01003 	mov	r1, #3, 0
    8d30:	e59f0038 	ldr	r0, [pc, #56]	; 8d70 <uart_init+0xac>
    8d34:	ebfffcba 	bl	8024 <PUT32>
    8d38:	e3a01000 	mov	r1, #0, 0
    8d3c:	e59f0030 	ldr	r0, [pc, #48]	; 8d74 <uart_init+0xb0>
    8d40:	ebfffcb7 	bl	8024 <PUT32>
    8d44:	e59f102c 	ldr	r1, [pc, #44]	; 8d78 <uart_init+0xb4>
    8d48:	e59f002c 	ldr	r0, [pc, #44]	; 8d7c <uart_init+0xb8>
    8d4c:	ebfffcb4 	bl	8024 <PUT32>
    8d50:	e3a01003 	mov	r1, #3, 0
    8d54:	e1a00004 	mov	r0, r4
    8d58:	ebfffcb1 	bl	8024 <PUT32>
    8d5c:	eb0000ce 	bl	909c <dev_barrier>
    8d60:	e8bd8010 	pop	{r4, pc}
    8d64:	20215004 	eorcs	r5, r1, r4
    8d68:	20215044 	eorcs	r5, r1, r4, asr #32
    8d6c:	20215048 	eorcs	r5, r1, r8, asr #32
    8d70:	2021504c 	eorcs	r5, r1, ip, asr #32
    8d74:	20215050 	eorcs	r5, r1, r0, asr r0
    8d78:	0000010e 	andeq	r0, r0, lr, lsl #2
    8d7c:	20215068 	eorcs	r5, r1, r8, rrx

00008d80 <uart_can_put8>:
    8d80:	e92d4010 	push	{r4, lr}
    8d84:	e59f0018 	ldr	r0, [pc, #24]	; 8da4 <uart_can_put8+0x24>
    8d88:	ebfffca7 	bl	802c <GET32>
    8d8c:	e3100020 	tst	r0, #32, 0
    8d90:	1a000001 	bne	8d9c <uart_can_put8+0x1c>
    8d94:	e3a00000 	mov	r0, #0, 0
    8d98:	e8bd8010 	pop	{r4, pc}
    8d9c:	e3a00001 	mov	r0, #1, 0
    8da0:	e8bd8010 	pop	{r4, pc}
    8da4:	20215054 	eorcs	r5, r1, r4, asr r0

00008da8 <uart_put8>:
    8da8:	e92d4010 	push	{r4, lr}
    8dac:	e1a04000 	mov	r4, r0
    8db0:	eb0000b9 	bl	909c <dev_barrier>
    8db4:	ebfffff1 	bl	8d80 <uart_can_put8>
    8db8:	e3500000 	cmp	r0, #0, 0
    8dbc:	0afffffc 	beq	8db4 <uart_put8+0xc>
    8dc0:	e1a01004 	mov	r1, r4
    8dc4:	e59f000c 	ldr	r0, [pc, #12]	; 8dd8 <uart_put8+0x30>
    8dc8:	ebfffc95 	bl	8024 <PUT32>
    8dcc:	eb0000b2 	bl	909c <dev_barrier>
    8dd0:	e3a00001 	mov	r0, #1, 0
    8dd4:	e8bd8010 	pop	{r4, pc}
    8dd8:	20215040 	eorcs	r5, r1, r0, asr #32

00008ddc <uart_has_data>:
    8ddc:	e92d4010 	push	{r4, lr}
    8de0:	e59f0008 	ldr	r0, [pc, #8]	; 8df0 <uart_has_data+0x14>
    8de4:	ebfffc90 	bl	802c <GET32>
    8de8:	e2000001 	and	r0, r0, #1, 0
    8dec:	e8bd8010 	pop	{r4, pc}
    8df0:	20215054 	eorcs	r5, r1, r4, asr r0

00008df4 <uart_get8>:
    8df4:	e92d4010 	push	{r4, lr}
    8df8:	eb0000a7 	bl	909c <dev_barrier>
    8dfc:	ebfffff6 	bl	8ddc <uart_has_data>
    8e00:	e3500000 	cmp	r0, #0, 0
    8e04:	0afffffc 	beq	8dfc <uart_get8+0x8>
    8e08:	e59f0010 	ldr	r0, [pc, #16]	; 8e20 <uart_get8+0x2c>
    8e0c:	ebfffc86 	bl	802c <GET32>
    8e10:	e1a04000 	mov	r4, r0
    8e14:	eb0000a0 	bl	909c <dev_barrier>
    8e18:	e6ef0074 	uxtb	r0, r4
    8e1c:	e8bd8010 	pop	{r4, pc}
    8e20:	20215040 	eorcs	r5, r1, r0, asr #32

00008e24 <uart_get8_async>:
    8e24:	e92d4010 	push	{r4, lr}
    8e28:	ebffffeb 	bl	8ddc <uart_has_data>
    8e2c:	e3500000 	cmp	r0, #0, 0
    8e30:	0a000001 	beq	8e3c <uart_get8_async+0x18>
    8e34:	ebffffee 	bl	8df4 <uart_get8>
    8e38:	e8bd8010 	pop	{r4, pc}
    8e3c:	e3e00000 	mvn	r0, #0, 0
    8e40:	e8bd8010 	pop	{r4, pc}

00008e44 <uart_tx_is_empty>:
    8e44:	e92d4010 	push	{r4, lr}
    8e48:	eb000093 	bl	909c <dev_barrier>
    8e4c:	e59f0028 	ldr	r0, [pc, #40]	; 8e7c <uart_tx_is_empty+0x38>
    8e50:	ebfffc75 	bl	802c <GET32>
    8e54:	e1a002a0 	lsr	r0, r0, #5
    8e58:	e2000003 	and	r0, r0, #3, 0
    8e5c:	e3500003 	cmp	r0, #3, 0
    8e60:	0a000002 	beq	8e70 <uart_tx_is_empty+0x2c>
    8e64:	eb00008c 	bl	909c <dev_barrier>
    8e68:	e3a00000 	mov	r0, #0, 0
    8e6c:	e8bd8010 	pop	{r4, pc}
    8e70:	eb000089 	bl	909c <dev_barrier>
    8e74:	e3a00001 	mov	r0, #1, 0
    8e78:	e8bd8010 	pop	{r4, pc}
    8e7c:	20215054 	eorcs	r5, r1, r4, asr r0

00008e80 <uart_flush_tx>:
    8e80:	e92d4010 	push	{r4, lr}
    8e84:	ebffffee 	bl	8e44 <uart_tx_is_empty>
    8e88:	e3500000 	cmp	r0, #0, 0
    8e8c:	18bd8010 	popne	{r4, pc}
    8e90:	eb000087 	bl	90b4 <rpi_wait>
    8e94:	eafffffa 	b	8e84 <uart_flush_tx+0x4>

00008e98 <uart_disable>:
    8e98:	e92d4010 	push	{r4, lr}
    8e9c:	eb00007e 	bl	909c <dev_barrier>
    8ea0:	ebfffff6 	bl	8e80 <uart_flush_tx>
    8ea4:	e3a01000 	mov	r1, #0, 0
    8ea8:	e59f0024 	ldr	r0, [pc, #36]	; 8ed4 <uart_disable+0x3c>
    8eac:	ebfffc5c 	bl	8024 <PUT32>
    8eb0:	eb000079 	bl	909c <dev_barrier>
    8eb4:	e59f401c 	ldr	r4, [pc, #28]	; 8ed8 <uart_disable+0x40>
    8eb8:	e1a00004 	mov	r0, r4
    8ebc:	ebfffc5a 	bl	802c <GET32>
    8ec0:	e3c01001 	bic	r1, r0, #1, 0
    8ec4:	e1a00004 	mov	r0, r4
    8ec8:	ebfffc55 	bl	8024 <PUT32>
    8ecc:	eb000072 	bl	909c <dev_barrier>
    8ed0:	e8bd8010 	pop	{r4, pc}
    8ed4:	20215060 	eorcs	r5, r1, r0, rrx
    8ed8:	20215004 	eorcs	r5, r1, r4

00008edc <gpio_panic>:
    8edc:	e92d000f 	push	{r0, r1, r2, r3}
    8ee0:	eafffffe 	b	8ee0 <gpio_panic+0x4>

00008ee4 <gpio_set_on>:
    8ee4:	e92d4010 	push	{r4, lr}
    8ee8:	e3500035 	cmp	r0, #53, 0	; 0x35
    8eec:	8a000007 	bhi	8f10 <gpio_set_on+0x2c>
    8ef0:	e59f3024 	ldr	r3, [pc, #36]	; 8f1c <gpio_set_on+0x38>
    8ef4:	e08332a0 	add	r3, r3, r0, lsr #5
    8ef8:	e200101f 	and	r1, r0, #31, 0
    8efc:	e3a02001 	mov	r2, #1, 0
    8f00:	e1a01112 	lsl	r1, r2, r1
    8f04:	e1a00103 	lsl	r0, r3, #2
    8f08:	ebfffc45 	bl	8024 <PUT32>
    8f0c:	e8bd8010 	pop	{r4, pc}
    8f10:	e1a01000 	mov	r1, r0
    8f14:	e59f0004 	ldr	r0, [pc, #4]	; 8f20 <gpio_set_on+0x3c>
    8f18:	ebffffef 	bl	8edc <gpio_panic>
    8f1c:	08080007 	stmdaeq	r8, {r0, r1, r2}
    8f20:	00009484 	andeq	r9, r0, r4, lsl #9

00008f24 <gpio_set_off>:
    8f24:	e92d4010 	push	{r4, lr}
    8f28:	e3500035 	cmp	r0, #53, 0	; 0x35
    8f2c:	8a000007 	bhi	8f50 <gpio_set_off+0x2c>
    8f30:	e59f3024 	ldr	r3, [pc, #36]	; 8f5c <gpio_set_off+0x38>
    8f34:	e08332a0 	add	r3, r3, r0, lsr #5
    8f38:	e200101f 	and	r1, r0, #31, 0
    8f3c:	e3a02001 	mov	r2, #1, 0
    8f40:	e1a01112 	lsl	r1, r2, r1
    8f44:	e1a00103 	lsl	r0, r3, #2
    8f48:	ebfffc35 	bl	8024 <PUT32>
    8f4c:	e8bd8010 	pop	{r4, pc}
    8f50:	e1a01000 	mov	r1, r0
    8f54:	e59f0004 	ldr	r0, [pc, #4]	; 8f60 <gpio_set_off+0x3c>
    8f58:	ebffffdf 	bl	8edc <gpio_panic>
    8f5c:	0808000a 	stmdaeq	r8, {r1, r3}
    8f60:	00009484 	andeq	r9, r0, r4, lsl #9

00008f64 <gpio_write>:
    8f64:	e92d4010 	push	{r4, lr}
    8f68:	e3510000 	cmp	r1, #0, 0
    8f6c:	0a000001 	beq	8f78 <gpio_write+0x14>
    8f70:	ebffffdb 	bl	8ee4 <gpio_set_on>
    8f74:	e8bd8010 	pop	{r4, pc}
    8f78:	ebffffe9 	bl	8f24 <gpio_set_off>
    8f7c:	e8bd8010 	pop	{r4, pc}

00008f80 <gpio_read>:
    8f80:	e92d4010 	push	{r4, lr}
    8f84:	e1a04000 	mov	r4, r0
    8f88:	e3500035 	cmp	r0, #53, 0	; 0x35
    8f8c:	8a000008 	bhi	8fb4 <gpio_read+0x34>
    8f90:	e59f0028 	ldr	r0, [pc, #40]	; 8fc0 <gpio_read+0x40>
    8f94:	e08002a4 	add	r0, r0, r4, lsr #5
    8f98:	e1a00100 	lsl	r0, r0, #2
    8f9c:	ebfffc22 	bl	802c <GET32>
    8fa0:	e204301f 	and	r3, r4, #31, 0
    8fa4:	e3a02001 	mov	r2, #1, 0
    8fa8:	e0000412 	and	r0, r0, r2, lsl r4
    8fac:	e1a00330 	lsr	r0, r0, r3
    8fb0:	e8bd8010 	pop	{r4, pc}
    8fb4:	e1a01000 	mov	r1, r0
    8fb8:	e59f0004 	ldr	r0, [pc, #4]	; 8fc4 <gpio_read+0x44>
    8fbc:	ebffffc6 	bl	8edc <gpio_panic>
    8fc0:	0808000d 	stmdaeq	r8, {r0, r2, r3}
    8fc4:	00009484 	andeq	r9, r0, r4, lsl #9

00008fc8 <gpio_set_function>:
    8fc8:	e92d41f0 	push	{r4, r5, r6, r7, r8, lr}
    8fcc:	e1a04000 	mov	r4, r0
    8fd0:	e3500035 	cmp	r0, #53, 0	; 0x35
    8fd4:	8a000013 	bhi	9028 <gpio_set_function+0x60>
    8fd8:	e1a06001 	mov	r6, r1
    8fdc:	e3d13007 	bics	r3, r1, #7, 0
    8fe0:	1a000013 	bne	9034 <gpio_set_function+0x6c>
    8fe4:	e59f5050 	ldr	r5, [pc, #80]	; 903c <gpio_set_function+0x74>
    8fe8:	e0853095 	umull	r3, r5, r5, r0
    8fec:	e1a051a5 	lsr	r5, r5, #3
    8ff0:	e2857302 	add	r7, r5, #134217728	; 0x8000000
    8ff4:	e2877702 	add	r7, r7, #524288	; 0x80000
    8ff8:	e1a07107 	lsl	r7, r7, #2
    8ffc:	e1a00007 	mov	r0, r7
    9000:	ebfffc09 	bl	802c <GET32>
    9004:	e0855105 	add	r5, r5, r5, lsl #2
    9008:	e0444085 	sub	r4, r4, r5, lsl #1
    900c:	e0844084 	add	r4, r4, r4, lsl #1
    9010:	e3a01007 	mov	r1, #7, 0
    9014:	e1c01411 	bic	r1, r0, r1, lsl r4
    9018:	e1811416 	orr	r1, r1, r6, lsl r4
    901c:	e1a00007 	mov	r0, r7
    9020:	ebfffbff 	bl	8024 <PUT32>
    9024:	e8bd81f0 	pop	{r4, r5, r6, r7, r8, pc}
    9028:	e1a01000 	mov	r1, r0
    902c:	e59f000c 	ldr	r0, [pc, #12]	; 9040 <gpio_set_function+0x78>
    9030:	ebffffa9 	bl	8edc <gpio_panic>
    9034:	e59f0008 	ldr	r0, [pc, #8]	; 9044 <gpio_set_function+0x7c>
    9038:	ebffffa7 	bl	8edc <gpio_panic>
    903c:	cccccccd 	stclgt	12, cr12, [ip], {205}	; 0xcd
    9040:	00009484 	andeq	r9, r0, r4, lsl #9
    9044:	00009494 	muleq	r0, r4, r4

00009048 <gpio_set_input>:
    9048:	e92d4010 	push	{r4, lr}
    904c:	e3a01000 	mov	r1, #0, 0
    9050:	ebffffdc 	bl	8fc8 <gpio_set_function>
    9054:	e8bd8010 	pop	{r4, pc}

00009058 <gpio_set_output>:
    9058:	e92d4010 	push	{r4, lr}
    905c:	e3a01001 	mov	r1, #1, 0
    9060:	ebffffd8 	bl	8fc8 <gpio_set_function>
    9064:	e8bd8010 	pop	{r4, pc}

00009068 <putk>:
    9068:	e92d4010 	push	{r4, lr}
    906c:	e1a04000 	mov	r4, r0
    9070:	e5d40000 	ldrb	r0, [r4]
    9074:	e3500000 	cmp	r0, #0, 0
    9078:	0a000004 	beq	9090 <putk+0x28>
    907c:	e59f3014 	ldr	r3, [pc, #20]	; 9098 <putk+0x30>
    9080:	e5933000 	ldr	r3, [r3]
    9084:	e12fff33 	blx	r3
    9088:	e2844001 	add	r4, r4, #1, 0
    908c:	eafffff7 	b	9070 <putk+0x8>
    9090:	e3a00001 	mov	r0, #1, 0
    9094:	e8bd8010 	pop	{r4, pc}
    9098:	000094b8 			; <UNDEFINED> instruction: 0x000094b8

0000909c <dev_barrier>:
    909c:	ea000002 	b	90ac <dsb>

000090a0 <dmb>:
    90a0:	e3a00000 	mov	r0, #0, 0
    90a4:	ee070fba 	mcr	15, 0, r0, cr7, cr10, {5}
    90a8:	e12fff1e 	bx	lr

000090ac <dsb>:
    90ac:	ee070f9a 	mcr	15, 0, r0, cr7, cr10, {4}
    90b0:	e12fff1e 	bx	lr

000090b4 <rpi_wait>:
    90b4:	e12fff1e 	bx	lr

Disassembly of section .rodata:

000090b8 <__FUNCTION__.4-0x2ac>:
    90b8:	59414c50 	stmdbpl	r1, {r4, r6, sl, fp, lr}^
    90bc:	00005245 	andeq	r5, r0, r5, asr #4
    90c0:	00726961 	rsbseq	r6, r2, r1, ror #18
    90c4:	434f4c42 	movtmi	r4, #64578	; 0xfc42
    90c8:	0000004b 	andeq	r0, r0, fp, asr #32
    90cc:	6e6f7473 	mcrvs	4, 3, r7, cr15, cr3, {3}
    90d0:	00000065 	andeq	r0, r0, r5, rrx
    90d4:	66617473 			; <UNDEFINED> instruction: 0x66617473
    90d8:	6d6b2d66 	stclvs	13, cr2, [fp, #-408]!	; 0xfffffe68
    90dc:	6f6c6c61 	svcvs	0x006c6c61
    90e0:	00632e63 	rsbeq	r2, r3, r3, ror #28
    90e4:	494e4150 	stmdbmi	lr, {r4, r6, r8, lr}^
    90e8:	73253a43 			; <UNDEFINED> instruction: 0x73253a43
    90ec:	3a73253a 	bcc	1cd25dc <__bss_end__+0x1cc9114>
    90f0:	613a6425 	teqvs	sl, r5, lsr #8
    90f4:	636f6c6c 	cmnvs	pc, #108, 24	; 0x6c00
    90f8:	6e697461 	cdpvs	4, 6, cr7, cr9, cr1, {3}
    90fc:	6f742067 	svcvs	0x00742067
    9100:	616d206f 	cmnvs	sp, pc, rrx
    9104:	6220796e 	eorvs	r7, r0, #1802240	; 0x1b8000
    9108:	73657479 	cmnvc	r5, #2030043136	; 0x79000000
    910c:	6425203a 	strtvs	r2, [r5], #-58	; 0xffffffc6
    9110:	00000a0a 	andeq	r0, r0, sl, lsl #20
    9114:	494e4150 	stmdbmi	lr, {r4, r6, r8, lr}^
    9118:	73253a43 			; <UNDEFINED> instruction: 0x73253a43
    911c:	3a73253a 	bcc	1cd260c <__bss_end__+0x1cc9144>
    9120:	613a6425 	teqvs	sl, r5, lsr #8
    9124:	65726464 	ldrbvs	r6, [r2, #-1124]!	; 0xfffffb9c
    9128:	69207373 	stmdbvs	r0!, {r0, r1, r4, r5, r6, r8, r9, ip, sp, lr}
    912c:	6f742073 	svcvs	0x00742073
    9130:	6d73206f 	ldclvs	0, cr2, [r3, #-444]!	; 0xfffffe44
    9134:	0a6c6c61 	beq	1b242c0 <__bss_end__+0x1b1adf8>
    9138:	0000000a 	andeq	r0, r0, sl
    913c:	253a7325 	ldrcs	r7, [sl, #-805]!	; 0xfffffcdb
    9140:	64253a73 	strtvs	r3, [r5], #-2675	; 0xfffff58d
    9144:	4245443a 	submi	r4, r5, #973078528	; 0x3a000000
    9148:	453a4755 	ldrmi	r4, [sl, #-1877]!	; 0xfffff8ab
    914c:	524f5252 	subpl	r5, pc, #536870917	; 0x20000005
    9150:	7341203a 	movtvc	r2, #4154	; 0x103a
    9154:	74726573 	ldrbtvc	r6, [r2], #-1395	; 0xfffffa8d
    9158:	206e6f69 	rsbcs	r6, lr, r9, ror #30
    915c:	60732560 	rsbsvs	r2, r3, r0, ror #10
    9160:	69616620 	stmdbvs	r1!, {r5, r9, sl, sp, lr}^
    9164:	2e64656c 	cdpcs	5, 6, cr6, cr4, cr12, {3}
    9168:	0000000a 	andeq	r0, r0, sl
    916c:	5f78616d 	svcpl	0x0078616d
    9170:	7479626e 	ldrbtvc	r6, [r9], #-622	; 0xfffffd92
    9174:	00007365 	andeq	r7, r0, r5, ror #6
    9178:	494e4150 	stmdbmi	lr, {r4, r6, r8, lr}^
    917c:	73253a43 			; <UNDEFINED> instruction: 0x73253a43
    9180:	3a73253a 	bcc	1cd2670 <__bss_end__+0x1cc91a8>
    9184:	643a6425 	ldrtvs	r6, [sl], #-1061	; 0xfffffbdb
    9188:	65676e61 	strbvs	r6, [r7, #-3681]!	; 0xfffff19f
    918c:	73756f72 	cmnvc	r5, #456	; 0x1c8
    9190:	7263203a 	rsbvc	r2, r3, #58, 0	; 0x3a
    9194:	69746165 	ldmdbvs	r4!, {r0, r2, r5, r6, r8, sp, lr}^
    9198:	6820676e 	stmdavs	r0!, {r1, r2, r3, r5, r6, r8, r9, sl, sp, lr}
    919c:	20706165 	rsbscs	r6, r0, r5, ror #2
    91a0:	74616874 	strbtvc	r6, [r1], #-2164	; 0xfffff78c
    91a4:	756f6320 	strbvc	r6, [pc, #-800]!	; 8e8c <uart_flush_tx+0xc>
    91a8:	6f20646c 	svcvs	0x0020646c
    91ac:	77726576 			; <UNDEFINED> instruction: 0x77726576
    91b0:	65746972 	ldrbvs	r6, [r4, #-2418]!	; 0xfffff68e
    91b4:	65727020 	ldrbvs	r7, [r2, #-32]!	; 0xffffffe0
    91b8:	6978652d 	ldmdbvs	r8!, {r0, r2, r3, r5, r8, sl, sp, lr}^
    91bc:	6e697473 	mcrvs	4, 3, r7, cr9, cr3, {3}
    91c0:	68203a67 	stmdavs	r0!, {r0, r1, r2, r5, r6, r9, fp, ip, sp}
    91c4:	5f706165 	svcpl	0x00706165
    91c8:	72617473 	rsbvc	r7, r1, #1929379840	; 0x73000000
    91cc:	78253d74 	stmdavc	r5!, {r2, r4, r5, r6, r8, sl, fp, ip, sp}
    91d0:	656e202c 	strbvs	r2, [lr, #-44]!	; 0xffffffd4
    91d4:	65682077 	strbvs	r2, [r8, #-119]!	; 0xffffff89
    91d8:	253d7061 	ldrcs	r7, [sp, #-97]!	; 0xffffff9f
    91dc:	000a0a78 	andeq	r0, sl, r8, ror sl
    91e0:	494e4150 	stmdbmi	lr, {r4, r6, r8, lr}^
    91e4:	73253a43 			; <UNDEFINED> instruction: 0x73253a43
    91e8:	3a73253a 	bcc	1cd26d8 <__bss_end__+0x1cc9210>
    91ec:	733a6425 	teqvc	sl, #620756992	; 0x25000000
    91f0:	69747465 	ldmdbvs	r4!, {r0, r2, r5, r6, sl, ip, sp, lr}^
    91f4:	6820676e 	stmdavs	r0!, {r1, r2, r3, r5, r6, r8, r9, sl, sp, lr}
    91f8:	20706165 	rsbscs	r6, r0, r5, ror #2
    91fc:	25206f74 	strcs	r6, [r0, #-3956]!	; 0xfffff08c
    9200:	77203a70 			; <UNDEFINED> instruction: 0x77203a70
    9204:	206c6c69 	rsbcs	r6, ip, r9, ror #24
    9208:	20746968 	rsbscs	r6, r4, r8, ror #18
    920c:	20656874 	rsbcs	r6, r5, r4, ror r8
    9210:	20646c6f 	rsbcs	r6, r4, pc, ror #24
    9214:	70616568 	rsbvc	r6, r1, r8, ror #10
    9218:	20746120 	rsbscs	r6, r4, r0, lsr #2
    921c:	0a0a7025 	beq	2a52b8 <__bss_end__+0x29bdf0>
    9220:	00000000 	andeq	r0, r0, r0
    9224:	736e7528 	cmnvc	lr, #40, 10	; 0xa000000
    9228:	656e6769 	strbvs	r6, [lr, #-1897]!	; 0xfffff897
    922c:	65682964 	strbvs	r2, [r8, #-2404]!	; 0xfffff69c
    9230:	38257061 	stmdacc	r5!, {r0, r5, r6, ip, sp, lr}
    9234:	203d3d20 	eorscs	r3, sp, r0, lsr #26
    9238:	00000030 	andeq	r0, r0, r0, lsr r0
    923c:	494e4150 	stmdbmi	lr, {r4, r6, r8, lr}^
    9240:	73253a43 			; <UNDEFINED> instruction: 0x73253a43
    9244:	3a73253a 	bcc	1cd2734 <__bss_end__+0x1cc926c>
    9248:	643a6425 	ldrtvs	r6, [sl], #-1061	; 0xfffffbdb
    924c:	6e206469 	cdpvs	4, 2, cr6, cr0, cr9, {3}
    9250:	6920746f 	stmdbvs	r0!, {r0, r1, r2, r3, r5, r6, sl, ip, sp, lr}
    9254:	6974696e 	ldmdbvs	r4!, {r1, r2, r3, r5, r6, r8, fp, sp, lr}^
    9258:	7a696c61 	bvc	1a643e4 <__bss_end__+0x1a5af1c>
    925c:	6d6b2065 	stclvs	0, cr2, [fp, #-404]!	; 0xfffffe6c
    9260:	6f6c6c61 	svcvs	0x006c6c61
    9264:	000a0a63 	andeq	r0, sl, r3, ror #20
    9268:	494e4150 	stmdbmi	lr, {r4, r6, r8, lr}^
    926c:	73253a43 			; <UNDEFINED> instruction: 0x73253a43
    9270:	3a73253a 	bcc	1cd2760 <__bss_end__+0x1cc9298>
    9274:	253a6425 	ldrcs	r6, [sl, #-1061]!	; 0xfffffbdb
    9278:	626e2064 	rsbvs	r2, lr, #100, 0	; 0x64
    927c:	20657479 	rsbcs	r7, r5, r9, ror r4
    9280:	6f6c6c61 	svcvs	0x006c6c61
    9284:	69746163 	ldmdbvs	r4!, {r0, r1, r5, r6, r8, sp, lr}^
    9288:	65206e6f 	strvs	r6, [r0, #-3695]!	; 0xfffff191
    928c:	65656378 	strbvs	r6, [r5, #-888]!	; 0xfffffc88
    9290:	20646564 	rsbcs	r6, r4, r4, ror #10
    9294:	657a6973 	ldrbvs	r6, [sl, #-2419]!	; 0xfffff68d
    9298:	20666f20 	rsbcs	r6, r6, r0, lsr #30
    929c:	70616568 	rsbvc	r6, r1, r8, ror #10
    92a0:	20796220 	rsbscs	r6, r9, r0, lsr #4
    92a4:	6e207525 	cfsh64vs	mvdx7, mvdx0, #21
    92a8:	65747962 	ldrbvs	r7, [r4, #-2402]!	; 0xfffff69e
    92ac:	000a0a73 	andeq	r0, sl, r3, ror sl
    92b0:	253a7325 	ldrcs	r7, [sl, #-805]!	; 0xfffffcdb
    92b4:	64253a73 	strtvs	r3, [r5], #-2675	; 0xfffff58d
    92b8:	4245443a 	submi	r4, r5, #973078528	; 0x3a000000
    92bc:	453a4755 	ldrmi	r4, [sl, #-1877]!	; 0xfffff8ab
    92c0:	524f5252 	subpl	r5, pc, #536870917	; 0x20000005
    92c4:	6544203a 	strbvs	r2, [r4, #-58]	; 0xffffffc6
    92c8:	646e616d 	strbtvs	r6, [lr], #-365	; 0xfffffe93
    92cc:	73256020 			; <UNDEFINED> instruction: 0x73256020
    92d0:	61662060 	cmnvs	r6, r0, rrx
    92d4:	64656c69 	strbtvs	r6, [r5], #-3177	; 0xfffff397
    92d8:	7373613a 	cmnvc	r3, #-2147483634	; 0x8000000e
    92dc:	6e696d75 	mcrvs	13, 3, r6, cr9, cr5, {3}
    92e0:	6f702067 	svcvs	0x00702067
    92e4:	20726577 	rsbscs	r6, r2, r7, ror r5
    92e8:	7420666f 	strtvc	r6, [r0], #-1647	; 0xfffff991
    92ec:	000a6f77 	andeq	r6, sl, r7, ror pc
    92f0:	705f7369 	subsvc	r7, pc, r9, ror #6
    92f4:	2832776f 	ldmdacs	r2!, {r0, r1, r2, r3, r5, r6, r8, r9, sl, ip, sp, lr}
    92f8:	67696c61 	strbvs	r6, [r9, -r1, ror #24]!
    92fc:	6e656d6e 	cdpvs	13, 6, cr6, cr5, cr14, {3}
    9300:	00002974 	andeq	r2, r0, r4, ror r9
    9304:	705f7369 	subsvc	r7, pc, r9, ror #6
    9308:	2832776f 	ldmdacs	r2!, {r0, r1, r2, r3, r5, r6, r8, r9, sl, ip, sp, lr}
    930c:	0000296e 	andeq	r2, r0, lr, ror #18
    9310:	253a7325 	ldrcs	r7, [sl, #-805]!	; 0xfffffcdb
    9314:	64253a73 	strtvs	r3, [r5], #-2675	; 0xfffff58d
    9318:	4245443a 	submi	r4, r5, #973078528	; 0x3a000000
    931c:	453a4755 	ldrmi	r4, [sl, #-1877]!	; 0xfffff8ab
    9320:	524f5252 	subpl	r5, pc, #536870917	; 0x20000005
    9324:	6544203a 	strbvs	r2, [r4, #-58]	; 0xffffffc6
    9328:	646e616d 	strbtvs	r6, [lr], #-365	; 0xfffffe93
    932c:	73256020 			; <UNDEFINED> instruction: 0x73256020
    9330:	61662060 	cmnvs	r6, r0, rrx
    9334:	64656c69 	strbtvs	r6, [r5], #-3177	; 0xfffff397
    9338:	706d693a 	rsbvc	r6, sp, sl, lsr r9
    933c:	6973736f 	ldmdbvs	r3!, {r0, r1, r2, r3, r5, r6, r8, r9, ip, sp, lr}^
    9340:	0a656c62 	beq	19644d0 <__bss_end__+0x195b008>
    9344:	00000000 	andeq	r0, r0, r0
    9348:	615f7369 	cmpvs	pc, r9, ror #6
    934c:	6e67696c 	vnmulvs.f16	s13, s14, s25	; <UNPREDICTABLE>
    9350:	68286465 	stmdavs	r8!, {r0, r2, r5, r6, sl, sp, lr}
    9354:	6c61202c 	stclvs	0, cr2, [r1], #-176	; 0xffffff50
    9358:	6d6e6769 	stclvs	7, cr6, [lr, #-420]!	; 0xfffffe5c
    935c:	29746e65 	ldmdbcs	r4!, {r0, r2, r5, r6, r9, sl, fp, sp, lr}^
    9360:	00000000 	andeq	r0, r0, r0

00009364 <__FUNCTION__.4>:
    9364:	6c616d6b 	stclvs	13, cr6, [r1], #-428	; 0xfffffe54
    9368:	5f636f6c 	svcpl	0x00636f6c
    936c:	74696e69 	strbtvc	r6, [r9], #-3689	; 0xfffff197
    9370:	7465735f 	strbtvc	r7, [r5], #-863	; 0xfffffca1
    9374:	6174735f 	cmnvs	r4, pc, asr r3
    9378:	00007472 	andeq	r7, r0, r2, ror r4

0000937c <__FUNCTION__.3>:
    937c:	6c616d6b 	stclvs	13, cr6, [r1], #-428	; 0xfffffe54
    9380:	5f636f6c 	svcpl	0x00636f6c
    9384:	7a746f6e 	bvc	1d25144 <__bss_end__+0x1d1bc7c>
    9388:	006f7265 	rsbeq	r7, pc, r5, ror #4

0000938c <__FUNCTION__.1>:
    938c:	6c616d6b 	stclvs	13, cr6, [r1], #-428	; 0xfffffe54
    9390:	00636f6c 	rsbeq	r6, r3, ip, ror #30

00009394 <__FUNCTION__.0>:
    9394:	6c616d6b 	stclvs	13, cr6, [r1], #-428	; 0xfffffe54
    9398:	5f636f6c 	svcpl	0x00636f6c
    939c:	67696c61 	strbvs	r6, [r9, -r1, ror #24]!
    93a0:	0064656e 	rsbeq	r6, r4, lr, ror #10

000093a4 <__FUNCTION__.2>:
    93a4:	6e756f72 	mrcvs	15, 3, r6, cr5, cr2, {3}
    93a8:	00707564 	rsbseq	r7, r0, r4, ror #10
    93ac:	696c2f2e 	stmdbvs	ip!, {r1, r2, r3, r5, r8, r9, sl, fp, sp}^
    93b0:	702f6362 	eorvc	r6, pc, r2, ror #6
    93b4:	746e6972 	strbtvc	r6, [lr], #-2418	; 0xfffff68e
    93b8:	00632e6b 	rsbeq	r2, r3, fp, ror #28
    93bc:	494e4150 	stmdbmi	lr, {r4, r6, r8, lr}^
    93c0:	73253a43 			; <UNDEFINED> instruction: 0x73253a43
    93c4:	3a73253a 	bcc	1cd28b4 <__bss_end__+0x1cc93ec>
    93c8:	693a6425 	ldmdbvs	sl!, {r0, r2, r5, sl, sp, lr}
    93cc:	6c61766e 	stclvs	6, cr7, [r1], #-440	; 0xfffffe48
    93d0:	62206469 	eorvs	r6, r0, #1761607680	; 0x69000000
    93d4:	3d657361 	stclcc	3, cr7, [r5, #-388]!	; 0xfffffe7c
    93d8:	0a0a6425 	beq	2a2474 <__bss_end__+0x298fac>
    93dc:	00000000 	andeq	r0, r0, r0
    93e0:	00003130 	andeq	r3, r0, r0, lsr r1
    93e4:	33323130 	teqcc	r2, #12
    93e8:	37363534 			; <UNDEFINED> instruction: 0x37363534
    93ec:	00003938 	andeq	r3, r0, r8, lsr r9
    93f0:	33323130 	teqcc	r2, #12
    93f4:	37363534 			; <UNDEFINED> instruction: 0x37363534
    93f8:	62613938 	rsbvs	r3, r1, #56, 18	; 0xe0000
    93fc:	66656463 	strbtvs	r6, [r5], -r3, ror #8
    9400:	00000000 	andeq	r0, r0, r0
    9404:	494e4150 	stmdbmi	lr, {r4, r6, r8, lr}^
    9408:	73253a43 			; <UNDEFINED> instruction: 0x73253a43
    940c:	3a73253a 	bcc	1cd28fc <__bss_end__+0x1cc9434>
    9410:	6f3a6425 	svcvs	0x003a6425
    9414:	20796c6e 	rsbscs	r6, r9, lr, ror #24
    9418:	646e6168 	strbtvs	r6, [lr], #-360	; 0xfffffe98
    941c:	676e696c 	strbvs	r6, [lr, -ip, ror #18]!
    9420:	786c6c20 	stmdavc	ip!, {r5, sl, fp, sp, lr}^
    9424:	726f6620 	rsbvc	r6, pc, #32, 12	; 0x2000000
    9428:	2c74616d 	ldfcse	f6, [r4], #-436	; 0xfffffe4c
    942c:	76616820 	strbtvc	r6, [r1], -r0, lsr #16
    9430:	3c203a65 			; <UNDEFINED> instruction: 0x3c203a65
    9434:	0a3e7325 	beq	fa60d0 <__bss_end__+0xf9cc08>
    9438:	0000000a 	andeq	r0, r0, sl
    943c:	494e4150 	stmdbmi	lr, {r4, r6, r8, lr}^
    9440:	73253a43 			; <UNDEFINED> instruction: 0x73253a43
    9444:	3a73253a 	bcc	1cd2934 <__bss_end__+0x1cc946c>
    9448:	623a6425 	eorsvs	r6, sl, #620756992	; 0x25000000
    944c:	7375676f 	cmnvc	r5, #29097984	; 0x1bc0000
    9450:	65646920 	strbvs	r6, [r4, #-2336]!	; 0xfffff6e0
    9454:	6669746e 	strbtvs	r7, [r9], -lr, ror #8
    9458:	3a726569 	bcc	1ca2a04 <__bss_end__+0x1c9953c>
    945c:	63253c20 			; <UNDEFINED> instruction: 0x63253c20
    9460:	000a0a3e 	andeq	r0, sl, lr, lsr sl

00009464 <__FUNCTION__.4311>:
    9464:	74696d65 	strbtvc	r6, [r9], #-3429	; 0xfffff29b
    9468:	6c61765f 	stclvs	6, cr7, [r1], #-380	; 0xfffffe84
    946c:	00000000 	andeq	r0, r0, r0

00009470 <__FUNCTION__.4327>:
    9470:	69727076 	ldmdbvs	r2!, {r1, r2, r4, r5, r6, ip, sp, lr}^
    9474:	006b746e 	rsbeq	r7, fp, lr, ror #8
    9478:	454e4f44 	strbmi	r4, [lr, #-3908]	; 0xfffff0bc
    947c:	0a212121 	beq	851908 <__bss_end__+0x848440>
    9480:	00000000 	andeq	r0, r0, r0
    9484:	656c6c69 	strbvs	r6, [ip, #-3177]!	; 0xfffff397
    9488:	206c6167 	rsbcs	r6, ip, r7, ror #2
    948c:	3d6e6970 			; <UNDEFINED> instruction: 0x3d6e6970
    9490:	000a6425 	andeq	r6, sl, r5, lsr #8
    9494:	656c6c69 	strbvs	r6, [ip, #-3177]!	; 0xfffff397
    9498:	206c6167 	rsbcs	r6, ip, r7, ror #2
    949c:	636e7566 	cmnvs	lr, #427819008	; 0x19800000
    94a0:	0a78253d 	beq	1e1299c <__bss_end__+0x1e094d4>
	...

Disassembly of section .data:

000094a8 <block>:
    94a8:	000090cc 	andeq	r9, r0, ip, asr #1

000094ac <heap_end>:
    94ac:	00200000 	eoreq	r0, r0, r0

000094b0 <heap_start>:
    94b0:	00100000 	andseq	r0, r0, r0

000094b4 <heap>:
    94b4:	00100000 	andseq	r0, r0, r0

000094b8 <rpi_putchar>:
    94b8:	00008b70 	andeq	r8, r0, r0, ror fp

Disassembly of section .bss:

000094bc <p_coords>:
	...

Disassembly of section .ARM.attributes:

00000000 <.ARM.attributes>:
   0:	00002841 	andeq	r2, r0, r1, asr #16
   4:	61656100 	cmnvs	r5, r0, lsl #2
   8:	01006962 	tsteq	r0, r2, ror #18
   c:	0000001e 	andeq	r0, r0, lr, lsl r0
  10:	4b5a3605 	blmi	168d82c <__bss_end__+0x1684364>
  14:	08070600 	stmdaeq	r7, {r9, sl}
  18:	12010901 	andne	r0, r1, #16384	; 0x4000
  1c:	15011404 	strne	r1, [r1, #-1028]	; 0xfffffbfc
  20:	18031701 	stmdane	r3, {r0, r8, r9, sl, ip}
  24:	44011a01 	strmi	r1, [r1], #-2561	; 0xfffff5ff
  28:	Address 0x0000000000000028 is out of bounds.


Disassembly of section .comment:

00000000 <.comment>:
   0:	3a434347 	bcc	10d0d24 <__bss_end__+0x10c785c>
   4:	4e472820 	cdpmi	8, 4, cr2, cr7, cr0, {1}
   8:	6f542055 	svcvs	0x00542055
   c:	20736c6f 	rsbscs	r6, r3, pc, ror #24
  10:	20726f66 	rsbscs	r6, r2, r6, ror #30
  14:	206d7241 	rsbcs	r7, sp, r1, asr #4
  18:	65626d45 	strbvs	r6, [r2, #-3397]!	; 0xfffff2bb
  1c:	64656464 	strbtvs	r6, [r5], #-1124	; 0xfffffb9c
  20:	6f725020 	svcvs	0x00725020
  24:	73736563 	cmnvc	r3, #415236096	; 0x18c00000
  28:	2073726f 	rsbscs	r7, r3, pc, ror #4
  2c:	30322d39 	eorscc	r2, r2, r9, lsr sp
  30:	712d3931 			; <UNDEFINED> instruction: 0x712d3931
  34:	616d2d34 	cmnvs	sp, r4, lsr sp
  38:	29726f6a 	ldmdbcs	r2!, {r1, r3, r5, r6, r8, r9, sl, fp, sp, lr}^
  3c:	322e3920 	eorcc	r3, lr, #32, 18	; 0x80000
  40:	3220312e 	eorcc	r3, r0, #-2147483637	; 0x8000000b
  44:	31393130 	teqcc	r9, r0, lsr r1
  48:	20353230 	eorscs	r3, r5, r0, lsr r2
  4c:	6c657228 	sfmvs	f7, 2, [r5], #-160	; 0xffffff60
  50:	65736165 	ldrbvs	r6, [r3, #-357]!	; 0xfffffe9b
  54:	415b2029 	cmpmi	fp, r9, lsr #32
  58:	612f4d52 			; <UNDEFINED> instruction: 0x612f4d52
  5c:	392d6d72 	pushcc	{r1, r4, r5, r6, r8, sl, fp, sp, lr}
  60:	6172622d 	cmnvs	r2, sp, lsr #4
  64:	2068636e 	rsbcs	r6, r8, lr, ror #6
  68:	69766572 	ldmdbvs	r6!, {r1, r4, r5, r6, r8, sl, sp, lr}^
  6c:	6e6f6973 			; <UNDEFINED> instruction: 0x6e6f6973
  70:	37373220 	ldrcc	r3, [r7, -r0, lsr #4]!
  74:	5d393935 			; <UNDEFINED> instruction: 0x5d393935
  78:	43434700 	movtmi	r4, #14080	; 0x3700
  7c:	3128203a 			; <UNDEFINED> instruction: 0x3128203a
  80:	30313a35 	eorscc	r3, r1, r5, lsr sl
  84:	322d332e 	eorcc	r3, sp, #-1207959552	; 0xb8000000
  88:	2e313230 	mrccs	2, 1, r3, cr1, cr0, {1}
  8c:	342d3730 	strtcc	r3, [sp], #-1840	; 0xfffff8d0
  90:	30312029 	eorscc	r2, r1, r9, lsr #32
  94:	312e332e 			; <UNDEFINED> instruction: 0x312e332e
  98:	32303220 	eorscc	r3, r0, #32, 4
  9c:	32363031 	eorscc	r3, r6, #49, 0	; 0x31
  a0:	72282031 	eorvc	r2, r8, #49, 0	; 0x31
  a4:	61656c65 	cmnvs	r5, r5, ror #24
  a8:	00296573 	eoreq	r6, r9, r3, ror r5

Disassembly of section .debug_info:

00000000 <.debug_info>:
       0:	000008a9 	andeq	r0, r0, r9, lsr #17
       4:	00000004 	andeq	r0, r0, r4
       8:	01040000 	mrseq	r0, (UNDEF: 4)
       c:	000000bd 	strheq	r0, [r0], -sp
      10:	00004a0c 	andeq	r4, r0, ip, lsl #20
      14:	00017000 	andeq	r7, r1, r0
      18:	0082e800 	addeq	lr, r2, r0, lsl #16
      1c:	0003cc00 	andeq	ip, r3, r0, lsl #24
      20:	00000000 	andeq	r0, r0, r0
      24:	05040200 	streq	r0, [r4, #-512]	; 0xfffffe00
      28:	00746e69 	rsbseq	r6, r4, r9, ror #28
      2c:	ae070403 	cdpge	4, 0, cr0, cr7, cr3, {0}
      30:	03000001 	movweq	r0, #1
      34:	005c0601 	subseq	r0, ip, r1, lsl #12
      38:	02030000 	andeq	r0, r3, #0, 0
      3c:	0001fe05 	andeq	pc, r1, r5, lsl #28
      40:	05040300 	streq	r0, [r4, #-768]	; 0xfffffd00
      44:	000001ed 	andeq	r0, r0, sp, ror #3
      48:	e8050803 	stmda	r5, {r0, r1, fp}
      4c:	03000001 	movweq	r0, #1
      50:	005a0801 	subseq	r0, sl, r1, lsl #16
      54:	02030000 	andeq	r0, r3, #0, 0
      58:	00001c07 	andeq	r1, r0, r7, lsl #24
      5c:	021b0400 	andseq	r0, fp, #0, 8
      60:	34040000 	strcc	r0, [r4], #-0
      64:	00006e19 	andeq	r6, r0, r9, lsl lr
      68:	005d0500 	subseq	r0, sp, r0, lsl #10
      6c:	04030000 	streq	r0, [r3], #-0
      70:	0001a907 	andeq	sl, r1, r7, lsl #18
      74:	07080300 	streq	r0, [r8, -r0, lsl #6]
      78:	000001a4 	andeq	r0, r0, r4, lsr #3
      7c:	01030406 	tsteq	r3, r6, lsl #8
      80:	00006308 	andeq	r6, r0, r8, lsl #6
      84:	007e0500 	rsbseq	r0, lr, r0, lsl #10
      88:	08030000 	stmdaeq	r3, {}	; <UNPREDICTABLE>
      8c:	0000a904 	andeq	sl, r0, r4, lsl #18
      90:	04070700 	streq	r0, [r7], #-1792	; 0xfffff900
      94:	0000002c 	andeq	r0, r0, ip, lsr #32
      98:	a9061f01 	stmdbge	r6, {r0, r8, r9, sl, fp, ip}
      9c:	08000000 	stmdaeq	r0, {}	; <UNPREDICTABLE>
      a0:	000001d1 	ldrdeq	r0, [r0], -r1
      a4:	00100000 	andseq	r0, r0, r0
      a8:	01bb0900 			; <UNDEFINED> instruction: 0x01bb0900
      ac:	26010000 	strcs	r0, [r1], -r0
      b0:	00007c0e 	andeq	r7, r0, lr, lsl #24
      b4:	b4030500 	strlt	r0, [r3], #-1280	; 0xfffffb00
      b8:	09000094 	stmdbeq	r0, {r2, r4, r7}
      bc:	00000210 	andeq	r0, r0, r0, lsl r2
      c0:	7c0e2701 	stcvc	7, cr2, [lr], {1}
      c4:	05000000 	streq	r0, [r0, #-0]
      c8:	0094b003 	addseq	fp, r4, r3
      cc:	00410900 	subeq	r0, r1, r0, lsl #18
      d0:	29010000 	stmdbcs	r1, {}	; <UNPREDICTABLE>
      d4:	00007c0e 	andeq	r7, r0, lr, lsl #24
      d8:	ac030500 	cfstr32ge	mvfx0, [r3], {-0}
      dc:	0a000094 	beq	334 <__code_start__-0x7ccc>
      e0:	0000002f 	andeq	r0, r0, pc, lsr #32
      e4:	a0067d01 	andge	r7, r6, r1, lsl #26
      e8:	14000086 	strne	r0, [r0], #-134	; 0xffffff7a
      ec:	01000000 	mrseq	r0, (UNDEF: 0)
      f0:	00000b9c 	muleq	r0, ip, fp
      f4:	6d010000 	stcvs	0, cr0, [r1, #-0]
      f8:	00007c07 	andeq	r7, r0, r7, lsl #24
      fc:	00859000 	addeq	r9, r5, r0
     100:	00011000 	andeq	r1, r1, r0
     104:	5d9c0100 	ldfpls	f0, [ip]
     108:	0c000003 	stceq	0, cr0, [r0], {3}
     10c:	00000079 	andeq	r0, r0, r9, ror r0
     110:	2c206d01 	stccs	13, cr6, [r0], #-4
     114:	14000000 	strne	r0, [r0], #-0
     118:	00000000 	andeq	r0, r0, r0
     11c:	0c000000 	stceq	0, cr0, [r0], {-0}
     120:	00000080 	andeq	r0, r0, r0, lsl #1
     124:	2c316d01 	ldccs	13, cr6, [r1], #-4
     128:	ad000000 	stcge	0, cr0, [r0, #-0]
     12c:	99000000 	stmdbls	r0, {}	; <UNPREDICTABLE>
     130:	0d000000 	stceq	0, cr0, [r0, #-0]
     134:	000000b0 	strheq	r0, [r0], -r0	; <UNPREDICTABLE>
     138:	0000036d 	andeq	r0, r0, sp, ror #6
     13c:	93940305 	orrsls	r0, r4, #335544320	; 0x14000000
     140:	680e0000 	stmdavs	lr, {}	; <UNPREDICTABLE>
     144:	0e740100 	rpweqs	f0, f4, f0
     148:	0000002c 	andeq	r0, r0, ip, lsr #32
     14c:	00000167 	andeq	r0, r0, r7, ror #2
     150:	00000157 	andeq	r0, r0, r7, asr r1
     154:	0008130f 	andeq	r1, r8, pc, lsl #6
     158:	0085a000 	addeq	sl, r5, r0
     15c:	85a00300 	strhi	r0, [r0, #768]!	; 0x300
     160:	00040000 	andeq	r0, r4, r0
     164:	6f010000 	svcvs	0x00010000
     168:	00017b05 	andeq	r7, r1, r5, lsl #22
     16c:	08241000 	stmdaeq	r4!, {ip}
     170:	02220000 	eoreq	r0, r2, #0, 0
     174:	02200000 	eoreq	r0, r0, #0, 0
     178:	0f000000 	svceq	0x00000000
     17c:	00000855 	andeq	r0, r0, r5, asr r8
     180:	000085ac 	andeq	r8, r0, ip, lsr #11
     184:	0085ac02 	addeq	sl, r5, r2, lsl #24
     188:	00000800 	andeq	r0, r0, r0, lsl #16
     18c:	11700100 	cmnne	r0, r0, lsl #2
     190:	000001af 	andeq	r0, r0, pc, lsr #3
     194:	00087010 	andeq	r7, r8, r0, lsl r0
     198:	00023700 	andeq	r3, r2, r0, lsl #14
     19c:	00023500 	andeq	r3, r2, r0, lsl #10
     1a0:	08661000 	stmdaeq	r6!, {ip}^
     1a4:	024d0000 	subeq	r0, sp, #0, 0
     1a8:	024b0000 	subeq	r0, fp, #0, 0
     1ac:	11000000 	mrsne	r0, (UNDEF: 0)
     1b0:	000007de 	ldrdeq	r0, [r0], -lr
     1b4:	000085bc 			; <UNDEFINED> instruction: 0x000085bc
     1b8:	00001801 	andeq	r1, r0, r1, lsl #16
     1bc:	09750100 	ldmdbeq	r5!, {r8}^
     1c0:	0000024d 	andeq	r0, r0, sp, asr #4
     1c4:	0007f910 	andeq	pc, r7, r0, lsl r9	; <UNPREDICTABLE>
     1c8:	00026600 	andeq	r6, r2, r0, lsl #12
     1cc:	00026000 	andeq	r6, r2, r0
     1d0:	07ef1000 	strbeq	r1, [pc, r0]!
     1d4:	02ad0000 	adceq	r0, sp, #0, 0
     1d8:	02a50000 	adceq	r0, r5, #0, 0
     1dc:	18120000 	ldmdane	r2, {}	; <UNPREDICTABLE>
     1e0:	0f000000 	svceq	0x00000000
     1e4:	00000813 	andeq	r0, r0, r3, lsl r8
     1e8:	000085bc 			; <UNDEFINED> instruction: 0x000085bc
     1ec:	0085bc04 	addeq	fp, r5, r4, lsl #24
     1f0:	00000400 	andeq	r0, r0, r0, lsl #8
     1f4:	05110100 	ldreq	r0, [r1, #-256]	; 0xffffff00
     1f8:	0000020a 	andeq	r0, r0, sl, lsl #4
     1fc:	00082410 	andeq	r2, r8, r0, lsl r4
     200:	0002eb00 	andeq	lr, r2, r0, lsl #22
     204:	0002e900 	andeq	lr, r2, r0, lsl #18
     208:	50130000 	andspl	r0, r3, r0
     20c:	7b000086 	blvc	42c <__code_start__-0x7bd4>
     210:	42000008 	andmi	r0, r0, #8, 0
     214:	14000002 	strne	r0, [r0], #-2
     218:	03055001 	movweq	r5, #20481	; 0x5001
     21c:	0000913c 	andeq	r9, r0, ip, lsr r1
     220:	05510114 	ldrbeq	r0, [r1, #-276]	; 0xfffffeec
     224:	0090d403 	addseq	sp, r0, r3, lsl #8
     228:	52011400 	andpl	r1, r1, #0, 8
     22c:	93a40305 			; <UNDEFINED> instruction: 0x93a40305
     230:	01140000 	tsteq	r4, r0
     234:	14410153 	strbne	r0, [r1], #-339	; 0xfffffead
     238:	05007d02 	streq	r7, [r0, #-3330]	; 0xfffff2fe
     23c:	00930403 	addseq	r0, r3, r3, lsl #8
     240:	54150000 	ldrpl	r0, [r5], #-0
     244:	87000086 	strhi	r0, [r0, -r6, lsl #1]
     248:	00000008 	andeq	r0, r0, r8
     24c:	082f0f00 	stmdaeq	pc!, {r8, r9, sl, fp}	; <UNPREDICTABLE>
     250:	85d40000 	ldrbhi	r0, [r4]
     254:	d4030000 	strle	r0, [r3], #-0
     258:	04000085 	streq	r0, [r0], #-133	; 0xffffff7b
     25c:	01000000 	mrseq	r0, (UNDEF: 0)
     260:	02810576 	addeq	r0, r1, #494927872	; 0x1d800000
     264:	4a100000 	bmi	40026c <__bss_end__+0x3f6da4>
     268:	00000008 	andeq	r0, r0, r8
     26c:	fe000003 	cdp2	0, 0, cr0, cr0, cr3, {0}
     270:	10000002 	andne	r0, r0, r2
     274:	00000840 	andeq	r0, r0, r0, asr #16
     278:	00000315 	andeq	r0, r0, r5, lsl r3
     27c:	00000313 	andeq	r0, r0, r3, lsl r3
     280:	85ec1300 	strbhi	r1, [ip, #768]!	; 0x300
     284:	03720000 	cmneq	r2, #0, 0
     288:	02960000 	addseq	r0, r6, #0, 0
     28c:	01140000 	tsteq	r4, r0
     290:	01f30350 	mvnseq	r0, r0, asr r3
     294:	10130050 	andsne	r0, r3, r0, asr r0
     298:	7b000086 	blvc	4b8 <__code_start__-0x7b48>
     29c:	cf000008 	svcgt	0x00000008
     2a0:	14000002 	strne	r0, [r0], #-2
     2a4:	03055001 	movweq	r5, #20481	; 0x5001
     2a8:	0000913c 	andeq	r9, r0, ip, lsr r1
     2ac:	05510114 	ldrbeq	r0, [r1, #-276]	; 0xfffffeec
     2b0:	0090d403 	addseq	sp, r0, r3, lsl #8
     2b4:	52011400 	andpl	r1, r1, #0, 8
     2b8:	93940305 	orrsls	r0, r4, #335544320	; 0x14000000
     2bc:	01140000 	tsteq	r4, r0
     2c0:	6e080253 	mcrvs	2, 0, r0, cr8, cr3, {2}
     2c4:	007d0214 	rsbseq	r0, sp, r4, lsl r2
     2c8:	91700305 	cmnls	r0, r5, lsl #6
     2cc:	15000000 	strne	r0, [r0, #-0]
     2d0:	00008614 	andeq	r8, r0, r4, lsl r6
     2d4:	00000887 	andeq	r0, r0, r7, lsl #17
     2d8:	00863013 	addeq	r3, r6, r3, lsl r0
     2dc:	00087b00 	andeq	r7, r8, r0, lsl #22
     2e0:	00031100 	andeq	r1, r3, r0, lsl #2
     2e4:	50011400 	andpl	r1, r1, r0, lsl #8
     2e8:	92b00305 	adcsls	r0, r0, #335544320	; 0x14000000
     2ec:	01140000 	tsteq	r4, r0
     2f0:	d4030551 	strle	r0, [r3], #-1361	; 0xfffffaaf
     2f4:	14000090 	strne	r0, [r0], #-144	; 0xffffff70
     2f8:	03055201 	movweq	r5, #20993	; 0x5201
     2fc:	00009394 	muleq	r0, r4, r3
     300:	02530114 	subseq	r0, r3, #5
     304:	02146f08 	andseq	r6, r4, #8, 30
     308:	0305007d 	movweq	r0, #20605	; 0x507d
     30c:	000092f0 	strdeq	r9, [r0], -r0
     310:	86341500 	ldrthi	r1, [r4], -r0, lsl #10
     314:	08870000 	stmeq	r7, {}	; <UNPREDICTABLE>
     318:	70130000 	andsvc	r0, r3, r0
     31c:	7b000086 	blvc	53c <__code_start__-0x7ac4>
     320:	53000008 	movwpl	r0, #8
     324:	14000003 	strne	r0, [r0], #-3
     328:	03055001 	movweq	r5, #20481	; 0x5001
     32c:	00009310 	andeq	r9, r0, r0, lsl r3
     330:	05510114 	ldrbeq	r0, [r1, #-276]	; 0xfffffeec
     334:	0090d403 	addseq	sp, r0, r3, lsl #8
     338:	52011400 	andpl	r1, r1, #0, 8
     33c:	93940305 	orrsls	r0, r4, #335544320	; 0x14000000
     340:	01140000 	tsteq	r4, r0
     344:	76080253 			; <UNDEFINED> instruction: 0x76080253
     348:	007d0214 	rsbseq	r0, sp, r4, lsl r2
     34c:	93480305 	movtls	r0, #33541	; 0x8305
     350:	15000000 	strne	r0, [r0, #-0]
     354:	00008674 	andeq	r8, r0, r4, ror r6
     358:	00000887 	andeq	r0, r0, r7, lsl #17
     35c:	00851600 	addeq	r1, r5, r0, lsl #12
     360:	036d0000 	cmneq	sp, #0, 0
     364:	2c170000 	ldccs	0, cr0, [r7], {-0}
     368:	0f000000 	svceq	0x00000000
     36c:	035d0500 	cmpeq	sp, #0, 10
     370:	8a0b0000 	bhi	2c0378 <__bss_end__+0x2b6eb0>
     374:	01000000 	mrseq	r0, (UNDEF: 0)
     378:	007c0762 	rsbseq	r0, ip, r2, ror #14
     37c:	852c0000 	strhi	r0, [ip, #-0]!
     380:	00640000 	rsbeq	r0, r4, r0
     384:	9c010000 	stcls	0, cr0, [r1], {-0}
     388:	00000439 	andeq	r0, r0, r9, lsr r4
     38c:	0000790c 	andeq	r7, r0, ip, lsl #18
     390:	18620100 	stmdane	r2!, {r8}^
     394:	0000002c 	andeq	r0, r0, ip, lsr #32
     398:	00000330 	andeq	r0, r0, r0, lsr r3
     39c:	00000328 	andeq	r0, r0, r8, lsr #6
     3a0:	0000b00d 	andeq	fp, r0, sp
     3a4:	00044900 	andeq	r4, r4, r0, lsl #18
     3a8:	8c030500 	cfstr32hi	mvfx0, [r3], {-0}
     3ac:	18000093 	stmdane	r0, {r0, r1, r4, r7}
     3b0:	00000247 	andeq	r0, r0, r7, asr #4
     3b4:	7c0b6501 	cfstr32vc	mvfx6, [fp], {1}
     3b8:	68000000 	stmdavs	r0, {}	; <UNPREDICTABLE>
     3bc:	64000003 	strvs	r0, [r0], #-3
     3c0:	13000003 	movwne	r0, #3
     3c4:	00008544 	andeq	r8, r0, r4, asr #10
     3c8:	0000044e 	andeq	r0, r0, lr, asr #8
     3cc:	000003d7 	ldrdeq	r0, [r0], -r7
     3d0:	02500114 	subseq	r0, r0, #5
     3d4:	13000074 	movwne	r0, #116	; 0x74
     3d8:	00008554 	andeq	r8, r0, r4, asr r5
     3dc:	00000893 	muleq	r0, r3, r8
     3e0:	000003f6 	strdeq	r0, [r0], -r6
     3e4:	02500114 	subseq	r0, r0, #5
     3e8:	01140075 	tsteq	r4, r5, ror r0
     3ec:	14300151 	ldrtne	r0, [r0], #-337	; 0xfffffeaf
     3f0:	74025201 	strvc	r5, [r2], #-513	; 0xfffffdff
     3f4:	7c130000 	ldcvc	0, cr0, [r3], {-0}
     3f8:	7b000085 	blvc	614 <__code_start__-0x79ec>
     3fc:	2f000008 	svccs	0x00000008
     400:	14000004 	strne	r0, [r0], #-4
     404:	03055001 	movweq	r5, #20481	; 0x5001
     408:	0000913c 	andeq	r9, r0, ip, lsr r1
     40c:	05510114 	ldrbeq	r0, [r1, #-276]	; 0xfffffeec
     410:	0090d403 	addseq	sp, r0, r3, lsl #8
     414:	52011400 	andpl	r1, r1, #0, 8
     418:	938c0305 	orrls	r0, ip, #335544320	; 0x14000000
     41c:	01140000 	tsteq	r4, r0
     420:	64080253 	strvs	r0, [r8], #-595	; 0xfffffdad
     424:	007d0214 	rsbseq	r0, sp, r4, lsl r2
     428:	91700305 	cmnls	r0, r5, lsl #6
     42c:	15000000 	strne	r0, [r0, #-0]
     430:	00008580 	andeq	r8, r0, r0, lsl #11
     434:	00000887 	andeq	r0, r0, r7, lsl #17
     438:	00851600 	addeq	r1, r5, r0, lsl #12
     43c:	04490000 	strbeq	r0, [r9], #-0
     440:	2c170000 	ldccs	0, cr0, [r7], {-0}
     444:	07000000 	streq	r0, [r0, -r0]
     448:	04390500 	ldrteq	r0, [r9], #-1280	; 0xfffffb00
     44c:	d80b0000 	stmdale	fp, {}	; <UNPREDICTABLE>
     450:	01000001 	tsteq	r0, r1
     454:	007c0750 	rsbseq	r0, ip, r0, asr r7
     458:	84400000 	strbhi	r0, [r0], #-0
     45c:	00ec0000 	rsceq	r0, ip, r0
     460:	9c010000 	stcls	0, cr0, [r1], {-0}
     464:	000005d6 	ldrdeq	r0, [r0], -r6
     468:	0000790c 	andeq	r7, r0, ip, lsl #18
     46c:	20500100 	subscs	r0, r0, r0, lsl #2
     470:	0000002c 	andeq	r0, r0, ip, lsr #32
     474:	0000039e 	muleq	r0, lr, r3
     478:	00000386 	andeq	r0, r0, r6, lsl #7
     47c:	0000b00d 	andeq	fp, r0, sp
     480:	00036d00 	andeq	r6, r3, r0, lsl #26
     484:	7c030500 	cfstr32vc	mvfx0, [r3], {-0}
     488:	18000093 	stmdane	r0, {r0, r1, r4, r7}
     48c:	00000247 	andeq	r0, r0, r7, asr #4
     490:	7c0b5601 	stcvc	6, cr5, [fp], {1}
     494:	52000000 	andpl	r0, r0, #0, 0
     498:	48000004 	stmdami	r0, {r2}
     49c:	11000004 	tstne	r0, r4
     4a0:	000007de 	ldrdeq	r0, [r0], -lr
     4a4:	00008450 	andeq	r8, r0, r0, asr r4
     4a8:	00000002 	andeq	r0, r0, r2
     4ac:	0e520100 	rdfeqs	f0, f2, f0
     4b0:	000004d4 	ldrdeq	r0, [r0], -r4
     4b4:	0007f910 	andeq	pc, r7, r0, lsl r9	; <UNPREDICTABLE>
     4b8:	00049b00 	andeq	r9, r4, r0, lsl #22
     4bc:	00049900 	andeq	r9, r4, r0, lsl #18
     4c0:	07ef1000 	strbeq	r1, [pc, r0]!
     4c4:	04b30000 	ldrteq	r0, [r3], #0
     4c8:	04af0000 	strteq	r0, [pc], #0	; 4d0 <__code_start__-0x7b30>
     4cc:	00190000 	andseq	r0, r9, r0
     4d0:	00000000 	andeq	r0, r0, r0
     4d4:	0084ac13 	addeq	sl, r4, r3, lsl ip
     4d8:	00087b00 	andeq	r7, r8, r0, lsl #22
     4dc:	00050d00 	andeq	r0, r5, r0, lsl #26
     4e0:	50011400 	andpl	r1, r1, r0, lsl #8
     4e4:	913c0305 	teqls	ip, r5, lsl #6
     4e8:	01140000 	tsteq	r4, r0
     4ec:	d4030551 	strle	r0, [r3], #-1361	; 0xfffffaaf
     4f0:	14000090 	strne	r0, [r0], #-144	; 0xffffff70
     4f4:	03055201 	movweq	r5, #20993	; 0x5201
     4f8:	0000937c 	andeq	r9, r0, ip, ror r3
     4fc:	02530114 	subseq	r0, r3, #5
     500:	02145108 	andseq	r5, r4, #2
     504:	0305007d 	movweq	r0, #20605	; 0x507d
     508:	00009170 	andeq	r9, r0, r0, ror r1
     50c:	84b01500 	ldrthi	r1, [r0], #1280	; 0x500
     510:	08870000 	stmeq	r7, {}	; <UNPREDICTABLE>
     514:	cc130000 	ldcgt	0, cr0, [r3], {-0}
     518:	7b000084 	blvc	730 <__code_start__-0x78d0>
     51c:	4f000008 	svcmi	0x00000008
     520:	14000005 	strne	r0, [r0], #-5
     524:	03055001 	movweq	r5, #20481	; 0x5001
     528:	0000913c 	andeq	r9, r0, ip, lsr r1
     52c:	05510114 	ldrbeq	r0, [r1, #-276]	; 0xfffffeec
     530:	0090d403 	addseq	sp, r0, r3, lsl #8
     534:	52011400 	andpl	r1, r1, #0, 8
     538:	937c0305 	cmnls	ip, #335544320	; 0x14000000
     53c:	01140000 	tsteq	r4, r0
     540:	54080253 	strpl	r0, [r8], #-595	; 0xfffffdad
     544:	007d0214 	rsbseq	r0, sp, r4, lsl r2
     548:	92240305 	eorls	r0, r4, #335544320	; 0x14000000
     54c:	15000000 	strne	r0, [r0, #-0]
     550:	000084d0 	ldrdeq	r8, [r0], -r0
     554:	00000887 	andeq	r0, r0, r7, lsl #17
     558:	0084e413 	addeq	lr, r4, r3, lsl r4
     55c:	00087b00 	andeq	r7, r8, r0, lsl #22
     560:	00058700 	andeq	r8, r5, r0, lsl #14
     564:	50011400 	andpl	r1, r1, r0, lsl #8
     568:	923c0305 	eorsls	r0, ip, #335544320	; 0x14000000
     56c:	01140000 	tsteq	r4, r0
     570:	d4030551 	strle	r0, [r3], #-1361	; 0xfffffaaf
     574:	14000090 	strne	r0, [r0], #-144	; 0xffffff70
     578:	03055201 	movweq	r5, #20993	; 0x5201
     57c:	0000937c 	andeq	r9, r0, ip, ror r3
     580:	02530114 	subseq	r0, r3, #5
     584:	15005808 	strne	r5, [r0, #-2056]	; 0xfffff7f8
     588:	000084e8 	andeq	r8, r0, r8, ror #9
     58c:	00000887 	andeq	r0, r0, r7, lsl #17
     590:	00850813 	addeq	r0, r5, r3, lsl r8
     594:	00087b00 	andeq	r7, r8, r0, lsl #22
     598:	0005cc00 	andeq	ip, r5, r0, lsl #24
     59c:	50011400 	andpl	r1, r1, r0, lsl #8
     5a0:	92680305 	rsbls	r0, r8, #335544320	; 0x14000000
     5a4:	01140000 	tsteq	r4, r0
     5a8:	d4030551 	strle	r0, [r3], #-1361	; 0xfffffaaf
     5ac:	14000090 	strne	r0, [r0], #-144	; 0xffffff70
     5b0:	03055201 	movweq	r5, #20993	; 0x5201
     5b4:	0000937c 	andeq	r9, r0, ip, ror r3
     5b8:	02530114 	subseq	r0, r3, #5
     5bc:	02145c08 	andseq	r5, r4, #8, 24	; 0x800
     5c0:	f308007d 	vqadd.u8	q0, q4, <illegal reg q14.5>
     5c4:	07235001 	streq	r5, [r3, -r1]!
     5c8:	001af809 	andseq	pc, sl, r9, lsl #16
     5cc:	00850c15 	addeq	r0, r5, r5, lsl ip
     5d0:	00088700 	andeq	r8, r8, r0, lsl #14
     5d4:	2f1a0000 	svccs	0x001a0000
     5d8:	01000002 	tsteq	r0, r2
     5dc:	83180639 	tsthi	r8, #59768832	; 0x3900000
     5e0:	01280000 			; <UNDEFINED> instruction: 0x01280000
     5e4:	9c010000 	stcls	0, cr0, [r1], {-0}
     5e8:	00000787 	andeq	r0, r0, r7, lsl #15
     5ec:	0002460c 	andeq	r4, r2, ip, lsl #12
     5f0:	23390100 	teqcs	r9, #0
     5f4:	0000007c 	andeq	r0, r0, ip, ror r0
     5f8:	000004df 	ldrdeq	r0, [r0], -pc	; <UNPREDICTABLE>
     5fc:	000004d3 	ldrdeq	r0, [r0], -r3
     600:	0000750c 	andeq	r7, r0, ip, lsl #10
     604:	33390100 	teqcc	r9, #0
     608:	0000002c 	andeq	r0, r0, ip, lsr #32
     60c:	00000538 	andeq	r0, r0, r8, lsr r5
     610:	00000530 	andeq	r0, r0, r0, lsr r5
     614:	00424d1b 	subeq	r4, r2, fp, lsl sp
     618:	69143a01 	ldmdbvs	r4, {r0, r9, fp, ip, sp}
     61c:	00000000 	andeq	r0, r0, r0
     620:	0d001000 	stceq	0, cr1, [r0, #-0]
     624:	000000b0 	strheq	r0, [r0], -r0	; <UNPREDICTABLE>
     628:	00000797 	muleq	r0, r7, r7
     62c:	93640305 	cmnls	r4, #335544320	; 0x14000000
     630:	47180000 	ldrmi	r0, [r8, -r0]
     634:	01000002 	tsteq	r0, r2
     638:	007c0b3e 	rsbseq	r0, ip, lr, lsr fp
     63c:	05740000 	ldrbeq	r0, [r4, #-0]!
     640:	056c0000 	strbeq	r0, [ip, #-0]!
     644:	34150000 	ldrcc	r0, [r5], #-0
     648:	9f000083 	svcls	0x00000083
     64c:	13000008 	movwne	r0, #8
     650:	00008398 	muleq	r0, r8, r3
     654:	0000087b 	andeq	r0, r0, fp, ror r8
     658:	00000685 	andeq	r0, r0, r5, lsl #13
     65c:	05500114 	ldrbeq	r0, [r0, #-276]	; 0xfffffeec
     660:	0090e403 	addseq	lr, r0, r3, lsl #8
     664:	51011400 	tstpl	r1, r0, lsl #8
     668:	90d40305 	sbcsls	r0, r4, r5, lsl #6
     66c:	01140000 	tsteq	r4, r0
     670:	64030552 	strvs	r0, [r3], #-1362	; 0xfffffaae
     674:	14000093 	strne	r0, [r0], #-147	; 0xffffff6d
     678:	08025301 	stmdaeq	r2, {r0, r8, r9, ip, lr}
     67c:	7d02143c 	cfstrsvc	mvf1, [r2, #-240]	; 0xffffff10
     680:	00750200 	rsbseq	r0, r5, r0, lsl #4
     684:	839c1500 	orrshi	r1, ip, #0, 10
     688:	08870000 	stmeq	r7, {}	; <UNPREDICTABLE>
     68c:	b0130000 	andslt	r0, r3, r0
     690:	7b000083 	blvc	8a4 <__code_start__-0x775c>
     694:	bd000008 	stclt	0, cr0, [r0, #-32]	; 0xffffffe0
     698:	14000006 	strne	r0, [r0], #-6
     69c:	03055001 	movweq	r5, #20481	; 0x5001
     6a0:	00009114 	andeq	r9, r0, r4, lsl r1
     6a4:	05510114 	ldrbeq	r0, [r1, #-276]	; 0xfffffeec
     6a8:	0090d403 	addseq	sp, r0, r3, lsl #8
     6ac:	52011400 	andpl	r1, r1, #0, 8
     6b0:	93640305 	cmnls	r4, #335544320	; 0x14000000
     6b4:	01140000 	tsteq	r4, r0
     6b8:	40080253 	andmi	r0, r8, r3, asr r2
     6bc:	83b41500 			; <UNDEFINED> instruction: 0x83b41500
     6c0:	08870000 	stmeq	r7, {}	; <UNPREDICTABLE>
     6c4:	d0130000 	andsle	r0, r3, r0
     6c8:	7b000083 	blvc	8dc <__code_start__-0x7724>
     6cc:	ff000008 			; <UNDEFINED> instruction: 0xff000008
     6d0:	14000006 	strne	r0, [r0], #-6
     6d4:	03055001 	movweq	r5, #20481	; 0x5001
     6d8:	0000913c 	andeq	r9, r0, ip, lsr r1
     6dc:	05510114 	ldrbeq	r0, [r1, #-276]	; 0xfffffeec
     6e0:	0090d403 	addseq	sp, r0, r3, lsl #8
     6e4:	52011400 	andpl	r1, r1, #0, 8
     6e8:	93640305 	cmnls	r4, #335544320	; 0x14000000
     6ec:	01140000 	tsteq	r4, r0
     6f0:	42080253 	andmi	r0, r8, #805306373	; 0x30000005
     6f4:	007d0214 	rsbseq	r0, sp, r4, lsl r2
     6f8:	916c0305 	cmnls	ip, r5, lsl #6
     6fc:	15000000 	strne	r0, [r0, #-0]
     700:	000083d4 	ldrdeq	r8, [r0], -r4
     704:	00000887 	andeq	r0, r0, r7, lsl #17
     708:	0083f013 	addeq	pc, r3, r3, lsl r0	; <UNPREDICTABLE>
     70c:	00087b00 	andeq	r7, r8, r0, lsl #22
     710:	00073e00 	andeq	r3, r7, r0, lsl #28
     714:	50011400 	andpl	r1, r1, r0, lsl #8
     718:	91780305 	cmnls	r8, r5, lsl #6
     71c:	01140000 	tsteq	r4, r0
     720:	d4030551 	strle	r0, [r3], #-1361	; 0xfffffaaf
     724:	14000090 	strne	r0, [r0], #-144	; 0xffffff70
     728:	03055201 	movweq	r5, #20993	; 0x5201
     72c:	00009364 	andeq	r9, r0, r4, ror #6
     730:	02530114 	subseq	r0, r3, #5
     734:	02144408 	andseq	r4, r4, #8, 8	; 0x8000000
     738:	7402047d 	strvc	r0, [r2], #-1149	; 0xfffffb83
     73c:	f4150000 			; <UNDEFINED> instruction: 0xf4150000
     740:	87000083 	strhi	r0, [r0, -r3, lsl #1]
     744:	13000008 	movwne	r0, #8
     748:	00008418 	andeq	r8, r0, r8, lsl r4
     74c:	0000087b 	andeq	r0, r0, fp, ror r8
     750:	0000077d 	andeq	r0, r0, sp, ror r7
     754:	05500114 	ldrbeq	r0, [r0, #-276]	; 0xfffffeec
     758:	0091e003 	addseq	lr, r1, r3
     75c:	51011400 	tstpl	r1, r0, lsl #8
     760:	90d40305 	sbcsls	r0, r4, r5, lsl #6
     764:	01140000 	tsteq	r4, r0
     768:	64030552 	strvs	r0, [r3], #-1362	; 0xfffffaae
     76c:	14000093 	strne	r0, [r0], #-147	; 0xffffff6d
     770:	08025301 	stmdaeq	r2, {r0, r8, r9, ip, lr}
     774:	7d021448 	cfstrsvc	mvf1, [r2, #-288]	; 0xfffffee0
     778:	00740200 	rsbseq	r0, r4, r0, lsl #4
     77c:	841c1500 	ldrhi	r1, [ip], #-1280	; 0xfffffb00
     780:	08870000 	stmeq	r7, {}	; <UNPREDICTABLE>
     784:	16000000 	strne	r0, [r0], -r0
     788:	00000085 	andeq	r0, r0, r5, lsl #1
     78c:	00000797 	muleq	r0, r7, r7
     790:	00002c17 	andeq	r2, r0, r7, lsl ip
     794:	05001600 	streq	r1, [r0, #-1536]	; 0xfffffa00
     798:	00000787 	andeq	r0, r0, r7, lsl #15
     79c:	0001c01c 	andeq	ip, r1, ip, lsl r0
     7a0:	07360100 	ldreq	r0, [r6, -r0, lsl #2]!
     7a4:	0000007c 	andeq	r0, r0, ip, ror r0
     7a8:	00008308 	andeq	r8, r0, r8, lsl #6
     7ac:	00000010 	andeq	r0, r0, r0, lsl r0
     7b0:	081c9c01 	ldmdaeq	ip, {r0, sl, fp, ip, pc}
     7b4:	01000002 	tsteq	r0, r2
     7b8:	007c0735 	rsbseq	r0, ip, r5, lsr r7
     7bc:	82f80000 	rscshi	r0, r8, #0, 0
     7c0:	00100000 	andseq	r0, r0, r0
     7c4:	9c010000 	stcls	0, cr0, [r1], {-0}
     7c8:	0000391c 	andeq	r3, r0, ip, lsl r9
     7cc:	07340100 	ldreq	r0, [r4, -r0, lsl #2]!
     7d0:	0000007c 	andeq	r0, r0, ip, ror r0
     7d4:	000082e8 	andeq	r8, r0, r8, ror #5
     7d8:	00000010 	andeq	r0, r0, r0, lsl r0
     7dc:	a11d9c01 	tstge	sp, r1, lsl #24
     7e0:	01000000 	mrseq	r0, (UNDEF: 0)
     7e4:	002c1810 	eoreq	r1, ip, r0, lsl r8
     7e8:	13030000 	movwne	r0, #12288	; 0x3000
     7ec:	1e000008 	cdpne	0, 0, cr0, cr0, cr8, {0}
     7f0:	10010078 	andne	r0, r1, r8, ror r0
     7f4:	00002c29 	andeq	r2, r0, r9, lsr #24
     7f8:	006e1e00 	rsbeq	r1, lr, r0, lsl #28
     7fc:	2c351001 	ldccs	0, cr1, [r5], #-4
     800:	0d000000 	stceq	0, cr0, [r0, #-0]
     804:	000000b0 	strheq	r0, [r0], -r0	; <UNPREDICTABLE>
     808:	00000449 	andeq	r0, r0, r9, asr #8
     80c:	93a40305 			; <UNDEFINED> instruction: 0x93a40305
     810:	1d000000 	stcne	0, cr0, [r0, #-0]
     814:	00000092 	muleq	r0, r2, r0
     818:	2c180d01 	ldccs	13, cr0, [r8], {1}
     81c:	03000000 	movweq	r0, #0
     820:	0000082f 	andeq	r0, r0, pc, lsr #16
     824:	0100781e 	tsteq	r0, lr, lsl r8
     828:	002c290d 	eoreq	r2, ip, sp, lsl #18
     82c:	1d000000 	stcne	0, cr0, [r0, #-0]
     830:	00000224 	andeq	r0, r0, r4, lsr #4
     834:	2c180701 	ldccs	7, cr0, [r8], {1}
     838:	03000000 	movweq	r0, #0
     83c:	00000855 	andeq	r0, r0, r5, asr r8
     840:	0100781e 	tsteq	r0, lr, lsl r8
     844:	002c2c07 	eoreq	r2, ip, r7, lsl #24
     848:	6e1e0000 	cdpvs	0, 1, cr0, cr14, cr0, {0}
     84c:	38070100 	stmdacc	r7, {r8}
     850:	0000002c 	andeq	r0, r0, ip, lsr #32
     854:	01f61d00 	mvnseq	r1, r0, lsl #26
     858:	04010000 	streq	r0, [r1], #-0
     85c:	00005d18 	andeq	r5, r0, r8, lsl sp
     860:	087b0300 	ldmdaeq	fp!, {r8, r9}^
     864:	781e0000 	ldmdavc	lr, {}	; <UNPREDICTABLE>
     868:	29040100 	stmdbcs	r4, {r8}
     86c:	0000005d 	andeq	r0, r0, sp, asr r0
     870:	0100791e 	tsteq	r0, lr, lsl r9
     874:	005d3504 	subseq	r3, sp, r4, lsl #10
     878:	1f000000 	svcne	0x00000000
     87c:	00000758 	andeq	r0, r0, r8, asr r7
     880:	00000758 	andeq	r0, r0, r8, asr r7
     884:	1f053102 	svcne	0x00053102
     888:	00000068 	andeq	r0, r0, r8, rrx
     88c:	00000068 	andeq	r0, r0, r8, rrx
     890:	1f067f02 	svcne	0x00067f02
     894:	0000009a 	muleq	r0, sl, r0
     898:	0000009a 	muleq	r0, sl, r0
     89c:	20092103 	andcs	r2, r9, r3, lsl #2
     8a0:	00000010 	andeq	r0, r0, r0, lsl r0
     8a4:	00000010 	andeq	r0, r0, r0, lsl r0
     8a8:	07012102 	streq	r2, [r1, -r2, lsl #2]
     8ac:	000a1000 	andeq	r1, sl, r0
     8b0:	06000400 	streq	r0, [r0], -r0, lsl #8
     8b4:	04000002 	streq	r0, [r0], #-2
     8b8:	00033001 	andeq	r3, r3, r1
     8bc:	04e10c00 	strbteq	r0, [r1], #3072	; 0xc00
     8c0:	04a80000 	strteq	r0, [r8], #0
     8c4:	86b40000 	ldrthi	r0, [r4], r0
     8c8:	00a00000 	adceq	r0, r0, r0
     8cc:	037a0000 	cmneq	sl, #0, 0
     8d0:	04020000 	streq	r0, [r2], #-0
     8d4:	746e6905 	strbtvc	r6, [lr], #-2309	; 0xfffff6fb
     8d8:	025e0300 	subseq	r0, lr, #0, 6
     8dc:	d1020000 	mrsle	r0, (UNDEF: 2)
     8e0:	00003817 	andeq	r3, r0, r7, lsl r8
     8e4:	07040400 	streq	r0, [r4, -r0, lsl #8]
     8e8:	000001ae 	andeq	r0, r0, lr, lsr #3
     8ec:	5c060104 	stfpls	f0, [r6], {4}
     8f0:	04000000 	streq	r0, [r0], #-0
     8f4:	01fe0502 	mvnseq	r0, r2, lsl #10
     8f8:	04040000 	streq	r0, [r4], #-0
     8fc:	0001ed05 	andeq	lr, r1, r5, lsl #26
     900:	05080400 	streq	r0, [r8, #-1024]	; 0xfffffc00
     904:	000001e8 	andeq	r0, r0, r8, ror #3
     908:	5a080104 	bpl	200d20 <__bss_end__+0x1f7858>
     90c:	04000000 	streq	r0, [r0], #-0
     910:	001c0702 	andseq	r0, ip, r2, lsl #14
     914:	1b030000 	blne	c091c <__bss_end__+0xb7454>
     918:	03000002 	movweq	r0, #2
     91c:	00751934 	rsbseq	r1, r5, r4, lsr r9
     920:	04040000 	streq	r0, [r4], #-0
     924:	0001a907 	andeq	sl, r1, r7, lsl #18
     928:	02780300 	rsbseq	r0, r8, #0, 6
     92c:	37030000 	strcc	r0, [r3, -r0]
     930:	00008819 	andeq	r8, r0, r9, lsl r8
     934:	07080400 	streq	r0, [r8, -r0, lsl #8]
     938:	000001a4 	andeq	r0, r0, r4, lsr #3
     93c:	0c030405 	cfstrseq	mvf0, [r3], {5}
     940:	04000005 	streq	r0, [r0], #-5
     944:	009d1922 	addseq	r1, sp, r2, lsr #18
     948:	04060000 	streq	r0, [r6], #-0
     94c:	000000a3 	andeq	r0, r0, r3, lsr #1
     950:	00062107 	andeq	r2, r6, r7, lsl #2
     954:	05500300 	ldrbeq	r0, [r0, #-768]	; 0xfffffd00
     958:	2c050000 	stccs	0, cr0, [r5], {-0}
     95c:	00004d0e 	andeq	r4, r0, lr, lsl #26
     960:	062e0300 	strteq	r0, [lr], -r0, lsl #6
     964:	72050000 	andvc	r0, r5, #0, 0
     968:	00004d0e 	andeq	r4, r0, lr, lsl #26
     96c:	05140800 	ldreq	r0, [r4, #-2048]	; 0xfffff800
     970:	5e020000 	cdppl	0, 0, cr0, cr2, cr0, {0}
     974:	00381701 	eorseq	r1, r8, r1, lsl #14
     978:	04090000 	streq	r0, [r9], #-0
     97c:	ef03a605 	svc	0x0003a605
     980:	0a000000 	beq	988 <__code_start__-0x7678>
     984:	00000506 	andeq	r0, r0, r6, lsl #10
     988:	c00ca805 	andgt	sl, ip, r5, lsl #16
     98c:	0a000000 	beq	994 <__code_start__-0x766c>
     990:	0000047a 	andeq	r0, r0, sl, ror r4
     994:	ef13a905 	svc	0x0013a905
     998:	00000000 	andeq	r0, r0, r0
     99c:	00005b0b 	andeq	r5, r0, fp, lsl #22
     9a0:	0000ff00 	andeq	pc, r0, r0, lsl #30
     9a4:	00380c00 	eorseq	r0, r8, r0, lsl #24
     9a8:	00030000 	andeq	r0, r3, r0
     9ac:	a305080d 	movwge	r0, #22541	; 0x580d
     9b0:	00012309 	andeq	r2, r1, r9, lsl #6
     9b4:	06190e00 	ldreq	r0, [r9], -r0, lsl #28
     9b8:	a5050000 	strge	r0, [r5, #-0]
     9bc:	00002507 	andeq	r2, r0, r7, lsl #10
     9c0:	600e0000 	andvs	r0, lr, r0
     9c4:	05000006 	streq	r0, [r0, #-6]
     9c8:	00cd05aa 	sbceq	r0, sp, sl, lsr #11
     9cc:	00040000 	andeq	r0, r4, r0
     9d0:	00059b03 	andeq	r9, r5, r3, lsl #22
     9d4:	03ab0500 			; <UNDEFINED> instruction: 0x03ab0500
     9d8:	000000ff 	strdeq	r0, [r0], -pc	; <UNPREDICTABLE>
     9dc:	00043703 	andeq	r3, r4, r3, lsl #14
     9e0:	1baf0500 	blne	febc1de8 <__bss_end__+0xfebb8920>
     9e4:	00000091 	muleq	r0, r1, r0
     9e8:	01410406 	cmpeq	r1, r6, lsl #8
     9ec:	01040000 	mrseq	r0, (UNDEF: 4)
     9f0:	00006308 	andeq	r6, r0, r8, lsl #6
     9f4:	01410f00 	cmpeq	r1, r0, lsl #30
     9f8:	76030000 	strvc	r0, [r3], -r0
     9fc:	06000006 	streq	r0, [r0], -r6
     a00:	00751916 	rsbseq	r1, r5, r6, lsl r9
     a04:	48100000 	ldmdami	r0, {}	; <UNPREDICTABLE>
     a08:	18000004 	stmdane	r0, {r2}
     a0c:	b3082f06 	movwlt	r2, #36614	; 0x8f06
     a10:	0e000001 	cdpeq	0, 0, cr0, cr0, cr1, {0}
     a14:	000005bc 			; <UNDEFINED> instruction: 0x000005bc
     a18:	b3133106 	tstlt	r3, #-2147483647	; 0x80000001
     a1c:	00000001 	andeq	r0, r0, r1
     a20:	006b5f11 	rsbeq	r5, fp, r1, lsl pc
     a24:	25073206 	strcs	r3, [r7, #-518]	; 0xfffffdfa
     a28:	04000000 	streq	r0, [r0], #-0
     a2c:	0006040e 	andeq	r0, r6, lr, lsl #8
     a30:	0b320600 	bleq	c82238 <__bss_end__+0xc78d70>
     a34:	00000025 	andeq	r0, r0, r5, lsr #32
     a38:	04310e08 	ldrteq	r0, [r1], #-3592	; 0xfffff1f8
     a3c:	32060000 	andcc	r0, r6, #0, 0
     a40:	00002514 	andeq	r2, r0, r4, lsl r5
     a44:	ab0e0c00 	blge	383a4c <__bss_end__+0x37a584>
     a48:	06000006 	streq	r0, [r0], -r6
     a4c:	00251b32 	eoreq	r1, r5, r2, lsr fp
     a50:	11100000 	tstne	r0, r0
     a54:	0600785f 			; <UNDEFINED> instruction: 0x0600785f
     a58:	01b90b33 			; <UNDEFINED> instruction: 0x01b90b33
     a5c:	00140000 	andseq	r0, r4, r0
     a60:	01590406 	cmpeq	r9, r6, lsl #8
     a64:	4d0b0000 	stcmi	0, cr0, [fp, #-0]
     a68:	c9000001 	stmdbgt	r0, {r0}
     a6c:	0c000001 	stceq	0, cr0, [r0], {1}
     a70:	00000038 	andeq	r0, r0, r8, lsr r0
     a74:	75100000 	ldrvc	r0, [r0, #-0]
     a78:	24000004 	strcs	r0, [r0], #-4
     a7c:	4c083706 	stcmi	7, cr3, [r8], {6}
     a80:	0e000002 	cdpeq	0, 0, cr0, cr0, cr2, {0}
     a84:	000002bf 			; <UNDEFINED> instruction: 0x000002bf
     a88:	25093906 	strcs	r3, [r9, #-2310]	; 0xfffff6fa
     a8c:	00000000 	andeq	r0, r0, r0
     a90:	0006440e 	andeq	r4, r6, lr, lsl #8
     a94:	093a0600 	ldmdbeq	sl!, {r9, sl}
     a98:	00000025 	andeq	r0, r0, r5, lsr #32
     a9c:	02d40e04 	sbcseq	r0, r4, #4, 28	; 0x40
     aa0:	3b060000 	blcc	180aa8 <__bss_end__+0x1775e0>
     aa4:	00002509 	andeq	r2, r0, r9, lsl #10
     aa8:	240e0800 	strcs	r0, [lr], #-2048	; 0xfffff800
     aac:	06000007 	streq	r0, [r0], -r7
     ab0:	0025093c 	eoreq	r0, r5, ip, lsr r9
     ab4:	0e0c0000 	cdpeq	0, 0, cr0, cr12, cr0, {0}
     ab8:	00000534 	andeq	r0, r0, r4, lsr r5
     abc:	25093d06 	strcs	r3, [r9, #-3334]	; 0xfffff2fa
     ac0:	10000000 	andne	r0, r0, r0
     ac4:	0005230e 	andeq	r2, r5, lr, lsl #6
     ac8:	093e0600 	ldmdbeq	lr!, {r9, sl}
     acc:	00000025 	andeq	r0, r0, r5, lsr #32
     ad0:	06b00e14 	ssateq	r0, #17, r4, lsl #28
     ad4:	3f060000 	svccc	0x00060000
     ad8:	00002509 	andeq	r2, r0, r9, lsl #10
     adc:	7d0e1800 	stcvc	8, cr1, [lr, #-0]
     ae0:	06000005 	streq	r0, [r0], -r5
     ae4:	00250940 	eoreq	r0, r5, r0, asr #18
     ae8:	0e1c0000 	cdpeq	0, 1, cr0, cr12, cr0, {0}
     aec:	000006eb 	andeq	r0, r0, fp, ror #13
     af0:	25094106 	strcs	r4, [r9, #-262]	; 0xfffffefa
     af4:	20000000 	andcs	r0, r0, r0
     af8:	02e31200 	rsceq	r1, r3, #0, 4
     afc:	01080000 	mrseq	r0, (UNDEF: 8)
     b00:	91084a06 	tstls	r8, r6, lsl #20
     b04:	0e000002 	cdpeq	0, 0, cr0, cr0, cr2, {0}
     b08:	00000424 	andeq	r0, r0, r4, lsr #8
     b0c:	910a4b06 	tstls	sl, r6, lsl #22
     b10:	00000002 	andeq	r0, r0, r2
     b14:	00024c0e 	andeq	r4, r2, lr, lsl #24
     b18:	094c0600 	stmdbeq	ip, {r9, sl}^
     b1c:	00000291 	muleq	r0, r1, r2
     b20:	06681380 	strbteq	r1, [r8], -r0, lsl #7
     b24:	4e060000 	cdpmi	0, 0, cr0, cr6, cr0, {0}
     b28:	00014d0a 	andeq	r4, r1, sl, lsl #26
     b2c:	13010000 	movwne	r0, #4096	; 0x1000
     b30:	00000308 	andeq	r0, r0, r8, lsl #6
     b34:	4d0a5106 	stfmis	f5, [sl, #-24]	; 0xffffffe8
     b38:	04000001 	streq	r0, [r0], #-1
     b3c:	8f0b0001 	svchi	0x000b0001
     b40:	a1000000 	mrsge	r0, (UNDEF: 0)
     b44:	0c000002 	stceq	0, cr0, [r0], {2}
     b48:	00000038 	andeq	r0, r0, r8, lsr r0
     b4c:	3d12001f 	ldccc	0, cr0, [r2, #-124]	; 0xffffff84
     b50:	90000005 	andls	r0, r0, r5
     b54:	085d0601 	ldmdaeq	sp, {r0, r9, sl}^
     b58:	000002e4 	andeq	r0, r0, r4, ror #5
     b5c:	0005bc0e 	andeq	fp, r5, lr, lsl #24
     b60:	125e0600 	subsne	r0, lr, #0, 12
     b64:	000002e4 	andeq	r0, r0, r4, ror #5
     b68:	05d40e00 	ldrbeq	r0, [r4, #3584]	; 0xe00
     b6c:	5f060000 	svcpl	0x00060000
     b70:	00002506 	andeq	r2, r0, r6, lsl #10
     b74:	2c0e0400 	cfstrscs	mvf0, [lr], {-0}
     b78:	06000004 	streq	r0, [r0], -r4
     b7c:	02ea0961 	rsceq	r0, sl, #1589248	; 0x184000
     b80:	0e080000 	cdpeq	0, 0, cr0, cr8, cr0, {0}
     b84:	000002e3 	andeq	r0, r0, r3, ror #5
     b88:	4c1e6206 	lfmmi	f6, 4, [lr], {6}
     b8c:	88000002 	stmdahi	r0, {r1}
     b90:	a1040600 	tstge	r4, r0, lsl #12
     b94:	0b000002 	bleq	ba4 <__code_start__-0x745c>
     b98:	000002fa 	strdeq	r0, [r0], -sl
     b9c:	000002fa 	strdeq	r0, [r0], -sl
     ba0:	0000380c 	andeq	r3, r0, ip, lsl #16
     ba4:	06001f00 	streq	r1, [r0], -r0, lsl #30
     ba8:	00030004 	andeq	r0, r3, r4
     bac:	87101400 	ldrhi	r1, [r0, -r0, lsl #8]
     bb0:	08000005 	stmdaeq	r0, {r0, r2}
     bb4:	29087506 	stmdbcs	r8, {r1, r2, r8, sl, ip, sp, lr}
     bb8:	0e000003 	cdpeq	0, 0, cr0, cr0, cr3, {0}
     bbc:	000002ce 	andeq	r0, r0, lr, asr #5
     bc0:	29117606 	ldmdbcs	r1, {r1, r2, r9, sl, ip, sp, lr}
     bc4:	00000003 	andeq	r0, r0, r3
     bc8:	0002580e 	andeq	r5, r2, lr, lsl #16
     bcc:	06770600 	ldrbteq	r0, [r7], -r0, lsl #12
     bd0:	00000025 	andeq	r0, r0, r5, lsr #32
     bd4:	04060004 	streq	r0, [r6], #-4
     bd8:	0000005b 	andeq	r0, r0, fp, asr r0
     bdc:	0005a610 	andeq	sl, r5, r0, lsl r6
     be0:	b5066800 	strlt	r6, [r6, #-2048]	; 0xfffff800
     be4:	00047208 	andeq	r7, r4, r8, lsl #4
     be8:	705f1100 	subsvc	r1, pc, r0, lsl #2
     bec:	12b60600 	adcsne	r0, r6, #0, 12
     bf0:	00000329 	andeq	r0, r0, r9, lsr #6
     bf4:	725f1100 	subsvc	r1, pc, #0
     bf8:	07b70600 	ldreq	r0, [r7, r0, lsl #12]!
     bfc:	00000025 	andeq	r0, r0, r5, lsr #32
     c00:	775f1104 	ldrbvc	r1, [pc, -r4, lsl #2]
     c04:	07b80600 	ldreq	r0, [r8, r0, lsl #12]!
     c08:	00000025 	andeq	r0, r0, r5, lsr #32
     c0c:	03010e08 	movweq	r0, #7688	; 0x1e08
     c10:	b9060000 	stmdblt	r6, {}	; <UNPREDICTABLE>
     c14:	00004609 	andeq	r4, r0, r9, lsl #12
     c18:	a20e0c00 	andge	r0, lr, #0, 24
     c1c:	06000004 	streq	r0, [r0], -r4
     c20:	004609ba 	strheq	r0, [r6], #-154	; 0xffffff66
     c24:	110e0000 	mrsne	r0, (UNDEF: 14)
     c28:	0066625f 	rsbeq	r6, r6, pc, asr r2
     c2c:	0111bb06 	tsteq	r1, r6, lsl #22
     c30:	10000003 	andne	r0, r0, r3
     c34:	00029c0e 	andeq	r9, r2, lr, lsl #24
     c38:	07bc0600 	ldreq	r0, [ip, r0, lsl #12]!
     c3c:	00000025 	andeq	r0, r0, r5, lsr #32
     c40:	02f10e18 	rscseq	r0, r1, #24, 28	; 0x180
     c44:	c3060000 	movwgt	r0, #24576	; 0x6000
     c48:	00008f0a 	andeq	r8, r0, sl, lsl #30
     c4c:	e50e1c00 	str	r1, [lr, #-3072]	; 0xfffff400
     c50:	0600000a 	streq	r0, [r0], -sl
     c54:	05e41dc5 	strbeq	r1, [r4, #3525]!	; 0xdc5
     c58:	0e200000 	cdpeq	0, 2, cr0, cr0, cr0, {0}
     c5c:	00000aff 	strdeq	r0, [r0], -pc	; <UNPREDICTABLE>
     c60:	0e1dc706 	cdpeq	7, 1, cr12, cr13, cr6, {0}
     c64:	24000006 	strcs	r0, [r0], #-6
     c68:	0006280e 	andeq	r2, r6, lr, lsl #16
     c6c:	0dca0600 	stcleq	6, cr0, [sl]
     c70:	00000632 	andeq	r0, r0, r2, lsr r6
     c74:	07050e28 	streq	r0, [r5, -r8, lsr #28]
     c78:	cb060000 	blgt	180c80 <__bss_end__+0x1777b8>
     c7c:	00064c09 	andeq	r4, r6, r9, lsl #24
     c80:	5f112c00 	svcpl	0x00112c00
     c84:	06006275 			; <UNDEFINED> instruction: 0x06006275
     c88:	030111ce 	movweq	r1, #4558	; 0x11ce
     c8c:	11300000 	teqne	r0, r0
     c90:	0070755f 	rsbseq	r7, r0, pc, asr r5
     c94:	2912cf06 	ldmdbcs	r2, {r1, r2, r8, r9, sl, fp, lr, pc}
     c98:	38000003 	stmdacc	r0, {r0, r1}
     c9c:	72755f11 	rsbsvc	r5, r5, #68	; 0x44
     ca0:	07d00600 	ldrbeq	r0, [r0, r0, lsl #12]
     ca4:	00000025 	andeq	r0, r0, r5, lsr #32
     ca8:	02c80e3c 	sbceq	r0, r8, #60, 28	; 0x3c0
     cac:	d3060000 	movwle	r0, #24576	; 0x6000
     cb0:	00065211 	andeq	r5, r6, r1, lsl r2
     cb4:	dd0e4000 	stcle	0, cr4, [lr, #-0]
     cb8:	06000006 	streq	r0, [r0], -r6
     cbc:	066211d4 			; <UNDEFINED> instruction: 0x066211d4
     cc0:	11430000 	mrsne	r0, (UNDEF: 67)
     cc4:	00626c5f 	rsbeq	r6, r2, pc, asr ip
     cc8:	0111d706 	tsteq	r1, r6, lsl #14
     ccc:	44000003 	strmi	r0, [r0], #-3
     cd0:	0003170e 	andeq	r1, r3, lr, lsl #14
     cd4:	07da0600 	ldrbeq	r0, [sl, r0, lsl #12]
     cd8:	00000025 	andeq	r0, r0, r5, lsr #32
     cdc:	03280e4c 			; <UNDEFINED> instruction: 0x03280e4c
     ce0:	db060000 	blle	180ce8 <__bss_end__+0x177820>
     ce4:	0000a80a 	andeq	sl, r0, sl, lsl #16
     ce8:	410e5000 	mrsmi	r5, (UNDEF: 14)
     cec:	0600000a 	streq	r0, [r0], -sl
     cf0:	049012de 	ldreq	r1, [r0], #734	; 0x2de
     cf4:	0e540000 	cdpeq	0, 5, cr0, cr4, cr0, {0}
     cf8:	00000622 	andeq	r0, r0, r2, lsr #12
     cfc:	2f0ce206 	svccs	0x000ce206
     d00:	58000001 	stmdapl	r0, {r0}
     d04:	0005ae0e 	andeq	sl, r5, lr, lsl #28
     d08:	0ee40600 	cdpeq	6, 14, cr0, cr4, cr0, {0}
     d0c:	00000123 	andeq	r0, r0, r3, lsr #2
     d10:	051b0e5c 	ldreq	r0, [fp, #-3676]	; 0xfffff1a4
     d14:	e5060000 	str	r0, [r6, #-0]
     d18:	00002509 	andeq	r2, r0, r9, lsl #10
     d1c:	15006400 	strne	r6, [r0, #-1024]	; 0xfffffc00
     d20:	00000025 	andeq	r0, r0, r5, lsr #32
     d24:	00000490 	muleq	r0, r0, r4
     d28:	00049016 	andeq	r9, r4, r6, lsl r0
     d2c:	008f1600 	addeq	r1, pc, r0, lsl #12
     d30:	3b160000 	blcc	580d38 <__bss_end__+0x577870>
     d34:	16000001 	strne	r0, [r0], -r1
     d38:	00000025 	andeq	r0, r0, r5, lsr #32
     d3c:	9b040600 	blls	102544 <__bss_end__+0xf907c>
     d40:	0f000004 	svceq	0x00000004
     d44:	00000490 	muleq	r0, r0, r4
     d48:	00060c17 	andeq	r0, r6, r7, lsl ip
     d4c:	06042800 	streq	r2, [r4], -r0, lsl #16
     d50:	e4080260 	str	r0, [r8], #-608	; 0xfffffda0
     d54:	18000005 	stmdane	r0, {r0, r2}
     d58:	00000576 	andeq	r0, r0, r6, ror r5
     d5c:	07026206 	streq	r6, [r2, -r6, lsl #4]
     d60:	00000025 	andeq	r0, r0, r5, lsr #32
     d64:	03101800 	tsteq	r0, #0, 16
     d68:	67060000 	strvs	r0, [r6, -r0]
     d6c:	06be0b02 	ldrteq	r0, [lr], r2, lsl #22
     d70:	18040000 	stmdane	r4, {}	; <UNPREDICTABLE>
     d74:	00000492 	muleq	r0, r2, r4
     d78:	14026706 	strne	r6, [r2], #-1798	; 0xfffff8fa
     d7c:	000006be 			; <UNDEFINED> instruction: 0x000006be
     d80:	04401808 	strbeq	r1, [r0], #-2056	; 0xfffff7f8
     d84:	67060000 	strvs	r0, [r6, -r0]
     d88:	06be1e02 	ldrteq	r1, [lr], r2, lsl #28
     d8c:	180c0000 	stmdane	ip, {}	; <UNPREDICTABLE>
     d90:	000005cf 	andeq	r0, r0, pc, asr #11
     d94:	08026906 	stmdaeq	r2, {r1, r2, r8, fp, sp, lr}
     d98:	00000025 	andeq	r0, r0, r5, lsr #32
     d9c:	026d1810 	rsbeq	r1, sp, #16, 16	; 0x100000
     da0:	6a060000 	bvs	180da8 <__bss_end__+0x1778e0>
     da4:	08be0802 	ldmeq	lr!, {r1, fp}
     da8:	18140000 	ldmdane	r4, {}	; <UNPREDICTABLE>
     dac:	000005eb 	andeq	r0, r0, fp, ror #11
     db0:	07026d06 	streq	r6, [r2, -r6, lsl #26]
     db4:	00000025 	andeq	r0, r0, r5, lsr #32
     db8:	05d91830 	ldrbeq	r1, [r9, #2096]	; 0x830
     dbc:	6e060000 	cdpvs	0, 0, cr0, cr6, cr0, {0}
     dc0:	08d31602 	ldmeq	r3, {r1, r9, sl, ip}^
     dc4:	18340000 	ldmdane	r4!, {}	; <UNPREDICTABLE>
     dc8:	00000545 	andeq	r0, r0, r5, asr #10
     dcc:	07027006 	streq	r7, [r2, -r6]
     dd0:	00000025 	andeq	r0, r0, r5, lsr #32
     dd4:	05e11838 	strbeq	r1, [r1, #2104]!	; 0x838
     dd8:	72060000 	andvc	r0, r6, #0, 0
     ddc:	08e40a02 	stmiaeq	r4!, {r1, r9, fp}^
     de0:	183c0000 	ldmdane	ip!, {}	; <UNPREDICTABLE>
     de4:	000004fe 	strdeq	r0, [r0], -lr
     de8:	13027506 	movwne	r7, #9478	; 0x2506
     dec:	000001b3 			; <UNDEFINED> instruction: 0x000001b3
     df0:	045f1840 	ldrbeq	r1, [pc], #-2112	; df8 <__code_start__-0x7208>
     df4:	76060000 	strvc	r0, [r6], -r0
     df8:	00250702 	eoreq	r0, r5, r2, lsl #14
     dfc:	18440000 	stmdane	r4, {}^	; <UNPREDICTABLE>
     e00:	0000071f 	andeq	r0, r0, pc, lsl r7
     e04:	13027706 	movwne	r7, #9990	; 0x2706
     e08:	000001b3 			; <UNDEFINED> instruction: 0x000001b3
     e0c:	05571848 	ldrbeq	r1, [r7, #-2120]	; 0xfffff7b8
     e10:	78060000 	stmdavc	r6, {}	; <UNPREDICTABLE>
     e14:	08ea1402 	stmiaeq	sl!, {r1, sl, ip}^
     e18:	184c0000 	stmdane	ip, {}^	; <UNPREDICTABLE>
     e1c:	0000049a 	muleq	r0, sl, r4
     e20:	07027b06 	streq	r7, [r2, -r6, lsl #22]
     e24:	00000025 	andeq	r0, r0, r5, lsr #32
     e28:	03201850 			; <UNDEFINED> instruction: 0x03201850
     e2c:	7c060000 	stcvc	0, cr0, [r6], {-0}
     e30:	013b0902 	teqeq	fp, r2, lsl #18
     e34:	18540000 	ldmdane	r4, {}^	; <UNPREDICTABLE>
     e38:	0000056f 	andeq	r0, r0, pc, ror #10
     e3c:	07029f06 	streq	r9, [r2, -r6, lsl #30]
     e40:	00000899 	muleq	r0, r9, r8
     e44:	053d1958 	ldreq	r1, [sp, #-2392]!	; 0xfffff6a8
     e48:	a3060000 	movwge	r0, #24576	; 0x6000
     e4c:	02e41302 	rsceq	r1, r4, #134217728	; 0x8000000
     e50:	01480000 	mrseq	r0, (UNDEF: 72)
     e54:	0004d819 	andeq	sp, r4, r9, lsl r8
     e58:	02a40600 	adceq	r0, r4, #0, 12
     e5c:	0002a112 	andeq	sl, r2, r2, lsl r1
     e60:	19014c00 	stmdbne	r1, {sl, fp, lr}
     e64:	000006d3 	ldrdeq	r0, [r0], -r3
     e68:	0c02a806 	stceq	8, cr10, [r2], {6}
     e6c:	000008fb 	strdeq	r0, [r0], -fp
     e70:	f91902dc 			; <UNDEFINED> instruction: 0xf91902dc
     e74:	06000002 	streq	r0, [r0], -r2
     e78:	7f1002ad 	svcvc	0x001002ad
     e7c:	e0000006 	and	r0, r0, r6
     e80:	02de1902 	sbcseq	r1, lr, #32768	; 0x8000
     e84:	af060000 	svcge	0x00060000
     e88:	09070a02 	stmdbeq	r7, {r1, r9, fp}
     e8c:	02ec0000 	rsceq	r0, ip, #0, 0
     e90:	72040600 	andvc	r0, r4, #0, 12
     e94:	15000004 	strne	r0, [r0, #-4]
     e98:	00000025 	andeq	r0, r0, r5, lsr #32
     e9c:	00000608 	andeq	r0, r0, r8, lsl #12
     ea0:	00049016 	andeq	r9, r4, r6, lsl r0
     ea4:	008f1600 	addeq	r1, pc, r0, lsl #12
     ea8:	08160000 	ldmdaeq	r6, {}	; <UNPREDICTABLE>
     eac:	16000006 	strne	r0, [r0], -r6
     eb0:	00000025 	andeq	r0, r0, r5, lsr #32
     eb4:	48040600 	stmdami	r4, {r9, sl}
     eb8:	06000001 	streq	r0, [r0], -r1
     ebc:	0005ea04 	andeq	lr, r5, r4, lsl #20
     ec0:	00b41500 	adcseq	r1, r4, r0, lsl #10
     ec4:	06320000 	ldrteq	r0, [r2], -r0
     ec8:	90160000 	andsls	r0, r6, r0
     ecc:	16000004 	strne	r0, [r0], -r4
     ed0:	0000008f 	andeq	r0, r0, pc, lsl #1
     ed4:	0000b416 	andeq	fp, r0, r6, lsl r4
     ed8:	00251600 	eoreq	r1, r5, r0, lsl #12
     edc:	06000000 	streq	r0, [r0], -r0
     ee0:	00061404 	andeq	r1, r6, r4, lsl #8
     ee4:	00251500 	eoreq	r1, r5, r0, lsl #10
     ee8:	064c0000 	strbeq	r0, [ip], -r0
     eec:	90160000 	andsls	r0, r6, r0
     ef0:	16000004 	strne	r0, [r0], -r4
     ef4:	0000008f 	andeq	r0, r0, pc, lsl #1
     ef8:	38040600 	stmdacc	r4, {r9, sl}
     efc:	0b000006 	bleq	f1c <__code_start__-0x70e4>
     f00:	0000005b 	andeq	r0, r0, fp, asr r0
     f04:	00000662 	andeq	r0, r0, r2, ror #12
     f08:	0000380c 	andeq	r3, r0, ip, lsl #16
     f0c:	0b000200 	bleq	1714 <__code_start__-0x68ec>
     f10:	0000005b 	andeq	r0, r0, fp, asr r0
     f14:	00000672 	andeq	r0, r0, r2, ror r6
     f18:	0000380c 	andeq	r3, r0, ip, lsl #16
     f1c:	08000000 	stmdaeq	r0, {}	; <UNPREDICTABLE>
     f20:	00000594 	muleq	r0, r4, r5
     f24:	1a011f06 	bne	48b44 <__bss_end__+0x3f67c>
     f28:	0000032f 	andeq	r0, r0, pc, lsr #6
     f2c:	0006ba1a 	andeq	fp, r6, sl, lsl sl
     f30:	23060c00 	movwcs	r0, #27648	; 0x6c00
     f34:	06b80801 	ldrteq	r0, [r8], r1, lsl #16
     f38:	bc180000 	ldclt	0, cr0, [r8], {-0}
     f3c:	06000005 	streq	r0, [r0], -r5
     f40:	b8110125 	ldmdalt	r1, {r0, r2, r5, r8}
     f44:	00000006 	andeq	r0, r0, r6
     f48:	0004d118 	andeq	sp, r4, r8, lsl r1
     f4c:	01260600 			; <UNDEFINED> instruction: 0x01260600
     f50:	00002507 	andeq	r2, r0, r7, lsl #10
     f54:	8e180400 	cfmulshi	mvf0, mvf8, mvf0
     f58:	06000005 	streq	r0, [r0], -r5
     f5c:	be0b0127 	adfltep	f0, f3, f7
     f60:	08000006 	stmdaeq	r0, {r1, r2}
     f64:	7f040600 	svcvc	0x00040600
     f68:	06000006 	streq	r0, [r0], -r6
     f6c:	00067204 	andeq	r7, r6, r4, lsl #4
     f70:	02651a00 	rsbeq	r1, r5, #0, 20
     f74:	060e0000 	streq	r0, [lr], -r0
     f78:	fd08013f 	stc2	1, cr0, [r8, #-252]	; 0xffffff04
     f7c:	18000006 	stmdane	r0, {r1, r2}
     f80:	00000613 	andeq	r0, r0, r3, lsl r6
     f84:	12014006 	andne	r4, r1, #6, 0
     f88:	000006fd 	strdeq	r0, [r0], -sp
     f8c:	064d1800 	strbeq	r1, [sp], -r0, lsl #16
     f90:	41060000 	mrsmi	r0, (UNDEF: 6)
     f94:	06fd1201 	ldrbteq	r1, [sp], r1, lsl #4
     f98:	18060000 	stmdane	r6, {}	; <UNPREDICTABLE>
     f9c:	00000671 	andeq	r0, r0, r1, ror r6
     fa0:	12014206 	andne	r4, r1, #1610612736	; 0x60000000
     fa4:	00000062 	andeq	r0, r0, r2, rrx
     fa8:	620b000c 	andvs	r0, fp, #12, 0
     fac:	0d000000 	stceq	0, cr0, [r0, #-0]
     fb0:	0c000007 	stceq	0, cr0, [r0], {7}
     fb4:	00000038 	andeq	r0, r0, r8, lsr r0
     fb8:	d01b0002 	andsle	r0, fp, r2
     fbc:	07028006 	streq	r8, [r2, -r6]
     fc0:	00000822 	andeq	r0, r0, r2, lsr #16
     fc4:	00069e18 	andeq	r9, r6, r8, lsl lr
     fc8:	02820600 	addeq	r0, r2, #0, 12
     fcc:	00003818 	andeq	r3, r0, r8, lsl r8
     fd0:	53180000 	tstpl	r8, #0, 0
     fd4:	06000006 	streq	r0, [r0], -r6
     fd8:	3b120283 	blcc	4819ec <__bss_end__+0x478524>
     fdc:	04000001 	streq	r0, [r0], #-1
     fe0:	0004f118 	andeq	pc, r4, r8, lsl r1	; <UNPREDICTABLE>
     fe4:	02840600 	addeq	r0, r4, #0, 12
     fe8:	00082210 	andeq	r2, r8, r0, lsl r2
     fec:	f6180800 			; <UNDEFINED> instruction: 0xf6180800
     ff0:	06000006 	streq	r0, [r0], -r6
     ff4:	c9170285 	ldmdbgt	r7, {r0, r2, r7, r9}
     ff8:	24000001 	strcs	r0, [r0], #-1
     ffc:	00045018 	andeq	r5, r4, r8, lsl r0
    1000:	02860600 	addeq	r0, r6, #0, 12
    1004:	0000250f 	andeq	r2, r0, pc, lsl #10
    1008:	b7184800 	ldrlt	r4, [r8, -r0, lsl #16]
    100c:	06000005 	streq	r0, [r0], -r5
    1010:	882c0287 	stmdahi	ip!, {r0, r1, r2, r7, r9}
    1014:	50000000 	andpl	r0, r0, r0
    1018:	00070c18 	andeq	r0, r7, r8, lsl ip
    101c:	02880600 	addeq	r0, r8, #0, 12
    1020:	0006c41a 	andeq	ip, r6, sl, lsl r4
    1024:	c2185800 	andsgt	r5, r8, #0, 16
    1028:	06000005 	streq	r0, [r0], -r5
    102c:	23160289 	tstcs	r6, #-1879048184	; 0x90000008
    1030:	68000001 	stmdavs	r0, {r0}
    1034:	00071118 	andeq	r1, r7, r8, lsl r1
    1038:	028a0600 	addeq	r0, sl, #0, 12
    103c:	00012316 	andeq	r2, r1, r6, lsl r3
    1040:	61187000 	tstvs	r8, r0
    1044:	06000005 	streq	r0, [r0], -r5
    1048:	2316028b 	tstcs	r6, #-1342177272	; 0xb0000008
    104c:	78000001 	stmdavc	r0, {r0}
    1050:	0006c918 	andeq	ip, r6, r8, lsl r9
    1054:	028c0600 	addeq	r0, ip, #0, 12
    1058:	00083210 	andeq	r3, r8, r0, lsl r2
    105c:	90188000 	andsls	r8, r8, r0
    1060:	06000002 	streq	r0, [r0], -r2
    1064:	4210028d 	andsmi	r0, r0, #-805306360	; 0xd0000008
    1068:	88000008 	stmdahi	r0, {r3}
    106c:	00067e18 	andeq	r7, r6, r8, lsl lr
    1070:	028e0600 	addeq	r0, lr, #0, 12
    1074:	0000250f 	andeq	r2, r0, pc, lsl #10
    1078:	1618a000 	ldrne	sl, [r8], -r0
    107c:	06000004 	streq	r0, [r0], -r4
    1080:	2316028f 	tstcs	r6, #-268435448	; 0xf0000008
    1084:	a4000001 	strge	r0, [r0], #-1
    1088:	0002b018 	andeq	fp, r2, r8, lsl r0
    108c:	02900600 	addseq	r0, r0, #0, 12
    1090:	00012316 	andeq	r2, r1, r6, lsl r3
    1094:	0518ac00 	ldreq	sl, [r8, #-3072]	; 0xfffff400
    1098:	06000004 	streq	r0, [r0], -r4
    109c:	23160291 	tstcs	r6, #268435465	; 0x10000009
    10a0:	b4000001 	strlt	r0, [r0], #-1
    10a4:	00028118 	andeq	r8, r2, r8, lsl r1
    10a8:	02920600 	addseq	r0, r2, #0, 12
    10ac:	00012316 	andeq	r2, r1, r6, lsl r3
    10b0:	8118bc00 	tsthi	r8, r0, lsl #24
    10b4:	06000004 	streq	r0, [r0], -r4
    10b8:	23160293 	tstcs	r6, #805306377	; 0x30000009
    10bc:	c4000001 	strgt	r0, [r0], #-1
    10c0:	00057418 	andeq	r7, r5, r8, lsl r4
    10c4:	02940600 	addseq	r0, r4, #0, 12
    10c8:	00002508 	andeq	r2, r0, r8, lsl #10
    10cc:	0b00cc00 	bleq	340d4 <__bss_end__+0x2ac0c>
    10d0:	00000141 	andeq	r0, r0, r1, asr #2
    10d4:	00000832 	andeq	r0, r0, r2, lsr r8
    10d8:	0000380c 	andeq	r3, r0, ip, lsl #16
    10dc:	0b001900 	bleq	74e4 <__code_start__-0xb1c>
    10e0:	00000141 	andeq	r0, r0, r1, asr #2
    10e4:	00000842 	andeq	r0, r0, r2, asr #16
    10e8:	0000380c 	andeq	r3, r0, ip, lsl #16
    10ec:	0b000700 	bleq	2cf4 <__code_start__-0x530c>
    10f0:	00000141 	andeq	r0, r0, r1, asr #2
    10f4:	00000852 	andeq	r0, r0, r2, asr r8
    10f8:	0000380c 	andeq	r3, r0, ip, lsl #16
    10fc:	1b001700 	blne	6d04 <__code_start__-0x12fc>
    1100:	029906f0 	addseq	r0, r9, #240, 12	; 0xf000000
    1104:	00087907 	andeq	r7, r8, r7, lsl #18
    1108:	052d1800 	streq	r1, [sp, #-2048]!	; 0xfffff800
    110c:	9c060000 	stcls	0, cr0, [r6], {-0}
    1110:	08791b02 	ldmdaeq	r9!, {r1, r8, r9, fp, ip}^
    1114:	18000000 	stmdane	r0, {}	; <UNPREDICTABLE>
    1118:	000006c0 	andeq	r0, r0, r0, asr #13
    111c:	18029d06 	stmdane	r2, {r1, r2, r8, sl, fp, ip, pc}
    1120:	00000889 	andeq	r0, r0, r9, lsl #17
    1124:	290b0078 	stmdbcs	fp, {r3, r4, r5, r6}
    1128:	89000003 	stmdbhi	r0, {r0, r1}
    112c:	0c000008 	stceq	0, cr0, [r0], {8}
    1130:	00000038 	andeq	r0, r0, r8, lsr r0
    1134:	380b001d 	stmdacc	fp, {r0, r2, r3, r4}
    1138:	99000000 	stmdbls	r0, {}	; <UNPREDICTABLE>
    113c:	0c000008 	stceq	0, cr0, [r0], {8}
    1140:	00000038 	andeq	r0, r0, r8, lsr r0
    1144:	f01c001d 			; <UNDEFINED> instruction: 0xf01c001d
    1148:	03027e06 	movweq	r7, #11782	; 0x2e06
    114c:	000008be 			; <UNDEFINED> instruction: 0x000008be
    1150:	00060c1d 	andeq	r0, r6, sp, lsl ip
    1154:	02950600 	addseq	r0, r5, #0, 12
    1158:	00070d0b 	andeq	r0, r7, fp, lsl #26
    115c:	06e31d00 	strbteq	r1, [r3], r0, lsl #26
    1160:	9e060000 	cdpls	0, 0, cr0, cr6, cr0, {0}
    1164:	08520b02 	ldmdaeq	r2, {r1, r8, r9, fp}^
    1168:	0b000000 	bleq	1170 <__code_start__-0x6e90>
    116c:	00000141 	andeq	r0, r0, r1, asr #2
    1170:	000008ce 	andeq	r0, r0, lr, asr #17
    1174:	0000380c 	andeq	r3, r0, ip, lsl #16
    1178:	07001800 	streq	r1, [r0, -r0, lsl #16]
    117c:	000002a5 	andeq	r0, r0, r5, lsr #5
    1180:	08ce0406 	stmiaeq	lr, {r1, r2, sl}^
    1184:	e41e0000 	ldr	r0, [lr], #-0
    1188:	16000008 	strne	r0, [r0], -r8
    118c:	00000490 	muleq	r0, r0, r4
    1190:	d9040600 	stmdble	r4, {r9, sl}
    1194:	06000008 	streq	r0, [r0], -r8
    1198:	0001b304 	andeq	fp, r1, r4, lsl #6
    119c:	08fb1e00 	ldmeq	fp!, {r9, sl, fp, ip}^
    11a0:	25160000 	ldrcs	r0, [r6, #-0]
    11a4:	00000000 	andeq	r0, r0, r0
    11a8:	09010406 	stmdbeq	r1, {r1, r2, sl}
    11ac:	04060000 	streq	r0, [r6], #-0
    11b0:	000008f0 	strdeq	r0, [r0], -r0	; <UNPREDICTABLE>
    11b4:	0006720b 	andeq	r7, r6, fp, lsl #4
    11b8:	00091700 	andeq	r1, r9, r0, lsl #14
    11bc:	00380c00 	eorseq	r0, r8, r0, lsl #24
    11c0:	00020000 	andeq	r0, r2, r0
    11c4:	0006921f 	andeq	r9, r6, pc, lsl r2
    11c8:	032e0600 			; <UNDEFINED> instruction: 0x032e0600
    11cc:	00049017 	andeq	r9, r4, r7, lsl r0
    11d0:	068b1f00 	streq	r1, [fp], r0, lsl #30
    11d4:	2f060000 	svccs	0x00060000
    11d8:	04961d03 	ldreq	r1, [r6], #3331	; 0xd03
    11dc:	36030000 	strcc	r0, [r3], -r0
    11e0:	07000006 	streq	r0, [r0, -r6]
    11e4:	093d0f21 	ldmdbeq	sp!, {r0, r5, r8, r9, sl, fp}
    11e8:	04060000 	streq	r0, [r6], #-0
    11ec:	00000943 	andeq	r0, r0, r3, asr #18
    11f0:	00002515 	andeq	r2, r0, r5, lsl r5
    11f4:	00095200 	andeq	r5, r9, r0, lsl #4
    11f8:	00251600 	eoreq	r1, r5, r0, lsl #12
    11fc:	20000000 	andcs	r0, r0, r0
    1200:	00000469 	andeq	r0, r0, r9, ror #8
    1204:	31162307 	tstcc	r6, r7, lsl #6
    1208:	21000009 	tstcs	r0, r9
    120c:	0000009a 	muleq	r0, sl, r0
    1210:	8f092108 	svchi	0x00092108
    1214:	b4000000 	strlt	r0, [r0], #-0
    1218:	a0000086 	andge	r0, r0, r6, lsl #1
    121c:	01000000 	mrseq	r0, (UNDEF: 0)
    1220:	000a079c 	muleq	sl, ip, r7
    1224:	73642200 	cmnvc	r4, #0, 4
    1228:	07010074 	smlsdxeq	r1, r4, r0, r0
    122c:	00008f14 	andeq	r8, r0, r4, lsl pc
    1230:	0005b400 	andeq	fp, r5, r0, lsl #8
    1234:	0005ac00 	andeq	sl, r5, r0, lsl #24
    1238:	00632300 	rsbeq	r2, r3, r0, lsl #6
    123c:	251d0701 	ldrcs	r0, [sp, #-1793]	; 0xfffff8ff
    1240:	01000000 	mrseq	r0, (UNDEF: 0)
    1244:	006e2251 	rsbeq	r2, lr, r1, asr r2
    1248:	2c270701 	stccs	7, cr0, [r7], #-4
    124c:	04000000 	streq	r0, [r0], #-0
    1250:	ee000006 	cdp	0, 0, cr0, cr0, cr6, {0}
    1254:	24000005 	strcs	r0, [r0], #-5
    1258:	1c010070 	stcne	0, cr0, [r1], {112}	; 0x70
    125c:	00013b0b 	andeq	r3, r1, fp, lsl #22
    1260:	00069300 	andeq	r9, r6, r0, lsl #6
    1264:	00068b00 	andeq	r8, r6, r0, lsl #22
    1268:	00652400 	rsbeq	r2, r5, r0, lsl #8
    126c:	3b151c01 	blcc	548278 <__bss_end__+0x53edb0>
    1270:	cd000001 	stcgt	0, cr0, [r0, #-4]
    1274:	c9000006 	stmdbgt	r0, {r1, r2}
    1278:	25000006 	strcs	r0, [r0, #-6]
    127c:	00000030 	andeq	r0, r0, r0, lsr r0
    1280:	000009ea 	andeq	r0, r0, sl, ror #19
    1284:	01007024 	tsteq	r0, r4, lsr #32
    1288:	0a07170d 	beq	1c6ec4 <__bss_end__+0x1bd9fc>
    128c:	06f10000 	ldrbteq	r0, [r1], r0
    1290:	06eb0000 	strbteq	r0, [fp], r0
    1294:	26000000 	strcs	r0, [r0], -r0
    1298:	000086ec 	andeq	r8, r0, ip, ror #13
    129c:	00000020 	andeq	r0, r0, r0, lsr #32
    12a0:	01007024 	tsteq	r0, r4, lsr #32
    12a4:	0a0d1714 	beq	346efc <__bss_end__+0x33da34>
    12a8:	07220000 	streq	r0, [r2, -r0]!
    12ac:	071c0000 	ldreq	r0, [ip, -r0]
    12b0:	00000000 	andeq	r0, r0, r0
    12b4:	007c0406 	rsbseq	r0, ip, r6, lsl #8
    12b8:	04060000 	streq	r0, [r6], #-0
    12bc:	00000069 	andeq	r0, r0, r9, rrx
    12c0:	000d1600 	andeq	r1, sp, r0, lsl #12
    12c4:	24000400 	strcs	r0, [r0], #-1024	; 0xfffffc00
    12c8:	04000004 	streq	r0, [r0], #-4
    12cc:	00033001 	andeq	r3, r3, r1
    12d0:	07470c00 	strbeq	r0, [r7, -r0, lsl #24]
    12d4:	04a80000 	strteq	r0, [r8], #0
    12d8:	87540000 	ldrbhi	r0, [r4, -r0]
    12dc:	041c0000 	ldreq	r0, [ip], #-0
    12e0:	05be0000 	ldreq	r0, [lr, #0]!
    12e4:	04020000 	streq	r0, [r2], #-0
    12e8:	746e6905 	strbtvc	r6, [lr], #-2309	; 0xfffff6fb
    12ec:	07040300 	streq	r0, [r4, -r0, lsl #6]
    12f0:	000001ae 	andeq	r0, r0, lr, lsr #3
    12f4:	5c060103 	stfpls	f0, [r6], {3}
    12f8:	03000000 	movweq	r0, #0
    12fc:	01fe0502 	mvnseq	r0, r2, lsl #10
    1300:	04030000 	streq	r0, [r3], #-0
    1304:	0001ed05 	andeq	lr, r1, r5, lsl #26
    1308:	05080300 	streq	r0, [r8, #-768]	; 0xfffffd00
    130c:	000001e8 	andeq	r0, r0, r8, ror #3
    1310:	5a080103 	bpl	201724 <__bss_end__+0x1f825c>
    1314:	03000000 	movweq	r0, #0
    1318:	001c0702 	andseq	r0, ip, r2, lsl #14
    131c:	1b040000 	blne	101324 <__bss_end__+0xf7e5c>
    1320:	02000002 	andeq	r0, r0, #2, 0
    1324:	00691934 	rsbeq	r1, r9, r4, lsr r9
    1328:	04030000 	streq	r0, [r3], #-0
    132c:	0001a907 	andeq	sl, r1, r7, lsl #18
    1330:	02780400 	rsbseq	r0, r8, #0, 8
    1334:	37020000 	strcc	r0, [r2, -r0]
    1338:	00007c19 	andeq	r7, r0, r9, lsl ip
    133c:	07080300 	streq	r0, [r8, -r0, lsl #6]
    1340:	000001a4 	andeq	r0, r0, r4, lsr #3
    1344:	00073804 	andeq	r3, r7, r4, lsl #16
    1348:	1b280300 	blne	a01f50 <__bss_end__+0x9f8a88>
    134c:	0000008f 	andeq	r0, r0, pc, lsl #1
    1350:	00072e05 	andeq	r2, r7, r5, lsl #28
    1354:	00090400 	andeq	r0, r9, r0, lsl #8
    1358:	000000a6 	andeq	r0, r0, r6, lsr #1
    135c:	00075f06 	andeq	r5, r7, r6, lsl #30
    1360:	0000a600 	andeq	sl, r0, r0, lsl #12
    1364:	07000000 	streq	r0, [r0, -r0]
    1368:	07300404 	ldreq	r0, [r0, -r4, lsl #8]!
    136c:	63030000 	movwvs	r0, #12288	; 0x3000
    1370:	00008318 	andeq	r8, r0, r8, lsl r3
    1374:	050c0400 	streq	r0, [ip, #-1024]	; 0xfffffc00
    1378:	22040000 	andcs	r0, r4, #0, 0
    137c:	0000c019 	andeq	ip, r0, r9, lsl r0
    1380:	c6040800 	strgt	r0, [r4], -r0, lsl #16
    1384:	09000000 	stmdbeq	r0, {}	; <UNPREDICTABLE>
    1388:	00000621 	andeq	r0, r0, r1, lsr #12
    138c:	00055004 	andeq	r5, r5, r4
    1390:	0e2c0500 	cfsh64eq	mvdx0, mvdx12, #0
    1394:	00000041 	andeq	r0, r0, r1, asr #32
    1398:	00062e04 	andeq	r2, r6, r4, lsl #28
    139c:	0e720500 	cdpeq	5, 7, cr0, cr2, cr0, {0}
    13a0:	00000041 	andeq	r0, r0, r1, asr #32
    13a4:	0005140a 	andeq	r1, r5, sl, lsl #8
    13a8:	015e0600 	cmpeq	lr, r0, lsl #12
    13ac:	00002c17 	andeq	r2, r0, r7, lsl ip
    13b0:	05040b00 	streq	r0, [r4, #-2816]	; 0xfffff500
    13b4:	011203a6 	tsteq	r2, r6, lsr #7
    13b8:	060c0000 	streq	r0, [ip], -r0
    13bc:	05000005 	streq	r0, [r0, #-5]
    13c0:	00e30ca8 	rsceq	r0, r3, r8, lsr #25
    13c4:	7a0c0000 	bvc	3013cc <__bss_end__+0x2f7f04>
    13c8:	05000004 	streq	r0, [r0, #-4]
    13cc:	011213a9 	tsteq	r2, r9, lsr #7
    13d0:	0d000000 	stceq	0, cr0, [r0, #-0]
    13d4:	0000004f 	andeq	r0, r0, pc, asr #32
    13d8:	00000122 	andeq	r0, r0, r2, lsr #2
    13dc:	00002c0e 	andeq	r2, r0, lr, lsl #24
    13e0:	0f000300 	svceq	0x00000300
    13e4:	09a30508 	stmibeq	r3!, {r3, r8, sl}
    13e8:	00000146 	andeq	r0, r0, r6, asr #2
    13ec:	00061910 	andeq	r1, r6, r0, lsl r9
    13f0:	07a50500 	streq	r0, [r5, r0, lsl #10]!
    13f4:	00000025 	andeq	r0, r0, r5, lsr #32
    13f8:	06601000 	strbteq	r1, [r0], -r0
    13fc:	aa050000 	bge	141404 <__bss_end__+0x137f3c>
    1400:	0000f005 	andeq	pc, r0, r5
    1404:	04000400 	streq	r0, [r0], #-1024	; 0xfffffc00
    1408:	0000059b 	muleq	r0, fp, r5
    140c:	2203ab05 	andcs	sl, r3, #5120	; 0x1400
    1410:	04000001 	streq	r0, [r0], #-1
    1414:	00000437 	andeq	r0, r0, r7, lsr r4
    1418:	b41baf05 	ldrlt	sl, [fp], #-3845	; 0xfffff0fb
    141c:	08000000 	stmdaeq	r0, {}	; <UNPREDICTABLE>
    1420:	00016404 	andeq	r6, r1, r4, lsl #8
    1424:	08010300 	stmdaeq	r1, {r8, r9}
    1428:	00000063 	andeq	r0, r0, r3, rrx
    142c:	00016411 	andeq	r6, r1, r1, lsl r4
    1430:	06760400 	ldrbteq	r0, [r6], -r0, lsl #8
    1434:	16070000 	strne	r0, [r7], -r0
    1438:	00006919 	andeq	r6, r0, r9, lsl r9
    143c:	04481200 	strbeq	r1, [r8], #-512	; 0xfffffe00
    1440:	07180000 	ldreq	r0, [r8, -r0]
    1444:	01d6082f 	bicseq	r0, r6, pc, lsr #16
    1448:	bc100000 	ldclt	0, cr0, [r0], {-0}
    144c:	07000005 	streq	r0, [r0, -r5]
    1450:	01d61331 	bicseq	r1, r6, r1, lsr r3
    1454:	13000000 	movwne	r0, #0
    1458:	07006b5f 	smlsdeq	r0, pc, fp, r6	; <UNPREDICTABLE>
    145c:	00250732 	eoreq	r0, r5, r2, lsr r7
    1460:	10040000 	andne	r0, r4, r0
    1464:	00000604 	andeq	r0, r0, r4, lsl #12
    1468:	250b3207 	strcs	r3, [fp, #-519]	; 0xfffffdf9
    146c:	08000000 	stmdaeq	r0, {}	; <UNPREDICTABLE>
    1470:	00043110 	andeq	r3, r4, r0, lsl r1
    1474:	14320700 	ldrtne	r0, [r2], #-1792	; 0xfffff900
    1478:	00000025 	andeq	r0, r0, r5, lsr #32
    147c:	06ab100c 	strteq	r1, [fp], ip
    1480:	32070000 	andcc	r0, r7, #0, 0
    1484:	0000251b 	andeq	r2, r0, fp, lsl r5
    1488:	5f131000 	svcpl	0x00131000
    148c:	33070078 	movwcc	r0, #28792	; 0x7078
    1490:	0001dc0b 	andeq	sp, r1, fp, lsl #24
    1494:	08001400 	stmdaeq	r0, {sl, ip}
    1498:	00017c04 	andeq	r7, r1, r4, lsl #24
    149c:	01700d00 	cmneq	r0, r0, lsl #26
    14a0:	01ec0000 	mvneq	r0, r0
    14a4:	2c0e0000 	stccs	0, cr0, [lr], {-0}
    14a8:	00000000 	andeq	r0, r0, r0
    14ac:	04751200 	ldrbteq	r1, [r5], #-512	; 0xfffffe00
    14b0:	07240000 	streq	r0, [r4, -r0]!
    14b4:	026f0837 	rsbeq	r0, pc, #3604480	; 0x370000
    14b8:	bf100000 	svclt	0x00100000
    14bc:	07000002 	streq	r0, [r0, -r2]
    14c0:	00250939 	eoreq	r0, r5, r9, lsr r9
    14c4:	10000000 	andne	r0, r0, r0
    14c8:	00000644 	andeq	r0, r0, r4, asr #12
    14cc:	25093a07 	strcs	r3, [r9, #-2567]	; 0xfffff5f9
    14d0:	04000000 	streq	r0, [r0], #-0
    14d4:	0002d410 	andeq	sp, r2, r0, lsl r4
    14d8:	093b0700 	ldmdbeq	fp!, {r8, r9, sl}
    14dc:	00000025 	andeq	r0, r0, r5, lsr #32
    14e0:	07241008 	streq	r1, [r4, -r8]!
    14e4:	3c070000 	stccc	0, cr0, [r7], {-0}
    14e8:	00002509 	andeq	r2, r0, r9, lsl #10
    14ec:	34100c00 	ldrcc	r0, [r0], #-3072	; 0xfffff400
    14f0:	07000005 	streq	r0, [r0, -r5]
    14f4:	0025093d 	eoreq	r0, r5, sp, lsr r9
    14f8:	10100000 	andsne	r0, r0, r0
    14fc:	00000523 	andeq	r0, r0, r3, lsr #10
    1500:	25093e07 	strcs	r3, [r9, #-3591]	; 0xfffff1f9
    1504:	14000000 	strne	r0, [r0], #-0
    1508:	0006b010 	andeq	fp, r6, r0, lsl r0
    150c:	093f0700 	ldmdbeq	pc!, {r8, r9, sl}	; <UNPREDICTABLE>
    1510:	00000025 	andeq	r0, r0, r5, lsr #32
    1514:	057d1018 	ldrbeq	r1, [sp, #-24]!	; 0xffffffe8
    1518:	40070000 	andmi	r0, r7, r0
    151c:	00002509 	andeq	r2, r0, r9, lsl #10
    1520:	eb101c00 	bl	408528 <__bss_end__+0x3ff060>
    1524:	07000006 	streq	r0, [r0, -r6]
    1528:	00250941 	eoreq	r0, r5, r1, asr #18
    152c:	00200000 	eoreq	r0, r0, r0
    1530:	0002e314 	andeq	lr, r2, r4, lsl r3
    1534:	07010800 	streq	r0, [r1, -r0, lsl #16]
    1538:	02b4084a 	adcseq	r0, r4, #4849664	; 0x4a0000
    153c:	24100000 	ldrcs	r0, [r0], #-0
    1540:	07000004 	streq	r0, [r0, -r4]
    1544:	02b40a4b 	adcseq	r0, r4, #307200	; 0x4b000
    1548:	10000000 	andne	r0, r0, r0
    154c:	0000024c 	andeq	r0, r0, ip, asr #4
    1550:	b4094c07 	strlt	r4, [r9], #-3079	; 0xfffff3f9
    1554:	80000002 	andhi	r0, r0, r2
    1558:	00066815 	andeq	r6, r6, r5, lsl r8
    155c:	0a4e0700 	beq	1383164 <__bss_end__+0x1379c9c>
    1560:	00000170 	andeq	r0, r0, r0, ror r1
    1564:	08150100 	ldmdaeq	r5, {r8}
    1568:	07000003 	streq	r0, [r0, -r3]
    156c:	01700a51 	cmneq	r0, r1, asr sl
    1570:	01040000 	mrseq	r0, (UNDEF: 4)
    1574:	00a60d00 	adceq	r0, r6, r0, lsl #26
    1578:	02c40000 	sbceq	r0, r4, #0, 0
    157c:	2c0e0000 	stccs	0, cr0, [lr], {-0}
    1580:	1f000000 	svcne	0x00000000
    1584:	053d1400 	ldreq	r1, [sp, #-1024]!	; 0xfffffc00
    1588:	01900000 	orrseq	r0, r0, r0
    158c:	07085d07 	streq	r5, [r8, -r7, lsl #26]
    1590:	10000003 	andne	r0, r0, r3
    1594:	000005bc 			; <UNDEFINED> instruction: 0x000005bc
    1598:	07125e07 	ldreq	r5, [r2, -r7, lsl #28]
    159c:	00000003 	andeq	r0, r0, r3
    15a0:	0005d410 	andeq	sp, r5, r0, lsl r4
    15a4:	065f0700 	ldrbeq	r0, [pc], -r0, lsl #14
    15a8:	00000025 	andeq	r0, r0, r5, lsr #32
    15ac:	042c1004 	strteq	r1, [ip], #-4
    15b0:	61070000 	mrsvs	r0, (UNDEF: 7)
    15b4:	00030d09 	andeq	r0, r3, r9, lsl #26
    15b8:	e3100800 	tst	r0, #0, 16
    15bc:	07000002 	streq	r0, [r0, -r2]
    15c0:	026f1e62 	rsbeq	r1, pc, #1568	; 0x620
    15c4:	00880000 	addeq	r0, r8, r0
    15c8:	02c40408 	sbceq	r0, r4, #8, 8	; 0x8000000
    15cc:	1d0d0000 	stcne	0, cr0, [sp, #-0]
    15d0:	1d000003 	stcne	0, cr0, [r0, #-12]
    15d4:	0e000003 	cdpeq	0, 0, cr0, cr0, cr3, {0}
    15d8:	0000002c 	andeq	r0, r0, ip, lsr #32
    15dc:	0408001f 	streq	r0, [r8], #-31	; 0xffffffe1
    15e0:	00000323 	andeq	r0, r0, r3, lsr #6
    15e4:	05871216 	streq	r1, [r7, #534]	; 0x216
    15e8:	07080000 	streq	r0, [r8, -r0]
    15ec:	034c0875 	movteq	r0, #51317	; 0xc875
    15f0:	ce100000 	cdpgt	0, 1, cr0, cr0, cr0, {0}
    15f4:	07000002 	streq	r0, [r0, -r2]
    15f8:	034c1176 	movteq	r1, #49526	; 0xc176
    15fc:	10000000 	andne	r0, r0, r0
    1600:	00000258 	andeq	r0, r0, r8, asr r2
    1604:	25067707 	strcs	r7, [r6, #-1799]	; 0xfffff8f9
    1608:	04000000 	streq	r0, [r0], #-0
    160c:	4f040800 	svcmi	0x00040800
    1610:	12000000 	andne	r0, r0, #0, 0
    1614:	000005a6 	andeq	r0, r0, r6, lsr #11
    1618:	08b50768 	ldmeq	r5!, {r3, r5, r6, r8, r9, sl}
    161c:	00000495 	muleq	r0, r5, r4
    1620:	00705f13 	rsbseq	r5, r0, r3, lsl pc
    1624:	4c12b607 	ldcmi	6, cr11, [r2], {7}
    1628:	00000003 	andeq	r0, r0, r3
    162c:	00725f13 	rsbseq	r5, r2, r3, lsl pc
    1630:	2507b707 	strcs	fp, [r7, #-1799]	; 0xfffff8f9
    1634:	04000000 	streq	r0, [r0], #-0
    1638:	00775f13 	rsbseq	r5, r7, r3, lsl pc
    163c:	2507b807 	strcs	fp, [r7, #-2055]	; 0xfffff7f9
    1640:	08000000 	stmdaeq	r0, {}	; <UNPREDICTABLE>
    1644:	00030110 	andeq	r0, r3, r0, lsl r1
    1648:	09b90700 	ldmibeq	r9!, {r8, r9, sl}
    164c:	0000003a 	andeq	r0, r0, sl, lsr r0
    1650:	04a2100c 	strteq	r1, [r2], #12
    1654:	ba070000 	blt	1c165c <__bss_end__+0x1b8194>
    1658:	00003a09 	andeq	r3, r0, r9, lsl #20
    165c:	5f130e00 	svcpl	0x00130e00
    1660:	07006662 	streq	r6, [r0, -r2, ror #12]
    1664:	032411bb 			; <UNDEFINED> instruction: 0x032411bb
    1668:	10100000 	andsne	r0, r0, r0
    166c:	0000029c 	muleq	r0, ip, r2
    1670:	2507bc07 	strcs	fp, [r7, #-3079]	; 0xfffff3f9
    1674:	18000000 	stmdane	r0, {}	; <UNPREDICTABLE>
    1678:	0002f110 	andeq	pc, r2, r0, lsl r1	; <UNPREDICTABLE>
    167c:	0ac30700 	beq	ff0c3284 <__bss_end__+0xff0b9dbc>
    1680:	000000a6 	andeq	r0, r0, r6, lsr #1
    1684:	0ae5101c 	beq	ff9456fc <__bss_end__+0xff93c234>
    1688:	c5070000 	strgt	r0, [r7, #-0]
    168c:	0006071d 	andeq	r0, r6, sp, lsl r7
    1690:	ff102000 			; <UNDEFINED> instruction: 0xff102000
    1694:	0700000a 	streq	r0, [r0, -sl]
    1698:	06311dc7 	ldrteq	r1, [r1], -r7, asr #27
    169c:	10240000 	eorne	r0, r4, r0
    16a0:	00000628 	andeq	r0, r0, r8, lsr #12
    16a4:	550dca07 	strpl	ip, [sp, #-2567]	; 0xfffff5f9
    16a8:	28000006 	stmdacs	r0, {r1, r2}
    16ac:	00070510 	andeq	r0, r7, r0, lsl r5
    16b0:	09cb0700 	stmibeq	fp, {r8, r9, sl}^
    16b4:	0000066f 	andeq	r0, r0, pc, ror #12
    16b8:	755f132c 	ldrbvc	r1, [pc, #-812]	; 1394 <__code_start__-0x6c6c>
    16bc:	ce070062 	cdpgt	0, 0, cr0, cr7, cr2, {3}
    16c0:	00032411 	andeq	r2, r3, r1, lsl r4
    16c4:	5f133000 	svcpl	0x00133000
    16c8:	07007075 	smlsdxeq	r0, r5, r0, r7
    16cc:	034c12cf 	movteq	r1, #49871	; 0xc2cf
    16d0:	13380000 	teqne	r8, #0, 0
    16d4:	0072755f 	rsbseq	r7, r2, pc, asr r5
    16d8:	2507d007 	strcs	sp, [r7, #-7]
    16dc:	3c000000 	stccc	0, cr0, [r0], {-0}
    16e0:	0002c810 	andeq	ip, r2, r0, lsl r8
    16e4:	11d30700 	bicsne	r0, r3, r0, lsl #14
    16e8:	00000675 	andeq	r0, r0, r5, ror r6
    16ec:	06dd1040 	ldrbeq	r1, [sp], r0, asr #32
    16f0:	d4070000 	strle	r0, [r7], #-0
    16f4:	00068511 	andeq	r8, r6, r1, lsl r5
    16f8:	5f134300 	svcpl	0x00134300
    16fc:	0700626c 	streq	r6, [r0, -ip, ror #4]
    1700:	032411d7 			; <UNDEFINED> instruction: 0x032411d7
    1704:	10440000 	subne	r0, r4, r0
    1708:	00000317 	andeq	r0, r0, r7, lsl r3
    170c:	2507da07 	strcs	sp, [r7, #-2567]	; 0xfffff5f9
    1710:	4c000000 	stcmi	0, cr0, [r0], {-0}
    1714:	00032810 	andeq	r2, r3, r0, lsl r8
    1718:	0adb0700 	beq	ff6c3320 <__bss_end__+0xff6b9e58>
    171c:	000000cb 	andeq	r0, r0, fp, asr #1
    1720:	0a411050 	beq	1045868 <__bss_end__+0x103c3a0>
    1724:	de070000 	cdple	0, 0, cr0, cr7, cr0, {0}
    1728:	0004b312 	andeq	fp, r4, r2, lsl r3
    172c:	22105400 	andscs	r5, r0, #0, 8
    1730:	07000006 	streq	r0, [r0, -r6]
    1734:	01520ce2 	cmpeq	r2, r2, ror #25
    1738:	10580000 	subsne	r0, r8, r0
    173c:	000005ae 	andeq	r0, r0, lr, lsr #11
    1740:	460ee407 	strmi	lr, [lr], -r7, lsl #8
    1744:	5c000001 	stcpl	0, cr0, [r0], {1}
    1748:	00051b10 	andeq	r1, r5, r0, lsl fp
    174c:	09e50700 	stmibeq	r5!, {r8, r9, sl}^
    1750:	00000025 	andeq	r0, r0, r5, lsr #32
    1754:	25170064 	ldrcs	r0, [r7, #-100]	; 0xffffff9c
    1758:	b3000000 	movwlt	r0, #0
    175c:	18000004 	stmdane	r0, {r2}
    1760:	000004b3 			; <UNDEFINED> instruction: 0x000004b3
    1764:	0000a618 	andeq	sl, r0, r8, lsl r6
    1768:	015e1800 	cmpeq	lr, r0, lsl #16
    176c:	25180000 	ldrcs	r0, [r8, #-0]
    1770:	00000000 	andeq	r0, r0, r0
    1774:	04be0408 	ldrteq	r0, [lr], #1032	; 0x408
    1778:	b3110000 	tstlt	r1, #0, 0
    177c:	19000004 	stmdbne	r0, {r2}
    1780:	0000060c 	andeq	r0, r0, ip, lsl #12
    1784:	60070428 	andvs	r0, r7, r8, lsr #8
    1788:	06070802 	streq	r0, [r7], -r2, lsl #16
    178c:	761a0000 	ldrvc	r0, [sl], -r0
    1790:	07000005 	streq	r0, [r0, -r5]
    1794:	25070262 	strcs	r0, [r7, #-610]	; 0xfffffd9e
    1798:	00000000 	andeq	r0, r0, r0
    179c:	0003101a 	andeq	r1, r3, sl, lsl r0
    17a0:	02670700 	rsbeq	r0, r7, #0, 14
    17a4:	0006e10b 	andeq	lr, r6, fp, lsl #2
    17a8:	921a0400 	andsls	r0, sl, #0, 8
    17ac:	07000004 	streq	r0, [r0, -r4]
    17b0:	e1140267 	tst	r4, r7, ror #4
    17b4:	08000006 	stmdaeq	r0, {r1, r2}
    17b8:	0004401a 	andeq	r4, r4, sl, lsl r0
    17bc:	02670700 	rsbeq	r0, r7, #0, 14
    17c0:	0006e11e 	andeq	lr, r6, lr, lsl r1
    17c4:	cf1a0c00 	svcgt	0x001a0c00
    17c8:	07000005 	streq	r0, [r0, -r5]
    17cc:	25080269 	strcs	r0, [r8, #-617]	; 0xfffffd97
    17d0:	10000000 	andne	r0, r0, r0
    17d4:	00026d1a 	andeq	r6, r2, sl, lsl sp
    17d8:	026a0700 	rsbeq	r0, sl, #0, 14
    17dc:	0008e108 	andeq	lr, r8, r8, lsl #2
    17e0:	eb1a1400 	bl	6867e8 <__bss_end__+0x67d320>
    17e4:	07000005 	streq	r0, [r0, -r5]
    17e8:	2507026d 	strcs	r0, [r7, #-621]	; 0xfffffd93
    17ec:	30000000 	andcc	r0, r0, r0
    17f0:	0005d91a 	andeq	sp, r5, sl, lsl r9
    17f4:	026e0700 	rsbeq	r0, lr, #0, 14
    17f8:	0008f616 	andeq	pc, r8, r6, lsl r6	; <UNPREDICTABLE>
    17fc:	451a3400 	ldrmi	r3, [sl, #-1024]	; 0xfffffc00
    1800:	07000005 	streq	r0, [r0, -r5]
    1804:	25070270 	strcs	r0, [r7, #-624]	; 0xfffffd90
    1808:	38000000 	stmdacc	r0, {}	; <UNPREDICTABLE>
    180c:	0005e11a 	andeq	lr, r5, sl, lsl r1
    1810:	02720700 	rsbseq	r0, r2, #0, 14
    1814:	0009070a 	andeq	r0, r9, sl, lsl #14
    1818:	fe1a3c00 	cdp2	12, 1, cr3, cr10, cr0, {0}
    181c:	07000004 	streq	r0, [r0, -r4]
    1820:	d6130275 			; <UNDEFINED> instruction: 0xd6130275
    1824:	40000001 	andmi	r0, r0, r1
    1828:	00045f1a 	andeq	r5, r4, sl, lsl pc
    182c:	02760700 	rsbseq	r0, r6, #0, 14
    1830:	00002507 	andeq	r2, r0, r7, lsl #10
    1834:	1f1a4400 	svcne	0x001a4400
    1838:	07000007 	streq	r0, [r0, -r7]
    183c:	d6130277 			; <UNDEFINED> instruction: 0xd6130277
    1840:	48000001 	stmdami	r0, {r0}
    1844:	0005571a 	andeq	r5, r5, sl, lsl r7
    1848:	02780700 	rsbseq	r0, r8, #0, 14
    184c:	00090d14 	andeq	r0, r9, r4, lsl sp
    1850:	9a1a4c00 	bls	694858 <__bss_end__+0x68b390>
    1854:	07000004 	streq	r0, [r0, -r4]
    1858:	2507027b 	strcs	r0, [r7, #-635]	; 0xfffffd85
    185c:	50000000 	andpl	r0, r0, r0
    1860:	0003201a 	andeq	r2, r3, sl, lsl r0
    1864:	027c0700 	rsbseq	r0, ip, #0, 14
    1868:	00015e09 	andeq	r5, r1, r9, lsl #28
    186c:	6f1a5400 	svcvs	0x001a5400
    1870:	07000005 	streq	r0, [r0, -r5]
    1874:	bc07029f 	sfmlt	f0, 4, [r7], {159}	; 0x9f
    1878:	58000008 	stmdapl	r0, {r3}
    187c:	00053d1b 	andeq	r3, r5, fp, lsl sp
    1880:	02a30700 	adceq	r0, r3, #0, 14
    1884:	00030713 	andeq	r0, r3, r3, lsl r7
    1888:	1b014800 	blne	53890 <__bss_end__+0x4a3c8>
    188c:	000004d8 	ldrdeq	r0, [r0], -r8
    1890:	1202a407 	andne	sl, r2, #117440512	; 0x7000000
    1894:	000002c4 	andeq	r0, r0, r4, asr #5
    1898:	d31b014c 	tstle	fp, #19
    189c:	07000006 	streq	r0, [r0, -r6]
    18a0:	1e0c02a8 	cdpne	2, 0, cr0, cr12, cr8, {5}
    18a4:	dc000009 	stcle	0, cr0, [r0], {9}
    18a8:	02f91b02 	rscseq	r1, r9, #2048	; 0x800
    18ac:	ad070000 	stcge	0, cr0, [r7, #-0]
    18b0:	06a21002 	strteq	r1, [r2], r2
    18b4:	02e00000 	rsceq	r0, r0, #0, 0
    18b8:	0002de1b 	andeq	sp, r2, fp, lsl lr
    18bc:	02af0700 	adceq	r0, pc, #0, 14
    18c0:	00092a0a 	andeq	r2, r9, sl, lsl #20
    18c4:	0002ec00 	andeq	lr, r2, r0, lsl #24
    18c8:	04950408 	ldreq	r0, [r5], #1032	; 0x408
    18cc:	25170000 	ldrcs	r0, [r7, #-0]
    18d0:	2b000000 	blcs	18d8 <__code_start__-0x6728>
    18d4:	18000006 	stmdane	r0, {r1, r2}
    18d8:	000004b3 			; <UNDEFINED> instruction: 0x000004b3
    18dc:	0000a618 	andeq	sl, r0, r8, lsl r6
    18e0:	062b1800 	strteq	r1, [fp], -r0, lsl #16
    18e4:	25180000 	ldrcs	r0, [r8, #-0]
    18e8:	00000000 	andeq	r0, r0, r0
    18ec:	016b0408 	cmneq	fp, r8, lsl #8
    18f0:	04080000 	streq	r0, [r8], #-0
    18f4:	0000060d 	andeq	r0, r0, sp, lsl #12
    18f8:	0000d717 	andeq	sp, r0, r7, lsl r7
    18fc:	00065500 	andeq	r5, r6, r0, lsl #10
    1900:	04b31800 	ldrteq	r1, [r3], #2048	; 0x800
    1904:	a6180000 	ldrge	r0, [r8], -r0
    1908:	18000000 	stmdane	r0, {}	; <UNPREDICTABLE>
    190c:	000000d7 	ldrdeq	r0, [r0], -r7
    1910:	00002518 	andeq	r2, r0, r8, lsl r5
    1914:	04080000 	streq	r0, [r8], #-0
    1918:	00000637 	andeq	r0, r0, r7, lsr r6
    191c:	00002517 	andeq	r2, r0, r7, lsl r5
    1920:	00066f00 	andeq	r6, r6, r0, lsl #30
    1924:	04b31800 	ldrteq	r1, [r3], #2048	; 0x800
    1928:	a6180000 	ldrge	r0, [r8], -r0
    192c:	00000000 	andeq	r0, r0, r0
    1930:	065b0408 	ldrbeq	r0, [fp], -r8, lsl #8
    1934:	4f0d0000 	svcmi	0x000d0000
    1938:	85000000 	strhi	r0, [r0, #-0]
    193c:	0e000006 	cdpeq	0, 0, cr0, cr0, cr6, {0}
    1940:	0000002c 	andeq	r0, r0, ip, lsr #32
    1944:	4f0d0002 	svcmi	0x000d0002
    1948:	95000000 	strls	r0, [r0, #-0]
    194c:	0e000006 	cdpeq	0, 0, cr0, cr0, cr6, {0}
    1950:	0000002c 	andeq	r0, r0, ip, lsr #32
    1954:	940a0000 	strls	r0, [sl], #-0
    1958:	07000005 	streq	r0, [r0, -r5]
    195c:	521a011f 	andspl	r0, sl, #-1073741817	; 0xc0000007
    1960:	1c000003 	stcne	0, cr0, [r0], {3}
    1964:	000006ba 			; <UNDEFINED> instruction: 0x000006ba
    1968:	0123070c 			; <UNDEFINED> instruction: 0x0123070c
    196c:	0006db08 	andeq	sp, r6, r8, lsl #22
    1970:	05bc1a00 	ldreq	r1, [ip, #2560]!	; 0xa00
    1974:	25070000 	strcs	r0, [r7, #-0]
    1978:	06db1101 	ldrbeq	r1, [fp], r1, lsl #2
    197c:	1a000000 	bne	1984 <__code_start__-0x667c>
    1980:	000004d1 	ldrdeq	r0, [r0], -r1
    1984:	07012607 	streq	r2, [r1, -r7, lsl #12]
    1988:	00000025 	andeq	r0, r0, r5, lsr #32
    198c:	058e1a04 	streq	r1, [lr, #2564]	; 0xa04
    1990:	27070000 	strcs	r0, [r7, -r0]
    1994:	06e10b01 	strbteq	r0, [r1], r1, lsl #22
    1998:	00080000 	andeq	r0, r8, r0
    199c:	06a20408 	strteq	r0, [r2], r8, lsl #8
    19a0:	04080000 	streq	r0, [r8], #-0
    19a4:	00000695 	muleq	r0, r5, r6
    19a8:	0002651c 	andeq	r6, r2, ip, lsl r5
    19ac:	3f070e00 	svccc	0x00070e00
    19b0:	07200801 	streq	r0, [r0, -r1, lsl #16]!
    19b4:	131a0000 	tstne	sl, #0, 0
    19b8:	07000006 	streq	r0, [r0, -r6]
    19bc:	20120140 	andscs	r0, r2, r0, asr #2
    19c0:	00000007 	andeq	r0, r0, r7
    19c4:	00064d1a 	andeq	r4, r6, sl, lsl sp
    19c8:	01410700 	cmpeq	r1, r0, lsl #14
    19cc:	00072012 	andeq	r2, r7, r2, lsl r0
    19d0:	711a0600 	tstvc	sl, r0, lsl #12
    19d4:	07000006 	streq	r0, [r0, -r6]
    19d8:	56120142 	ldrpl	r0, [r2], -r2, asr #2
    19dc:	0c000000 	stceq	0, cr0, [r0], {-0}
    19e0:	00560d00 	subseq	r0, r6, r0, lsl #26
    19e4:	07300000 	ldreq	r0, [r0, -r0]!
    19e8:	2c0e0000 	stccs	0, cr0, [lr], {-0}
    19ec:	02000000 	andeq	r0, r0, #0, 0
    19f0:	07d01d00 	ldrbeq	r1, [r0, r0, lsl #26]
    19f4:	45070280 	strmi	r0, [r7, #-640]	; 0xfffffd80
    19f8:	1a000008 	bne	1a20 <__code_start__-0x65e0>
    19fc:	0000069e 	muleq	r0, lr, r6
    1a00:	18028207 	stmdane	r2, {r0, r1, r2, r9, pc}
    1a04:	0000002c 	andeq	r0, r0, ip, lsr #32
    1a08:	06531a00 	ldrbeq	r1, [r3], -r0, lsl #20
    1a0c:	83070000 	movwhi	r0, #28672	; 0x7000
    1a10:	015e1202 	cmpeq	lr, r2, lsl #4
    1a14:	1a040000 	bne	101a1c <__bss_end__+0xf8554>
    1a18:	000004f1 	strdeq	r0, [r0], -r1
    1a1c:	10028407 	andne	r8, r2, r7, lsl #8
    1a20:	00000845 	andeq	r0, r0, r5, asr #16
    1a24:	06f61a08 	ldrbteq	r1, [r6], r8, lsl #20
    1a28:	85070000 	strhi	r0, [r7, #-0]
    1a2c:	01ec1702 	mvneq	r1, r2, lsl #14
    1a30:	1a240000 	bne	901a38 <__bss_end__+0x8f8570>
    1a34:	00000450 	andeq	r0, r0, r0, asr r4
    1a38:	0f028607 	svceq	0x00028607
    1a3c:	00000025 	andeq	r0, r0, r5, lsr #32
    1a40:	05b71a48 	ldreq	r1, [r7, #2632]!	; 0xa48
    1a44:	87070000 	strhi	r0, [r7, -r0]
    1a48:	007c2c02 	rsbseq	r2, ip, r2, lsl #24
    1a4c:	1a500000 	bne	1401a54 <__bss_end__+0x13f858c>
    1a50:	0000070c 	andeq	r0, r0, ip, lsl #14
    1a54:	1a028807 	bne	a3a78 <__bss_end__+0x9a5b0>
    1a58:	000006e7 	andeq	r0, r0, r7, ror #13
    1a5c:	05c21a58 	strbeq	r1, [r2, #2648]	; 0xa58
    1a60:	89070000 	stmdbhi	r7, {}	; <UNPREDICTABLE>
    1a64:	01461602 	cmpeq	r6, r2, lsl #12
    1a68:	1a680000 	bne	1a01a70 <__bss_end__+0x19f85a8>
    1a6c:	00000711 	andeq	r0, r0, r1, lsl r7
    1a70:	16028a07 	strne	r8, [r2], -r7, lsl #20
    1a74:	00000146 	andeq	r0, r0, r6, asr #2
    1a78:	05611a70 	strbeq	r1, [r1, #-2672]!	; 0xfffff590
    1a7c:	8b070000 	blhi	1c1a84 <__bss_end__+0x1b85bc>
    1a80:	01461602 	cmpeq	r6, r2, lsl #12
    1a84:	1a780000 	bne	1e01a8c <__bss_end__+0x1df85c4>
    1a88:	000006c9 	andeq	r0, r0, r9, asr #13
    1a8c:	10028c07 	andne	r8, r2, r7, lsl #24
    1a90:	00000855 	andeq	r0, r0, r5, asr r8
    1a94:	02901a80 	addseq	r1, r0, #128, 20	; 0x80000
    1a98:	8d070000 	stchi	0, cr0, [r7, #-0]
    1a9c:	08651002 	stmdaeq	r5!, {r1, ip}^
    1aa0:	1a880000 	bne	fe201aa8 <__bss_end__+0xfe1f85e0>
    1aa4:	0000067e 	andeq	r0, r0, lr, ror r6
    1aa8:	0f028e07 	svceq	0x00028e07
    1aac:	00000025 	andeq	r0, r0, r5, lsr #32
    1ab0:	04161aa0 	ldreq	r1, [r6], #-2720	; 0xfffff560
    1ab4:	8f070000 	svchi	0x00070000
    1ab8:	01461602 	cmpeq	r6, r2, lsl #12
    1abc:	1aa40000 	bne	fe901ac4 <__bss_end__+0xfe8f85fc>
    1ac0:	000002b0 			; <UNDEFINED> instruction: 0x000002b0
    1ac4:	16029007 	strne	r9, [r2], -r7
    1ac8:	00000146 	andeq	r0, r0, r6, asr #2
    1acc:	04051aac 	streq	r1, [r5], #-2732	; 0xfffff554
    1ad0:	91070000 	mrsls	r0, (UNDEF: 7)
    1ad4:	01461602 	cmpeq	r6, r2, lsl #12
    1ad8:	1ab40000 	bne	fed01ae0 <__bss_end__+0xfecf8618>
    1adc:	00000281 	andeq	r0, r0, r1, lsl #5
    1ae0:	16029207 	strne	r9, [r2], -r7, lsl #4
    1ae4:	00000146 	andeq	r0, r0, r6, asr #2
    1ae8:	04811abc 	streq	r1, [r1], #2748	; 0xabc
    1aec:	93070000 	movwls	r0, #28672	; 0x7000
    1af0:	01461602 	cmpeq	r6, r2, lsl #12
    1af4:	1ac40000 	bne	ff101afc <__bss_end__+0xff0f8634>
    1af8:	00000574 	andeq	r0, r0, r4, ror r5
    1afc:	08029407 	stmdaeq	r2, {r0, r1, r2, sl, ip, pc}
    1b00:	00000025 	andeq	r0, r0, r5, lsr #32
    1b04:	640d00cc 	strvs	r0, [sp], #-204	; 0xffffff34
    1b08:	55000001 	strpl	r0, [r0, #-1]
    1b0c:	0e000008 	cdpeq	0, 0, cr0, cr0, cr8, {0}
    1b10:	0000002c 	andeq	r0, r0, ip, lsr #32
    1b14:	640d0019 	strvs	r0, [sp], #-25	; 0xffffffe7
    1b18:	65000001 	strvs	r0, [r0, #-1]
    1b1c:	0e000008 	cdpeq	0, 0, cr0, cr0, cr8, {0}
    1b20:	0000002c 	andeq	r0, r0, ip, lsr #32
    1b24:	640d0007 	strvs	r0, [sp], #-7
    1b28:	75000001 	strvc	r0, [r0, #-1]
    1b2c:	0e000008 	cdpeq	0, 0, cr0, cr0, cr8, {0}
    1b30:	0000002c 	andeq	r0, r0, ip, lsr #32
    1b34:	f01d0017 			; <UNDEFINED> instruction: 0xf01d0017
    1b38:	07029907 	streq	r9, [r2, -r7, lsl #18]
    1b3c:	0000089c 	muleq	r0, ip, r8
    1b40:	00052d1a 	andeq	r2, r5, sl, lsl sp
    1b44:	029c0700 	addseq	r0, ip, #0, 14
    1b48:	00089c1b 	andeq	r9, r8, fp, lsl ip
    1b4c:	c01a0000 	andsgt	r0, sl, r0
    1b50:	07000006 	streq	r0, [r0, -r6]
    1b54:	ac18029d 	lfmge	f0, 4, [r8], {157}	; 0x9d
    1b58:	78000008 	stmdavc	r0, {r3}
    1b5c:	034c0d00 	movteq	r0, #52480	; 0xcd00
    1b60:	08ac0000 	stmiaeq	ip!, {}	; <UNPREDICTABLE>
    1b64:	2c0e0000 	stccs	0, cr0, [lr], {-0}
    1b68:	1d000000 	stcne	0, cr0, [r0, #-0]
    1b6c:	002c0d00 	eoreq	r0, ip, r0, lsl #26
    1b70:	08bc0000 	ldmeq	ip!, {}	; <UNPREDICTABLE>
    1b74:	2c0e0000 	stccs	0, cr0, [lr], {-0}
    1b78:	1d000000 	stcne	0, cr0, [r0, #-0]
    1b7c:	07f01e00 	ldrbeq	r1, [r0, r0, lsl #28]!
    1b80:	e103027e 	hlt	0x302e
    1b84:	1f000008 	svcne	0x00000008
    1b88:	0000060c 	andeq	r0, r0, ip, lsl #12
    1b8c:	0b029507 	bleq	a6fb0 <__bss_end__+0x9dae8>
    1b90:	00000730 	andeq	r0, r0, r0, lsr r7
    1b94:	0006e31f 	andeq	lr, r6, pc, lsl r3
    1b98:	029e0700 	addseq	r0, lr, #0, 14
    1b9c:	0008750b 	andeq	r7, r8, fp, lsl #10
    1ba0:	640d0000 	strvs	r0, [sp], #-0
    1ba4:	f1000001 	cps	#1
    1ba8:	0e000008 	cdpeq	0, 0, cr0, cr0, cr8, {0}
    1bac:	0000002c 	andeq	r0, r0, ip, lsr #32
    1bb0:	a5090018 	strge	r0, [r9, #-24]	; 0xffffffe8
    1bb4:	08000002 	stmdaeq	r0, {r1}
    1bb8:	0008f104 	andeq	pc, r8, r4, lsl #2
    1bbc:	09072000 	stmdbeq	r7, {sp}
    1bc0:	b3180000 	tstlt	r8, #0, 0
    1bc4:	00000004 	andeq	r0, r0, r4
    1bc8:	08fc0408 	ldmeq	ip!, {r3, sl}^
    1bcc:	04080000 	streq	r0, [r8], #-0
    1bd0:	000001d6 	ldrdeq	r0, [r0], -r6
    1bd4:	00091e20 	andeq	r1, r9, r0, lsr #28
    1bd8:	00251800 	eoreq	r1, r5, r0, lsl #16
    1bdc:	08000000 	stmdaeq	r0, {}	; <UNPREDICTABLE>
    1be0:	00092404 	andeq	r2, r9, r4, lsl #8
    1be4:	13040800 	movwne	r0, #18432	; 0x4800
    1be8:	0d000009 	stceq	0, cr0, [r0, #-36]	; 0xffffffdc
    1bec:	00000695 	muleq	r0, r5, r6
    1bf0:	0000093a 	andeq	r0, r0, sl, lsr r9
    1bf4:	00002c0e 	andeq	r2, r0, lr, lsl #24
    1bf8:	21000200 	mrscs	r0, R8_usr
    1bfc:	00000692 	muleq	r0, r2, r6
    1c00:	17032e07 	strne	r2, [r3, -r7, lsl #28]
    1c04:	000004b3 			; <UNDEFINED> instruction: 0x000004b3
    1c08:	00068b21 	andeq	r8, r6, r1, lsr #22
    1c0c:	032f0700 			; <UNDEFINED> instruction: 0x032f0700
    1c10:	0004b91d 	andeq	fp, r4, sp, lsl r9
    1c14:	06360400 	ldrteq	r0, [r6], -r0, lsl #8
    1c18:	21080000 	mrscs	r0, (UNDEF: 8)
    1c1c:	0009600f 	andeq	r6, r9, pc
    1c20:	66040800 	strvs	r0, [r4], -r0, lsl #16
    1c24:	17000009 	strne	r0, [r0, -r9]
    1c28:	00000025 	andeq	r0, r0, r5, lsr #32
    1c2c:	00000975 	andeq	r0, r0, r5, ror r9
    1c30:	00002518 	andeq	r2, r0, r8, lsl r5
    1c34:	69220000 	stmdbvs	r2!, {}	; <UNPREDICTABLE>
    1c38:	08000004 	stmdaeq	r0, {r2}
    1c3c:	09541623 	ldmdbeq	r4, {r0, r1, r5, r9, sl, ip}^
    1c40:	58230000 	stmdapl	r3!, {}	; <UNPREDICTABLE>
    1c44:	01000007 	tsteq	r0, r7
    1c48:	0025056a 	eoreq	r0, r5, sl, ror #10
    1c4c:	87540000 	ldrbhi	r0, [r4, -r0]
    1c50:	002c0000 	eoreq	r0, ip, r0
    1c54:	9c010000 	stcls	0, cr0, [r1], {-0}
    1c58:	000009e6 	andeq	r0, r0, r6, ror #19
    1c5c:	746d6624 	strbtvc	r6, [sp], #-1572	; 0xfffff9dc
    1c60:	186a0100 	stmdane	sl!, {r8}^
    1c64:	0000062b 	andeq	r0, r0, fp, lsr #12
    1c68:	25709102 	ldrbcs	r9, [r0, #-258]!	; 0xfffffefe
    1c6c:	0002ec26 	andeq	lr, r2, r6, lsr #24
    1c70:	0d6b0100 	stfeqe	f0, [fp, #-0]
    1c74:	000000a8 	andeq	r0, r0, r8, lsr #1
    1c78:	27649102 	strbcs	r9, [r4, -r2, lsl #2]!
    1c7c:	00746572 	rsbseq	r6, r4, r2, ror r5
    1c80:	25096d01 	strcs	r6, [r9, #-3329]	; 0xfffff2ff
    1c84:	4f000000 	svcmi	0x00000000
    1c88:	4d000007 	stcmi	0, cr0, [r0, #-28]	; 0xffffffe4
    1c8c:	28000007 	stmdacs	r0, {r0, r1, r2}
    1c90:	00008770 	andeq	r8, r0, r0, ror r7
    1c94:	000009e6 	andeq	r0, r0, r6, ror #19
    1c98:	03500129 	cmpeq	r0, #1073741834	; 0x4000000a
    1c9c:	29064891 	stmdbcs	r6, {r0, r4, r7, fp, lr}
    1ca0:	91025101 	tstls	r2, r1, lsl #2
    1ca4:	2a00004c 	bcs	1ddc <__code_start__-0x6224>
    1ca8:	00000757 	andeq	r0, r0, r7, asr r7
    1cac:	25052701 	strcs	r2, [r5, #-1793]	; 0xfffff8ff
    1cb0:	90000000 	andls	r0, r0, r0
    1cb4:	e0000088 	and	r0, r0, r8, lsl #1
    1cb8:	01000002 	tsteq	r0, r2
    1cbc:	000c279c 	muleq	ip, ip, r7
    1cc0:	6d662b00 	vstmdbvs	r6!, {d18-d17}
    1cc4:	27010074 	smlsdxcs	r1, r4, r0, r0
    1cc8:	00062b19 	andeq	r2, r6, r9, lsl fp
    1ccc:	00077600 	andeq	r7, r7, r0, lsl #12
    1cd0:	00076200 	andeq	r6, r7, r0, lsl #4
    1cd4:	70612400 	rsbvc	r2, r1, r0, lsl #8
    1cd8:	26270100 	strtcs	r0, [r7], -r0, lsl #2
    1cdc:	000000a8 	andeq	r0, r0, r8, lsr #1
    1ce0:	2c6c9102 	stfcsp	f1, [ip], #-8
    1ce4:	000000b0 	strheq	r0, [r0], -r0	; <UNPREDICTABLE>
    1ce8:	00000c37 	andeq	r0, r0, r7, lsr ip
    1cec:	94700305 	ldrbtls	r0, [r0], #-773	; 0xfffffcfb
    1cf0:	482d0000 	stmdami	sp!, {}	; <UNPREDICTABLE>
    1cf4:	2e000000 	cdpcs	0, 0, cr0, cr0, cr0, {0}
    1cf8:	2e010075 	mcrcs	0, 0, r0, cr1, cr5, {3}
    1cfc:	00005d16 	andeq	r5, r0, r6, lsl sp
    1d00:	00762700 	rsbseq	r2, r6, r0, lsl #14
    1d04:	25112f01 	ldrcs	r2, [r1, #-3841]	; 0xfffff0ff
    1d08:	f3000000 	vhadd.u8	d0, d0, d0
    1d0c:	ef000007 	svc	0x00000007
    1d10:	27000007 	strcs	r0, [r0, -r7]
    1d14:	30010073 	andcc	r0, r1, r3, ror r0
    1d18:	00015e13 	andeq	r5, r1, r3, lsl lr
    1d1c:	00081300 	andeq	r1, r8, r0, lsl #6
    1d20:	00081100 	andeq	r1, r8, r0, lsl #2
    1d24:	00602d00 	rsbeq	r2, r0, r0, lsl #26
    1d28:	782f0000 	stmdavc	pc!, {}	; <UNPREDICTABLE>
    1d2c:	1a420100 	bne	1082134 <__bss_end__+0x1078c6c>
    1d30:	00000070 	andeq	r0, r0, r0, ror r0
    1d34:	04935406 	ldreq	r5, [r3], #1030	; 0x406
    1d38:	27049351 	smlsdcs	r4, r1, r3, r9
    1d3c:	01006968 	tsteq	r0, r8, ror #18
    1d40:	005d1a46 	subseq	r1, sp, r6, asr #20
    1d44:	082a0000 	stmdaeq	sl!, {}	; <UNPREDICTABLE>
    1d48:	08260000 	stmdaeq	r6!, {}	; <UNPREDICTABLE>
    1d4c:	6c270000 	stcvs	0, cr0, [r7], #-0
    1d50:	4701006f 	strmi	r0, [r1, -pc, rrx]
    1d54:	00005d1a 	andeq	r5, r0, sl, lsl sp
    1d58:	00084c00 	andeq	r4, r8, r0, lsl #24
    1d5c:	00084800 	andeq	r4, r8, r0, lsl #16
    1d60:	897c3000 	ldmdbhi	ip!, {ip, sp}^
    1d64:	0c3c0000 	ldceq	0, cr0, [ip], #-0
    1d68:	0ab30000 	beq	fecc1d70 <__bss_end__+0xfecb88a8>
    1d6c:	01290000 			; <UNDEFINED> instruction: 0x01290000
    1d70:	00320150 	eorseq	r0, r2, r0, asr r1
    1d74:	00899c30 	addeq	r9, r9, r0, lsr ip
    1d78:	000c3c00 	andeq	r3, ip, r0, lsl #24
    1d7c:	000ac600 	andeq	ip, sl, r0, lsl #12
    1d80:	50012900 	andpl	r2, r1, r0, lsl #18
    1d84:	31003a01 	tstcc	r0, r1, lsl #20
    1d88:	000089f8 	strdeq	r8, [r0], -r8	; <UNPREDICTABLE>
    1d8c:	00000ad6 	ldrdeq	r0, [r0], -r6
    1d90:	02500129 	subseq	r0, r0, #1073741834	; 0x4000000a
    1d94:	31003008 	tstcc	r0, r8
    1d98:	00008a04 	andeq	r8, r0, r4, lsl #20
    1d9c:	00000ae6 	andeq	r0, r0, r6, ror #21
    1da0:	02500129 	subseq	r0, r0, #1073741834	; 0x4000000a
    1da4:	30007808 	andcc	r7, r0, r8, lsl #16
    1da8:	00008a34 	andeq	r8, r0, r4, lsr sl
    1dac:	00000c3c 	andeq	r0, r0, ip, lsr ip
    1db0:	00000aff 	strdeq	r0, [r0], -pc	; <UNPREDICTABLE>
    1db4:	01500129 	cmpeq	r0, r9, lsr #2
    1db8:	51012940 	tstpl	r1, r0, asr #18
    1dbc:	00007402 	andeq	r7, r0, r2, lsl #8
    1dc0:	008a5430 	addeq	r5, sl, r0, lsr r4
    1dc4:	00098100 	andeq	r8, r9, r0, lsl #2
    1dc8:	000b3500 	andeq	r3, fp, r0, lsl #10
    1dcc:	50012900 	andpl	r2, r1, r0, lsl #18
    1dd0:	94040305 	strls	r0, [r4], #-773	; 0xfffffcfb
    1dd4:	01290000 			; <UNDEFINED> instruction: 0x01290000
    1dd8:	ac030551 	cfstr32ge	mvfx0, [r3], {81}	; 0x51
    1ddc:	29000093 	stmdbcs	r0, {r0, r1, r4, r7}
    1de0:	03055201 	movweq	r5, #20993	; 0x5201
    1de4:	00009470 	andeq	r9, r0, r0, ror r4
    1de8:	02530129 	subseq	r0, r3, #1073741834	; 0x4000000a
    1dec:	02293b08 	eoreq	r3, r9, #8, 22	; 0x2000
    1df0:	7402007d 	strvc	r0, [r2], #-125	; 0xffffff83
    1df4:	58320002 	ldmdapl	r2!, {r1}
    1df8:	0d00008a 	stceq	0, cr0, [r0, #-552]	; 0xfffffdd8
    1dfc:	3000000d 	andcc	r0, r0, sp
    1e00:	00008a70 	andeq	r8, r0, r0, ror sl
    1e04:	00000981 	andeq	r0, r0, r1, lsl #19
    1e08:	00000b74 	andeq	r0, r0, r4, ror fp
    1e0c:	05500129 	ldrbeq	r0, [r0, #-297]	; 0xfffffed7
    1e10:	00940403 	addseq	r0, r4, r3, lsl #8
    1e14:	51012900 	tstpl	r1, r0, lsl #18
    1e18:	93ac0305 			; <UNDEFINED> instruction: 0x93ac0305
    1e1c:	01290000 			; <UNDEFINED> instruction: 0x01290000
    1e20:	70030552 	andvc	r0, r3, r2, asr r5
    1e24:	29000094 	stmdbcs	r0, {r2, r4, r7}
    1e28:	08025301 	stmdaeq	r2, {r0, r8, r9, ip, lr}
    1e2c:	7d02293e 	vstrvc.16	s4, [r2, #-124]	; 0xffffff84	; <UNPREDICTABLE>
    1e30:	00750200 	rsbseq	r0, r5, r0, lsl #4
    1e34:	8a743200 	bhi	1d0e63c <__bss_end__+0x1d05174>
    1e38:	0d0d0000 	stceq	0, cr0, [sp, #-0]
    1e3c:	7c300000 	ldcvc	0, cr0, [r0], #-0
    1e40:	3c00008a 	stccc	0, cr0, [r0], {138}	; 0x8a
    1e44:	9000000c 	andls	r0, r0, ip
    1e48:	2900000b 	stmdbcs	r0, {r0, r1, r3}
    1e4c:	40015001 	andmi	r5, r1, r1
    1e50:	8a903100 	bhi	fe40e258 <__bss_end__+0xfe404d90>
    1e54:	0ba00000 	bleq	fe801e5c <__bss_end__+0xfe7f8994>
    1e58:	01290000 			; <UNDEFINED> instruction: 0x01290000
    1e5c:	30080250 	andcc	r0, r8, r0, asr r2
    1e60:	8a9c3100 	bhi	fe70e268 <__bss_end__+0xfe704da0>
    1e64:	0bb00000 	bleq	fec01e6c <__bss_end__+0xfebf89a4>
    1e68:	01290000 			; <UNDEFINED> instruction: 0x01290000
    1e6c:	78080250 	stmdavc	r8, {r4, r6, r9}
    1e70:	8ab43000 	bhi	fed0de78 <__bss_end__+0xfed049b0>
    1e74:	0c3c0000 	ldceq	0, cr0, [ip], #-0
    1e78:	0bc30000 	bleq	ff0c1e80 <__bss_end__+0xff0b89b8>
    1e7c:	01290000 			; <UNDEFINED> instruction: 0x01290000
    1e80:	00400150 	subeq	r0, r0, r0, asr r1
    1e84:	008ae030 	addeq	lr, sl, r0, lsr r0
    1e88:	000c3c00 	andeq	r3, ip, r0, lsl #24
    1e8c:	000bdc00 	andeq	sp, fp, r0, lsl #24
    1e90:	50012900 	andpl	r2, r1, r0, lsl #18
    1e94:	01293a01 			; <UNDEFINED> instruction: 0x01293a01
    1e98:	00740251 	rsbseq	r0, r4, r1, asr r2
    1e9c:	8af83100 	bhi	ffe0e2a4 <__bss_end__+0xffe04ddc>
    1ea0:	0bec0000 	bleq	ffb01ea8 <__bss_end__+0xffaf89e0>
    1ea4:	01290000 			; <UNDEFINED> instruction: 0x01290000
    1ea8:	2d080250 	sfmcs	f0, 4, [r8, #-320]	; 0xfffffec0
    1eac:	8b503000 	blhi	140deb4 <__bss_end__+0x14049ec>
    1eb0:	09810000 	stmibeq	r1, {}	; <UNPREDICTABLE>
    1eb4:	0c1b0000 	ldceq	0, cr0, [fp], {-0}
    1eb8:	01290000 			; <UNDEFINED> instruction: 0x01290000
    1ebc:	3c030550 	cfstr32cc	mvfx0, [r3], {80}	; 0x50
    1ec0:	29000094 	stmdbcs	r0, {r2, r4, r7}
    1ec4:	03055101 	movweq	r5, #20737	; 0x5101
    1ec8:	000093ac 	andeq	r9, r0, ip, lsr #7
    1ecc:	05520129 	ldrbeq	r0, [r2, #-297]	; 0xfffffed7
    1ed0:	00947003 	addseq	r7, r4, r3
    1ed4:	53012900 	movwpl	r2, #6400	; 0x1900
    1ed8:	00630802 	rsbeq	r0, r3, r2, lsl #16
    1edc:	008b5432 	addeq	r5, fp, r2, lsr r4
    1ee0:	000d0d00 	andeq	r0, sp, r0, lsl #26
    1ee4:	00000000 	andeq	r0, r0, r0
    1ee8:	00016b0d 	andeq	r6, r1, sp, lsl #22
    1eec:	000c3700 	andeq	r3, ip, r0, lsl #14
    1ef0:	002c0e00 	eoreq	r0, ip, r0, lsl #28
    1ef4:	00070000 	andeq	r0, r7, r0
    1ef8:	000c2711 	andeq	r2, ip, r1, lsl r7
    1efc:	07643300 	strbeq	r3, [r4, -r0, lsl #6]!
    1f00:	07010000 	streq	r0, [r1, -r0]
    1f04:	0087800d 	addeq	r8, r7, sp
    1f08:	00011000 	andeq	r1, r1, r0
    1f0c:	e89c0100 	ldm	ip, {r8}
    1f10:	3400000c 	strcc	r0, [r0], #-12
    1f14:	000002cf 	andeq	r0, r0, pc, asr #5
    1f18:	2c1f0701 	ldccs	7, cr0, [pc], {1}
    1f1c:	7c000000 	stcvc	0, cr0, [r0], {-0}
    1f20:	6a000008 	bvs	1f48 <__code_start__-0x60b8>
    1f24:	2b000008 	blcs	1f4c <__code_start__-0x60b4>
    1f28:	07010075 	smlsdxeq	r1, r5, r0, r0
    1f2c:	00005d2e 	andeq	r5, r0, lr, lsr #26
    1f30:	00090000 	andeq	r0, r9, r0
    1f34:	0008f400 	andeq	pc, r8, r0, lsl #8
    1f38:	756e2f00 	strbvc	r2, [lr, #-3840]!	; 0xfffff100
    1f3c:	0801006d 	stmdaeq	r1, {r0, r2, r3, r5, r6}
    1f40:	000ce80a 	andeq	lr, ip, sl, lsl #16
    1f44:	54910200 	ldrpl	r0, [r1], #512	; 0x200
    1f48:	01007027 	tsteq	r0, r7, lsr #32
    1f4c:	015e1408 	cmpeq	lr, r8, lsl #8
    1f50:	09650000 	stmdbeq	r5!, {}^	; <UNPREDICTABLE>
    1f54:	094d0000 	stmdbeq	sp, {}^	; <UNPREDICTABLE>
    1f58:	b02c0000 	eorlt	r0, ip, r0
    1f5c:	08000000 	stmdaeq	r0, {}	; <UNPREDICTABLE>
    1f60:	0500000d 	streq	r0, [r0, #-13]
    1f64:	00946403 	addseq	r6, r4, r3, lsl #8
    1f68:	87b83000 	ldrhi	r3, [r8, r0]!
    1f6c:	09810000 	stmibeq	r1, {}	; <UNPREDICTABLE>
    1f70:	0cde0000 	ldcleq	0, cr0, [lr], {0}
    1f74:	01290000 			; <UNDEFINED> instruction: 0x01290000
    1f78:	bc030550 	cfstr32lt	mvfx0, [r3], {80}	; 0x50
    1f7c:	29000093 	stmdbcs	r0, {r0, r1, r4, r7}
    1f80:	03055101 	movweq	r5, #20737	; 0x5101
    1f84:	000093ac 	andeq	r9, r0, ip, lsr #7
    1f88:	05520129 	ldrbeq	r0, [r2, #-297]	; 0xfffffed7
    1f8c:	00946403 	addseq	r6, r4, r3, lsl #8
    1f90:	53012900 	movwpl	r2, #6400	; 0x1900
    1f94:	02294b01 	eoreq	r4, r9, #1024	; 0x400
    1f98:	f303007d 	vqadd.u8	q0, <illegal reg q1.5>, <illegal reg q14.5>
    1f9c:	32005001 	andcc	r5, r0, #1, 0
    1fa0:	000087bc 			; <UNDEFINED> instruction: 0x000087bc
    1fa4:	00000d0d 	andeq	r0, r0, sp, lsl #26
    1fa8:	01640d00 	cmneq	r4, r0, lsl #26
    1fac:	0cf80000 	ldcleq	0, cr0, [r8]
    1fb0:	2c0e0000 	stccs	0, cr0, [lr], {-0}
    1fb4:	20000000 	andcs	r0, r0, r0
    1fb8:	016b0d00 	cmneq	fp, r0, lsl #26
    1fbc:	0d080000 	stceq	0, cr0, [r8, #-0]
    1fc0:	2c0e0000 	stccs	0, cr0, [lr], {-0}
    1fc4:	08000000 	stmdaeq	r0, {}	; <UNPREDICTABLE>
    1fc8:	0cf81100 	ldfeqe	f1, [r8]
    1fcc:	68350000 	ldmdavs	r5!, {}	; <UNPREDICTABLE>
    1fd0:	68000000 	stmdavs	r0, {}	; <UNPREDICTABLE>
    1fd4:	08000000 	stmdaeq	r0, {}	; <UNPREDICTABLE>
    1fd8:	d1000676 	tstle	r0, r6, ror r6
    1fdc:	04000009 	streq	r0, [r0], #-9
    1fe0:	00072f00 	andeq	r2, r7, r0, lsl #30
    1fe4:	30010400 	andcc	r0, r1, r0, lsl #8
    1fe8:	0c000003 	stceq	0, cr0, [r0], {3}
    1fec:	0000076d 	andeq	r0, r0, sp, ror #14
    1ff0:	000004a8 	andeq	r0, r0, r8, lsr #9
    1ff4:	00008b70 	andeq	r8, r0, r0, ror fp
    1ff8:	00000030 	andeq	r0, r0, r0, lsr r0
    1ffc:	0000097e 	andeq	r0, r0, lr, ror r9
    2000:	69050402 	stmdbvs	r5, {r1, sl}
    2004:	0300746e 	movweq	r7, #1134	; 0x46e
    2008:	01ae0704 			; <UNDEFINED> instruction: 0x01ae0704
    200c:	01030000 	mrseq	r0, (UNDEF: 3)
    2010:	00005c06 	andeq	r5, r0, r6, lsl #24
    2014:	05020300 	streq	r0, [r2, #-768]	; 0xfffffd00
    2018:	000001fe 	strdeq	r0, [r0], -lr
    201c:	ed050403 	cfstrs	mvf0, [r5, #-12]
    2020:	03000001 	movweq	r0, #1
    2024:	01e80508 	mvneq	r0, r8, lsl #10
    2028:	01030000 	mrseq	r0, (UNDEF: 3)
    202c:	00005a08 	andeq	r5, r0, r8, lsl #20
    2030:	07020300 	streq	r0, [r2, -r0, lsl #6]
    2034:	0000001c 	andeq	r0, r0, ip, lsl r0
    2038:	a9070403 	stmdbge	r7, {r0, r1, sl}
    203c:	03000001 	movweq	r0, #1
    2040:	01a40708 			; <UNDEFINED> instruction: 0x01a40708
    2044:	04040000 	streq	r0, [r4], #-0
    2048:	00050c05 	andeq	r0, r5, r5, lsl #24
    204c:	19220200 	stmdbne	r2!, {r9}
    2050:	00000079 	andeq	r0, r0, r9, ror r0
    2054:	007f0406 	rsbseq	r0, pc, r6, lsl #8
    2058:	21070000 	mrscs	r0, (UNDEF: 7)
    205c:	05000006 	streq	r0, [r0, #-6]
    2060:	00000550 	andeq	r0, r0, r0, asr r5
    2064:	410e2c03 	tstmi	lr, r3, lsl #24
    2068:	05000000 	streq	r0, [r0, #-0]
    206c:	0000062e 	andeq	r0, r0, lr, lsr #12
    2070:	410e7203 	tstmi	lr, r3, lsl #4
    2074:	08000000 	stmdaeq	r0, {}	; <UNPREDICTABLE>
    2078:	00000514 	andeq	r0, r0, r4, lsl r5
    207c:	17015e04 	strne	r5, [r1, -r4, lsl #28]
    2080:	0000002c 	andeq	r0, r0, ip, lsr #32
    2084:	a6030409 	strge	r0, [r3], -r9, lsl #8
    2088:	0000cb03 	andeq	ip, r0, r3, lsl #22
    208c:	05060a00 	streq	r0, [r6, #-2560]	; 0xfffff600
    2090:	a8030000 	stmdage	r3, {}	; <UNPREDICTABLE>
    2094:	00009c0c 	andeq	r9, r0, ip, lsl #24
    2098:	047a0a00 	ldrbteq	r0, [sl], #-2560	; 0xfffff600
    209c:	a9030000 	stmdbge	r3, {}	; <UNPREDICTABLE>
    20a0:	0000cb13 	andeq	ip, r0, r3, lsl fp
    20a4:	4f0b0000 	svcmi	0x000b0000
    20a8:	db000000 	blle	20b0 <__code_start__-0x5f50>
    20ac:	0c000000 	stceq	0, cr0, [r0], {-0}
    20b0:	0000002c 	andeq	r0, r0, ip, lsr #32
    20b4:	080d0003 	stmdaeq	sp, {r0, r1}
    20b8:	ff09a303 			; <UNDEFINED> instruction: 0xff09a303
    20bc:	0e000000 	cdpeq	0, 0, cr0, cr0, cr0, {0}
    20c0:	00000619 	andeq	r0, r0, r9, lsl r6
    20c4:	2507a503 	strcs	sl, [r7, #-1283]	; 0xfffffafd
    20c8:	00000000 	andeq	r0, r0, r0
    20cc:	0006600e 	andeq	r6, r6, lr
    20d0:	05aa0300 	streq	r0, [sl, #768]!	; 0x300
    20d4:	000000a9 	andeq	r0, r0, r9, lsr #1
    20d8:	9b050004 	blls	1420f0 <__bss_end__+0x138c28>
    20dc:	03000005 	movweq	r0, #5
    20e0:	00db03ab 	sbcseq	r0, fp, fp, lsr #7
    20e4:	37050000 	strcc	r0, [r5, -r0]
    20e8:	03000004 	movweq	r0, #4
    20ec:	006d1baf 	rsbeq	r1, sp, pc, lsr #23
    20f0:	04060000 	streq	r0, [r6], #-0
    20f4:	0000011d 	andeq	r0, r0, sp, lsl r1
    20f8:	63080103 	movwvs	r0, #33027	; 0x8103
    20fc:	0f000000 	svceq	0x00000000
    2100:	0000011d 	andeq	r0, r0, sp, lsl r1
    2104:	00067605 	andeq	r7, r6, r5, lsl #12
    2108:	19160500 	ldmdbne	r6, {r8, sl}
    210c:	0000005d 	andeq	r0, r0, sp, asr r0
    2110:	00044810 	andeq	r4, r4, r0, lsl r8
    2114:	2f051800 	svccs	0x00051800
    2118:	00018f08 	andeq	r8, r1, r8, lsl #30
    211c:	05bc0e00 	ldreq	r0, [ip, #3584]!	; 0xe00
    2120:	31050000 	mrscc	r0, (UNDEF: 5)
    2124:	00018f13 	andeq	r8, r1, r3, lsl pc
    2128:	5f110000 	svcpl	0x00110000
    212c:	3205006b 	andcc	r0, r5, #107, 0	; 0x6b
    2130:	00002507 	andeq	r2, r0, r7, lsl #10
    2134:	040e0400 	streq	r0, [lr], #-1024	; 0xfffffc00
    2138:	05000006 	streq	r0, [r0, #-6]
    213c:	00250b32 	eoreq	r0, r5, r2, lsr fp
    2140:	0e080000 	cdpeq	0, 0, cr0, cr8, cr0, {0}
    2144:	00000431 	andeq	r0, r0, r1, lsr r4
    2148:	25143205 	ldrcs	r3, [r4, #-517]	; 0xfffffdfb
    214c:	0c000000 	stceq	0, cr0, [r0], {-0}
    2150:	0006ab0e 	andeq	sl, r6, lr, lsl #22
    2154:	1b320500 	blne	c8355c <__bss_end__+0xc7a094>
    2158:	00000025 	andeq	r0, r0, r5, lsr #32
    215c:	785f1110 	ldmdavc	pc, {r4, r8, ip}^	; <UNPREDICTABLE>
    2160:	0b330500 	bleq	cc3568 <__bss_end__+0xcba0a0>
    2164:	00000195 	muleq	r0, r5, r1
    2168:	04060014 	streq	r0, [r6], #-20	; 0xffffffec
    216c:	00000135 	andeq	r0, r0, r5, lsr r1
    2170:	0001290b 	andeq	r2, r1, fp, lsl #18
    2174:	0001a500 	andeq	sl, r1, r0, lsl #10
    2178:	002c0c00 	eoreq	r0, ip, r0, lsl #24
    217c:	00000000 	andeq	r0, r0, r0
    2180:	00047510 	andeq	r7, r4, r0, lsl r5
    2184:	37052400 	strcc	r2, [r5, -r0, lsl #8]
    2188:	00022808 	andeq	r2, r2, r8, lsl #16
    218c:	02bf0e00 	adcseq	r0, pc, #0, 28
    2190:	39050000 	stmdbcc	r5, {}	; <UNPREDICTABLE>
    2194:	00002509 	andeq	r2, r0, r9, lsl #10
    2198:	440e0000 	strmi	r0, [lr], #-0
    219c:	05000006 	streq	r0, [r0, #-6]
    21a0:	0025093a 	eoreq	r0, r5, sl, lsr r9
    21a4:	0e040000 	cdpeq	0, 0, cr0, cr4, cr0, {0}
    21a8:	000002d4 	ldrdeq	r0, [r0], -r4
    21ac:	25093b05 	strcs	r3, [r9, #-2821]	; 0xfffff4fb
    21b0:	08000000 	stmdaeq	r0, {}	; <UNPREDICTABLE>
    21b4:	0007240e 	andeq	r2, r7, lr, lsl #8
    21b8:	093c0500 	ldmdbeq	ip!, {r8, sl}
    21bc:	00000025 	andeq	r0, r0, r5, lsr #32
    21c0:	05340e0c 	ldreq	r0, [r4, #-3596]!	; 0xfffff1f4
    21c4:	3d050000 	stccc	0, cr0, [r5, #-0]
    21c8:	00002509 	andeq	r2, r0, r9, lsl #10
    21cc:	230e1000 	movwcs	r1, #57344	; 0xe000
    21d0:	05000005 	streq	r0, [r0, #-5]
    21d4:	0025093e 	eoreq	r0, r5, lr, lsr r9
    21d8:	0e140000 	cdpeq	0, 1, cr0, cr4, cr0, {0}
    21dc:	000006b0 			; <UNDEFINED> instruction: 0x000006b0
    21e0:	25093f05 	strcs	r3, [r9, #-3845]	; 0xfffff0fb
    21e4:	18000000 	stmdane	r0, {}	; <UNPREDICTABLE>
    21e8:	00057d0e 	andeq	r7, r5, lr, lsl #26
    21ec:	09400500 	stmdbeq	r0, {r8, sl}^
    21f0:	00000025 	andeq	r0, r0, r5, lsr #32
    21f4:	06eb0e1c 	usateq	r0, #11, ip, lsl #28
    21f8:	41050000 	mrsmi	r0, (UNDEF: 5)
    21fc:	00002509 	andeq	r2, r0, r9, lsl #10
    2200:	12002000 	andne	r2, r0, #0, 0
    2204:	000002e3 	andeq	r0, r0, r3, ror #5
    2208:	4a050108 	bmi	142630 <__bss_end__+0x139168>
    220c:	00026d08 	andeq	r6, r2, r8, lsl #26
    2210:	04240e00 	strteq	r0, [r4], #-3584	; 0xfffff200
    2214:	4b050000 	blmi	14221c <__bss_end__+0x138d54>
    2218:	00026d0a 	andeq	r6, r2, sl, lsl #26
    221c:	4c0e0000 	stcmi	0, cr0, [lr], {-0}
    2220:	05000002 	streq	r0, [r0, #-2]
    2224:	026d094c 	rsbeq	r0, sp, #76, 18	; 0x130000
    2228:	13800000 	orrne	r0, r0, #0, 0
    222c:	00000668 	andeq	r0, r0, r8, ror #12
    2230:	290a4e05 	stmdbcs	sl, {r0, r2, r9, sl, fp, lr}
    2234:	00000001 	andeq	r0, r0, r1
    2238:	03081301 	movweq	r1, #33537	; 0x8301
    223c:	51050000 	mrspl	r0, (UNDEF: 5)
    2240:	0001290a 	andeq	r2, r1, sl, lsl #18
    2244:	00010400 	andeq	r0, r1, r0, lsl #8
    2248:	00006b0b 	andeq	r6, r0, fp, lsl #22
    224c:	00027d00 	andeq	r7, r2, r0, lsl #26
    2250:	002c0c00 	eoreq	r0, ip, r0, lsl #24
    2254:	001f0000 	andseq	r0, pc, r0
    2258:	00053d12 	andeq	r3, r5, r2, lsl sp
    225c:	05019000 	streq	r9, [r1, #-0]
    2260:	02c0085d 	sbceq	r0, r0, #6094848	; 0x5d0000
    2264:	bc0e0000 	stclt	0, cr0, [lr], {-0}
    2268:	05000005 	streq	r0, [r0, #-5]
    226c:	02c0125e 	sbceq	r1, r0, #-536870907	; 0xe0000005
    2270:	0e000000 	cdpeq	0, 0, cr0, cr0, cr0, {0}
    2274:	000005d4 	ldrdeq	r0, [r0], -r4
    2278:	25065f05 	strcs	r5, [r6, #-3845]	; 0xfffff0fb
    227c:	04000000 	streq	r0, [r0], #-0
    2280:	00042c0e 	andeq	r2, r4, lr, lsl #24
    2284:	09610500 	stmdbeq	r1!, {r8, sl}^
    2288:	000002c6 	andeq	r0, r0, r6, asr #5
    228c:	02e30e08 	rsceq	r0, r3, #8, 28	; 0x80
    2290:	62050000 	andvs	r0, r5, #0, 0
    2294:	0002281e 	andeq	r2, r2, lr, lsl r8
    2298:	06008800 	streq	r8, [r0], -r0, lsl #16
    229c:	00027d04 	andeq	r7, r2, r4, lsl #26
    22a0:	02d60b00 	sbcseq	r0, r6, #0, 22
    22a4:	02d60000 	sbcseq	r0, r6, #0, 0
    22a8:	2c0c0000 	stccs	0, cr0, [ip], {-0}
    22ac:	1f000000 	svcne	0x00000000
    22b0:	dc040600 	stcle	6, cr0, [r4], {-0}
    22b4:	14000002 	strne	r0, [r0], #-2
    22b8:	00058710 	andeq	r8, r5, r0, lsl r7
    22bc:	75050800 	strvc	r0, [r5, #-2048]	; 0xfffff800
    22c0:	00030508 	andeq	r0, r3, r8, lsl #10
    22c4:	02ce0e00 	sbceq	r0, lr, #0, 28
    22c8:	76050000 	strvc	r0, [r5], -r0
    22cc:	00030511 	andeq	r0, r3, r1, lsl r5
    22d0:	580e0000 	stmdapl	lr, {}	; <UNPREDICTABLE>
    22d4:	05000002 	streq	r0, [r0, #-2]
    22d8:	00250677 	eoreq	r0, r5, r7, ror r6
    22dc:	00040000 	andeq	r0, r4, r0
    22e0:	004f0406 	subeq	r0, pc, r6, lsl #8
    22e4:	a6100000 	ldrge	r0, [r0], -r0
    22e8:	68000005 	stmdavs	r0, {r0, r2}
    22ec:	4e08b505 	cfsh32mi	mvfx11, mvfx8, #5
    22f0:	11000004 	tstne	r0, r4
    22f4:	0500705f 	streq	r7, [r0, #-95]	; 0xffffffa1
    22f8:	030512b6 	movweq	r1, #21174	; 0x52b6
    22fc:	11000000 	mrsne	r0, (UNDEF: 0)
    2300:	0500725f 	streq	r7, [r0, #-607]	; 0xfffffda1
    2304:	002507b7 	strhteq	r0, [r5], -r7
    2308:	11040000 	mrsne	r0, (UNDEF: 4)
    230c:	0500775f 	streq	r7, [r0, #-1887]	; 0xfffff8a1
    2310:	002507b8 	strhteq	r0, [r5], -r8
    2314:	0e080000 	cdpeq	0, 0, cr0, cr8, cr0, {0}
    2318:	00000301 	andeq	r0, r0, r1, lsl #6
    231c:	3a09b905 	bcc	270738 <__bss_end__+0x267270>
    2320:	0c000000 	stceq	0, cr0, [r0], {-0}
    2324:	0004a20e 	andeq	sl, r4, lr, lsl #4
    2328:	09ba0500 	ldmibeq	sl!, {r8, sl}
    232c:	0000003a 	andeq	r0, r0, sl, lsr r0
    2330:	625f110e 	subsvs	r1, pc, #-2147483645	; 0x80000003
    2334:	bb050066 	bllt	1424d4 <__bss_end__+0x13900c>
    2338:	0002dd11 	andeq	sp, r2, r1, lsl sp
    233c:	9c0e1000 	stcls	0, cr1, [lr], {-0}
    2340:	05000002 	streq	r0, [r0, #-2]
    2344:	002507bc 	strhteq	r0, [r5], -ip
    2348:	0e180000 	cdpeq	0, 1, cr0, cr8, cr0, {0}
    234c:	000002f1 	strdeq	r0, [r0], -r1
    2350:	6b0ac305 	blvs	2b2f6c <__bss_end__+0x2a9aa4>
    2354:	1c000000 	stcne	0, cr0, [r0], {-0}
    2358:	000ae50e 	andeq	lr, sl, lr, lsl #10
    235c:	1dc50500 	cfstr64ne	mvdx0, [r5]
    2360:	000005c0 	andeq	r0, r0, r0, asr #11
    2364:	0aff0e20 	beq	fffc5bec <__bss_end__+0xfffbc724>
    2368:	c7050000 	strgt	r0, [r5, -r0]
    236c:	0005ea1d 	andeq	lr, r5, sp, lsl sl
    2370:	280e2400 	stmdacs	lr, {sl, sp}
    2374:	05000006 	streq	r0, [r0, #-6]
    2378:	060e0dca 	streq	r0, [lr], -sl, asr #27
    237c:	0e280000 	cdpeq	0, 2, cr0, cr8, cr0, {0}
    2380:	00000705 	andeq	r0, r0, r5, lsl #14
    2384:	2809cb05 	stmdacs	r9, {r0, r2, r8, r9, fp, lr, pc}
    2388:	2c000006 	stccs	0, cr0, [r0], {6}
    238c:	62755f11 	rsbsvs	r5, r5, #68	; 0x44
    2390:	11ce0500 	bicne	r0, lr, r0, lsl #10
    2394:	000002dd 	ldrdeq	r0, [r0], -sp
    2398:	755f1130 	ldrbvc	r1, [pc, #-304]	; 2270 <__code_start__-0x5d90>
    239c:	cf050070 	svcgt	0x00050070
    23a0:	00030512 	andeq	r0, r3, r2, lsl r5
    23a4:	5f113800 	svcpl	0x00113800
    23a8:	05007275 	streq	r7, [r0, #-629]	; 0xfffffd8b
    23ac:	002507d0 	ldrdeq	r0, [r5], -r0	; <UNPREDICTABLE>
    23b0:	0e3c0000 	cdpeq	0, 3, cr0, cr12, cr0, {0}
    23b4:	000002c8 	andeq	r0, r0, r8, asr #5
    23b8:	2e11d305 	cdpcs	3, 1, cr13, cr1, cr5, {0}
    23bc:	40000006 	andmi	r0, r0, r6
    23c0:	0006dd0e 	andeq	sp, r6, lr, lsl #26
    23c4:	11d40500 	bicsne	r0, r4, r0, lsl #10
    23c8:	0000063e 	andeq	r0, r0, lr, lsr r6
    23cc:	6c5f1143 	ldfvse	f1, [pc], {67}	; 0x43
    23d0:	d7050062 	strle	r0, [r5, -r2, rrx]
    23d4:	0002dd11 	andeq	sp, r2, r1, lsl sp
    23d8:	170e4400 	strne	r4, [lr, -r0, lsl #8]
    23dc:	05000003 	streq	r0, [r0, #-3]
    23e0:	002507da 	ldrdeq	r0, [r5], -sl	; <UNPREDICTABLE>
    23e4:	0e4c0000 	cdpeq	0, 4, cr0, cr12, cr0, {0}
    23e8:	00000328 	andeq	r0, r0, r8, lsr #6
    23ec:	840adb05 	strhi	sp, [sl], #-2821	; 0xfffff4fb
    23f0:	50000000 	andpl	r0, r0, r0
    23f4:	000a410e 	andeq	r4, sl, lr, lsl #2
    23f8:	12de0500 	sbcsne	r0, lr, #0, 10
    23fc:	0000046c 	andeq	r0, r0, ip, ror #8
    2400:	06220e54 			; <UNDEFINED> instruction: 0x06220e54
    2404:	e2050000 	and	r0, r5, #0, 0
    2408:	00010b0c 	andeq	r0, r1, ip, lsl #22
    240c:	ae0e5800 	cdpge	8, 0, cr5, cr14, cr0, {0}
    2410:	05000005 	streq	r0, [r0, #-5]
    2414:	00ff0ee4 	rscseq	r0, pc, r4, ror #29
    2418:	0e5c0000 	cdpeq	0, 5, cr0, cr12, cr0, {0}
    241c:	0000051b 	andeq	r0, r0, fp, lsl r5
    2420:	2509e505 	strcs	lr, [r9, #-1285]	; 0xfffffafb
    2424:	64000000 	strvs	r0, [r0], #-0
    2428:	00251500 	eoreq	r1, r5, r0, lsl #10
    242c:	046c0000 	strbteq	r0, [ip], #-0
    2430:	6c160000 	ldcvs	0, cr0, [r6], {-0}
    2434:	16000004 	strne	r0, [r0], -r4
    2438:	0000006b 	andeq	r0, r0, fp, rrx
    243c:	00011716 	andeq	r1, r1, r6, lsl r7
    2440:	00251600 	eoreq	r1, r5, r0, lsl #12
    2444:	06000000 	streq	r0, [r0], -r0
    2448:	00047704 	andeq	r7, r4, r4, lsl #14
    244c:	046c0f00 	strbteq	r0, [ip], #-3840	; 0xfffff100
    2450:	0c170000 	ldceq	0, cr0, [r7], {-0}
    2454:	28000006 	stmdacs	r0, {r1, r2}
    2458:	02600504 	rsbeq	r0, r0, #4, 10	; 0x1000000
    245c:	0005c008 	andeq	ip, r5, r8
    2460:	05761800 	ldrbeq	r1, [r6, #-2048]!	; 0xfffff800
    2464:	62050000 	andvs	r0, r5, #0, 0
    2468:	00250702 	eoreq	r0, r5, r2, lsl #14
    246c:	18000000 	stmdane	r0, {}	; <UNPREDICTABLE>
    2470:	00000310 	andeq	r0, r0, r0, lsl r3
    2474:	0b026705 	bleq	9c090 <__bss_end__+0x92bc8>
    2478:	0000069a 	muleq	r0, sl, r6
    247c:	04921804 	ldreq	r1, [r2], #2052	; 0x804
    2480:	67050000 	strvs	r0, [r5, -r0]
    2484:	069a1402 	ldreq	r1, [sl], r2, lsl #8
    2488:	18080000 	stmdane	r8, {}	; <UNPREDICTABLE>
    248c:	00000440 	andeq	r0, r0, r0, asr #8
    2490:	1e026705 	cdpne	7, 0, cr6, cr2, cr5, {0}
    2494:	0000069a 	muleq	r0, sl, r6
    2498:	05cf180c 	strbeq	r1, [pc, #2060]	; 2cac <__code_start__-0x5354>
    249c:	69050000 	stmdbvs	r5, {}	; <UNPREDICTABLE>
    24a0:	00250802 	eoreq	r0, r5, r2, lsl #16
    24a4:	18100000 	ldmdane	r0, {}	; <UNPREDICTABLE>
    24a8:	0000026d 	andeq	r0, r0, sp, ror #4
    24ac:	08026a05 	stmdaeq	r2, {r0, r2, r9, fp, sp, lr}
    24b0:	0000089a 	muleq	r0, sl, r8
    24b4:	05eb1814 	strbeq	r1, [fp, #2068]!	; 0x814
    24b8:	6d050000 	stcvs	0, cr0, [r5, #-0]
    24bc:	00250702 	eoreq	r0, r5, r2, lsl #14
    24c0:	18300000 	ldmdane	r0!, {}	; <UNPREDICTABLE>
    24c4:	000005d9 	ldrdeq	r0, [r0], -r9
    24c8:	16026e05 	strne	r6, [r2], -r5, lsl #28
    24cc:	000008af 	andeq	r0, r0, pc, lsr #17
    24d0:	05451834 	strbeq	r1, [r5, #-2100]	; 0xfffff7cc
    24d4:	70050000 	andvc	r0, r5, r0
    24d8:	00250702 	eoreq	r0, r5, r2, lsl #14
    24dc:	18380000 	ldmdane	r8!, {}	; <UNPREDICTABLE>
    24e0:	000005e1 	andeq	r0, r0, r1, ror #11
    24e4:	0a027205 	beq	9ed00 <__bss_end__+0x95838>
    24e8:	000008c0 	andeq	r0, r0, r0, asr #17
    24ec:	04fe183c 	ldrbteq	r1, [lr], #2108	; 0x83c
    24f0:	75050000 	strvc	r0, [r5, #-0]
    24f4:	018f1302 	orreq	r1, pc, r2, lsl #6
    24f8:	18400000 	stmdane	r0, {}^	; <UNPREDICTABLE>
    24fc:	0000045f 	andeq	r0, r0, pc, asr r4
    2500:	07027605 	streq	r7, [r2, -r5, lsl #12]
    2504:	00000025 	andeq	r0, r0, r5, lsr #32
    2508:	071f1844 	ldreq	r1, [pc, -r4, asr #16]
    250c:	77050000 	strvc	r0, [r5, -r0]
    2510:	018f1302 	orreq	r1, pc, r2, lsl #6
    2514:	18480000 	stmdane	r8, {}^	; <UNPREDICTABLE>
    2518:	00000557 	andeq	r0, r0, r7, asr r5
    251c:	14027805 	strne	r7, [r2], #-2053	; 0xfffff7fb
    2520:	000008c6 	andeq	r0, r0, r6, asr #17
    2524:	049a184c 	ldreq	r1, [sl], #2124	; 0x84c
    2528:	7b050000 	blvc	142530 <__bss_end__+0x139068>
    252c:	00250702 	eoreq	r0, r5, r2, lsl #14
    2530:	18500000 	ldmdane	r0, {}^	; <UNPREDICTABLE>
    2534:	00000320 	andeq	r0, r0, r0, lsr #6
    2538:	09027c05 	stmdbeq	r2, {r0, r2, sl, fp, ip, sp, lr}
    253c:	00000117 	andeq	r0, r0, r7, lsl r1
    2540:	056f1854 	strbeq	r1, [pc, #-2132]!	; 1cf4 <__code_start__-0x630c>
    2544:	9f050000 	svcls	0x00050000
    2548:	08750702 	ldmdaeq	r5!, {r1, r8, r9, sl}^
    254c:	19580000 	ldmdbne	r8, {}^	; <UNPREDICTABLE>
    2550:	0000053d 	andeq	r0, r0, sp, lsr r5
    2554:	1302a305 	movwne	sl, #8965	; 0x2305
    2558:	000002c0 	andeq	r0, r0, r0, asr #5
    255c:	d8190148 	ldmdale	r9, {r3, r6, r8}
    2560:	05000004 	streq	r0, [r0, #-4]
    2564:	7d1202a4 	lfmvc	f0, 4, [r2, #-656]	; 0xfffffd70
    2568:	4c000002 	stcmi	0, cr0, [r0], {2}
    256c:	06d31901 	ldrbeq	r1, [r3], r1, lsl #18
    2570:	a8050000 	stmdage	r5, {}	; <UNPREDICTABLE>
    2574:	08d70c02 	ldmeq	r7, {r1, sl, fp}^
    2578:	02dc0000 	sbcseq	r0, ip, #0, 0
    257c:	0002f919 	andeq	pc, r2, r9, lsl r9	; <UNPREDICTABLE>
    2580:	02ad0500 	adceq	r0, sp, #0, 10
    2584:	00065b10 	andeq	r5, r6, r0, lsl fp
    2588:	1902e000 	stmdbne	r2, {sp, lr, pc}
    258c:	000002de 	ldrdeq	r0, [r0], -lr
    2590:	0a02af05 	beq	ae1ac <__bss_end__+0xa4ce4>
    2594:	000008e3 	andeq	r0, r0, r3, ror #17
    2598:	060002ec 	streq	r0, [r0], -ip, ror #5
    259c:	00044e04 	andeq	r4, r4, r4, lsl #28
    25a0:	00251500 	eoreq	r1, r5, r0, lsl #10
    25a4:	05e40000 	strbeq	r0, [r4, #0]!
    25a8:	6c160000 	ldcvs	0, cr0, [r6], {-0}
    25ac:	16000004 	strne	r0, [r0], -r4
    25b0:	0000006b 	andeq	r0, r0, fp, rrx
    25b4:	0005e416 	andeq	lr, r5, r6, lsl r4
    25b8:	00251600 	eoreq	r1, r5, r0, lsl #12
    25bc:	06000000 	streq	r0, [r0], -r0
    25c0:	00012404 	andeq	r2, r1, r4, lsl #8
    25c4:	c6040600 	strgt	r0, [r4], -r0, lsl #12
    25c8:	15000005 	strne	r0, [r0, #-5]
    25cc:	00000090 	muleq	r0, r0, r0
    25d0:	0000060e 	andeq	r0, r0, lr, lsl #12
    25d4:	00046c16 	andeq	r6, r4, r6, lsl ip
    25d8:	006b1600 	rsbeq	r1, fp, r0, lsl #12
    25dc:	90160000 	andsls	r0, r6, r0
    25e0:	16000000 	strne	r0, [r0], -r0
    25e4:	00000025 	andeq	r0, r0, r5, lsr #32
    25e8:	f0040600 			; <UNDEFINED> instruction: 0xf0040600
    25ec:	15000005 	strne	r0, [r0, #-5]
    25f0:	00000025 	andeq	r0, r0, r5, lsr #32
    25f4:	00000628 	andeq	r0, r0, r8, lsr #12
    25f8:	00046c16 	andeq	r6, r4, r6, lsl ip
    25fc:	006b1600 	rsbeq	r1, fp, r0, lsl #12
    2600:	06000000 	streq	r0, [r0], -r0
    2604:	00061404 	andeq	r1, r6, r4, lsl #8
    2608:	004f0b00 	subeq	r0, pc, r0, lsl #22
    260c:	063e0000 	ldrteq	r0, [lr], -r0
    2610:	2c0c0000 	stccs	0, cr0, [ip], {-0}
    2614:	02000000 	andeq	r0, r0, #0, 0
    2618:	004f0b00 	subeq	r0, pc, r0, lsl #22
    261c:	064e0000 	strbeq	r0, [lr], -r0
    2620:	2c0c0000 	stccs	0, cr0, [ip], {-0}
    2624:	00000000 	andeq	r0, r0, r0
    2628:	05940800 	ldreq	r0, [r4, #2048]	; 0x800
    262c:	1f050000 	svcne	0x00050000
    2630:	030b1a01 	movweq	r1, #47617	; 0xba01
    2634:	ba1a0000 	blt	68263c <__bss_end__+0x679174>
    2638:	0c000006 	stceq	0, cr0, [r0], {6}
    263c:	08012305 	stmdaeq	r1, {r0, r2, r8, r9, sp}
    2640:	00000694 	muleq	r0, r4, r6
    2644:	0005bc18 	andeq	fp, r5, r8, lsl ip
    2648:	01250500 			; <UNDEFINED> instruction: 0x01250500
    264c:	00069411 	andeq	r9, r6, r1, lsl r4
    2650:	d1180000 	tstle	r8, r0
    2654:	05000004 	streq	r0, [r0, #-4]
    2658:	25070126 	strcs	r0, [r7, #-294]	; 0xfffffeda
    265c:	04000000 	streq	r0, [r0], #-0
    2660:	00058e18 	andeq	r8, r5, r8, lsl lr
    2664:	01270500 			; <UNDEFINED> instruction: 0x01270500
    2668:	00069a0b 	andeq	r9, r6, fp, lsl #20
    266c:	06000800 	streq	r0, [r0], -r0, lsl #16
    2670:	00065b04 	andeq	r5, r6, r4, lsl #22
    2674:	4e040600 	cfmadd32mi	mvax0, mvfx0, mvfx4, mvfx0
    2678:	1a000006 	bne	2698 <__code_start__-0x5968>
    267c:	00000265 	andeq	r0, r0, r5, ror #4
    2680:	013f050e 	teqeq	pc, lr, lsl #10
    2684:	0006d908 	andeq	sp, r6, r8, lsl #18
    2688:	06131800 	ldreq	r1, [r3], -r0, lsl #16
    268c:	40050000 	andmi	r0, r5, r0
    2690:	06d91201 	ldrbeq	r1, [r9], r1, lsl #4
    2694:	18000000 	stmdane	r0, {}	; <UNPREDICTABLE>
    2698:	0000064d 	andeq	r0, r0, sp, asr #12
    269c:	12014105 	andne	r4, r1, #1073741825	; 0x40000001
    26a0:	000006d9 	ldrdeq	r0, [r0], -r9
    26a4:	06711806 	ldrbteq	r1, [r1], -r6, lsl #16
    26a8:	42050000 	andmi	r0, r5, #0, 0
    26ac:	00561201 	subseq	r1, r6, r1, lsl #4
    26b0:	000c0000 	andeq	r0, ip, r0
    26b4:	0000560b 	andeq	r5, r0, fp, lsl #12
    26b8:	0006e900 	andeq	lr, r6, r0, lsl #18
    26bc:	002c0c00 	eoreq	r0, ip, r0, lsl #24
    26c0:	00020000 	andeq	r0, r2, r0
    26c4:	8005d01b 	andhi	sp, r5, fp, lsl r0
    26c8:	07fe0702 	ldrbeq	r0, [lr, r2, lsl #14]!
    26cc:	9e180000 	cdpls	0, 1, cr0, cr8, cr0, {0}
    26d0:	05000006 	streq	r0, [r0, #-6]
    26d4:	2c180282 	lfmcs	f0, 4, [r8], {130}	; 0x82
    26d8:	00000000 	andeq	r0, r0, r0
    26dc:	00065318 	andeq	r5, r6, r8, lsl r3
    26e0:	02830500 	addeq	r0, r3, #0, 10
    26e4:	00011712 	andeq	r1, r1, r2, lsl r7
    26e8:	f1180400 			; <UNDEFINED> instruction: 0xf1180400
    26ec:	05000004 	streq	r0, [r0, #-4]
    26f0:	fe100284 	cdp2	2, 1, cr0, cr0, cr4, {4}
    26f4:	08000007 	stmdaeq	r0, {r0, r1, r2}
    26f8:	0006f618 	andeq	pc, r6, r8, lsl r6	; <UNPREDICTABLE>
    26fc:	02850500 	addeq	r0, r5, #0, 10
    2700:	0001a517 	andeq	sl, r1, r7, lsl r5
    2704:	50182400 	andspl	r2, r8, r0, lsl #8
    2708:	05000004 	streq	r0, [r0, #-4]
    270c:	250f0286 	strcs	r0, [pc, #-646]	; 248e <__code_start__-0x5b72>
    2710:	48000000 	stmdami	r0, {}	; <UNPREDICTABLE>
    2714:	0005b718 	andeq	fp, r5, r8, lsl r7
    2718:	02870500 	addeq	r0, r7, #0, 10
    271c:	0000642c 	andeq	r6, r0, ip, lsr #8
    2720:	0c185000 	ldceq	0, cr5, [r8], {-0}
    2724:	05000007 	streq	r0, [r0, #-7]
    2728:	a01a0288 	andsge	r0, sl, r8, lsl #5
    272c:	58000006 	stmdapl	r0, {r1, r2}
    2730:	0005c218 	andeq	ip, r5, r8, lsl r2
    2734:	02890500 	addeq	r0, r9, #0, 10
    2738:	0000ff16 	andeq	pc, r0, r6, lsl pc	; <UNPREDICTABLE>
    273c:	11186800 	tstne	r8, r0, lsl #16
    2740:	05000007 	streq	r0, [r0, #-7]
    2744:	ff16028a 			; <UNDEFINED> instruction: 0xff16028a
    2748:	70000000 	andvc	r0, r0, r0
    274c:	00056118 	andeq	r6, r5, r8, lsl r1
    2750:	028b0500 	addeq	r0, fp, #0, 10
    2754:	0000ff16 	andeq	pc, r0, r6, lsl pc	; <UNPREDICTABLE>
    2758:	c9187800 	ldmdbgt	r8, {fp, ip, sp, lr}
    275c:	05000006 	streq	r0, [r0, #-6]
    2760:	0e10028c 	cdpeq	2, 1, cr0, cr0, cr12, {4}
    2764:	80000008 	andhi	r0, r0, r8
    2768:	00029018 	andeq	r9, r2, r8, lsl r0
    276c:	028d0500 	addeq	r0, sp, #0, 10
    2770:	00081e10 	andeq	r1, r8, r0, lsl lr
    2774:	7e188800 	cdpvc	8, 1, cr8, cr8, cr0, {0}
    2778:	05000006 	streq	r0, [r0, #-6]
    277c:	250f028e 	strcs	r0, [pc, #-654]	; 24f6 <__code_start__-0x5b0a>
    2780:	a0000000 	andge	r0, r0, r0
    2784:	00041618 	andeq	r1, r4, r8, lsl r6
    2788:	028f0500 	addeq	r0, pc, #0, 10
    278c:	0000ff16 	andeq	pc, r0, r6, lsl pc	; <UNPREDICTABLE>
    2790:	b018a400 	andslt	sl, r8, r0, lsl #8
    2794:	05000002 	streq	r0, [r0, #-2]
    2798:	ff160290 			; <UNDEFINED> instruction: 0xff160290
    279c:	ac000000 	stcge	0, cr0, [r0], {-0}
    27a0:	00040518 	andeq	r0, r4, r8, lsl r5
    27a4:	02910500 	addseq	r0, r1, #0, 10
    27a8:	0000ff16 	andeq	pc, r0, r6, lsl pc	; <UNPREDICTABLE>
    27ac:	8118b400 	tsthi	r8, r0, lsl #8
    27b0:	05000002 	streq	r0, [r0, #-2]
    27b4:	ff160292 			; <UNDEFINED> instruction: 0xff160292
    27b8:	bc000000 	stclt	0, cr0, [r0], {-0}
    27bc:	00048118 	andeq	r8, r4, r8, lsl r1
    27c0:	02930500 	addseq	r0, r3, #0, 10
    27c4:	0000ff16 	andeq	pc, r0, r6, lsl pc	; <UNPREDICTABLE>
    27c8:	7418c400 	ldrvc	ip, [r8], #-1024	; 0xfffffc00
    27cc:	05000005 	streq	r0, [r0, #-5]
    27d0:	25080294 	strcs	r0, [r8, #-660]	; 0xfffffd6c
    27d4:	cc000000 	stcgt	0, cr0, [r0], {-0}
    27d8:	011d0b00 	tsteq	sp, r0, lsl #22
    27dc:	080e0000 	stmdaeq	lr, {}	; <UNPREDICTABLE>
    27e0:	2c0c0000 	stccs	0, cr0, [ip], {-0}
    27e4:	19000000 	stmdbne	r0, {}	; <UNPREDICTABLE>
    27e8:	011d0b00 	tsteq	sp, r0, lsl #22
    27ec:	081e0000 	ldmdaeq	lr, {}	; <UNPREDICTABLE>
    27f0:	2c0c0000 	stccs	0, cr0, [ip], {-0}
    27f4:	07000000 	streq	r0, [r0, -r0]
    27f8:	011d0b00 	tsteq	sp, r0, lsl #22
    27fc:	082e0000 	stmdaeq	lr!, {}	; <UNPREDICTABLE>
    2800:	2c0c0000 	stccs	0, cr0, [ip], {-0}
    2804:	17000000 	strne	r0, [r0, -r0]
    2808:	05f01b00 	ldrbeq	r1, [r0, #2816]!	; 0xb00
    280c:	55070299 	strpl	r0, [r7, #-665]	; 0xfffffd67
    2810:	18000008 	stmdane	r0, {r3}
    2814:	0000052d 	andeq	r0, r0, sp, lsr #10
    2818:	1b029c05 	blne	a9834 <__bss_end__+0xa036c>
    281c:	00000855 	andeq	r0, r0, r5, asr r8
    2820:	06c01800 	strbeq	r1, [r0], r0, lsl #16
    2824:	9d050000 	stcls	0, cr0, [r5, #-0]
    2828:	08651802 	stmdaeq	r5!, {r1, fp, ip}^
    282c:	00780000 	rsbseq	r0, r8, r0
    2830:	0003050b 	andeq	r0, r3, fp, lsl #10
    2834:	00086500 	andeq	r6, r8, r0, lsl #10
    2838:	002c0c00 	eoreq	r0, ip, r0, lsl #24
    283c:	001d0000 	andseq	r0, sp, r0
    2840:	00002c0b 	andeq	r2, r0, fp, lsl #24
    2844:	00087500 	andeq	r7, r8, r0, lsl #10
    2848:	002c0c00 	eoreq	r0, ip, r0, lsl #24
    284c:	001d0000 	andseq	r0, sp, r0
    2850:	7e05f01c 	mcrvc	0, 0, pc, cr5, cr12, {0}	; <UNPREDICTABLE>
    2854:	089a0302 	ldmeq	sl, {r1, r8, r9}
    2858:	0c1d0000 	ldceq	0, cr0, [sp], {-0}
    285c:	05000006 	streq	r0, [r0, #-6]
    2860:	e90b0295 	stmdb	fp, {r0, r2, r4, r7, r9}
    2864:	1d000006 	stcne	0, cr0, [r0, #-24]	; 0xffffffe8
    2868:	000006e3 	andeq	r0, r0, r3, ror #13
    286c:	0b029e05 	bleq	aa088 <__bss_end__+0xa0bc0>
    2870:	0000082e 	andeq	r0, r0, lr, lsr #16
    2874:	011d0b00 	tsteq	sp, r0, lsl #22
    2878:	08aa0000 	stmiaeq	sl!, {}	; <UNPREDICTABLE>
    287c:	2c0c0000 	stccs	0, cr0, [ip], {-0}
    2880:	18000000 	stmdane	r0, {}	; <UNPREDICTABLE>
    2884:	02a50700 	adceq	r0, r5, #0, 14
    2888:	04060000 	streq	r0, [r6], #-0
    288c:	000008aa 	andeq	r0, r0, sl, lsr #17
    2890:	0008c01e 	andeq	ip, r8, lr, lsl r0
    2894:	046c1600 	strbteq	r1, [ip], #-1536	; 0xfffffa00
    2898:	06000000 	streq	r0, [r0], -r0
    289c:	0008b504 	andeq	fp, r8, r4, lsl #10
    28a0:	8f040600 	svchi	0x00040600
    28a4:	1e000001 	cdpne	0, 0, cr0, cr0, cr1, {0}
    28a8:	000008d7 	ldrdeq	r0, [r0], -r7
    28ac:	00002516 	andeq	r2, r0, r6, lsl r5
    28b0:	04060000 	streq	r0, [r6], #-0
    28b4:	000008dd 	ldrdeq	r0, [r0], -sp
    28b8:	08cc0406 	stmiaeq	ip, {r1, r2, sl}^
    28bc:	4e0b0000 	cdpmi	0, 0, cr0, cr11, cr0, {0}
    28c0:	f3000006 	vhadd.u8	d0, d0, d6
    28c4:	0c000008 	stceq	0, cr0, [r0], {8}
    28c8:	0000002c 	andeq	r0, r0, ip, lsr #32
    28cc:	921f0002 	andsls	r0, pc, #2, 0
    28d0:	05000006 	streq	r0, [r0, #-6]
    28d4:	6c17032e 	ldcvs	3, cr0, [r7], {46}	; 0x2e
    28d8:	1f000004 	svcne	0x00000004
    28dc:	0000068b 	andeq	r0, r0, fp, lsl #13
    28e0:	1d032f05 	stcne	15, cr2, [r3, #-20]	; 0xffffffec
    28e4:	00000472 	andeq	r0, r0, r2, ror r4
    28e8:	00063605 	andeq	r3, r6, r5, lsl #12
    28ec:	0f210600 	svceq	0x00210600
    28f0:	00000919 	andeq	r0, r0, r9, lsl r9
    28f4:	091f0406 	ldmdbeq	pc, {r1, r2, sl}	; <UNPREDICTABLE>
    28f8:	25150000 	ldrcs	r0, [r5, #-0]
    28fc:	2e000000 	cdpcs	0, 0, cr0, cr0, cr0, {0}
    2900:	16000009 	strne	r0, [r0], -r9
    2904:	00000025 	andeq	r0, r0, r5, lsr #32
    2908:	04692000 	strbteq	r2, [r9], #-0
    290c:	23060000 	movwcs	r0, #24576	; 0x6000
    2910:	00090d16 	andeq	r0, r9, r6, lsl sp
    2914:	092e2100 	stmdbeq	lr!, {r8, sp}
    2918:	10010000 	andne	r0, r1, r0
    291c:	b803050f 	stmdalt	r3, {r0, r1, r2, r3, r8, sl}
    2920:	22000094 	andcs	r0, r0, #148, 0	; 0x94
    2924:	0000077e 	andeq	r0, r0, lr, ror r7
    2928:	0d0f1201 	sfmeq	f1, 4, [pc, #-4]	; 292c <__code_start__-0x56d4>
    292c:	88000009 	stmdahi	r0, {r0, r3}
    2930:	1800008b 	stmdane	r0, {r0, r1, r3, r7}
    2934:	01000000 	mrseq	r0, (UNDEF: 0)
    2938:	00098b9c 	muleq	r9, ip, fp
    293c:	07982300 	ldreq	r2, [r8, r0, lsl #6]
    2940:	12010000 	andne	r0, r1, #0, 0
    2944:	00090d2d 	andeq	r0, r9, sp, lsr #26
    2948:	000a0300 	andeq	r0, sl, r0, lsl #6
    294c:	0009ff00 	andeq	pc, r9, r0, lsl #30
    2950:	6c6f2400 	cfstrdvs	mvd2, [pc], #-0	; 2958 <__code_start__-0x56a8>
    2954:	13010064 	movwne	r0, #4196	; 0x1064
    2958:	00090d13 	andeq	r0, r9, r3, lsl sp
    295c:	000a2700 	andeq	r2, sl, r0, lsl #14
    2960:	000a2500 	andeq	r2, sl, r0, lsl #10
    2964:	9d250000 	stcls	0, cr0, [r5, #-0]
    2968:	01000007 	tsteq	r0, r7
    296c:	00250c0b 	eoreq	r0, r5, fp, lsl #24
    2970:	8b700000 	blhi	1c02978 <__bss_end__+0x1bf94b0>
    2974:	00180000 	andseq	r0, r8, r0
    2978:	9c010000 	stcls	0, cr0, [r1], {-0}
    297c:	000009c8 	andeq	r0, r0, r8, asr #19
    2980:	01006326 	tsteq	r0, r6, lsr #6
    2984:	0025200b 	eoreq	r2, r5, fp
    2988:	0a3e0000 	beq	f82990 <__bss_end__+0xf794c8>
    298c:	0a3a0000 	beq	e82994 <__bss_end__+0xe794cc>
    2990:	80270000 	eorhi	r0, r7, r0
    2994:	c800008b 	stmdagt	r0, {r0, r1, r3, r7}
    2998:	28000009 	stmdacs	r0, {r0, r3}
    299c:	74025001 	strvc	r5, [r2], #-1
    29a0:	29000000 	stmdbcs	r0, {}	; <UNPREDICTABLE>
    29a4:	0000078e 	andeq	r0, r0, lr, lsl #15
    29a8:	0000078e 	andeq	r0, r0, lr, lsl #15
    29ac:	00054806 	andeq	r4, r5, r6, lsl #16
    29b0:	000009ba 			; <UNDEFINED> instruction: 0x000009ba
    29b4:	09930004 	ldmibeq	r3, {r2}
    29b8:	01040000 	mrseq	r0, (UNDEF: 4)
    29bc:	00000330 	andeq	r0, r0, r0, lsr r3
    29c0:	0007ad0c 	andeq	sl, r7, ip, lsl #26
    29c4:	0004a800 	andeq	sl, r4, r0, lsl #16
    29c8:	008ba000 	addeq	sl, fp, r0
    29cc:	00002000 	andeq	r2, r0, r0
    29d0:	000ad000 	andeq	sp, sl, r0
    29d4:	05040200 	streq	r0, [r4, #-512]	; 0xfffffe00
    29d8:	00746e69 	rsbseq	r6, r4, r9, ror #28
    29dc:	ae070403 	cdpge	4, 0, cr0, cr7, cr3, {0}
    29e0:	03000001 	movweq	r0, #1
    29e4:	005c0601 	subseq	r0, ip, r1, lsl #12
    29e8:	02030000 	andeq	r0, r3, #0, 0
    29ec:	0001fe05 	andeq	pc, r1, r5, lsl #28
    29f0:	05040300 	streq	r0, [r4, #-768]	; 0xfffffd00
    29f4:	000001ed 	andeq	r0, r0, sp, ror #3
    29f8:	e8050803 	stmda	r5, {r0, r1, fp}
    29fc:	03000001 	movweq	r0, #1
    2a00:	005a0801 	subseq	r0, sl, r1, lsl #16
    2a04:	02030000 	andeq	r0, r3, #0, 0
    2a08:	00001c07 	andeq	r1, r0, r7, lsl #24
    2a0c:	07040300 	streq	r0, [r4, -r0, lsl #6]
    2a10:	000001a9 	andeq	r0, r0, r9, lsr #3
    2a14:	a4070803 	strge	r0, [r7], #-2051	; 0xfffff7fd
    2a18:	04000001 	streq	r0, [r0], #-1
    2a1c:	050c0504 	streq	r0, [ip, #-1284]	; 0xfffffafc
    2a20:	22020000 	andcs	r0, r2, #0, 0
    2a24:	00007919 	andeq	r7, r0, r9, lsl r9
    2a28:	7f040600 	svcvc	0x00040600
    2a2c:	07000000 	streq	r0, [r0, -r0]
    2a30:	00000621 	andeq	r0, r0, r1, lsr #12
    2a34:	00055005 	andeq	r5, r5, r5
    2a38:	0e2c0300 	cdpeq	3, 2, cr0, cr12, cr0, {0}
    2a3c:	00000041 	andeq	r0, r0, r1, asr #32
    2a40:	00062e05 	andeq	r2, r6, r5, lsl #28
    2a44:	0e720300 	cdpeq	3, 7, cr0, cr2, cr0, {0}
    2a48:	00000041 	andeq	r0, r0, r1, asr #32
    2a4c:	00051408 	andeq	r1, r5, r8, lsl #8
    2a50:	015e0400 	cmpeq	lr, r0, lsl #8
    2a54:	00002c17 	andeq	r2, r0, r7, lsl ip
    2a58:	03040900 	movweq	r0, #18688	; 0x4900
    2a5c:	00cb03a6 	sbceq	r0, fp, r6, lsr #7
    2a60:	060a0000 	streq	r0, [sl], -r0
    2a64:	03000005 	movweq	r0, #5
    2a68:	009c0ca8 	addseq	r0, ip, r8, lsr #25
    2a6c:	7a0a0000 	bvc	282a74 <__bss_end__+0x2795ac>
    2a70:	03000004 	movweq	r0, #4
    2a74:	00cb13a9 	sbceq	r1, fp, r9, lsr #7
    2a78:	0b000000 	bleq	2a80 <__code_start__-0x5580>
    2a7c:	0000004f 	andeq	r0, r0, pc, asr #32
    2a80:	000000db 	ldrdeq	r0, [r0], -fp
    2a84:	00002c0c 	andeq	r2, r0, ip, lsl #24
    2a88:	0d000300 	stceq	3, cr0, [r0, #-0]
    2a8c:	09a30308 	stmibeq	r3!, {r3, r8, r9}
    2a90:	000000ff 	strdeq	r0, [r0], -pc	; <UNPREDICTABLE>
    2a94:	0006190e 	andeq	r1, r6, lr, lsl #18
    2a98:	07a50300 	streq	r0, [r5, r0, lsl #6]!
    2a9c:	00000025 	andeq	r0, r0, r5, lsr #32
    2aa0:	06600e00 	strbteq	r0, [r0], -r0, lsl #28
    2aa4:	aa030000 	bge	c2aac <__bss_end__+0xb95e4>
    2aa8:	0000a905 	andeq	sl, r0, r5, lsl #18
    2aac:	05000400 	streq	r0, [r0, #-1024]	; 0xfffffc00
    2ab0:	0000059b 	muleq	r0, fp, r5
    2ab4:	db03ab03 	blle	ed6c8 <__bss_end__+0xe4200>
    2ab8:	05000000 	streq	r0, [r0, #-0]
    2abc:	00000437 	andeq	r0, r0, r7, lsr r4
    2ac0:	6d1baf03 	ldcvs	15, cr10, [fp, #-12]
    2ac4:	06000000 	streq	r0, [r0], -r0
    2ac8:	00011d04 	andeq	r1, r1, r4, lsl #26
    2acc:	08010300 	stmdaeq	r1, {r8, r9}
    2ad0:	00000063 	andeq	r0, r0, r3, rrx
    2ad4:	00011d0f 	andeq	r1, r1, pc, lsl #26
    2ad8:	06760500 	ldrbteq	r0, [r6], -r0, lsl #10
    2adc:	16050000 	strne	r0, [r5], -r0
    2ae0:	00005d19 	andeq	r5, r0, r9, lsl sp
    2ae4:	04481000 	strbeq	r1, [r8], #-0
    2ae8:	05180000 	ldreq	r0, [r8, #-0]
    2aec:	018f082f 	orreq	r0, pc, pc, lsr #16
    2af0:	bc0e0000 	stclt	0, cr0, [lr], {-0}
    2af4:	05000005 	streq	r0, [r0, #-5]
    2af8:	018f1331 	orreq	r1, pc, r1, lsr r3	; <UNPREDICTABLE>
    2afc:	11000000 	mrsne	r0, (UNDEF: 0)
    2b00:	05006b5f 	streq	r6, [r0, #-2911]	; 0xfffff4a1
    2b04:	00250732 	eoreq	r0, r5, r2, lsr r7
    2b08:	0e040000 	cdpeq	0, 0, cr0, cr4, cr0, {0}
    2b0c:	00000604 	andeq	r0, r0, r4, lsl #12
    2b10:	250b3205 	strcs	r3, [fp, #-517]	; 0xfffffdfb
    2b14:	08000000 	stmdaeq	r0, {}	; <UNPREDICTABLE>
    2b18:	0004310e 	andeq	r3, r4, lr, lsl #2
    2b1c:	14320500 	ldrtne	r0, [r2], #-1280	; 0xfffffb00
    2b20:	00000025 	andeq	r0, r0, r5, lsr #32
    2b24:	06ab0e0c 	strteq	r0, [fp], ip, lsl #28
    2b28:	32050000 	andcc	r0, r5, #0, 0
    2b2c:	0000251b 	andeq	r2, r0, fp, lsl r5
    2b30:	5f111000 	svcpl	0x00111000
    2b34:	33050078 	movwcc	r0, #20600	; 0x5078
    2b38:	0001950b 	andeq	r9, r1, fp, lsl #10
    2b3c:	06001400 	streq	r1, [r0], -r0, lsl #8
    2b40:	00013504 	andeq	r3, r1, r4, lsl #10
    2b44:	01290b00 			; <UNDEFINED> instruction: 0x01290b00
    2b48:	01a50000 			; <UNDEFINED> instruction: 0x01a50000
    2b4c:	2c0c0000 	stccs	0, cr0, [ip], {-0}
    2b50:	00000000 	andeq	r0, r0, r0
    2b54:	04751000 	ldrbteq	r1, [r5], #-0
    2b58:	05240000 	streq	r0, [r4, #-0]!
    2b5c:	02280837 	eoreq	r0, r8, #3604480	; 0x370000
    2b60:	bf0e0000 	svclt	0x000e0000
    2b64:	05000002 	streq	r0, [r0, #-2]
    2b68:	00250939 	eoreq	r0, r5, r9, lsr r9
    2b6c:	0e000000 	cdpeq	0, 0, cr0, cr0, cr0, {0}
    2b70:	00000644 	andeq	r0, r0, r4, asr #12
    2b74:	25093a05 	strcs	r3, [r9, #-2565]	; 0xfffff5fb
    2b78:	04000000 	streq	r0, [r0], #-0
    2b7c:	0002d40e 	andeq	sp, r2, lr, lsl #8
    2b80:	093b0500 	ldmdbeq	fp!, {r8, sl}
    2b84:	00000025 	andeq	r0, r0, r5, lsr #32
    2b88:	07240e08 	streq	r0, [r4, -r8, lsl #28]!
    2b8c:	3c050000 	stccc	0, cr0, [r5], {-0}
    2b90:	00002509 	andeq	r2, r0, r9, lsl #10
    2b94:	340e0c00 	strcc	r0, [lr], #-3072	; 0xfffff400
    2b98:	05000005 	streq	r0, [r0, #-5]
    2b9c:	0025093d 	eoreq	r0, r5, sp, lsr r9
    2ba0:	0e100000 	cdpeq	0, 1, cr0, cr0, cr0, {0}
    2ba4:	00000523 	andeq	r0, r0, r3, lsr #10
    2ba8:	25093e05 	strcs	r3, [r9, #-3589]	; 0xfffff1fb
    2bac:	14000000 	strne	r0, [r0], #-0
    2bb0:	0006b00e 	andeq	fp, r6, lr
    2bb4:	093f0500 	ldmdbeq	pc!, {r8, sl}	; <UNPREDICTABLE>
    2bb8:	00000025 	andeq	r0, r0, r5, lsr #32
    2bbc:	057d0e18 	ldrbeq	r0, [sp, #-3608]!	; 0xfffff1e8
    2bc0:	40050000 	andmi	r0, r5, r0
    2bc4:	00002509 	andeq	r2, r0, r9, lsl #10
    2bc8:	eb0e1c00 	bl	389bd0 <__bss_end__+0x380708>
    2bcc:	05000006 	streq	r0, [r0, #-6]
    2bd0:	00250941 	eoreq	r0, r5, r1, asr #18
    2bd4:	00200000 	eoreq	r0, r0, r0
    2bd8:	0002e312 	andeq	lr, r2, r2, lsl r3
    2bdc:	05010800 	streq	r0, [r1, #-2048]	; 0xfffff800
    2be0:	026d084a 	rsbeq	r0, sp, #4849664	; 0x4a0000
    2be4:	240e0000 	strcs	r0, [lr], #-0
    2be8:	05000004 	streq	r0, [r0, #-4]
    2bec:	026d0a4b 	rsbeq	r0, sp, #307200	; 0x4b000
    2bf0:	0e000000 	cdpeq	0, 0, cr0, cr0, cr0, {0}
    2bf4:	0000024c 	andeq	r0, r0, ip, asr #4
    2bf8:	6d094c05 	stcvs	12, cr4, [r9, #-20]	; 0xffffffec
    2bfc:	80000002 	andhi	r0, r0, r2
    2c00:	00066813 	andeq	r6, r6, r3, lsl r8
    2c04:	0a4e0500 	beq	138400c <__bss_end__+0x137ab44>
    2c08:	00000129 	andeq	r0, r0, r9, lsr #2
    2c0c:	08130100 	ldmdaeq	r3, {r8}
    2c10:	05000003 	streq	r0, [r0, #-3]
    2c14:	01290a51 			; <UNDEFINED> instruction: 0x01290a51
    2c18:	01040000 	mrseq	r0, (UNDEF: 4)
    2c1c:	006b0b00 	rsbeq	r0, fp, r0, lsl #22
    2c20:	027d0000 	rsbseq	r0, sp, #0, 0
    2c24:	2c0c0000 	stccs	0, cr0, [ip], {-0}
    2c28:	1f000000 	svcne	0x00000000
    2c2c:	053d1200 	ldreq	r1, [sp, #-512]!	; 0xfffffe00
    2c30:	01900000 	orrseq	r0, r0, r0
    2c34:	c0085d05 	andgt	r5, r8, r5, lsl #26
    2c38:	0e000002 	cdpeq	0, 0, cr0, cr0, cr2, {0}
    2c3c:	000005bc 			; <UNDEFINED> instruction: 0x000005bc
    2c40:	c0125e05 	andsgt	r5, r2, r5, lsl #28
    2c44:	00000002 	andeq	r0, r0, r2
    2c48:	0005d40e 	andeq	sp, r5, lr, lsl #8
    2c4c:	065f0500 	ldrbeq	r0, [pc], -r0, lsl #10
    2c50:	00000025 	andeq	r0, r0, r5, lsr #32
    2c54:	042c0e04 	strteq	r0, [ip], #-3588	; 0xfffff1fc
    2c58:	61050000 	mrsvs	r0, (UNDEF: 5)
    2c5c:	0002c609 	andeq	ip, r2, r9, lsl #12
    2c60:	e30e0800 	movw	r0, #59392	; 0xe800
    2c64:	05000002 	streq	r0, [r0, #-2]
    2c68:	02281e62 	eoreq	r1, r8, #1568	; 0x620
    2c6c:	00880000 	addeq	r0, r8, r0
    2c70:	027d0406 	rsbseq	r0, sp, #100663296	; 0x6000000
    2c74:	d60b0000 	strle	r0, [fp], -r0
    2c78:	d6000002 	strle	r0, [r0], -r2
    2c7c:	0c000002 	stceq	0, cr0, [r0], {2}
    2c80:	0000002c 	andeq	r0, r0, ip, lsr #32
    2c84:	0406001f 	streq	r0, [r6], #-31	; 0xffffffe1
    2c88:	000002dc 	ldrdeq	r0, [r0], -ip
    2c8c:	05871014 	streq	r1, [r7, #20]
    2c90:	05080000 	streq	r0, [r8, #-0]
    2c94:	03050875 	movweq	r0, #22645	; 0x5875
    2c98:	ce0e0000 	cdpgt	0, 0, cr0, cr14, cr0, {0}
    2c9c:	05000002 	streq	r0, [r0, #-2]
    2ca0:	03051176 	movweq	r1, #20854	; 0x5176
    2ca4:	0e000000 	cdpeq	0, 0, cr0, cr0, cr0, {0}
    2ca8:	00000258 	andeq	r0, r0, r8, asr r2
    2cac:	25067705 	strcs	r7, [r6, #-1797]	; 0xfffff8fb
    2cb0:	04000000 	streq	r0, [r0], #-0
    2cb4:	4f040600 	svcmi	0x00040600
    2cb8:	10000000 	andne	r0, r0, r0
    2cbc:	000005a6 	andeq	r0, r0, r6, lsr #11
    2cc0:	08b50568 	ldmeq	r5!, {r3, r5, r6, r8, sl}
    2cc4:	0000044e 	andeq	r0, r0, lr, asr #8
    2cc8:	00705f11 	rsbseq	r5, r0, r1, lsl pc
    2ccc:	0512b605 	ldreq	fp, [r2, #-1541]	; 0xfffff9fb
    2cd0:	00000003 	andeq	r0, r0, r3
    2cd4:	00725f11 	rsbseq	r5, r2, r1, lsl pc
    2cd8:	2507b705 	strcs	fp, [r7, #-1797]	; 0xfffff8fb
    2cdc:	04000000 	streq	r0, [r0], #-0
    2ce0:	00775f11 	rsbseq	r5, r7, r1, lsl pc
    2ce4:	2507b805 	strcs	fp, [r7, #-2053]	; 0xfffff7fb
    2ce8:	08000000 	stmdaeq	r0, {}	; <UNPREDICTABLE>
    2cec:	0003010e 	andeq	r0, r3, lr, lsl #2
    2cf0:	09b90500 	ldmibeq	r9!, {r8, sl}
    2cf4:	0000003a 	andeq	r0, r0, sl, lsr r0
    2cf8:	04a20e0c 	strteq	r0, [r2], #3596	; 0xe0c
    2cfc:	ba050000 	blt	142d04 <__bss_end__+0x13983c>
    2d00:	00003a09 	andeq	r3, r0, r9, lsl #20
    2d04:	5f110e00 	svcpl	0x00110e00
    2d08:	05006662 	streq	r6, [r0, #-1634]	; 0xfffff99e
    2d0c:	02dd11bb 	sbcseq	r1, sp, #-1073741778	; 0xc000002e
    2d10:	0e100000 	cdpeq	0, 1, cr0, cr0, cr0, {0}
    2d14:	0000029c 	muleq	r0, ip, r2
    2d18:	2507bc05 	strcs	fp, [r7, #-3077]	; 0xfffff3fb
    2d1c:	18000000 	stmdane	r0, {}	; <UNPREDICTABLE>
    2d20:	0002f10e 	andeq	pc, r2, lr, lsl #2
    2d24:	0ac30500 	beq	ff0c412c <__bss_end__+0xff0bac64>
    2d28:	0000006b 	andeq	r0, r0, fp, rrx
    2d2c:	0ae50e1c 	beq	ff9465a4 <__bss_end__+0xff93d0dc>
    2d30:	c5050000 	strgt	r0, [r5, #-0]
    2d34:	0005c01d 	andeq	ip, r5, sp, lsl r0
    2d38:	ff0e2000 			; <UNDEFINED> instruction: 0xff0e2000
    2d3c:	0500000a 	streq	r0, [r0, #-10]
    2d40:	05ea1dc7 	strbeq	r1, [sl, #3527]!	; 0xdc7
    2d44:	0e240000 	cdpeq	0, 2, cr0, cr4, cr0, {0}
    2d48:	00000628 	andeq	r0, r0, r8, lsr #12
    2d4c:	0e0dca05 	vmlaeq.f32	s24, s26, s10
    2d50:	28000006 	stmdacs	r0, {r1, r2}
    2d54:	0007050e 	andeq	r0, r7, lr, lsl #10
    2d58:	09cb0500 	stmibeq	fp, {r8, sl}^
    2d5c:	00000628 	andeq	r0, r0, r8, lsr #12
    2d60:	755f112c 	ldrbvc	r1, [pc, #-300]	; 2c3c <__code_start__-0x53c4>
    2d64:	ce050062 	cdpgt	0, 0, cr0, cr5, cr2, {3}
    2d68:	0002dd11 	andeq	sp, r2, r1, lsl sp
    2d6c:	5f113000 	svcpl	0x00113000
    2d70:	05007075 	streq	r7, [r0, #-117]	; 0xffffff8b
    2d74:	030512cf 	movweq	r1, #21199	; 0x52cf
    2d78:	11380000 	teqne	r8, r0
    2d7c:	0072755f 	rsbseq	r7, r2, pc, asr r5
    2d80:	2507d005 	strcs	sp, [r7, #-5]
    2d84:	3c000000 	stccc	0, cr0, [r0], {-0}
    2d88:	0002c80e 	andeq	ip, r2, lr, lsl #16
    2d8c:	11d30500 	bicsne	r0, r3, r0, lsl #10
    2d90:	0000062e 	andeq	r0, r0, lr, lsr #12
    2d94:	06dd0e40 	ldrbeq	r0, [sp], r0, asr #28
    2d98:	d4050000 	strle	r0, [r5], #-0
    2d9c:	00063e11 	andeq	r3, r6, r1, lsl lr
    2da0:	5f114300 	svcpl	0x00114300
    2da4:	0500626c 	streq	r6, [r0, #-620]	; 0xfffffd94
    2da8:	02dd11d7 	sbcseq	r1, sp, #-1073741771	; 0xc0000035
    2dac:	0e440000 	cdpeq	0, 4, cr0, cr4, cr0, {0}
    2db0:	00000317 	andeq	r0, r0, r7, lsl r3
    2db4:	2507da05 	strcs	sp, [r7, #-2565]	; 0xfffff5fb
    2db8:	4c000000 	stcmi	0, cr0, [r0], {-0}
    2dbc:	0003280e 	andeq	r2, r3, lr, lsl #16
    2dc0:	0adb0500 	beq	ff6c41c8 <__bss_end__+0xff6bad00>
    2dc4:	00000084 	andeq	r0, r0, r4, lsl #1
    2dc8:	0a410e50 	beq	1046710 <__bss_end__+0x103d248>
    2dcc:	de050000 	cdple	0, 0, cr0, cr5, cr0, {0}
    2dd0:	00046c12 	andeq	r6, r4, r2, lsl ip
    2dd4:	220e5400 	andcs	r5, lr, #0, 8
    2dd8:	05000006 	streq	r0, [r0, #-6]
    2ddc:	010b0ce2 	smlatteq	fp, r2, ip, r0
    2de0:	0e580000 	cdpeq	0, 5, cr0, cr8, cr0, {0}
    2de4:	000005ae 	andeq	r0, r0, lr, lsr #11
    2de8:	ff0ee405 			; <UNDEFINED> instruction: 0xff0ee405
    2dec:	5c000000 	stcpl	0, cr0, [r0], {-0}
    2df0:	00051b0e 	andeq	r1, r5, lr, lsl #22
    2df4:	09e50500 	stmibeq	r5!, {r8, sl}^
    2df8:	00000025 	andeq	r0, r0, r5, lsr #32
    2dfc:	25150064 	ldrcs	r0, [r5, #-100]	; 0xffffff9c
    2e00:	6c000000 	stcvs	0, cr0, [r0], {-0}
    2e04:	16000004 	strne	r0, [r0], -r4
    2e08:	0000046c 	andeq	r0, r0, ip, ror #8
    2e0c:	00006b16 	andeq	r6, r0, r6, lsl fp
    2e10:	01171600 	tsteq	r7, r0, lsl #12
    2e14:	25160000 	ldrcs	r0, [r6, #-0]
    2e18:	00000000 	andeq	r0, r0, r0
    2e1c:	04770406 	ldrbteq	r0, [r7], #-1030	; 0xfffffbfa
    2e20:	6c0f0000 	stcvs	0, cr0, [pc], {-0}
    2e24:	17000004 	strne	r0, [r0, -r4]
    2e28:	0000060c 	andeq	r0, r0, ip, lsl #12
    2e2c:	60050428 	andvs	r0, r5, r8, lsr #8
    2e30:	05c00802 	strbeq	r0, [r0, #2050]	; 0x802
    2e34:	76180000 	ldrvc	r0, [r8], -r0
    2e38:	05000005 	streq	r0, [r0, #-5]
    2e3c:	25070262 	strcs	r0, [r7, #-610]	; 0xfffffd9e
    2e40:	00000000 	andeq	r0, r0, r0
    2e44:	00031018 	andeq	r1, r3, r8, lsl r0
    2e48:	02670500 	rsbeq	r0, r7, #0, 10
    2e4c:	00069a0b 	andeq	r9, r6, fp, lsl #20
    2e50:	92180400 	andsls	r0, r8, #0, 8
    2e54:	05000004 	streq	r0, [r0, #-4]
    2e58:	9a140267 	bls	5037fc <__bss_end__+0x4fa334>
    2e5c:	08000006 	stmdaeq	r0, {r1, r2}
    2e60:	00044018 	andeq	r4, r4, r8, lsl r0
    2e64:	02670500 	rsbeq	r0, r7, #0, 10
    2e68:	00069a1e 	andeq	r9, r6, lr, lsl sl
    2e6c:	cf180c00 	svcgt	0x00180c00
    2e70:	05000005 	streq	r0, [r0, #-5]
    2e74:	25080269 	strcs	r0, [r8, #-617]	; 0xfffffd97
    2e78:	10000000 	andne	r0, r0, r0
    2e7c:	00026d18 	andeq	r6, r2, r8, lsl sp
    2e80:	026a0500 	rsbeq	r0, sl, #0, 10
    2e84:	00089a08 	andeq	r9, r8, r8, lsl #20
    2e88:	eb181400 	bl	607e90 <__bss_end__+0x5fe9c8>
    2e8c:	05000005 	streq	r0, [r0, #-5]
    2e90:	2507026d 	strcs	r0, [r7, #-621]	; 0xfffffd93
    2e94:	30000000 	andcc	r0, r0, r0
    2e98:	0005d918 	andeq	sp, r5, r8, lsl r9
    2e9c:	026e0500 	rsbeq	r0, lr, #0, 10
    2ea0:	0008af16 	andeq	sl, r8, r6, lsl pc
    2ea4:	45183400 	ldrmi	r3, [r8, #-1024]	; 0xfffffc00
    2ea8:	05000005 	streq	r0, [r0, #-5]
    2eac:	25070270 	strcs	r0, [r7, #-624]	; 0xfffffd90
    2eb0:	38000000 	stmdacc	r0, {}	; <UNPREDICTABLE>
    2eb4:	0005e118 	andeq	lr, r5, r8, lsl r1
    2eb8:	02720500 	rsbseq	r0, r2, #0, 10
    2ebc:	0008c00a 	andeq	ip, r8, sl
    2ec0:	fe183c00 	cdp2	12, 1, cr3, cr8, cr0, {0}
    2ec4:	05000004 	streq	r0, [r0, #-4]
    2ec8:	8f130275 	svchi	0x00130275
    2ecc:	40000001 	andmi	r0, r0, r1
    2ed0:	00045f18 	andeq	r5, r4, r8, lsl pc
    2ed4:	02760500 	rsbseq	r0, r6, #0, 10
    2ed8:	00002507 	andeq	r2, r0, r7, lsl #10
    2edc:	1f184400 	svcne	0x00184400
    2ee0:	05000007 	streq	r0, [r0, #-7]
    2ee4:	8f130277 	svchi	0x00130277
    2ee8:	48000001 	stmdami	r0, {r0}
    2eec:	00055718 	andeq	r5, r5, r8, lsl r7
    2ef0:	02780500 	rsbseq	r0, r8, #0, 10
    2ef4:	0008c614 	andeq	ip, r8, r4, lsl r6
    2ef8:	9a184c00 	bls	615f00 <__bss_end__+0x60ca38>
    2efc:	05000004 	streq	r0, [r0, #-4]
    2f00:	2507027b 	strcs	r0, [r7, #-635]	; 0xfffffd85
    2f04:	50000000 	andpl	r0, r0, r0
    2f08:	00032018 	andeq	r2, r3, r8, lsl r0
    2f0c:	027c0500 	rsbseq	r0, ip, #0, 10
    2f10:	00011709 	andeq	r1, r1, r9, lsl #14
    2f14:	6f185400 	svcvs	0x00185400
    2f18:	05000005 	streq	r0, [r0, #-5]
    2f1c:	7507029f 	strvc	r0, [r7, #-671]	; 0xfffffd61
    2f20:	58000008 	stmdapl	r0, {r3}
    2f24:	00053d19 	andeq	r3, r5, r9, lsl sp
    2f28:	02a30500 	adceq	r0, r3, #0, 10
    2f2c:	0002c013 	andeq	ip, r2, r3, lsl r0
    2f30:	19014800 	stmdbne	r1, {fp, lr}
    2f34:	000004d8 	ldrdeq	r0, [r0], -r8
    2f38:	1202a405 	andne	sl, r2, #83886080	; 0x5000000
    2f3c:	0000027d 	andeq	r0, r0, sp, ror r2
    2f40:	d319014c 	tstle	r9, #19
    2f44:	05000006 	streq	r0, [r0, #-6]
    2f48:	d70c02a8 	strle	r0, [ip, -r8, lsr #5]
    2f4c:	dc000008 	stcle	0, cr0, [r0], {8}
    2f50:	02f91902 	rscseq	r1, r9, #32768	; 0x8000
    2f54:	ad050000 	stcge	0, cr0, [r5, #-0]
    2f58:	065b1002 	ldrbeq	r1, [fp], -r2
    2f5c:	02e00000 	rsceq	r0, r0, #0, 0
    2f60:	0002de19 	andeq	sp, r2, r9, lsl lr
    2f64:	02af0500 	adceq	r0, pc, #0, 10
    2f68:	0008e30a 	andeq	lr, r8, sl, lsl #6
    2f6c:	0002ec00 	andeq	lr, r2, r0, lsl #24
    2f70:	044e0406 	strbeq	r0, [lr], #-1030	; 0xfffffbfa
    2f74:	25150000 	ldrcs	r0, [r5, #-0]
    2f78:	e4000000 	str	r0, [r0], #-0
    2f7c:	16000005 	strne	r0, [r0], -r5
    2f80:	0000046c 	andeq	r0, r0, ip, ror #8
    2f84:	00006b16 	andeq	r6, r0, r6, lsl fp
    2f88:	05e41600 	strbeq	r1, [r4, #1536]!	; 0x600
    2f8c:	25160000 	ldrcs	r0, [r6, #-0]
    2f90:	00000000 	andeq	r0, r0, r0
    2f94:	01240406 			; <UNDEFINED> instruction: 0x01240406
    2f98:	04060000 	streq	r0, [r6], #-0
    2f9c:	000005c6 	andeq	r0, r0, r6, asr #11
    2fa0:	00009015 	andeq	r9, r0, r5, lsl r0
    2fa4:	00060e00 	andeq	r0, r6, r0, lsl #28
    2fa8:	046c1600 	strbteq	r1, [ip], #-1536	; 0xfffffa00
    2fac:	6b160000 	blvs	582fb4 <__bss_end__+0x579aec>
    2fb0:	16000000 	strne	r0, [r0], -r0
    2fb4:	00000090 	muleq	r0, r0, r0
    2fb8:	00002516 	andeq	r2, r0, r6, lsl r5
    2fbc:	04060000 	streq	r0, [r6], #-0
    2fc0:	000005f0 	strdeq	r0, [r0], -r0	; <UNPREDICTABLE>
    2fc4:	00002515 	andeq	r2, r0, r5, lsl r5
    2fc8:	00062800 	andeq	r2, r6, r0, lsl #16
    2fcc:	046c1600 	strbteq	r1, [ip], #-1536	; 0xfffffa00
    2fd0:	6b160000 	blvs	582fd8 <__bss_end__+0x579b10>
    2fd4:	00000000 	andeq	r0, r0, r0
    2fd8:	06140406 	ldreq	r0, [r4], -r6, lsl #8
    2fdc:	4f0b0000 	svcmi	0x000b0000
    2fe0:	3e000000 	cdpcc	0, 0, cr0, cr0, cr0, {0}
    2fe4:	0c000006 	stceq	0, cr0, [r0], {6}
    2fe8:	0000002c 	andeq	r0, r0, ip, lsr #32
    2fec:	4f0b0002 	svcmi	0x000b0002
    2ff0:	4e000000 	cdpmi	0, 0, cr0, cr0, cr0, {0}
    2ff4:	0c000006 	stceq	0, cr0, [r0], {6}
    2ff8:	0000002c 	andeq	r0, r0, ip, lsr #32
    2ffc:	94080000 	strls	r0, [r8], #-0
    3000:	05000005 	streq	r0, [r0, #-5]
    3004:	0b1a011f 	bleq	683488 <__bss_end__+0x679fc0>
    3008:	1a000003 	bne	301c <__code_start__-0x4fe4>
    300c:	000006ba 			; <UNDEFINED> instruction: 0x000006ba
    3010:	0123050c 			; <UNDEFINED> instruction: 0x0123050c
    3014:	00069408 	andeq	r9, r6, r8, lsl #8
    3018:	05bc1800 	ldreq	r1, [ip, #2048]!	; 0x800
    301c:	25050000 	strcs	r0, [r5, #-0]
    3020:	06941101 	ldreq	r1, [r4], r1, lsl #2
    3024:	18000000 	stmdane	r0, {}	; <UNPREDICTABLE>
    3028:	000004d1 	ldrdeq	r0, [r0], -r1
    302c:	07012605 	streq	r2, [r1, -r5, lsl #12]
    3030:	00000025 	andeq	r0, r0, r5, lsr #32
    3034:	058e1804 	streq	r1, [lr, #2052]	; 0x804
    3038:	27050000 	strcs	r0, [r5, -r0]
    303c:	069a0b01 	ldreq	r0, [sl], r1, lsl #22
    3040:	00080000 	andeq	r0, r8, r0
    3044:	065b0406 	ldrbeq	r0, [fp], -r6, lsl #8
    3048:	04060000 	streq	r0, [r6], #-0
    304c:	0000064e 	andeq	r0, r0, lr, asr #12
    3050:	0002651a 	andeq	r6, r2, sl, lsl r5
    3054:	3f050e00 	svccc	0x00050e00
    3058:	06d90801 	ldrbeq	r0, [r9], r1, lsl #16
    305c:	13180000 	tstne	r8, #0, 0
    3060:	05000006 	streq	r0, [r0, #-6]
    3064:	d9120140 	ldmdble	r2, {r6, r8}
    3068:	00000006 	andeq	r0, r0, r6
    306c:	00064d18 	andeq	r4, r6, r8, lsl sp
    3070:	01410500 	cmpeq	r1, r0, lsl #10
    3074:	0006d912 	andeq	sp, r6, r2, lsl r9
    3078:	71180600 	tstvc	r8, r0, lsl #12
    307c:	05000006 	streq	r0, [r0, #-6]
    3080:	56120142 	ldrpl	r0, [r2], -r2, asr #2
    3084:	0c000000 	stceq	0, cr0, [r0], {-0}
    3088:	00560b00 	subseq	r0, r6, r0, lsl #22
    308c:	06e90000 	strbteq	r0, [r9], r0
    3090:	2c0c0000 	stccs	0, cr0, [ip], {-0}
    3094:	02000000 	andeq	r0, r0, #0, 0
    3098:	05d01b00 	ldrbeq	r1, [r0, #2816]	; 0xb00
    309c:	fe070280 	cdp2	2, 0, cr0, cr7, cr0, {4}
    30a0:	18000007 	stmdane	r0, {r0, r1, r2}
    30a4:	0000069e 	muleq	r0, lr, r6
    30a8:	18028205 	stmdane	r2, {r0, r2, r9, pc}
    30ac:	0000002c 	andeq	r0, r0, ip, lsr #32
    30b0:	06531800 	ldrbeq	r1, [r3], -r0, lsl #16
    30b4:	83050000 	movwhi	r0, #20480	; 0x5000
    30b8:	01171202 	tsteq	r7, r2, lsl #4
    30bc:	18040000 	stmdane	r4, {}	; <UNPREDICTABLE>
    30c0:	000004f1 	strdeq	r0, [r0], -r1
    30c4:	10028405 	andne	r8, r2, r5, lsl #8
    30c8:	000007fe 	strdeq	r0, [r0], -lr
    30cc:	06f61808 	ldrbteq	r1, [r6], r8, lsl #16
    30d0:	85050000 	strhi	r0, [r5, #-0]
    30d4:	01a51702 			; <UNDEFINED> instruction: 0x01a51702
    30d8:	18240000 	stmdane	r4!, {}	; <UNPREDICTABLE>
    30dc:	00000450 	andeq	r0, r0, r0, asr r4
    30e0:	0f028605 	svceq	0x00028605
    30e4:	00000025 	andeq	r0, r0, r5, lsr #32
    30e8:	05b71848 	ldreq	r1, [r7, #2120]!	; 0x848
    30ec:	87050000 	strhi	r0, [r5, -r0]
    30f0:	00642c02 	rsbeq	r2, r4, r2, lsl #24
    30f4:	18500000 	ldmdane	r0, {}^	; <UNPREDICTABLE>
    30f8:	0000070c 	andeq	r0, r0, ip, lsl #14
    30fc:	1a028805 	bne	a5118 <__bss_end__+0x9bc50>
    3100:	000006a0 	andeq	r0, r0, r0, lsr #13
    3104:	05c21858 	strbeq	r1, [r2, #2136]	; 0x858
    3108:	89050000 	stmdbhi	r5, {}	; <UNPREDICTABLE>
    310c:	00ff1602 	rscseq	r1, pc, r2, lsl #12
    3110:	18680000 	stmdane	r8!, {}^	; <UNPREDICTABLE>
    3114:	00000711 	andeq	r0, r0, r1, lsl r7
    3118:	16028a05 	strne	r8, [r2], -r5, lsl #20
    311c:	000000ff 	strdeq	r0, [r0], -pc	; <UNPREDICTABLE>
    3120:	05611870 	strbeq	r1, [r1, #-2160]!	; 0xfffff790
    3124:	8b050000 	blhi	14312c <__bss_end__+0x139c64>
    3128:	00ff1602 	rscseq	r1, pc, r2, lsl #12
    312c:	18780000 	ldmdane	r8!, {}^	; <UNPREDICTABLE>
    3130:	000006c9 	andeq	r0, r0, r9, asr #13
    3134:	10028c05 	andne	r8, r2, r5, lsl #24
    3138:	0000080e 	andeq	r0, r0, lr, lsl #16
    313c:	02901880 	addseq	r1, r0, #128, 16	; 0x800000
    3140:	8d050000 	stchi	0, cr0, [r5, #-0]
    3144:	081e1002 	ldmdaeq	lr, {r1, ip}
    3148:	18880000 	stmne	r8, {}	; <UNPREDICTABLE>
    314c:	0000067e 	andeq	r0, r0, lr, ror r6
    3150:	0f028e05 	svceq	0x00028e05
    3154:	00000025 	andeq	r0, r0, r5, lsr #32
    3158:	041618a0 	ldreq	r1, [r6], #-2208	; 0xfffff760
    315c:	8f050000 	svchi	0x00050000
    3160:	00ff1602 	rscseq	r1, pc, r2, lsl #12
    3164:	18a40000 	stmiane	r4!, {}	; <UNPREDICTABLE>
    3168:	000002b0 			; <UNDEFINED> instruction: 0x000002b0
    316c:	16029005 	strne	r9, [r2], -r5
    3170:	000000ff 	strdeq	r0, [r0], -pc	; <UNPREDICTABLE>
    3174:	040518ac 	streq	r1, [r5], #-2220	; 0xfffff754
    3178:	91050000 	mrsls	r0, (UNDEF: 5)
    317c:	00ff1602 	rscseq	r1, pc, r2, lsl #12
    3180:	18b40000 	ldmne	r4!, {}	; <UNPREDICTABLE>
    3184:	00000281 	andeq	r0, r0, r1, lsl #5
    3188:	16029205 	strne	r9, [r2], -r5, lsl #4
    318c:	000000ff 	strdeq	r0, [r0], -pc	; <UNPREDICTABLE>
    3190:	048118bc 	streq	r1, [r1], #2236	; 0x8bc
    3194:	93050000 	movwls	r0, #20480	; 0x5000
    3198:	00ff1602 	rscseq	r1, pc, r2, lsl #12
    319c:	18c40000 	stmiane	r4, {}^	; <UNPREDICTABLE>
    31a0:	00000574 	andeq	r0, r0, r4, ror r5
    31a4:	08029405 	stmdaeq	r2, {r0, r2, sl, ip, pc}
    31a8:	00000025 	andeq	r0, r0, r5, lsr #32
    31ac:	1d0b00cc 	stcne	0, cr0, [fp, #-816]	; 0xfffffcd0
    31b0:	0e000001 	cdpeq	0, 0, cr0, cr0, cr1, {0}
    31b4:	0c000008 	stceq	0, cr0, [r0], {8}
    31b8:	0000002c 	andeq	r0, r0, ip, lsr #32
    31bc:	1d0b0019 	stcne	0, cr0, [fp, #-100]	; 0xffffff9c
    31c0:	1e000001 	cdpne	0, 0, cr0, cr0, cr1, {0}
    31c4:	0c000008 	stceq	0, cr0, [r0], {8}
    31c8:	0000002c 	andeq	r0, r0, ip, lsr #32
    31cc:	1d0b0007 	stcne	0, cr0, [fp, #-28]	; 0xffffffe4
    31d0:	2e000001 	cdpcs	0, 0, cr0, cr0, cr1, {0}
    31d4:	0c000008 	stceq	0, cr0, [r0], {8}
    31d8:	0000002c 	andeq	r0, r0, ip, lsr #32
    31dc:	f01b0017 			; <UNDEFINED> instruction: 0xf01b0017
    31e0:	07029905 	streq	r9, [r2, -r5, lsl #18]
    31e4:	00000855 	andeq	r0, r0, r5, asr r8
    31e8:	00052d18 	andeq	r2, r5, r8, lsl sp
    31ec:	029c0500 	addseq	r0, ip, #0, 10
    31f0:	0008551b 	andeq	r5, r8, fp, lsl r5
    31f4:	c0180000 	andsgt	r0, r8, r0
    31f8:	05000006 	streq	r0, [r0, #-6]
    31fc:	6518029d 	ldrvs	r0, [r8, #-669]	; 0xfffffd63
    3200:	78000008 	stmdavc	r0, {r3}
    3204:	03050b00 	movweq	r0, #23296	; 0x5b00
    3208:	08650000 	stmdaeq	r5!, {}^	; <UNPREDICTABLE>
    320c:	2c0c0000 	stccs	0, cr0, [ip], {-0}
    3210:	1d000000 	stcne	0, cr0, [r0, #-0]
    3214:	002c0b00 	eoreq	r0, ip, r0, lsl #22
    3218:	08750000 	ldmdaeq	r5!, {}^	; <UNPREDICTABLE>
    321c:	2c0c0000 	stccs	0, cr0, [ip], {-0}
    3220:	1d000000 	stcne	0, cr0, [r0, #-0]
    3224:	05f01c00 	ldrbeq	r1, [r0, #3072]!	; 0xc00
    3228:	9a03027e 	bls	c3c28 <__bss_end__+0xba760>
    322c:	1d000008 	stcne	0, cr0, [r0, #-32]	; 0xffffffe0
    3230:	0000060c 	andeq	r0, r0, ip, lsl #12
    3234:	0b029505 	bleq	a8650 <__bss_end__+0x9f188>
    3238:	000006e9 	andeq	r0, r0, r9, ror #13
    323c:	0006e31d 	andeq	lr, r6, sp, lsl r3
    3240:	029e0500 	addseq	r0, lr, #0, 10
    3244:	00082e0b 	andeq	r2, r8, fp, lsl #28
    3248:	1d0b0000 	stcne	0, cr0, [fp, #-0]
    324c:	aa000001 	bge	3258 <__code_start__-0x4da8>
    3250:	0c000008 	stceq	0, cr0, [r0], {8}
    3254:	0000002c 	andeq	r0, r0, ip, lsr #32
    3258:	a5070018 	strge	r0, [r7, #-24]	; 0xffffffe8
    325c:	06000002 	streq	r0, [r0], -r2
    3260:	0008aa04 	andeq	sl, r8, r4, lsl #20
    3264:	08c01e00 	stmiaeq	r0, {r9, sl, fp, ip}^
    3268:	6c160000 	ldcvs	0, cr0, [r6], {-0}
    326c:	00000004 	andeq	r0, r0, r4
    3270:	08b50406 	ldmeq	r5!, {r1, r2, sl}
    3274:	04060000 	streq	r0, [r6], #-0
    3278:	0000018f 	andeq	r0, r0, pc, lsl #3
    327c:	0008d71e 	andeq	sp, r8, lr, lsl r7
    3280:	00251600 	eoreq	r1, r5, r0, lsl #12
    3284:	06000000 	streq	r0, [r0], -r0
    3288:	0008dd04 	andeq	sp, r8, r4, lsl #26
    328c:	cc040600 	stcgt	6, cr0, [r4], {-0}
    3290:	0b000008 	bleq	32b8 <__code_start__-0x4d48>
    3294:	0000064e 	andeq	r0, r0, lr, asr #12
    3298:	000008f3 	strdeq	r0, [r0], -r3
    329c:	00002c0c 	andeq	r2, r0, ip, lsl #24
    32a0:	1f000200 	svcne	0x00000200
    32a4:	00000692 	muleq	r0, r2, r6
    32a8:	17032e05 	strne	r2, [r3, -r5, lsl #28]
    32ac:	0000046c 	andeq	r0, r0, ip, ror #8
    32b0:	00068b1f 	andeq	r8, r6, pc, lsl fp
    32b4:	032f0500 			; <UNDEFINED> instruction: 0x032f0500
    32b8:	0004721d 	andeq	r7, r4, sp, lsl r2
    32bc:	06360500 	ldrteq	r0, [r6], -r0, lsl #10
    32c0:	21060000 	mrscs	r0, (UNDEF: 6)
    32c4:	0009190f 	andeq	r1, r9, pc, lsl #18
    32c8:	1f040600 	svcne	0x00040600
    32cc:	15000009 	strne	r0, [r0, #-9]
    32d0:	00000025 	andeq	r0, r0, r5, lsr #32
    32d4:	0000092e 	andeq	r0, r0, lr, lsr #18
    32d8:	00002516 	andeq	r2, r0, r6, lsl r5
    32dc:	69200000 	stmdbvs	r0!, {}	; <UNPREDICTABLE>
    32e0:	06000004 	streq	r0, [r0], -r4
    32e4:	090d1623 	stmdbeq	sp, {r0, r1, r5, r9, sl, ip}
    32e8:	68210000 	stmdavs	r1!, {}	; <UNPREDICTABLE>
    32ec:	01000000 	mrseq	r0, (UNDEF: 0)
    32f0:	8ba00604 	blhi	fe804b08 <__bss_end__+0xfe7fb640>
    32f4:	00200000 	eoreq	r0, r0, r0
    32f8:	9c010000 	stcls	0, cr0, [r1], {-0}
    32fc:	0000098d 	andeq	r0, r0, sp, lsl #19
    3300:	008bac22 	addeq	sl, fp, r2, lsr #24
    3304:	00098d00 	andeq	r8, r9, r0, lsl #26
    3308:	00096700 	andeq	r6, r9, r0, lsl #14
    330c:	50012300 	andpl	r2, r1, r0, lsl #6
    3310:	94780305 	ldrbtls	r0, [r8], #-773	; 0xfffffcfb
    3314:	24000000 	strcs	r0, [r0], #-0
    3318:	00008bb0 			; <UNDEFINED> instruction: 0x00008bb0
    331c:	00000999 	muleq	r0, r9, r9
    3320:	008bb822 	addeq	fp, fp, r2, lsr #16
    3324:	0009a500 	andeq	sl, r9, r0, lsl #10
    3328:	00098300 	andeq	r8, r9, r0, lsl #6
    332c:	50012300 	andpl	r2, r1, r0, lsl #6
    3330:	24003a01 	strcs	r3, [r0], #-2561	; 0xfffff5ff
    3334:	00008bbc 			; <UNDEFINED> instruction: 0x00008bbc
    3338:	000009b1 			; <UNDEFINED> instruction: 0x000009b1
    333c:	07d62500 	ldrbeq	r2, [r6, r0, lsl #10]
    3340:	07d60000 	ldrbeq	r0, [r6, r0]
    3344:	2e060000 	cdpcs	0, 0, cr0, cr6, cr0, {0}
    3348:	07c82505 	strbeq	r2, [r8, r5, lsl #10]
    334c:	07c80000 	strbeq	r0, [r8, r0]
    3350:	57060000 	strpl	r0, [r6, -r0]
    3354:	07db2506 	ldrbeq	r2, [fp, r6, lsl #10]
    3358:	07db0000 	ldrbeq	r0, [fp, r0]
    335c:	64060000 	strvs	r0, [r6], #-0
    3360:	07e42506 	strbeq	r2, [r4, r6, lsl #10]!
    3364:	07e40000 	strbeq	r0, [r4, r0]!
    3368:	73060000 	movwvc	r0, #24576	; 0x6000
    336c:	0a8d0006 	beq	fe34338c <__bss_end__+0xfe339ec4>
    3370:	00040000 	andeq	r0, r4, r0
    3374:	00000b9e 	muleq	r0, lr, fp
    3378:	03300104 	teqeq	r0, #1
    337c:	470c0000 	strmi	r0, [ip, -r0]
    3380:	a8000008 	stmdage	r0, {r3}
    3384:	c0000004 	andgt	r0, r0, r4
    3388:	4400008b 	strmi	r0, [r0], #-139	; 0xffffff75
    338c:	06000000 	streq	r0, [r0], -r0
    3390:	0200000c 	andeq	r0, r0, #12, 0
    3394:	6e690504 	cdpvs	5, 6, cr0, cr9, cr4, {0}
    3398:	04030074 	streq	r0, [r3], #-116	; 0xffffff8c
    339c:	0001ae07 	andeq	sl, r1, r7, lsl #28
    33a0:	06010300 	streq	r0, [r1], -r0, lsl #6
    33a4:	0000005c 	andeq	r0, r0, ip, asr r0
    33a8:	fe050203 	cdp2	2, 0, cr0, cr5, cr3, {0}
    33ac:	03000001 	movweq	r0, #1
    33b0:	01ed0504 	mvneq	r0, r4, lsl #10
    33b4:	08030000 	stmdaeq	r3, {}	; <UNPREDICTABLE>
    33b8:	0001e805 	andeq	lr, r1, r5, lsl #16
    33bc:	08940400 	ldmeq	r4, {sl}
    33c0:	2e030000 	cdpcs	0, 0, cr0, cr3, cr0, {0}
    33c4:	00005b18 	andeq	r5, r0, r8, lsl fp
    33c8:	08010300 	stmdaeq	r1, {r8, r9}
    33cc:	0000005a 	andeq	r0, r0, sl, asr r0
    33d0:	1c070203 	sfmne	f0, 4, [r7], {3}
    33d4:	04000000 	streq	r0, [r0], #-0
    33d8:	0000021b 	andeq	r0, r0, fp, lsl r2
    33dc:	75193403 	ldrvc	r3, [r9, #-1027]	; 0xfffffbfd
    33e0:	03000000 	movweq	r0, #0
    33e4:	01a90704 			; <UNDEFINED> instruction: 0x01a90704
    33e8:	08030000 	stmdaeq	r3, {}	; <UNPREDICTABLE>
    33ec:	0001a407 	andeq	sl, r1, r7, lsl #8
    33f0:	04040500 	streq	r0, [r4], #-1280	; 0xfffffb00
    33f4:	0000050c 	andeq	r0, r0, ip, lsl #10
    33f8:	91192204 	tstls	r9, r4, lsl #4
    33fc:	06000000 	streq	r0, [r0], -r0
    3400:	00009704 	andeq	r9, r0, r4, lsl #14
    3404:	06210700 	strteq	r0, [r1], -r0, lsl #14
    3408:	50040000 	andpl	r0, r4, r0
    340c:	05000005 	streq	r0, [r0, #-5]
    3410:	00410e2c 	subeq	r0, r1, ip, lsr #28
    3414:	2e040000 	cdpcs	0, 0, cr0, cr4, cr0, {0}
    3418:	05000006 	streq	r0, [r0, #-6]
    341c:	00410e72 	subeq	r0, r1, r2, ror lr
    3420:	14080000 	strne	r0, [r8], #-0
    3424:	06000005 	streq	r0, [r0], -r5
    3428:	2c17015e 	ldfcss	f0, [r7], {94}	; 0x5e
    342c:	09000000 	stmdbeq	r0, {}	; <UNPREDICTABLE>
    3430:	03a60504 			; <UNDEFINED> instruction: 0x03a60504
    3434:	000000e3 	andeq	r0, r0, r3, ror #1
    3438:	0005060a 	andeq	r0, r5, sl, lsl #12
    343c:	0ca80500 	cfstr32eq	mvfx0, [r8]
    3440:	000000b4 	strheq	r0, [r0], -r4
    3444:	00047a0a 	andeq	r7, r4, sl, lsl #20
    3448:	13a90500 			; <UNDEFINED> instruction: 0x13a90500
    344c:	000000e3 	andeq	r0, r0, r3, ror #1
    3450:	005b0b00 	subseq	r0, fp, r0, lsl #22
    3454:	00f30000 	rscseq	r0, r3, r0
    3458:	2c0c0000 	stccs	0, cr0, [ip], {-0}
    345c:	03000000 	movweq	r0, #0
    3460:	05080d00 	streq	r0, [r8, #-3328]	; 0xfffff300
    3464:	011709a3 	tsteq	r7, r3, lsr #19
    3468:	190e0000 	stmdbne	lr, {}	; <UNPREDICTABLE>
    346c:	05000006 	streq	r0, [r0, #-6]
    3470:	002507a5 	eoreq	r0, r5, r5, lsr #15
    3474:	0e000000 	cdpeq	0, 0, cr0, cr0, cr0, {0}
    3478:	00000660 	andeq	r0, r0, r0, ror #12
    347c:	c105aa05 	tstgt	r5, r5, lsl #20
    3480:	04000000 	streq	r0, [r0], #-0
    3484:	059b0400 	ldreq	r0, [fp, #1024]	; 0x400
    3488:	ab050000 	blge	143490 <__bss_end__+0x139fc8>
    348c:	0000f303 	andeq	pc, r0, r3, lsl #6
    3490:	04370400 	ldrteq	r0, [r7], #-1024	; 0xfffffc00
    3494:	af050000 	svcge	0x00050000
    3498:	0000851b 	andeq	r8, r0, fp, lsl r5
    349c:	35040600 	strcc	r0, [r4, #-1536]	; 0xfffffa00
    34a0:	03000001 	movweq	r0, #1
    34a4:	00630801 	rsbeq	r0, r3, r1, lsl #16
    34a8:	350f0000 	strcc	r0, [pc, #-0]	; 34b0 <__code_start__-0x4b50>
    34ac:	04000001 	streq	r0, [r0], #-1
    34b0:	00000676 	andeq	r0, r0, r6, ror r6
    34b4:	75191607 	ldrvc	r1, [r9, #-1543]	; 0xfffff9f9
    34b8:	10000000 	andne	r0, r0, r0
    34bc:	00000448 	andeq	r0, r0, r8, asr #8
    34c0:	082f0718 	stmdaeq	pc!, {r3, r4, r8, r9, sl}	; <UNPREDICTABLE>
    34c4:	000001a7 	andeq	r0, r0, r7, lsr #3
    34c8:	0005bc0e 	andeq	fp, r5, lr, lsl #24
    34cc:	13310700 	teqne	r1, #0, 14
    34d0:	000001a7 	andeq	r0, r0, r7, lsr #3
    34d4:	6b5f1100 	blvs	17c78dc <__bss_end__+0x17be414>
    34d8:	07320700 	ldreq	r0, [r2, -r0, lsl #14]!
    34dc:	00000025 	andeq	r0, r0, r5, lsr #32
    34e0:	06040e04 	streq	r0, [r4], -r4, lsl #28
    34e4:	32070000 	andcc	r0, r7, #0, 0
    34e8:	0000250b 	andeq	r2, r0, fp, lsl #10
    34ec:	310e0800 	tstcc	lr, r0, lsl #16
    34f0:	07000004 	streq	r0, [r0, -r4]
    34f4:	00251432 	eoreq	r1, r5, r2, lsr r4
    34f8:	0e0c0000 	cdpeq	0, 0, cr0, cr12, cr0, {0}
    34fc:	000006ab 	andeq	r0, r0, fp, lsr #13
    3500:	251b3207 	ldrcs	r3, [fp, #-519]	; 0xfffffdf9
    3504:	10000000 	andne	r0, r0, r0
    3508:	00785f11 	rsbseq	r5, r8, r1, lsl pc
    350c:	ad0b3307 	stcge	3, cr3, [fp, #-28]	; 0xffffffe4
    3510:	14000001 	strne	r0, [r0], #-1
    3514:	4d040600 	stcmi	6, cr0, [r4, #-0]
    3518:	0b000001 	bleq	3524 <__code_start__-0x4adc>
    351c:	00000141 	andeq	r0, r0, r1, asr #2
    3520:	000001bd 			; <UNDEFINED> instruction: 0x000001bd
    3524:	00002c0c 	andeq	r2, r0, ip, lsl #24
    3528:	10000000 	andne	r0, r0, r0
    352c:	00000475 	andeq	r0, r0, r5, ror r4
    3530:	08370724 	ldmdaeq	r7!, {r2, r5, r8, r9, sl}
    3534:	00000240 	andeq	r0, r0, r0, asr #4
    3538:	0002bf0e 	andeq	fp, r2, lr, lsl #30
    353c:	09390700 	ldmdbeq	r9!, {r8, r9, sl}
    3540:	00000025 	andeq	r0, r0, r5, lsr #32
    3544:	06440e00 	strbeq	r0, [r4], -r0, lsl #28
    3548:	3a070000 	bcc	1c3550 <__bss_end__+0x1ba088>
    354c:	00002509 	andeq	r2, r0, r9, lsl #10
    3550:	d40e0400 	strle	r0, [lr], #-1024	; 0xfffffc00
    3554:	07000002 	streq	r0, [r0, -r2]
    3558:	0025093b 	eoreq	r0, r5, fp, lsr r9
    355c:	0e080000 	cdpeq	0, 0, cr0, cr8, cr0, {0}
    3560:	00000724 	andeq	r0, r0, r4, lsr #14
    3564:	25093c07 	strcs	r3, [r9, #-3079]	; 0xfffff3f9
    3568:	0c000000 	stceq	0, cr0, [r0], {-0}
    356c:	0005340e 	andeq	r3, r5, lr, lsl #8
    3570:	093d0700 	ldmdbeq	sp!, {r8, r9, sl}
    3574:	00000025 	andeq	r0, r0, r5, lsr #32
    3578:	05230e10 	streq	r0, [r3, #-3600]!	; 0xfffff1f0
    357c:	3e070000 	cdpcc	0, 0, cr0, cr7, cr0, {0}
    3580:	00002509 	andeq	r2, r0, r9, lsl #10
    3584:	b00e1400 	andlt	r1, lr, r0, lsl #8
    3588:	07000006 	streq	r0, [r0, -r6]
    358c:	0025093f 	eoreq	r0, r5, pc, lsr r9
    3590:	0e180000 	cdpeq	0, 1, cr0, cr8, cr0, {0}
    3594:	0000057d 	andeq	r0, r0, sp, ror r5
    3598:	25094007 	strcs	r4, [r9, #-7]
    359c:	1c000000 	stcne	0, cr0, [r0], {-0}
    35a0:	0006eb0e 	andeq	lr, r6, lr, lsl #22
    35a4:	09410700 	stmdbeq	r1, {r8, r9, sl}^
    35a8:	00000025 	andeq	r0, r0, r5, lsr #32
    35ac:	e3120020 	tst	r2, #32, 0
    35b0:	08000002 	stmdaeq	r0, {r1}
    35b4:	084a0701 	stmdaeq	sl, {r0, r8, r9, sl}^
    35b8:	00000285 	andeq	r0, r0, r5, lsl #5
    35bc:	0004240e 	andeq	r2, r4, lr, lsl #8
    35c0:	0a4b0700 	beq	12c51c8 <__bss_end__+0x12bbd00>
    35c4:	00000285 	andeq	r0, r0, r5, lsl #5
    35c8:	024c0e00 	subeq	r0, ip, #0, 28
    35cc:	4c070000 	stcmi	0, cr0, [r7], {-0}
    35d0:	00028509 	andeq	r8, r2, r9, lsl #10
    35d4:	68138000 	ldmdavs	r3, {pc}
    35d8:	07000006 	streq	r0, [r0, -r6]
    35dc:	01410a4e 	cmpeq	r1, lr, asr #20
    35e0:	01000000 	mrseq	r0, (UNDEF: 0)
    35e4:	00030813 	andeq	r0, r3, r3, lsl r8
    35e8:	0a510700 	beq	14451f0 <__bss_end__+0x143bd28>
    35ec:	00000141 	andeq	r0, r0, r1, asr #2
    35f0:	0b000104 	bleq	3a08 <__code_start__-0x45f8>
    35f4:	00000083 	andeq	r0, r0, r3, lsl #1
    35f8:	00000295 	muleq	r0, r5, r2
    35fc:	00002c0c 	andeq	r2, r0, ip, lsl #24
    3600:	12001f00 	andne	r1, r0, #0, 30
    3604:	0000053d 	andeq	r0, r0, sp, lsr r5
    3608:	5d070190 	stfpls	f0, [r7, #-576]	; 0xfffffdc0
    360c:	0002d808 	andeq	sp, r2, r8, lsl #16
    3610:	05bc0e00 	ldreq	r0, [ip, #3584]!	; 0xe00
    3614:	5e070000 	cdppl	0, 0, cr0, cr7, cr0, {0}
    3618:	0002d812 	andeq	sp, r2, r2, lsl r8
    361c:	d40e0000 	strle	r0, [lr], #-0
    3620:	07000005 	streq	r0, [r0, -r5]
    3624:	0025065f 	eoreq	r0, r5, pc, asr r6
    3628:	0e040000 	cdpeq	0, 0, cr0, cr4, cr0, {0}
    362c:	0000042c 	andeq	r0, r0, ip, lsr #8
    3630:	de096107 	adflee	f6, f1, f7
    3634:	08000002 	stmdaeq	r0, {r1}
    3638:	0002e30e 	andeq	lr, r2, lr, lsl #6
    363c:	1e620700 	cdpne	7, 6, cr0, cr2, cr0, {0}
    3640:	00000240 	andeq	r0, r0, r0, asr #4
    3644:	04060088 	streq	r0, [r6], #-136	; 0xffffff78
    3648:	00000295 	muleq	r0, r5, r2
    364c:	0002ee0b 	andeq	lr, r2, fp, lsl #28
    3650:	0002ee00 	andeq	lr, r2, r0, lsl #28
    3654:	002c0c00 	eoreq	r0, ip, r0, lsl #24
    3658:	001f0000 	andseq	r0, pc, r0
    365c:	02f40406 	rscseq	r0, r4, #100663296	; 0x6000000
    3660:	10140000 	andsne	r0, r4, r0
    3664:	00000587 	andeq	r0, r0, r7, lsl #11
    3668:	08750708 	ldmdaeq	r5!, {r3, r8, r9, sl}^
    366c:	0000031d 	andeq	r0, r0, sp, lsl r3
    3670:	0002ce0e 	andeq	ip, r2, lr, lsl #28
    3674:	11760700 	cmnne	r6, r0, lsl #14
    3678:	0000031d 	andeq	r0, r0, sp, lsl r3
    367c:	02580e00 	subseq	r0, r8, #0, 28
    3680:	77070000 	strvc	r0, [r7, -r0]
    3684:	00002506 	andeq	r2, r0, r6, lsl #10
    3688:	06000400 	streq	r0, [r0], -r0, lsl #8
    368c:	00005b04 	andeq	r5, r0, r4, lsl #22
    3690:	05a61000 	streq	r1, [r6, #0]!
    3694:	07680000 	strbeq	r0, [r8, -r0]!
    3698:	046608b5 	strbteq	r0, [r6], #-2229	; 0xfffff74b
    369c:	5f110000 	svcpl	0x00110000
    36a0:	b6070070 			; <UNDEFINED> instruction: 0xb6070070
    36a4:	00031d12 	andeq	r1, r3, r2, lsl sp
    36a8:	5f110000 	svcpl	0x00110000
    36ac:	b7070072 	smlsdxlt	r7, r2, r0, r0
    36b0:	00002507 	andeq	r2, r0, r7, lsl #10
    36b4:	5f110400 	svcpl	0x00110400
    36b8:	b8070077 	stmdalt	r7, {r0, r1, r2, r4, r5, r6}
    36bc:	00002507 	andeq	r2, r0, r7, lsl #10
    36c0:	010e0800 	tsteq	lr, r0, lsl #16
    36c4:	07000003 	streq	r0, [r0, -r3]
    36c8:	003a09b9 	ldrhteq	r0, [sl], -r9
    36cc:	0e0c0000 	cdpeq	0, 0, cr0, cr12, cr0, {0}
    36d0:	000004a2 	andeq	r0, r0, r2, lsr #9
    36d4:	3a09ba07 	bcc	271ef8 <__bss_end__+0x268a30>
    36d8:	0e000000 	cdpeq	0, 0, cr0, cr0, cr0, {0}
    36dc:	66625f11 	uqadd16vs	r5, r2, r1
    36e0:	11bb0700 			; <UNDEFINED> instruction: 0x11bb0700
    36e4:	000002f5 	strdeq	r0, [r0], -r5
    36e8:	029c0e10 	addseq	r0, ip, #16, 28	; 0x100
    36ec:	bc070000 	stclt	0, cr0, [r7], {-0}
    36f0:	00002507 	andeq	r2, r0, r7, lsl #10
    36f4:	f10e1800 			; <UNDEFINED> instruction: 0xf10e1800
    36f8:	07000002 	streq	r0, [r0, -r2]
    36fc:	00830ac3 	addeq	r0, r3, r3, asr #21
    3700:	0e1c0000 	cdpeq	0, 1, cr0, cr12, cr0, {0}
    3704:	00000ae5 	andeq	r0, r0, r5, ror #21
    3708:	d81dc507 	ldmdale	sp, {r0, r1, r2, r8, sl, lr, pc}
    370c:	20000005 	andcs	r0, r0, r5
    3710:	000aff0e 	andeq	pc, sl, lr, lsl #30
    3714:	1dc70700 	stclne	7, cr0, [r7]
    3718:	00000602 	andeq	r0, r0, r2, lsl #12
    371c:	06280e24 	strteq	r0, [r8], -r4, lsr #28
    3720:	ca070000 	bgt	1c3728 <__bss_end__+0x1ba260>
    3724:	0006260d 	andeq	r2, r6, sp, lsl #12
    3728:	050e2800 	streq	r2, [lr, #-2048]	; 0xfffff800
    372c:	07000007 	streq	r0, [r0, -r7]
    3730:	064009cb 	strbeq	r0, [r0], -fp, asr #19
    3734:	112c0000 			; <UNDEFINED> instruction: 0x112c0000
    3738:	0062755f 	rsbeq	r7, r2, pc, asr r5
    373c:	f511ce07 			; <UNDEFINED> instruction: 0xf511ce07
    3740:	30000002 	andcc	r0, r0, r2
    3744:	70755f11 	rsbsvc	r5, r5, r1, lsl pc
    3748:	12cf0700 	sbcne	r0, pc, #0, 14
    374c:	0000031d 	andeq	r0, r0, sp, lsl r3
    3750:	755f1138 	ldrbvc	r1, [pc, #-312]	; 3620 <__code_start__-0x49e0>
    3754:	d0070072 	andle	r0, r7, r2, ror r0
    3758:	00002507 	andeq	r2, r0, r7, lsl #10
    375c:	c80e3c00 	stmdagt	lr, {sl, fp, ip, sp}
    3760:	07000002 	streq	r0, [r0, -r2]
    3764:	064611d3 			; <UNDEFINED> instruction: 0x064611d3
    3768:	0e400000 	cdpeq	0, 4, cr0, cr0, cr0, {0}
    376c:	000006dd 	ldrdeq	r0, [r0], -sp
    3770:	5611d407 	ldrpl	sp, [r1], -r7, lsl #8
    3774:	43000006 	movwmi	r0, #6
    3778:	626c5f11 	rsbvs	r5, ip, #68	; 0x44
    377c:	11d70700 	bicsne	r0, r7, r0, lsl #14
    3780:	000002f5 	strdeq	r0, [r0], -r5
    3784:	03170e44 	tsteq	r7, #68, 28	; 0x440
    3788:	da070000 	ble	1c3790 <__bss_end__+0x1ba2c8>
    378c:	00002507 	andeq	r2, r0, r7, lsl #10
    3790:	280e4c00 	stmdacs	lr, {sl, fp, lr}
    3794:	07000003 	streq	r0, [r0, -r3]
    3798:	009c0adb 			; <UNDEFINED> instruction: 0x009c0adb
    379c:	0e500000 	cdpeq	0, 5, cr0, cr0, cr0, {0}
    37a0:	00000a41 	andeq	r0, r0, r1, asr #20
    37a4:	8412de07 	ldrhi	sp, [r2], #-3591	; 0xfffff1f9
    37a8:	54000004 	strpl	r0, [r0], #-4
    37ac:	0006220e 	andeq	r2, r6, lr, lsl #4
    37b0:	0ce20700 	stcleq	7, cr0, [r2]
    37b4:	00000123 	andeq	r0, r0, r3, lsr #2
    37b8:	05ae0e58 	streq	r0, [lr, #3672]!	; 0xe58
    37bc:	e4070000 	str	r0, [r7], #-0
    37c0:	0001170e 	andeq	r1, r1, lr, lsl #14
    37c4:	1b0e5c00 	blne	39a7cc <__bss_end__+0x391304>
    37c8:	07000005 	streq	r0, [r0, -r5]
    37cc:	002509e5 	eoreq	r0, r5, r5, ror #19
    37d0:	00640000 	rsbeq	r0, r4, r0
    37d4:	00002515 	andeq	r2, r0, r5, lsl r5
    37d8:	00048400 	andeq	r8, r4, r0, lsl #8
    37dc:	04841600 	streq	r1, [r4], #1536	; 0x600
    37e0:	83160000 	tsthi	r6, #0, 0
    37e4:	16000000 	strne	r0, [r0], -r0
    37e8:	0000012f 	andeq	r0, r0, pc, lsr #2
    37ec:	00002516 	andeq	r2, r0, r6, lsl r5
    37f0:	04060000 	streq	r0, [r6], #-0
    37f4:	0000048f 	andeq	r0, r0, pc, lsl #9
    37f8:	0004840f 	andeq	r8, r4, pc, lsl #8
    37fc:	060c1700 	streq	r1, [ip], -r0, lsl #14
    3800:	04280000 	strteq	r0, [r8], #-0
    3804:	08026007 	stmdaeq	r2, {r0, r1, r2, sp, lr}
    3808:	000005d8 	ldrdeq	r0, [r0], -r8
    380c:	00057618 	andeq	r7, r5, r8, lsl r6
    3810:	02620700 	rsbeq	r0, r2, #0, 14
    3814:	00002507 	andeq	r2, r0, r7, lsl #10
    3818:	10180000 	andsne	r0, r8, r0
    381c:	07000003 	streq	r0, [r0, -r3]
    3820:	b20b0267 	andlt	r0, fp, #1879048198	; 0x70000006
    3824:	04000006 	streq	r0, [r0], #-6
    3828:	00049218 	andeq	r9, r4, r8, lsl r2
    382c:	02670700 	rsbeq	r0, r7, #0, 14
    3830:	0006b214 	andeq	fp, r6, r4, lsl r2
    3834:	40180800 	andsmi	r0, r8, r0, lsl #16
    3838:	07000004 	streq	r0, [r0, -r4]
    383c:	b21e0267 	andslt	r0, lr, #1879048198	; 0x70000006
    3840:	0c000006 	stceq	0, cr0, [r0], {6}
    3844:	0005cf18 	andeq	ip, r5, r8, lsl pc
    3848:	02690700 	rsbeq	r0, r9, #0, 14
    384c:	00002508 	andeq	r2, r0, r8, lsl #10
    3850:	6d181000 	ldcvs	0, cr1, [r8, #-0]
    3854:	07000002 	streq	r0, [r0, -r2]
    3858:	b208026a 	andlt	r0, r8, #-1610612730	; 0xa0000006
    385c:	14000008 	strne	r0, [r0], #-8
    3860:	0005eb18 	andeq	lr, r5, r8, lsl fp
    3864:	026d0700 	rsbeq	r0, sp, #0, 14
    3868:	00002507 	andeq	r2, r0, r7, lsl #10
    386c:	d9183000 	ldmdble	r8, {ip, sp}
    3870:	07000005 	streq	r0, [r0, -r5]
    3874:	c716026e 	ldrgt	r0, [r6, -lr, ror #4]
    3878:	34000008 	strcc	r0, [r0], #-8
    387c:	00054518 	andeq	r4, r5, r8, lsl r5
    3880:	02700700 	rsbseq	r0, r0, #0, 14
    3884:	00002507 	andeq	r2, r0, r7, lsl #10
    3888:	e1183800 	tst	r8, r0, lsl #16
    388c:	07000005 	streq	r0, [r0, -r5]
    3890:	d80a0272 	stmdale	sl, {r1, r4, r5, r6, r9}
    3894:	3c000008 	stccc	0, cr0, [r0], {8}
    3898:	0004fe18 	andeq	pc, r4, r8, lsl lr	; <UNPREDICTABLE>
    389c:	02750700 	rsbseq	r0, r5, #0, 14
    38a0:	0001a713 	andeq	sl, r1, r3, lsl r7
    38a4:	5f184000 	svcpl	0x00184000
    38a8:	07000004 	streq	r0, [r0, -r4]
    38ac:	25070276 	strcs	r0, [r7, #-630]	; 0xfffffd8a
    38b0:	44000000 	strmi	r0, [r0], #-0
    38b4:	00071f18 	andeq	r1, r7, r8, lsl pc
    38b8:	02770700 	rsbseq	r0, r7, #0, 14
    38bc:	0001a713 	andeq	sl, r1, r3, lsl r7
    38c0:	57184800 	ldrpl	r4, [r8, -r0, lsl #16]
    38c4:	07000005 	streq	r0, [r0, -r5]
    38c8:	de140278 	mrcle	2, 0, r0, cr4, cr8, {3}
    38cc:	4c000008 	stcmi	0, cr0, [r0], {8}
    38d0:	00049a18 	andeq	r9, r4, r8, lsl sl
    38d4:	027b0700 	rsbseq	r0, fp, #0, 14
    38d8:	00002507 	andeq	r2, r0, r7, lsl #10
    38dc:	20185000 	andscs	r5, r8, r0
    38e0:	07000003 	streq	r0, [r0, -r3]
    38e4:	2f09027c 	svccs	0x0009027c
    38e8:	54000001 	strpl	r0, [r0], #-1
    38ec:	00056f18 	andeq	r6, r5, r8, lsl pc
    38f0:	029f0700 	addseq	r0, pc, #0, 14
    38f4:	00088d07 	andeq	r8, r8, r7, lsl #26
    38f8:	3d195800 	ldccc	8, cr5, [r9, #-0]
    38fc:	07000005 	streq	r0, [r0, -r5]
    3900:	d81302a3 	ldmdale	r3, {r0, r1, r5, r7, r9}
    3904:	48000002 	stmdami	r0, {r1}
    3908:	04d81901 	ldrbeq	r1, [r8], #2305	; 0x901
    390c:	a4070000 	strge	r0, [r7], #-0
    3910:	02951202 	addseq	r1, r5, #536870912	; 0x20000000
    3914:	014c0000 	mrseq	r0, (UNDEF: 76)
    3918:	0006d319 	andeq	sp, r6, r9, lsl r3
    391c:	02a80700 	adceq	r0, r8, #0, 14
    3920:	0008ef0c 	andeq	lr, r8, ip, lsl #30
    3924:	1902dc00 	stmdbne	r2, {sl, fp, ip, lr, pc}
    3928:	000002f9 	strdeq	r0, [r0], -r9
    392c:	1002ad07 	andne	sl, r2, r7, lsl #26
    3930:	00000673 	andeq	r0, r0, r3, ror r6
    3934:	de1902e0 	cdple	2, 1, cr0, cr9, cr0, {7}
    3938:	07000002 	streq	r0, [r0, -r2]
    393c:	fb0a02af 	blx	284402 <__bss_end__+0x27af3a>
    3940:	ec000008 	stc	0, cr0, [r0], {8}
    3944:	04060002 	streq	r0, [r6], #-2
    3948:	00000466 	andeq	r0, r0, r6, ror #8
    394c:	00002515 	andeq	r2, r0, r5, lsl r5
    3950:	0005fc00 	andeq	pc, r5, r0, lsl #24
    3954:	04841600 	streq	r1, [r4], #1536	; 0x600
    3958:	83160000 	tsthi	r6, #0, 0
    395c:	16000000 	strne	r0, [r0], -r0
    3960:	000005fc 	strdeq	r0, [r0], -ip
    3964:	00002516 	andeq	r2, r0, r6, lsl r5
    3968:	04060000 	streq	r0, [r6], #-0
    396c:	0000013c 	andeq	r0, r0, ip, lsr r1
    3970:	05de0406 	ldrbeq	r0, [lr, #1030]	; 0x406
    3974:	a8150000 	ldmdage	r5, {}	; <UNPREDICTABLE>
    3978:	26000000 	strcs	r0, [r0], -r0
    397c:	16000006 	strne	r0, [r0], -r6
    3980:	00000484 	andeq	r0, r0, r4, lsl #9
    3984:	00008316 	andeq	r8, r0, r6, lsl r3
    3988:	00a81600 	adceq	r1, r8, r0, lsl #12
    398c:	25160000 	ldrcs	r0, [r6, #-0]
    3990:	00000000 	andeq	r0, r0, r0
    3994:	06080406 	streq	r0, [r8], -r6, lsl #8
    3998:	25150000 	ldrcs	r0, [r5, #-0]
    399c:	40000000 	andmi	r0, r0, r0
    39a0:	16000006 	strne	r0, [r0], -r6
    39a4:	00000484 	andeq	r0, r0, r4, lsl #9
    39a8:	00008316 	andeq	r8, r0, r6, lsl r3
    39ac:	04060000 	streq	r0, [r6], #-0
    39b0:	0000062c 	andeq	r0, r0, ip, lsr #12
    39b4:	00005b0b 	andeq	r5, r0, fp, lsl #22
    39b8:	00065600 	andeq	r5, r6, r0, lsl #12
    39bc:	002c0c00 	eoreq	r0, ip, r0, lsl #24
    39c0:	00020000 	andeq	r0, r2, r0
    39c4:	00005b0b 	andeq	r5, r0, fp, lsl #22
    39c8:	00066600 	andeq	r6, r6, r0, lsl #12
    39cc:	002c0c00 	eoreq	r0, ip, r0, lsl #24
    39d0:	00000000 	andeq	r0, r0, r0
    39d4:	00059408 	andeq	r9, r5, r8, lsl #8
    39d8:	011f0700 	tsteq	pc, r0, lsl #14
    39dc:	0003231a 	andeq	r2, r3, sl, lsl r3
    39e0:	06ba1a00 	ldrteq	r1, [sl], r0, lsl #20
    39e4:	070c0000 	streq	r0, [ip, -r0]
    39e8:	ac080123 	stfges	f0, [r8], {35}	; 0x23
    39ec:	18000006 	stmdane	r0, {r1, r2}
    39f0:	000005bc 			; <UNDEFINED> instruction: 0x000005bc
    39f4:	11012507 	tstne	r1, r7, lsl #10
    39f8:	000006ac 	andeq	r0, r0, ip, lsr #13
    39fc:	04d11800 	ldrbeq	r1, [r1], #2048	; 0x800
    3a00:	26070000 	strcs	r0, [r7], -r0
    3a04:	00250701 	eoreq	r0, r5, r1, lsl #14
    3a08:	18040000 	stmdane	r4, {}	; <UNPREDICTABLE>
    3a0c:	0000058e 	andeq	r0, r0, lr, lsl #11
    3a10:	0b012707 	bleq	4d634 <__bss_end__+0x4416c>
    3a14:	000006b2 			; <UNDEFINED> instruction: 0x000006b2
    3a18:	04060008 	streq	r0, [r6], #-8
    3a1c:	00000673 	andeq	r0, r0, r3, ror r6
    3a20:	06660406 	strbteq	r0, [r6], -r6, lsl #8
    3a24:	651a0000 	ldrvs	r0, [sl, #-0]
    3a28:	0e000002 	cdpeq	0, 0, cr0, cr0, cr2, {0}
    3a2c:	08013f07 	stmdaeq	r1, {r0, r1, r2, r8, r9, sl, fp, ip, sp}
    3a30:	000006f1 	strdeq	r0, [r0], -r1
    3a34:	00061318 	andeq	r1, r6, r8, lsl r3
    3a38:	01400700 	cmpeq	r0, r0, lsl #14
    3a3c:	0006f112 	andeq	pc, r6, r2, lsl r1	; <UNPREDICTABLE>
    3a40:	4d180000 	ldcmi	0, cr0, [r8, #-0]
    3a44:	07000006 	streq	r0, [r0, -r6]
    3a48:	f1120141 			; <UNDEFINED> instruction: 0xf1120141
    3a4c:	06000006 	streq	r0, [r0], -r6
    3a50:	00067118 	andeq	r7, r6, r8, lsl r1
    3a54:	01420700 	cmpeq	r2, r0, lsl #14
    3a58:	00006212 	andeq	r6, r0, r2, lsl r2
    3a5c:	0b000c00 	bleq	6a64 <__code_start__-0x159c>
    3a60:	00000062 	andeq	r0, r0, r2, rrx
    3a64:	00000701 	andeq	r0, r0, r1, lsl #14
    3a68:	00002c0c 	andeq	r2, r0, ip, lsl #24
    3a6c:	1b000200 	blne	4274 <__code_start__-0x3d8c>
    3a70:	028007d0 	addeq	r0, r0, #208, 14	; 0x3400000
    3a74:	00081607 	andeq	r1, r8, r7, lsl #12
    3a78:	069e1800 	ldreq	r1, [lr], r0, lsl #16
    3a7c:	82070000 	andhi	r0, r7, #0, 0
    3a80:	002c1802 	eoreq	r1, ip, r2, lsl #16
    3a84:	18000000 	stmdane	r0, {}	; <UNPREDICTABLE>
    3a88:	00000653 	andeq	r0, r0, r3, asr r6
    3a8c:	12028307 	andne	r8, r2, #469762048	; 0x1c000000
    3a90:	0000012f 	andeq	r0, r0, pc, lsr #2
    3a94:	04f11804 	ldrbteq	r1, [r1], #2052	; 0x804
    3a98:	84070000 	strhi	r0, [r7], #-0
    3a9c:	08161002 	ldmdaeq	r6, {r1, ip}
    3aa0:	18080000 	stmdane	r8, {}	; <UNPREDICTABLE>
    3aa4:	000006f6 	strdeq	r0, [r0], -r6
    3aa8:	17028507 	strne	r8, [r2, -r7, lsl #10]
    3aac:	000001bd 			; <UNDEFINED> instruction: 0x000001bd
    3ab0:	04501824 	ldrbeq	r1, [r0], #-2084	; 0xfffff7dc
    3ab4:	86070000 	strhi	r0, [r7], -r0
    3ab8:	00250f02 	eoreq	r0, r5, r2, lsl #30
    3abc:	18480000 	stmdane	r8, {}^	; <UNPREDICTABLE>
    3ac0:	000005b7 			; <UNDEFINED> instruction: 0x000005b7
    3ac4:	2c028707 	stccs	7, cr8, [r2], {7}
    3ac8:	0000007c 	andeq	r0, r0, ip, ror r0
    3acc:	070c1850 	smlsdeq	ip, r0, r8, r1
    3ad0:	88070000 	stmdahi	r7, {}	; <UNPREDICTABLE>
    3ad4:	06b81a02 	ldrteq	r1, [r8], r2, lsl #20
    3ad8:	18580000 	ldmdane	r8, {}^	; <UNPREDICTABLE>
    3adc:	000005c2 	andeq	r0, r0, r2, asr #11
    3ae0:	16028907 	strne	r8, [r2], -r7, lsl #18
    3ae4:	00000117 	andeq	r0, r0, r7, lsl r1
    3ae8:	07111868 	ldreq	r1, [r1, -r8, ror #16]
    3aec:	8a070000 	bhi	1c3af4 <__bss_end__+0x1ba62c>
    3af0:	01171602 	tsteq	r7, r2, lsl #12
    3af4:	18700000 	ldmdane	r0!, {}^	; <UNPREDICTABLE>
    3af8:	00000561 	andeq	r0, r0, r1, ror #10
    3afc:	16028b07 	strne	r8, [r2], -r7, lsl #22
    3b00:	00000117 	andeq	r0, r0, r7, lsl r1
    3b04:	06c91878 	uxtab16eq	r1, r9, r8, ror #16
    3b08:	8c070000 	stchi	0, cr0, [r7], {-0}
    3b0c:	08261002 	stmdaeq	r6!, {r1, ip}
    3b10:	18800000 	stmne	r0, {}	; <UNPREDICTABLE>
    3b14:	00000290 	muleq	r0, r0, r2
    3b18:	10028d07 	andne	r8, r2, r7, lsl #26
    3b1c:	00000836 	andeq	r0, r0, r6, lsr r8
    3b20:	067e1888 	ldrbteq	r1, [lr], -r8, lsl #17
    3b24:	8e070000 	cdphi	0, 0, cr0, cr7, cr0, {0}
    3b28:	00250f02 	eoreq	r0, r5, r2, lsl #30
    3b2c:	18a00000 	stmiane	r0!, {}	; <UNPREDICTABLE>
    3b30:	00000416 	andeq	r0, r0, r6, lsl r4
    3b34:	16028f07 	strne	r8, [r2], -r7, lsl #30
    3b38:	00000117 	andeq	r0, r0, r7, lsl r1
    3b3c:	02b018a4 	adcseq	r1, r0, #164, 16	; 0xa40000
    3b40:	90070000 	andls	r0, r7, r0
    3b44:	01171602 	tsteq	r7, r2, lsl #12
    3b48:	18ac0000 	stmiane	ip!, {}	; <UNPREDICTABLE>
    3b4c:	00000405 	andeq	r0, r0, r5, lsl #8
    3b50:	16029107 	strne	r9, [r2], -r7, lsl #2
    3b54:	00000117 	andeq	r0, r0, r7, lsl r1
    3b58:	028118b4 	addeq	r1, r1, #180, 16	; 0xb40000
    3b5c:	92070000 	andls	r0, r7, #0, 0
    3b60:	01171602 	tsteq	r7, r2, lsl #12
    3b64:	18bc0000 	ldmne	ip!, {}	; <UNPREDICTABLE>
    3b68:	00000481 	andeq	r0, r0, r1, lsl #9
    3b6c:	16029307 	strne	r9, [r2], -r7, lsl #6
    3b70:	00000117 	andeq	r0, r0, r7, lsl r1
    3b74:	057418c4 	ldrbeq	r1, [r4, #-2244]!	; 0xfffff73c
    3b78:	94070000 	strls	r0, [r7], #-0
    3b7c:	00250802 	eoreq	r0, r5, r2, lsl #16
    3b80:	00cc0000 	sbceq	r0, ip, r0
    3b84:	0001350b 	andeq	r3, r1, fp, lsl #10
    3b88:	00082600 	andeq	r2, r8, r0, lsl #12
    3b8c:	002c0c00 	eoreq	r0, ip, r0, lsl #24
    3b90:	00190000 	andseq	r0, r9, r0
    3b94:	0001350b 	andeq	r3, r1, fp, lsl #10
    3b98:	00083600 	andeq	r3, r8, r0, lsl #12
    3b9c:	002c0c00 	eoreq	r0, ip, r0, lsl #24
    3ba0:	00070000 	andeq	r0, r7, r0
    3ba4:	0001350b 	andeq	r3, r1, fp, lsl #10
    3ba8:	00084600 	andeq	r4, r8, r0, lsl #12
    3bac:	002c0c00 	eoreq	r0, ip, r0, lsl #24
    3bb0:	00170000 	andseq	r0, r7, r0
    3bb4:	9907f01b 	stmdbls	r7, {r0, r1, r3, r4, ip, sp, lr, pc}
    3bb8:	086d0702 	stmdaeq	sp!, {r1, r8, r9, sl}^
    3bbc:	2d180000 	ldccs	0, cr0, [r8, #-0]
    3bc0:	07000005 	streq	r0, [r0, -r5]
    3bc4:	6d1b029c 	lfmvs	f0, 4, [fp, #-624]	; 0xfffffd90
    3bc8:	00000008 	andeq	r0, r0, r8
    3bcc:	0006c018 	andeq	ip, r6, r8, lsl r0
    3bd0:	029d0700 	addseq	r0, sp, #0, 14
    3bd4:	00087d18 	andeq	r7, r8, r8, lsl sp
    3bd8:	0b007800 	bleq	21be0 <__bss_end__+0x18718>
    3bdc:	0000031d 	andeq	r0, r0, sp, lsl r3
    3be0:	0000087d 	andeq	r0, r0, sp, ror r8
    3be4:	00002c0c 	andeq	r2, r0, ip, lsl #24
    3be8:	0b001d00 	bleq	aff0 <__bss_end__+0x1b28>
    3bec:	0000002c 	andeq	r0, r0, ip, lsr #32
    3bf0:	0000088d 	andeq	r0, r0, sp, lsl #17
    3bf4:	00002c0c 	andeq	r2, r0, ip, lsl #24
    3bf8:	1c001d00 	stcne	13, cr1, [r0], {-0}
    3bfc:	027e07f0 	rsbseq	r0, lr, #240, 14	; 0x3c00000
    3c00:	0008b203 	andeq	fp, r8, r3, lsl #4
    3c04:	060c1d00 	streq	r1, [ip], -r0, lsl #26
    3c08:	95070000 	strls	r0, [r7, #-0]
    3c0c:	07010b02 	streq	r0, [r1, -r2, lsl #22]
    3c10:	e31d0000 	tst	sp, #0, 0
    3c14:	07000006 	streq	r0, [r0, -r6]
    3c18:	460b029e 			; <UNDEFINED> instruction: 0x460b029e
    3c1c:	00000008 	andeq	r0, r0, r8
    3c20:	0001350b 	andeq	r3, r1, fp, lsl #10
    3c24:	0008c200 	andeq	ip, r8, r0, lsl #4
    3c28:	002c0c00 	eoreq	r0, ip, r0, lsl #24
    3c2c:	00180000 	andseq	r0, r8, r0
    3c30:	0002a507 	andeq	sl, r2, r7, lsl #10
    3c34:	c2040600 	andgt	r0, r4, #0, 12
    3c38:	1e000008 	cdpne	0, 0, cr0, cr0, cr8, {0}
    3c3c:	000008d8 	ldrdeq	r0, [r0], -r8
    3c40:	00048416 	andeq	r8, r4, r6, lsl r4
    3c44:	04060000 	streq	r0, [r6], #-0
    3c48:	000008cd 	andeq	r0, r0, sp, asr #17
    3c4c:	01a70406 			; <UNDEFINED> instruction: 0x01a70406
    3c50:	ef1e0000 	svc	0x001e0000
    3c54:	16000008 	strne	r0, [r0], -r8
    3c58:	00000025 	andeq	r0, r0, r5, lsr #32
    3c5c:	f5040600 			; <UNDEFINED> instruction: 0xf5040600
    3c60:	06000008 	streq	r0, [r0], -r8
    3c64:	0008e404 	andeq	lr, r8, r4, lsl #8
    3c68:	06660b00 	strbteq	r0, [r6], -r0, lsl #22
    3c6c:	090b0000 	stmdbeq	fp, {}	; <UNPREDICTABLE>
    3c70:	2c0c0000 	stccs	0, cr0, [ip], {-0}
    3c74:	02000000 	andeq	r0, r0, #0, 0
    3c78:	06921f00 	ldreq	r1, [r2], r0, lsl #30
    3c7c:	2e070000 	cdpcs	0, 0, cr0, cr7, cr0, {0}
    3c80:	04841703 	streq	r1, [r4], #1795	; 0x703
    3c84:	8b1f0000 	blhi	7c3c8c <__bss_end__+0x7ba7c4>
    3c88:	07000006 	streq	r0, [r0, -r6]
    3c8c:	8a1d032f 	bhi	744950 <__bss_end__+0x73b488>
    3c90:	04000004 	streq	r0, [r0], #-4
    3c94:	00000636 	andeq	r0, r0, r6, lsr r6
    3c98:	310f2108 	tstcc	pc, r8, lsl #2
    3c9c:	06000009 	streq	r0, [r0], -r9
    3ca0:	00093704 	andeq	r3, r9, r4, lsl #14
    3ca4:	00251500 	eoreq	r1, r5, r0, lsl #10
    3ca8:	09460000 	stmdbeq	r6, {}^	; <UNPREDICTABLE>
    3cac:	25160000 	ldrcs	r0, [r6, #-0]
    3cb0:	00000000 	andeq	r0, r0, r0
    3cb4:	00046920 	andeq	r6, r4, r0, lsr #18
    3cb8:	16230800 	strtne	r0, [r3], -r0, lsl #16
    3cbc:	00000925 	andeq	r0, r0, r5, lsr #18
    3cc0:	0000690b 	andeq	r6, r0, fp, lsl #18
    3cc4:	00095d00 	andeq	r5, r9, r0, lsl #26
    3cc8:	20002100 	andcs	r2, r0, r0, lsl #2
    3ccc:	0000089c 	muleq	r0, ip, r8
    3cd0:	52120509 	andspl	r0, r2, #37748736	; 0x2400000
    3cd4:	20000009 	andcs	r0, r0, r9
    3cd8:	0000083a 	andeq	r0, r0, sl, lsr r8
    3cdc:	52120609 	andspl	r0, r2, #9437184	; 0x900000
    3ce0:	20000009 	andcs	r0, r0, r9
    3ce4:	00000878 	andeq	r0, r0, r8, ror r8
    3ce8:	52120809 	andspl	r0, r2, #589824	; 0x90000
    3cec:	20000009 	andcs	r0, r0, r9
    3cf0:	00000887 	andeq	r0, r0, r7, lsl #17
    3cf4:	52120909 	andspl	r0, r2, #147456	; 0x24000
    3cf8:	20000009 	andcs	r0, r0, r9
    3cfc:	00000820 	andeq	r0, r0, r0, lsr #16
    3d00:	52120b09 	andspl	r0, r2, #9216	; 0x2400
    3d04:	20000009 	andcs	r0, r0, r9
    3d08:	0000082e 	andeq	r0, r0, lr, lsr #16
    3d0c:	52120c09 	andspl	r0, r2, #2304	; 0x900
    3d10:	20000009 	andcs	r0, r0, r9
    3d14:	0000086b 	andeq	r0, r0, fp, ror #16
    3d18:	52120e09 	andspl	r0, r2, #144	; 0x90
    3d1c:	20000009 	andcs	r0, r0, r9
    3d20:	0000085c 	andeq	r0, r0, ip, asr r8
    3d24:	52121009 	andspl	r1, r2, #9, 0
    3d28:	22000009 	andcs	r0, r0, #9, 0
    3d2c:	00000801 	andeq	r0, r0, r1, lsl #16
    3d30:	cc061901 			; <UNDEFINED> instruction: 0xcc061901
    3d34:	3800008b 	stmdacc	r0, {r0, r1, r3, r7}
    3d38:	01000000 	mrseq	r0, (UNDEF: 0)
    3d3c:	000a379c 	muleq	sl, ip, r7
    3d40:	07ef2300 	strbeq	r2, [pc, r0, lsl #6]!
    3d44:	1a010000 	bne	43d4c <__bss_end__+0x3a884>
    3d48:	73622407 	cmnvc	r2, #117440512	; 0x7000000
    3d4c:	30010073 	andcc	r0, r1, r3, ror r0
    3d50:	000a370f 	andeq	r3, sl, pc, lsl #14
    3d54:	000a6200 	andeq	r6, sl, r0, lsl #4
    3d58:	000a5c00 	andeq	r5, sl, r0, lsl #24
    3d5c:	08182500 	ldmdaeq	r8, {r8, sl, sp}
    3d60:	31010000 	mrscc	r0, (UNDEF: 1)
    3d64:	000a370f 	andeq	r3, sl, pc, lsl #14
    3d68:	0a532600 	beq	14cd570 <__bss_end__+0x14c40a8>
    3d6c:	8bec0000 	blhi	ffb03d74 <__bss_end__+0xffafa8ac>
    3d70:	ec010000 	stc	0, cr0, [r1], {-0}
    3d74:	0800008b 	stmdaeq	r0, {r0, r1, r3, r7}
    3d78:	01000000 	mrseq	r0, (UNDEF: 0)
    3d7c:	0a1b0544 	beq	6c5294 <__bss_end__+0x6bbdcc>
    3d80:	60270000 	eorvs	r0, r7, r0
    3d84:	0100000a 	tsteq	r0, sl
    3d88:	8bec2800 	blhi	ffb0dd90 <__bss_end__+0xffb048c8>
    3d8c:	0a6c0000 	beq	1b03d94 <__bss_end__+0x1afa8cc>
    3d90:	f8280000 			; <UNDEFINED> instruction: 0xf8280000
    3d94:	7800008b 	stmdavc	r0, {r0, r1, r3, r7}
    3d98:	2800000a 	stmdacs	r0, {r1, r3}
    3d9c:	00008bfc 	strdeq	r8, [r0], -ip
    3da0:	00000a84 	andeq	r0, r0, r4, lsl #21
    3da4:	4f040600 	svcmi	0x00040600
    3da8:	29000000 	stmdbcs	r0, {}	; <UNPREDICTABLE>
    3dac:	00000010 	andeq	r0, r0, r0, lsl r0
    3db0:	83070e01 	movwhi	r0, #32257	; 0x7e01
    3db4:	c0000000 	andgt	r0, r0, r0
    3db8:	0c00008b 	stceq	0, cr0, [r0], {139}	; 0x8b
    3dbc:	01000000 	mrseq	r0, (UNDEF: 0)
    3dc0:	08092a9c 	stmdaeq	r9, {r2, r3, r4, r7, r9, fp, sp}
    3dc4:	07020000 	streq	r0, [r2, -r0]
    3dc8:	0a6c0314 	beq	1b04a20 <__bss_end__+0x1afb558>
    3dcc:	692b0000 	stmdbvs	fp!, {}	; <UNPREDICTABLE>
    3dd0:	0802006e 	stmdaeq	r2, {r1, r2, r3, r5, r6}
    3dd4:	0000690e 	andeq	r6, r0, lr, lsl #18
    3dd8:	f72c0000 			; <UNDEFINED> instruction: 0xf72c0000
    3ddc:	f7000007 			; <UNDEFINED> instruction: 0xf7000007
    3de0:	08000007 	stmdaeq	r0, {r0, r1, r2}
    3de4:	ef2c0640 	svc	0x002c0640
    3de8:	ef000007 	svc	0x00000007
    3dec:	08000007 	stmdaeq	r0, {r0, r1, r2}
    3df0:	682c06e1 	stmdavs	ip!, {r0, r5, r6, r7, r9, sl}
    3df4:	68000000 	stmdavs	r0, {}	; <UNPREDICTABLE>
    3df8:	08000000 	stmdaeq	r0, {}	; <UNPREDICTABLE>
    3dfc:	0c000676 	stceq	6, cr0, [r0], {118}	; 0x76
    3e00:	0400000a 	streq	r0, [r0], #-10
    3e04:	000e2500 	andeq	r2, lr, r0, lsl #10
    3e08:	30010400 	andcc	r0, r1, r0, lsl #8
    3e0c:	0c000003 	stceq	0, cr0, [r0], {3}
    3e10:	000008da 	ldrdeq	r0, [r0], -sl
    3e14:	000004a8 	andeq	r0, r0, r8, lsr #9
    3e18:	00008c04 	andeq	r8, r0, r4, lsl #24
    3e1c:	0000003c 	andeq	r0, r0, ip, lsr r0
    3e20:	00000dd5 	ldrdeq	r0, [r0], -r5
    3e24:	69050402 	stmdbvs	r5, {r1, sl}
    3e28:	0300746e 	movweq	r7, #1134	; 0x46e
    3e2c:	00000025 	andeq	r0, r0, r5, lsr #32
    3e30:	ae070404 	cdpge	4, 0, cr0, cr7, cr4, {0}
    3e34:	04000001 	streq	r0, [r0], #-1
    3e38:	005c0601 	subseq	r0, ip, r1, lsl #12
    3e3c:	02040000 	andeq	r0, r4, #0, 0
    3e40:	0001fe05 	andeq	pc, r1, r5, lsl #28
    3e44:	05040400 	streq	r0, [r4, #-1024]	; 0xfffffc00
    3e48:	000001ed 	andeq	r0, r0, sp, ror #3
    3e4c:	e8050804 	stmda	r5, {r2, fp}
    3e50:	04000001 	streq	r0, [r0], #-1
    3e54:	005a0801 	subseq	r0, sl, r1, lsl #16
    3e58:	02040000 	andeq	r0, r4, #0, 0
    3e5c:	00001c07 	andeq	r1, r0, r7, lsl #24
    3e60:	07040400 	streq	r0, [r4, -r0, lsl #8]
    3e64:	000001a9 	andeq	r0, r0, r9, lsr #3
    3e68:	a4070804 	strge	r0, [r7], #-2052	; 0xfffff7fc
    3e6c:	05000001 	streq	r0, [r0, #-1]
    3e70:	050c0604 	streq	r0, [ip, #-1540]	; 0xfffff9fc
    3e74:	22020000 	andcs	r0, r2, #0, 0
    3e78:	00007e19 	andeq	r7, r0, r9, lsl lr
    3e7c:	84040700 	strhi	r0, [r4], #-1792	; 0xfffff900
    3e80:	08000000 	stmdaeq	r0, {}	; <UNPREDICTABLE>
    3e84:	00000621 	andeq	r0, r0, r1, lsr #12
    3e88:	00055006 	andeq	r5, r5, r6
    3e8c:	0e2c0300 	cdpeq	3, 2, cr0, cr12, cr0, {0}
    3e90:	00000046 	andeq	r0, r0, r6, asr #32
    3e94:	00062e06 	andeq	r2, r6, r6, lsl #28
    3e98:	0e720300 	cdpeq	3, 7, cr0, cr2, cr0, {0}
    3e9c:	00000046 	andeq	r0, r0, r6, asr #32
    3ea0:	00051409 	andeq	r1, r5, r9, lsl #8
    3ea4:	015e0400 	cmpeq	lr, r0, lsl #8
    3ea8:	00003117 	andeq	r3, r0, r7, lsl r1
    3eac:	03040a00 	movweq	r0, #18944	; 0x4a00
    3eb0:	00d003a6 	sbcseq	r0, r0, r6, lsr #7
    3eb4:	060b0000 	streq	r0, [fp], -r0
    3eb8:	03000005 	movweq	r0, #5
    3ebc:	00a10ca8 	adceq	r0, r1, r8, lsr #25
    3ec0:	7a0b0000 	bvc	2c3ec8 <__bss_end__+0x2baa00>
    3ec4:	03000004 	movweq	r0, #4
    3ec8:	00d013a9 	sbcseq	r1, r0, r9, lsr #7
    3ecc:	0c000000 	stceq	0, cr0, [r0], {-0}
    3ed0:	00000054 	andeq	r0, r0, r4, asr r0
    3ed4:	000000e0 	andeq	r0, r0, r0, ror #1
    3ed8:	0000310d 	andeq	r3, r0, sp, lsl #2
    3edc:	0e000300 	cdpeq	3, 0, cr0, cr0, cr0, {0}
    3ee0:	09a30308 	stmibeq	r3!, {r3, r8, r9}
    3ee4:	00000104 	andeq	r0, r0, r4, lsl #2
    3ee8:	0006190f 	andeq	r1, r6, pc, lsl #18
    3eec:	07a50300 	streq	r0, [r5, r0, lsl #6]!
    3ef0:	00000025 	andeq	r0, r0, r5, lsr #32
    3ef4:	06600f00 	strbteq	r0, [r0], -r0, lsl #30
    3ef8:	aa030000 	bge	c3f00 <__bss_end__+0xbaa38>
    3efc:	0000ae05 	andeq	sl, r0, r5, lsl #28
    3f00:	06000400 	streq	r0, [r0], -r0, lsl #8
    3f04:	0000059b 	muleq	r0, fp, r5
    3f08:	e003ab03 	and	sl, r3, r3, lsl #22
    3f0c:	06000000 	streq	r0, [r0], -r0
    3f10:	00000437 	andeq	r0, r0, r7, lsr r4
    3f14:	721baf03 	andsvc	sl, fp, #3, 30
    3f18:	07000000 	streq	r0, [r0, -r0]
    3f1c:	00012204 	andeq	r2, r1, r4, lsl #4
    3f20:	08010400 	stmdaeq	r1, {sl}
    3f24:	00000063 	andeq	r0, r0, r3, rrx
    3f28:	00012203 	andeq	r2, r1, r3, lsl #4
    3f2c:	06760600 	ldrbteq	r0, [r6], -r0, lsl #12
    3f30:	16050000 	strne	r0, [r5], -r0
    3f34:	00006219 	andeq	r6, r0, r9, lsl r2
    3f38:	04481000 	strbeq	r1, [r8], #-0
    3f3c:	05180000 	ldreq	r0, [r8, #-0]
    3f40:	0194082f 	orrseq	r0, r4, pc, lsr #16
    3f44:	bc0f0000 	stclt	0, cr0, [pc], {-0}
    3f48:	05000005 	streq	r0, [r0, #-5]
    3f4c:	01941331 	orrseq	r1, r4, r1, lsr r3
    3f50:	11000000 	mrsne	r0, (UNDEF: 0)
    3f54:	05006b5f 	streq	r6, [r0, #-2911]	; 0xfffff4a1
    3f58:	00250732 	eoreq	r0, r5, r2, lsr r7
    3f5c:	0f040000 	svceq	0x00040000
    3f60:	00000604 	andeq	r0, r0, r4, lsl #12
    3f64:	250b3205 	strcs	r3, [fp, #-517]	; 0xfffffdfb
    3f68:	08000000 	stmdaeq	r0, {}	; <UNPREDICTABLE>
    3f6c:	0004310f 	andeq	r3, r4, pc, lsl #2
    3f70:	14320500 	ldrtne	r0, [r2], #-1280	; 0xfffffb00
    3f74:	00000025 	andeq	r0, r0, r5, lsr #32
    3f78:	06ab0f0c 	strteq	r0, [fp], ip, lsl #30
    3f7c:	32050000 	andcc	r0, r5, #0, 0
    3f80:	0000251b 	andeq	r2, r0, fp, lsl r5
    3f84:	5f111000 	svcpl	0x00111000
    3f88:	33050078 	movwcc	r0, #20600	; 0x5078
    3f8c:	00019a0b 	andeq	r9, r1, fp, lsl #20
    3f90:	07001400 	streq	r1, [r0, -r0, lsl #8]
    3f94:	00013a04 	andeq	r3, r1, r4, lsl #20
    3f98:	012e0c00 			; <UNDEFINED> instruction: 0x012e0c00
    3f9c:	01aa0000 			; <UNDEFINED> instruction: 0x01aa0000
    3fa0:	310d0000 	mrscc	r0, (UNDEF: 13)
    3fa4:	00000000 	andeq	r0, r0, r0
    3fa8:	04751000 	ldrbteq	r1, [r5], #-0
    3fac:	05240000 	streq	r0, [r4, #-0]!
    3fb0:	022d0837 	eoreq	r0, sp, #3604480	; 0x370000
    3fb4:	bf0f0000 	svclt	0x000f0000
    3fb8:	05000002 	streq	r0, [r0, #-2]
    3fbc:	00250939 	eoreq	r0, r5, r9, lsr r9
    3fc0:	0f000000 	svceq	0x00000000
    3fc4:	00000644 	andeq	r0, r0, r4, asr #12
    3fc8:	25093a05 	strcs	r3, [r9, #-2565]	; 0xfffff5fb
    3fcc:	04000000 	streq	r0, [r0], #-0
    3fd0:	0002d40f 	andeq	sp, r2, pc, lsl #8
    3fd4:	093b0500 	ldmdbeq	fp!, {r8, sl}
    3fd8:	00000025 	andeq	r0, r0, r5, lsr #32
    3fdc:	07240f08 	streq	r0, [r4, -r8, lsl #30]!
    3fe0:	3c050000 	stccc	0, cr0, [r5], {-0}
    3fe4:	00002509 	andeq	r2, r0, r9, lsl #10
    3fe8:	340f0c00 	strcc	r0, [pc], #-3072	; 3ff0 <__code_start__-0x4010>
    3fec:	05000005 	streq	r0, [r0, #-5]
    3ff0:	0025093d 	eoreq	r0, r5, sp, lsr r9
    3ff4:	0f100000 	svceq	0x00100000
    3ff8:	00000523 	andeq	r0, r0, r3, lsr #10
    3ffc:	25093e05 	strcs	r3, [r9, #-3589]	; 0xfffff1fb
    4000:	14000000 	strne	r0, [r0], #-0
    4004:	0006b00f 	andeq	fp, r6, pc
    4008:	093f0500 	ldmdbeq	pc!, {r8, sl}	; <UNPREDICTABLE>
    400c:	00000025 	andeq	r0, r0, r5, lsr #32
    4010:	057d0f18 	ldrbeq	r0, [sp, #-3864]!	; 0xfffff0e8
    4014:	40050000 	andmi	r0, r5, r0
    4018:	00002509 	andeq	r2, r0, r9, lsl #10
    401c:	eb0f1c00 	bl	3cb024 <__bss_end__+0x3c1b5c>
    4020:	05000006 	streq	r0, [r0, #-6]
    4024:	00250941 	eoreq	r0, r5, r1, asr #18
    4028:	00200000 	eoreq	r0, r0, r0
    402c:	0002e312 	andeq	lr, r2, r2, lsl r3
    4030:	05010800 	streq	r0, [r1, #-2048]	; 0xfffff800
    4034:	0272084a 	rsbseq	r0, r2, #4849664	; 0x4a0000
    4038:	240f0000 	strcs	r0, [pc], #-0	; 4040 <__code_start__-0x3fc0>
    403c:	05000004 	streq	r0, [r0, #-4]
    4040:	02720a4b 	rsbseq	r0, r2, #307200	; 0x4b000
    4044:	0f000000 	svceq	0x00000000
    4048:	0000024c 	andeq	r0, r0, ip, asr #4
    404c:	72094c05 	andvc	r4, r9, #1280	; 0x500
    4050:	80000002 	andhi	r0, r0, r2
    4054:	00066813 	andeq	r6, r6, r3, lsl r8
    4058:	0a4e0500 	beq	1385460 <__bss_end__+0x137bf98>
    405c:	0000012e 	andeq	r0, r0, lr, lsr #2
    4060:	08130100 	ldmdaeq	r3, {r8}
    4064:	05000003 	streq	r0, [r0, #-3]
    4068:	012e0a51 			; <UNDEFINED> instruction: 0x012e0a51
    406c:	01040000 	mrseq	r0, (UNDEF: 4)
    4070:	00700c00 	rsbseq	r0, r0, r0, lsl #24
    4074:	02820000 	addeq	r0, r2, #0, 0
    4078:	310d0000 	mrscc	r0, (UNDEF: 13)
    407c:	1f000000 	svcne	0x00000000
    4080:	053d1200 	ldreq	r1, [sp, #-512]!	; 0xfffffe00
    4084:	01900000 	orrseq	r0, r0, r0
    4088:	c5085d05 	strgt	r5, [r8, #-3333]	; 0xfffff2fb
    408c:	0f000002 	svceq	0x00000002
    4090:	000005bc 			; <UNDEFINED> instruction: 0x000005bc
    4094:	c5125e05 	ldrgt	r5, [r2, #-3589]	; 0xfffff1fb
    4098:	00000002 	andeq	r0, r0, r2
    409c:	0005d40f 	andeq	sp, r5, pc, lsl #8
    40a0:	065f0500 	ldrbeq	r0, [pc], -r0, lsl #10
    40a4:	00000025 	andeq	r0, r0, r5, lsr #32
    40a8:	042c0f04 	strteq	r0, [ip], #-3844	; 0xfffff0fc
    40ac:	61050000 	mrsvs	r0, (UNDEF: 5)
    40b0:	0002cb09 	andeq	ip, r2, r9, lsl #22
    40b4:	e30f0800 	movw	r0, #63488	; 0xf800
    40b8:	05000002 	streq	r0, [r0, #-2]
    40bc:	022d1e62 	eoreq	r1, sp, #1568	; 0x620
    40c0:	00880000 	addeq	r0, r8, r0
    40c4:	02820407 	addeq	r0, r2, #117440512	; 0x7000000
    40c8:	db0c0000 	blle	3040d0 <__bss_end__+0x2fac08>
    40cc:	db000002 	blle	40dc <__code_start__-0x3f24>
    40d0:	0d000002 	stceq	0, cr0, [r0, #-8]
    40d4:	00000031 	andeq	r0, r0, r1, lsr r0
    40d8:	0407001f 	streq	r0, [r7], #-31	; 0xffffffe1
    40dc:	000002e1 	andeq	r0, r0, r1, ror #5
    40e0:	05871014 	streq	r1, [r7, #20]
    40e4:	05080000 	streq	r0, [r8, #-0]
    40e8:	030a0875 	movweq	r0, #43125	; 0xa875
    40ec:	ce0f0000 	cdpgt	0, 0, cr0, cr15, cr0, {0}
    40f0:	05000002 	streq	r0, [r0, #-2]
    40f4:	030a1176 	movweq	r1, #41334	; 0xa176
    40f8:	0f000000 	svceq	0x00000000
    40fc:	00000258 	andeq	r0, r0, r8, asr r2
    4100:	25067705 	strcs	r7, [r6, #-1797]	; 0xfffff8fb
    4104:	04000000 	streq	r0, [r0], #-0
    4108:	54040700 	strpl	r0, [r4], #-1792	; 0xfffff900
    410c:	10000000 	andne	r0, r0, r0
    4110:	000005a6 	andeq	r0, r0, r6, lsr #11
    4114:	08b50568 	ldmeq	r5!, {r3, r5, r6, r8, sl}
    4118:	00000453 	andeq	r0, r0, r3, asr r4
    411c:	00705f11 	rsbseq	r5, r0, r1, lsl pc
    4120:	0a12b605 	beq	4b193c <__bss_end__+0x4a8474>
    4124:	00000003 	andeq	r0, r0, r3
    4128:	00725f11 	rsbseq	r5, r2, r1, lsl pc
    412c:	2507b705 	strcs	fp, [r7, #-1797]	; 0xfffff8fb
    4130:	04000000 	streq	r0, [r0], #-0
    4134:	00775f11 	rsbseq	r5, r7, r1, lsl pc
    4138:	2507b805 	strcs	fp, [r7, #-2053]	; 0xfffff7fb
    413c:	08000000 	stmdaeq	r0, {}	; <UNPREDICTABLE>
    4140:	0003010f 	andeq	r0, r3, pc, lsl #2
    4144:	09b90500 	ldmibeq	r9!, {r8, sl}
    4148:	0000003f 	andeq	r0, r0, pc, lsr r0
    414c:	04a20f0c 	strteq	r0, [r2], #3852	; 0xf0c
    4150:	ba050000 	blt	144158 <__bss_end__+0x13ac90>
    4154:	00003f09 	andeq	r3, r0, r9, lsl #30
    4158:	5f110e00 	svcpl	0x00110e00
    415c:	05006662 	streq	r6, [r0, #-1634]	; 0xfffff99e
    4160:	02e211bb 	rsceq	r1, r2, #-1073741778	; 0xc000002e
    4164:	0f100000 	svceq	0x00100000
    4168:	0000029c 	muleq	r0, ip, r2
    416c:	2507bc05 	strcs	fp, [r7, #-3077]	; 0xfffff3fb
    4170:	18000000 	stmdane	r0, {}	; <UNPREDICTABLE>
    4174:	0002f10f 	andeq	pc, r2, pc, lsl #2
    4178:	0ac30500 	beq	ff0c5580 <__bss_end__+0xff0bc0b8>
    417c:	00000070 	andeq	r0, r0, r0, ror r0
    4180:	0ae50f1c 	beq	ff947df8 <__bss_end__+0xff93e930>
    4184:	c5050000 	strgt	r0, [r5, #-0]
    4188:	0005c51d 	andeq	ip, r5, sp, lsl r5
    418c:	ff0f2000 			; <UNDEFINED> instruction: 0xff0f2000
    4190:	0500000a 	streq	r0, [r0, #-10]
    4194:	05ef1dc7 	strbeq	r1, [pc, #3527]!	; 4f63 <__code_start__-0x309d>
    4198:	0f240000 	svceq	0x00240000
    419c:	00000628 	andeq	r0, r0, r8, lsr #12
    41a0:	130dca05 	movwne	ip, #55813	; 0xda05
    41a4:	28000006 	stmdacs	r0, {r1, r2}
    41a8:	0007050f 	andeq	r0, r7, pc, lsl #10
    41ac:	09cb0500 	stmibeq	fp, {r8, sl}^
    41b0:	0000062d 	andeq	r0, r0, sp, lsr #12
    41b4:	755f112c 	ldrbvc	r1, [pc, #-300]	; 4090 <__code_start__-0x3f70>
    41b8:	ce050062 	cdpgt	0, 0, cr0, cr5, cr2, {3}
    41bc:	0002e211 	andeq	lr, r2, r1, lsl r2
    41c0:	5f113000 	svcpl	0x00113000
    41c4:	05007075 	streq	r7, [r0, #-117]	; 0xffffff8b
    41c8:	030a12cf 	movweq	r1, #41679	; 0xa2cf
    41cc:	11380000 	teqne	r8, r0
    41d0:	0072755f 	rsbseq	r7, r2, pc, asr r5
    41d4:	2507d005 	strcs	sp, [r7, #-5]
    41d8:	3c000000 	stccc	0, cr0, [r0], {-0}
    41dc:	0002c80f 	andeq	ip, r2, pc, lsl #16
    41e0:	11d30500 	bicsne	r0, r3, r0, lsl #10
    41e4:	00000633 	andeq	r0, r0, r3, lsr r6
    41e8:	06dd0f40 	ldrbeq	r0, [sp], r0, asr #30
    41ec:	d4050000 	strle	r0, [r5], #-0
    41f0:	00064311 	andeq	r4, r6, r1, lsl r3
    41f4:	5f114300 	svcpl	0x00114300
    41f8:	0500626c 	streq	r6, [r0, #-620]	; 0xfffffd94
    41fc:	02e211d7 	rsceq	r1, r2, #-1073741771	; 0xc0000035
    4200:	0f440000 	svceq	0x00440000
    4204:	00000317 	andeq	r0, r0, r7, lsl r3
    4208:	2507da05 	strcs	sp, [r7, #-2565]	; 0xfffff5fb
    420c:	4c000000 	stcmi	0, cr0, [r0], {-0}
    4210:	0003280f 	andeq	r2, r3, pc, lsl #16
    4214:	0adb0500 	beq	ff6c561c <__bss_end__+0xff6bc154>
    4218:	00000089 	andeq	r0, r0, r9, lsl #1
    421c:	0a410f50 	beq	1047f64 <__bss_end__+0x103ea9c>
    4220:	de050000 	cdple	0, 0, cr0, cr5, cr0, {0}
    4224:	00047112 	andeq	r7, r4, r2, lsl r1
    4228:	220f5400 	andcs	r5, pc, #0, 8
    422c:	05000006 	streq	r0, [r0, #-6]
    4230:	01100ce2 	tsteq	r0, r2, ror #25
    4234:	0f580000 	svceq	0x00580000
    4238:	000005ae 	andeq	r0, r0, lr, lsr #11
    423c:	040ee405 	streq	lr, [lr], #-1029	; 0xfffffbfb
    4240:	5c000001 	stcpl	0, cr0, [r0], {1}
    4244:	00051b0f 	andeq	r1, r5, pc, lsl #22
    4248:	09e50500 	stmibeq	r5!, {r8, sl}^
    424c:	00000025 	andeq	r0, r0, r5, lsr #32
    4250:	25150064 	ldrcs	r0, [r5, #-100]	; 0xffffff9c
    4254:	71000000 	mrsvc	r0, (UNDEF: 0)
    4258:	16000004 	strne	r0, [r0], -r4
    425c:	00000471 	andeq	r0, r0, r1, ror r4
    4260:	00007016 	andeq	r7, r0, r6, lsl r0
    4264:	011c1600 	tsteq	ip, r0, lsl #12
    4268:	25160000 	ldrcs	r0, [r6, #-0]
    426c:	00000000 	andeq	r0, r0, r0
    4270:	047c0407 	ldrbteq	r0, [ip], #-1031	; 0xfffffbf9
    4274:	71030000 	mrsvc	r0, (UNDEF: 3)
    4278:	17000004 	strne	r0, [r0, -r4]
    427c:	0000060c 	andeq	r0, r0, ip, lsl #12
    4280:	60050428 	andvs	r0, r5, r8, lsr #8
    4284:	05c50802 	strbeq	r0, [r5, #2050]	; 0x802
    4288:	76180000 	ldrvc	r0, [r8], -r0
    428c:	05000005 	streq	r0, [r0, #-5]
    4290:	25070262 	strcs	r0, [r7, #-610]	; 0xfffffd9e
    4294:	00000000 	andeq	r0, r0, r0
    4298:	00031018 	andeq	r1, r3, r8, lsl r0
    429c:	02670500 	rsbeq	r0, r7, #0, 10
    42a0:	00069f0b 	andeq	r9, r6, fp, lsl #30
    42a4:	92180400 	andsls	r0, r8, #0, 8
    42a8:	05000004 	streq	r0, [r0, #-4]
    42ac:	9f140267 	svcls	0x00140267
    42b0:	08000006 	stmdaeq	r0, {r1, r2}
    42b4:	00044018 	andeq	r4, r4, r8, lsl r0
    42b8:	02670500 	rsbeq	r0, r7, #0, 10
    42bc:	00069f1e 	andeq	r9, r6, lr, lsl pc
    42c0:	cf180c00 	svcgt	0x00180c00
    42c4:	05000005 	streq	r0, [r0, #-5]
    42c8:	25080269 	strcs	r0, [r8, #-617]	; 0xfffffd97
    42cc:	10000000 	andne	r0, r0, r0
    42d0:	00026d18 	andeq	r6, r2, r8, lsl sp
    42d4:	026a0500 	rsbeq	r0, sl, #0, 10
    42d8:	00089f08 	andeq	r9, r8, r8, lsl #30
    42dc:	eb181400 	bl	6092e4 <__bss_end__+0x5ffe1c>
    42e0:	05000005 	streq	r0, [r0, #-5]
    42e4:	2507026d 	strcs	r0, [r7, #-621]	; 0xfffffd93
    42e8:	30000000 	andcc	r0, r0, r0
    42ec:	0005d918 	andeq	sp, r5, r8, lsl r9
    42f0:	026e0500 	rsbeq	r0, lr, #0, 10
    42f4:	0008b416 	andeq	fp, r8, r6, lsl r4
    42f8:	45183400 	ldrmi	r3, [r8, #-1024]	; 0xfffffc00
    42fc:	05000005 	streq	r0, [r0, #-5]
    4300:	25070270 	strcs	r0, [r7, #-624]	; 0xfffffd90
    4304:	38000000 	stmdacc	r0, {}	; <UNPREDICTABLE>
    4308:	0005e118 	andeq	lr, r5, r8, lsl r1
    430c:	02720500 	rsbseq	r0, r2, #0, 10
    4310:	0008c50a 	andeq	ip, r8, sl, lsl #10
    4314:	fe183c00 	cdp2	12, 1, cr3, cr8, cr0, {0}
    4318:	05000004 	streq	r0, [r0, #-4]
    431c:	94130275 	ldrls	r0, [r3], #-629	; 0xfffffd8b
    4320:	40000001 	andmi	r0, r0, r1
    4324:	00045f18 	andeq	r5, r4, r8, lsl pc
    4328:	02760500 	rsbseq	r0, r6, #0, 10
    432c:	00002507 	andeq	r2, r0, r7, lsl #10
    4330:	1f184400 	svcne	0x00184400
    4334:	05000007 	streq	r0, [r0, #-7]
    4338:	94130277 	ldrls	r0, [r3], #-631	; 0xfffffd89
    433c:	48000001 	stmdami	r0, {r0}
    4340:	00055718 	andeq	r5, r5, r8, lsl r7
    4344:	02780500 	rsbseq	r0, r8, #0, 10
    4348:	0008cb14 	andeq	ip, r8, r4, lsl fp
    434c:	9a184c00 	bls	617354 <__bss_end__+0x60de8c>
    4350:	05000004 	streq	r0, [r0, #-4]
    4354:	2507027b 	strcs	r0, [r7, #-635]	; 0xfffffd85
    4358:	50000000 	andpl	r0, r0, r0
    435c:	00032018 	andeq	r2, r3, r8, lsl r0
    4360:	027c0500 	rsbseq	r0, ip, #0, 10
    4364:	00011c09 	andeq	r1, r1, r9, lsl #24
    4368:	6f185400 	svcvs	0x00185400
    436c:	05000005 	streq	r0, [r0, #-5]
    4370:	7a07029f 	bvc	1c4df4 <__bss_end__+0x1bb92c>
    4374:	58000008 	stmdapl	r0, {r3}
    4378:	00053d19 	andeq	r3, r5, r9, lsl sp
    437c:	02a30500 	adceq	r0, r3, #0, 10
    4380:	0002c513 	andeq	ip, r2, r3, lsl r5
    4384:	19014800 	stmdbne	r1, {fp, lr}
    4388:	000004d8 	ldrdeq	r0, [r0], -r8
    438c:	1202a405 	andne	sl, r2, #83886080	; 0x5000000
    4390:	00000282 	andeq	r0, r0, r2, lsl #5
    4394:	d319014c 	tstle	r9, #19
    4398:	05000006 	streq	r0, [r0, #-6]
    439c:	dc0c02a8 	sfmle	f0, 4, [ip], {168}	; 0xa8
    43a0:	dc000008 	stcle	0, cr0, [r0], {8}
    43a4:	02f91902 	rscseq	r1, r9, #32768	; 0x8000
    43a8:	ad050000 	stcge	0, cr0, [r5, #-0]
    43ac:	06601002 	strbteq	r1, [r0], -r2
    43b0:	02e00000 	rsceq	r0, r0, #0, 0
    43b4:	0002de19 	andeq	sp, r2, r9, lsl lr
    43b8:	02af0500 	adceq	r0, pc, #0, 10
    43bc:	0008e80a 	andeq	lr, r8, sl, lsl #16
    43c0:	0002ec00 	andeq	lr, r2, r0, lsl #24
    43c4:	04530407 	ldrbeq	r0, [r3], #-1031	; 0xfffffbf9
    43c8:	25150000 	ldrcs	r0, [r5, #-0]
    43cc:	e9000000 	stmdb	r0, {}	; <UNPREDICTABLE>
    43d0:	16000005 	strne	r0, [r0], -r5
    43d4:	00000471 	andeq	r0, r0, r1, ror r4
    43d8:	00007016 	andeq	r7, r0, r6, lsl r0
    43dc:	05e91600 	strbeq	r1, [r9, #1536]!	; 0x600
    43e0:	25160000 	ldrcs	r0, [r6, #-0]
    43e4:	00000000 	andeq	r0, r0, r0
    43e8:	01290407 			; <UNDEFINED> instruction: 0x01290407
    43ec:	04070000 	streq	r0, [r7], #-0
    43f0:	000005cb 	andeq	r0, r0, fp, asr #11
    43f4:	00009515 	andeq	r9, r0, r5, lsl r5
    43f8:	00061300 	andeq	r1, r6, r0, lsl #6
    43fc:	04711600 	ldrbteq	r1, [r1], #-1536	; 0xfffffa00
    4400:	70160000 	andsvc	r0, r6, r0
    4404:	16000000 	strne	r0, [r0], -r0
    4408:	00000095 	muleq	r0, r5, r0
    440c:	00002516 	andeq	r2, r0, r6, lsl r5
    4410:	04070000 	streq	r0, [r7], #-0
    4414:	000005f5 	strdeq	r0, [r0], -r5
    4418:	00002515 	andeq	r2, r0, r5, lsl r5
    441c:	00062d00 	andeq	r2, r6, r0, lsl #26
    4420:	04711600 	ldrbteq	r1, [r1], #-1536	; 0xfffffa00
    4424:	70160000 	andsvc	r0, r6, r0
    4428:	00000000 	andeq	r0, r0, r0
    442c:	06190407 	ldreq	r0, [r9], -r7, lsl #8
    4430:	540c0000 	strpl	r0, [ip], #-0
    4434:	43000000 	movwmi	r0, #0
    4438:	0d000006 	stceq	0, cr0, [r0, #-24]	; 0xffffffe8
    443c:	00000031 	andeq	r0, r0, r1, lsr r0
    4440:	540c0002 	strpl	r0, [ip], #-2
    4444:	53000000 	movwpl	r0, #0
    4448:	0d000006 	stceq	0, cr0, [r0, #-24]	; 0xffffffe8
    444c:	00000031 	andeq	r0, r0, r1, lsr r0
    4450:	94090000 	strls	r0, [r9], #-0
    4454:	05000005 	streq	r0, [r0, #-5]
    4458:	101a011f 	andsne	r0, sl, pc, lsl r1
    445c:	1a000003 	bne	4470 <__code_start__-0x3b90>
    4460:	000006ba 			; <UNDEFINED> instruction: 0x000006ba
    4464:	0123050c 			; <UNDEFINED> instruction: 0x0123050c
    4468:	00069908 	andeq	r9, r6, r8, lsl #18
    446c:	05bc1800 	ldreq	r1, [ip, #2048]!	; 0x800
    4470:	25050000 	strcs	r0, [r5, #-0]
    4474:	06991101 	ldreq	r1, [r9], r1, lsl #2
    4478:	18000000 	stmdane	r0, {}	; <UNPREDICTABLE>
    447c:	000004d1 	ldrdeq	r0, [r0], -r1
    4480:	07012605 	streq	r2, [r1, -r5, lsl #12]
    4484:	00000025 	andeq	r0, r0, r5, lsr #32
    4488:	058e1804 	streq	r1, [lr, #2052]	; 0x804
    448c:	27050000 	strcs	r0, [r5, -r0]
    4490:	069f0b01 	ldreq	r0, [pc], r1, lsl #22
    4494:	00080000 	andeq	r0, r8, r0
    4498:	06600407 	strbteq	r0, [r0], -r7, lsl #8
    449c:	04070000 	streq	r0, [r7], #-0
    44a0:	00000653 	andeq	r0, r0, r3, asr r6
    44a4:	0002651a 	andeq	r6, r2, sl, lsl r5
    44a8:	3f050e00 	svccc	0x00050e00
    44ac:	06de0801 	ldrbeq	r0, [lr], r1, lsl #16
    44b0:	13180000 	tstne	r8, #0, 0
    44b4:	05000006 	streq	r0, [r0, #-6]
    44b8:	de120140 	muflesm	f0, f2, f0
    44bc:	00000006 	andeq	r0, r0, r6
    44c0:	00064d18 	andeq	r4, r6, r8, lsl sp
    44c4:	01410500 	cmpeq	r1, r0, lsl #10
    44c8:	0006de12 	andeq	sp, r6, r2, lsl lr
    44cc:	71180600 	tstvc	r8, r0, lsl #12
    44d0:	05000006 	streq	r0, [r0, #-6]
    44d4:	5b120142 	blpl	4849e4 <__bss_end__+0x47b51c>
    44d8:	0c000000 	stceq	0, cr0, [r0], {-0}
    44dc:	005b0c00 	subseq	r0, fp, r0, lsl #24
    44e0:	06ee0000 	strbteq	r0, [lr], r0
    44e4:	310d0000 	mrscc	r0, (UNDEF: 13)
    44e8:	02000000 	andeq	r0, r0, #0, 0
    44ec:	05d01b00 	ldrbeq	r1, [r0, #2816]	; 0xb00
    44f0:	03070280 	movweq	r0, #29312	; 0x7280
    44f4:	18000008 	stmdane	r0, {r3}
    44f8:	0000069e 	muleq	r0, lr, r6
    44fc:	18028205 	stmdane	r2, {r0, r2, r9, pc}
    4500:	00000031 	andeq	r0, r0, r1, lsr r0
    4504:	06531800 	ldrbeq	r1, [r3], -r0, lsl #16
    4508:	83050000 	movwhi	r0, #20480	; 0x5000
    450c:	011c1202 	tsteq	ip, r2, lsl #4
    4510:	18040000 	stmdane	r4, {}	; <UNPREDICTABLE>
    4514:	000004f1 	strdeq	r0, [r0], -r1
    4518:	10028405 	andne	r8, r2, r5, lsl #8
    451c:	00000803 	andeq	r0, r0, r3, lsl #16
    4520:	06f61808 	ldrbteq	r1, [r6], r8, lsl #16
    4524:	85050000 	strhi	r0, [r5, #-0]
    4528:	01aa1702 			; <UNDEFINED> instruction: 0x01aa1702
    452c:	18240000 	stmdane	r4!, {}	; <UNPREDICTABLE>
    4530:	00000450 	andeq	r0, r0, r0, asr r4
    4534:	0f028605 	svceq	0x00028605
    4538:	00000025 	andeq	r0, r0, r5, lsr #32
    453c:	05b71848 	ldreq	r1, [r7, #2120]!	; 0x848
    4540:	87050000 	strhi	r0, [r5, -r0]
    4544:	00692c02 	rsbeq	r2, r9, r2, lsl #24
    4548:	18500000 	ldmdane	r0, {}^	; <UNPREDICTABLE>
    454c:	0000070c 	andeq	r0, r0, ip, lsl #14
    4550:	1a028805 	bne	a656c <__bss_end__+0x9d0a4>
    4554:	000006a5 	andeq	r0, r0, r5, lsr #13
    4558:	05c21858 	strbeq	r1, [r2, #2136]	; 0x858
    455c:	89050000 	stmdbhi	r5, {}	; <UNPREDICTABLE>
    4560:	01041602 	tsteq	r4, r2, lsl #12
    4564:	18680000 	stmdane	r8!, {}^	; <UNPREDICTABLE>
    4568:	00000711 	andeq	r0, r0, r1, lsl r7
    456c:	16028a05 	strne	r8, [r2], -r5, lsl #20
    4570:	00000104 	andeq	r0, r0, r4, lsl #2
    4574:	05611870 	strbeq	r1, [r1, #-2160]!	; 0xfffff790
    4578:	8b050000 	blhi	144580 <__bss_end__+0x13b0b8>
    457c:	01041602 	tsteq	r4, r2, lsl #12
    4580:	18780000 	ldmdane	r8!, {}^	; <UNPREDICTABLE>
    4584:	000006c9 	andeq	r0, r0, r9, asr #13
    4588:	10028c05 	andne	r8, r2, r5, lsl #24
    458c:	00000813 	andeq	r0, r0, r3, lsl r8
    4590:	02901880 	addseq	r1, r0, #128, 16	; 0x800000
    4594:	8d050000 	stchi	0, cr0, [r5, #-0]
    4598:	08231002 	stmdaeq	r3!, {r1, ip}
    459c:	18880000 	stmne	r8, {}	; <UNPREDICTABLE>
    45a0:	0000067e 	andeq	r0, r0, lr, ror r6
    45a4:	0f028e05 	svceq	0x00028e05
    45a8:	00000025 	andeq	r0, r0, r5, lsr #32
    45ac:	041618a0 	ldreq	r1, [r6], #-2208	; 0xfffff760
    45b0:	8f050000 	svchi	0x00050000
    45b4:	01041602 	tsteq	r4, r2, lsl #12
    45b8:	18a40000 	stmiane	r4!, {}	; <UNPREDICTABLE>
    45bc:	000002b0 			; <UNDEFINED> instruction: 0x000002b0
    45c0:	16029005 	strne	r9, [r2], -r5
    45c4:	00000104 	andeq	r0, r0, r4, lsl #2
    45c8:	040518ac 	streq	r1, [r5], #-2220	; 0xfffff754
    45cc:	91050000 	mrsls	r0, (UNDEF: 5)
    45d0:	01041602 	tsteq	r4, r2, lsl #12
    45d4:	18b40000 	ldmne	r4!, {}	; <UNPREDICTABLE>
    45d8:	00000281 	andeq	r0, r0, r1, lsl #5
    45dc:	16029205 	strne	r9, [r2], -r5, lsl #4
    45e0:	00000104 	andeq	r0, r0, r4, lsl #2
    45e4:	048118bc 	streq	r1, [r1], #2236	; 0x8bc
    45e8:	93050000 	movwls	r0, #20480	; 0x5000
    45ec:	01041602 	tsteq	r4, r2, lsl #12
    45f0:	18c40000 	stmiane	r4, {}^	; <UNPREDICTABLE>
    45f4:	00000574 	andeq	r0, r0, r4, ror r5
    45f8:	08029405 	stmdaeq	r2, {r0, r2, sl, ip, pc}
    45fc:	00000025 	andeq	r0, r0, r5, lsr #32
    4600:	220c00cc 	andcs	r0, ip, #204, 0	; 0xcc
    4604:	13000001 	movwne	r0, #1
    4608:	0d000008 	stceq	0, cr0, [r0, #-32]	; 0xffffffe0
    460c:	00000031 	andeq	r0, r0, r1, lsr r0
    4610:	220c0019 	andcs	r0, ip, #25, 0
    4614:	23000001 	movwcs	r0, #1
    4618:	0d000008 	stceq	0, cr0, [r0, #-32]	; 0xffffffe0
    461c:	00000031 	andeq	r0, r0, r1, lsr r0
    4620:	220c0007 	andcs	r0, ip, #7, 0
    4624:	33000001 	movwcc	r0, #1
    4628:	0d000008 	stceq	0, cr0, [r0, #-32]	; 0xffffffe0
    462c:	00000031 	andeq	r0, r0, r1, lsr r0
    4630:	f01b0017 			; <UNDEFINED> instruction: 0xf01b0017
    4634:	07029905 	streq	r9, [r2, -r5, lsl #18]
    4638:	0000085a 	andeq	r0, r0, sl, asr r8
    463c:	00052d18 	andeq	r2, r5, r8, lsl sp
    4640:	029c0500 	addseq	r0, ip, #0, 10
    4644:	00085a1b 	andeq	r5, r8, fp, lsl sl
    4648:	c0180000 	andsgt	r0, r8, r0
    464c:	05000006 	streq	r0, [r0, #-6]
    4650:	6a18029d 	bvs	6050cc <__bss_end__+0x5fbc04>
    4654:	78000008 	stmdavc	r0, {r3}
    4658:	030a0c00 	movweq	r0, #44032	; 0xac00
    465c:	086a0000 	stmdaeq	sl!, {}^	; <UNPREDICTABLE>
    4660:	310d0000 	mrscc	r0, (UNDEF: 13)
    4664:	1d000000 	stcne	0, cr0, [r0, #-0]
    4668:	00310c00 	eorseq	r0, r1, r0, lsl #24
    466c:	087a0000 	ldmdaeq	sl!, {}^	; <UNPREDICTABLE>
    4670:	310d0000 	mrscc	r0, (UNDEF: 13)
    4674:	1d000000 	stcne	0, cr0, [r0, #-0]
    4678:	05f01c00 	ldrbeq	r1, [r0, #3072]!	; 0xc00
    467c:	9f03027e 	svcls	0x0003027e
    4680:	1d000008 	stcne	0, cr0, [r0, #-32]	; 0xffffffe0
    4684:	0000060c 	andeq	r0, r0, ip, lsl #12
    4688:	0b029505 	bleq	a9aa4 <__bss_end__+0xa05dc>
    468c:	000006ee 	andeq	r0, r0, lr, ror #13
    4690:	0006e31d 	andeq	lr, r6, sp, lsl r3
    4694:	029e0500 	addseq	r0, lr, #0, 10
    4698:	0008330b 	andeq	r3, r8, fp, lsl #6
    469c:	220c0000 	andcs	r0, ip, #0, 0
    46a0:	af000001 	svcge	0x00000001
    46a4:	0d000008 	stceq	0, cr0, [r0, #-32]	; 0xffffffe0
    46a8:	00000031 	andeq	r0, r0, r1, lsr r0
    46ac:	a5080018 	strge	r0, [r8, #-24]	; 0xffffffe8
    46b0:	07000002 	streq	r0, [r0, -r2]
    46b4:	0008af04 	andeq	sl, r8, r4, lsl #30
    46b8:	08c51e00 	stmiaeq	r5, {r9, sl, fp, ip}^
    46bc:	71160000 	tstvc	r6, r0
    46c0:	00000004 	andeq	r0, r0, r4
    46c4:	08ba0407 	ldmeq	sl!, {r0, r1, r2, sl}
    46c8:	04070000 	streq	r0, [r7], #-0
    46cc:	00000194 	muleq	r0, r4, r1
    46d0:	0008dc1e 	andeq	sp, r8, lr, lsl ip
    46d4:	00251600 	eoreq	r1, r5, r0, lsl #12
    46d8:	07000000 	streq	r0, [r0, -r0]
    46dc:	0008e204 	andeq	lr, r8, r4, lsl #4
    46e0:	d1040700 	tstle	r4, r0, lsl #14
    46e4:	0c000008 	stceq	0, cr0, [r0], {8}
    46e8:	00000653 	andeq	r0, r0, r3, asr r6
    46ec:	000008f8 	strdeq	r0, [r0], -r8
    46f0:	0000310d 	andeq	r3, r0, sp, lsl #2
    46f4:	1f000200 	svcne	0x00000200
    46f8:	00000692 	muleq	r0, r2, r6
    46fc:	17032e05 	strne	r2, [r3, -r5, lsl #28]
    4700:	00000471 	andeq	r0, r0, r1, ror r4
    4704:	00068b1f 	andeq	r8, r6, pc, lsl fp
    4708:	032f0500 			; <UNDEFINED> instruction: 0x032f0500
    470c:	0004771d 	andeq	r7, r4, sp, lsl r7
    4710:	06360600 	ldrteq	r0, [r6], -r0, lsl #12
    4714:	21060000 	mrscs	r0, (UNDEF: 6)
    4718:	00091e0f 	andeq	r1, r9, pc, lsl #28
    471c:	24040700 	strcs	r0, [r4], #-1792	; 0xfffff900
    4720:	15000009 	strne	r0, [r0, #-9]
    4724:	00000025 	andeq	r0, r0, r5, lsr #32
    4728:	00000933 	andeq	r0, r0, r3, lsr r9
    472c:	00002516 	andeq	r2, r0, r6, lsl r5
    4730:	69200000 	stmdbvs	r0!, {}	; <UNPREDICTABLE>
    4734:	06000004 	streq	r0, [r0], -r4
    4738:	09121623 	ldmdbeq	r2, {r0, r1, r5, r9, sl, ip}
    473c:	e4210000 	strt	r0, [r1], #-0
    4740:	01000007 	tsteq	r0, r7
    4744:	8c040604 	stchi	6, cr0, [r4], {4}
    4748:	003c0000 	eorseq	r0, ip, r0
    474c:	9c010000 	stcls	0, cr0, [r1], {-0}
    4750:	000009eb 	andeq	r0, r0, fp, ror #19
    4754:	0008ab22 	andeq	sl, r8, r2, lsr #22
    4758:	0f090100 	svceq	0x00090100
    475c:	0000002c 	andeq	r0, r0, ip, lsr #32
    4760:	2010001c 	andscs	r0, r0, ip, lsl r0
    4764:	0008d222 	andeq	sp, r8, r2, lsr #4
    4768:	0f0a0100 	svceq	0x000a0100
    476c:	0000002c 	andeq	r0, r0, ip, lsr #32
    4770:	20100024 	andscs	r0, r0, r4, lsr #32
    4774:	0008ef22 	andeq	lr, r8, r2, lsr #30
    4778:	0f0b0100 	svceq	0x000b0100
    477c:	0000002c 	andeq	r0, r0, ip, lsr #32
    4780:	5a000000 	bpl	4788 <__code_start__-0x3878>
    4784:	0008b923 	andeq	fp, r8, r3, lsr #18
    4788:	0f0c0100 	svceq	0x000c0100
    478c:	0000002c 	andeq	r0, r0, ip, lsr #32
    4790:	8c0c2420 	cfstrshi	mvf2, [ip], {32}
    4794:	09eb0000 	stmibeq	fp!, {}^	; <UNPREDICTABLE>
    4798:	14250000 	strtne	r0, [r5], #-0
    479c:	f700008c 			; <UNDEFINED> instruction: 0xf700008c
    47a0:	ae000009 	cdpge	0, 0, cr0, cr0, cr9, {0}
    47a4:	26000009 	strcs	r0, [r0], -r9
    47a8:	3a015001 	bcc	587b4 <__bss_end__+0x4f2ec>
    47ac:	8c202500 	cfstr32hi	mvfx2, [r0], #-0
    47b0:	0a030000 	beq	c47b8 <__bss_end__+0xbb2f0>
    47b4:	09ce0000 	stmibeq	lr, {}^	; <UNPREDICTABLE>
    47b8:	01260000 			; <UNDEFINED> instruction: 0x01260000
    47bc:	240c0550 	strcs	r0, [ip], #-1360	; 0xfffffab0
    47c0:	26201000 	strtcs	r1, [r0], -r0
    47c4:	0c055101 	stfeqs	f5, [r5], {1}
    47c8:	5a000001 	bpl	47d4 <__code_start__-0x382c>
    47cc:	8c2c2700 	stchi	7, cr2, [ip], #-0
    47d0:	0a030000 	beq	c47d8 <__bss_end__+0xbb310>
    47d4:	01260000 			; <UNDEFINED> instruction: 0x01260000
    47d8:	1c0c0550 	cfstr32ne	mvfx0, [ip], {80}	; 0x50
    47dc:	26201000 	strtcs	r1, [r0], -r0
    47e0:	0c055101 	stfeqs	f5, [r5], {1}
    47e4:	5a000020 	bpl	486c <__code_start__-0x3794>
    47e8:	c8280000 	stmdagt	r8!, {}	; <UNPREDICTABLE>
    47ec:	c8000007 	stmdagt	r0, {r0, r1, r2}
    47f0:	06000007 	streq	r0, [r0], -r7
    47f4:	db280657 	blle	a06158 <__bss_end__+0x9fcc90>
    47f8:	db000007 	blle	481c <__code_start__-0x37e4>
    47fc:	06000007 	streq	r0, [r0], -r7
    4800:	b3280664 			; <UNDEFINED> instruction: 0xb3280664
    4804:	b3000008 	movwlt	r0, #8
    4808:	06000008 	streq	r0, [r0], -r8
    480c:	d20006a4 	andle	r0, r0, #164, 12	; 0xa400000
    4810:	0400000a 	streq	r0, [r0], #-10
    4814:	00105d00 	andseq	r5, r0, r0, lsl #26
    4818:	30010400 	andcc	r0, r1, r0, lsl #8
    481c:	0c000003 	stceq	0, cr0, [r0], {3}
    4820:	00000914 	andeq	r0, r0, r4, lsl r9
    4824:	000004a8 	andeq	r0, r0, r8, lsr #9
    4828:	00008c40 	andeq	r8, r0, r0, asr #24
    482c:	00000084 	andeq	r0, r0, r4, lsl #1
    4830:	00000f1c 	andeq	r0, r0, ip, lsl pc
    4834:	69050402 	stmdbvs	r5, {r1, sl}
    4838:	0300746e 	movweq	r7, #1134	; 0x46e
    483c:	01ae0704 			; <UNDEFINED> instruction: 0x01ae0704
    4840:	01030000 	mrseq	r0, (UNDEF: 3)
    4844:	00005c06 	andeq	r5, r0, r6, lsl #24
    4848:	05020300 	streq	r0, [r2, #-768]	; 0xfffffd00
    484c:	000001fe 	strdeq	r0, [r0], -lr
    4850:	ed050403 	cfstrs	mvf0, [r5, #-12]
    4854:	03000001 	movweq	r0, #1
    4858:	01e80508 	mvneq	r0, r8, lsl #10
    485c:	01030000 	mrseq	r0, (UNDEF: 3)
    4860:	00005a08 	andeq	r5, r0, r8, lsl #20
    4864:	07020300 	streq	r0, [r2, -r0, lsl #6]
    4868:	0000001c 	andeq	r0, r0, ip, lsl r0
    486c:	00021b04 	andeq	r1, r2, r4, lsl #22
    4870:	19340200 	ldmdbne	r4!, {r9}
    4874:	00000069 	andeq	r0, r0, r9, rrx
    4878:	a9070403 	stmdbge	r7, {r0, r1, sl}
    487c:	03000001 	movweq	r0, #1
    4880:	01a40708 			; <UNDEFINED> instruction: 0x01a40708
    4884:	04050000 	streq	r0, [r5], #-0
    4888:	00050c04 	andeq	r0, r5, r4, lsl #24
    488c:	19220300 	stmdbne	r2!, {r8, r9}
    4890:	00000085 	andeq	r0, r0, r5, lsl #1
    4894:	008b0406 	addeq	r0, fp, r6, lsl #8
    4898:	21070000 	mrscs	r0, (UNDEF: 7)
    489c:	04000006 	streq	r0, [r0], #-6
    48a0:	00000550 	andeq	r0, r0, r0, asr r5
    48a4:	410e2c04 	tstmi	lr, r4, lsl #24
    48a8:	04000000 	streq	r0, [r0], #-0
    48ac:	0000062e 	andeq	r0, r0, lr, lsr #12
    48b0:	410e7204 	tstmi	lr, r4, lsl #4
    48b4:	08000000 	stmdaeq	r0, {}	; <UNPREDICTABLE>
    48b8:	00000514 	andeq	r0, r0, r4, lsl r5
    48bc:	17015e05 	strne	r5, [r1, -r5, lsl #28]
    48c0:	0000002c 	andeq	r0, r0, ip, lsr #32
    48c4:	a6040409 	strge	r0, [r4], -r9, lsl #8
    48c8:	0000d703 	andeq	sp, r0, r3, lsl #14
    48cc:	05060a00 	streq	r0, [r6, #-2560]	; 0xfffff600
    48d0:	a8040000 	stmdage	r4, {}	; <UNPREDICTABLE>
    48d4:	0000a80c 	andeq	sl, r0, ip, lsl #16
    48d8:	047a0a00 	ldrbteq	r0, [sl], #-2560	; 0xfffff600
    48dc:	a9040000 	stmdbge	r4, {}	; <UNPREDICTABLE>
    48e0:	0000d713 	andeq	sp, r0, r3, lsl r7
    48e4:	4f0b0000 	svcmi	0x000b0000
    48e8:	e7000000 	str	r0, [r0, -r0]
    48ec:	0c000000 	stceq	0, cr0, [r0], {-0}
    48f0:	0000002c 	andeq	r0, r0, ip, lsr #32
    48f4:	080d0003 	stmdaeq	sp, {r0, r1}
    48f8:	0b09a304 	bleq	26d510 <__bss_end__+0x264048>
    48fc:	0e000001 	cdpeq	0, 0, cr0, cr0, cr1, {0}
    4900:	00000619 	andeq	r0, r0, r9, lsl r6
    4904:	2507a504 	strcs	sl, [r7, #-1284]	; 0xfffffafc
    4908:	00000000 	andeq	r0, r0, r0
    490c:	0006600e 	andeq	r6, r6, lr
    4910:	05aa0400 	streq	r0, [sl, #1024]!	; 0x400
    4914:	000000b5 	strheq	r0, [r0], -r5
    4918:	9b040004 	blls	104930 <__bss_end__+0xfb468>
    491c:	04000005 	streq	r0, [r0], #-5
    4920:	00e703ab 	rsceq	r0, r7, fp, lsr #7
    4924:	37040000 	strcc	r0, [r4, -r0]
    4928:	04000004 	streq	r0, [r0], #-4
    492c:	00791baf 	rsbseq	r1, r9, pc, lsr #23
    4930:	04060000 	streq	r0, [r6], #-0
    4934:	00000129 	andeq	r0, r0, r9, lsr #2
    4938:	63080103 	movwvs	r0, #33027	; 0x8103
    493c:	0f000000 	svceq	0x00000000
    4940:	00000129 	andeq	r0, r0, r9, lsr #2
    4944:	00067604 	andeq	r7, r6, r4, lsl #12
    4948:	19160600 	ldmdbne	r6, {r9, sl}
    494c:	00000069 	andeq	r0, r0, r9, rrx
    4950:	00044810 	andeq	r4, r4, r0, lsl r8
    4954:	2f061800 	svccs	0x00061800
    4958:	00019b08 	andeq	r9, r1, r8, lsl #22
    495c:	05bc0e00 	ldreq	r0, [ip, #3584]!	; 0xe00
    4960:	31060000 	mrscc	r0, (UNDEF: 6)
    4964:	00019b13 	andeq	r9, r1, r3, lsl fp
    4968:	5f110000 	svcpl	0x00110000
    496c:	3206006b 	andcc	r0, r6, #107, 0	; 0x6b
    4970:	00002507 	andeq	r2, r0, r7, lsl #10
    4974:	040e0400 	streq	r0, [lr], #-1024	; 0xfffffc00
    4978:	06000006 	streq	r0, [r0], -r6
    497c:	00250b32 	eoreq	r0, r5, r2, lsr fp
    4980:	0e080000 	cdpeq	0, 0, cr0, cr8, cr0, {0}
    4984:	00000431 	andeq	r0, r0, r1, lsr r4
    4988:	25143206 	ldrcs	r3, [r4, #-518]	; 0xfffffdfa
    498c:	0c000000 	stceq	0, cr0, [r0], {-0}
    4990:	0006ab0e 	andeq	sl, r6, lr, lsl #22
    4994:	1b320600 	blne	c8619c <__bss_end__+0xc7ccd4>
    4998:	00000025 	andeq	r0, r0, r5, lsr #32
    499c:	785f1110 	ldmdavc	pc, {r4, r8, ip}^	; <UNPREDICTABLE>
    49a0:	0b330600 	bleq	cc61a8 <__bss_end__+0xcbcce0>
    49a4:	000001a1 	andeq	r0, r0, r1, lsr #3
    49a8:	04060014 	streq	r0, [r6], #-20	; 0xffffffec
    49ac:	00000141 	andeq	r0, r0, r1, asr #2
    49b0:	0001350b 	andeq	r3, r1, fp, lsl #10
    49b4:	0001b100 	andeq	fp, r1, r0, lsl #2
    49b8:	002c0c00 	eoreq	r0, ip, r0, lsl #24
    49bc:	00000000 	andeq	r0, r0, r0
    49c0:	00047510 	andeq	r7, r4, r0, lsl r5
    49c4:	37062400 	strcc	r2, [r6, -r0, lsl #8]
    49c8:	00023408 	andeq	r3, r2, r8, lsl #8
    49cc:	02bf0e00 	adcseq	r0, pc, #0, 28
    49d0:	39060000 	stmdbcc	r6, {}	; <UNPREDICTABLE>
    49d4:	00002509 	andeq	r2, r0, r9, lsl #10
    49d8:	440e0000 	strmi	r0, [lr], #-0
    49dc:	06000006 	streq	r0, [r0], -r6
    49e0:	0025093a 	eoreq	r0, r5, sl, lsr r9
    49e4:	0e040000 	cdpeq	0, 0, cr0, cr4, cr0, {0}
    49e8:	000002d4 	ldrdeq	r0, [r0], -r4
    49ec:	25093b06 	strcs	r3, [r9, #-2822]	; 0xfffff4fa
    49f0:	08000000 	stmdaeq	r0, {}	; <UNPREDICTABLE>
    49f4:	0007240e 	andeq	r2, r7, lr, lsl #8
    49f8:	093c0600 	ldmdbeq	ip!, {r9, sl}
    49fc:	00000025 	andeq	r0, r0, r5, lsr #32
    4a00:	05340e0c 	ldreq	r0, [r4, #-3596]!	; 0xfffff1f4
    4a04:	3d060000 	stccc	0, cr0, [r6, #-0]
    4a08:	00002509 	andeq	r2, r0, r9, lsl #10
    4a0c:	230e1000 	movwcs	r1, #57344	; 0xe000
    4a10:	06000005 	streq	r0, [r0], -r5
    4a14:	0025093e 	eoreq	r0, r5, lr, lsr r9
    4a18:	0e140000 	cdpeq	0, 1, cr0, cr4, cr0, {0}
    4a1c:	000006b0 			; <UNDEFINED> instruction: 0x000006b0
    4a20:	25093f06 	strcs	r3, [r9, #-3846]	; 0xfffff0fa
    4a24:	18000000 	stmdane	r0, {}	; <UNPREDICTABLE>
    4a28:	00057d0e 	andeq	r7, r5, lr, lsl #26
    4a2c:	09400600 	stmdbeq	r0, {r9, sl}^
    4a30:	00000025 	andeq	r0, r0, r5, lsr #32
    4a34:	06eb0e1c 	usateq	r0, #11, ip, lsl #28
    4a38:	41060000 	mrsmi	r0, (UNDEF: 6)
    4a3c:	00002509 	andeq	r2, r0, r9, lsl #10
    4a40:	12002000 	andne	r2, r0, #0, 0
    4a44:	000002e3 	andeq	r0, r0, r3, ror #5
    4a48:	4a060108 	bmi	184e70 <__bss_end__+0x17b9a8>
    4a4c:	00027908 	andeq	r7, r2, r8, lsl #18
    4a50:	04240e00 	strteq	r0, [r4], #-3584	; 0xfffff200
    4a54:	4b060000 	blmi	184a5c <__bss_end__+0x17b594>
    4a58:	0002790a 	andeq	r7, r2, sl, lsl #18
    4a5c:	4c0e0000 	stcmi	0, cr0, [lr], {-0}
    4a60:	06000002 	streq	r0, [r0], -r2
    4a64:	0279094c 	rsbseq	r0, r9, #76, 18	; 0x130000
    4a68:	13800000 	orrne	r0, r0, #0, 0
    4a6c:	00000668 	andeq	r0, r0, r8, ror #12
    4a70:	350a4e06 	strcc	r4, [sl, #-3590]	; 0xfffff1fa
    4a74:	00000001 	andeq	r0, r0, r1
    4a78:	03081301 	movweq	r1, #33537	; 0x8301
    4a7c:	51060000 	mrspl	r0, (UNDEF: 6)
    4a80:	0001350a 	andeq	r3, r1, sl, lsl #10
    4a84:	00010400 	andeq	r0, r1, r0, lsl #8
    4a88:	0000770b 	andeq	r7, r0, fp, lsl #14
    4a8c:	00028900 	andeq	r8, r2, r0, lsl #18
    4a90:	002c0c00 	eoreq	r0, ip, r0, lsl #24
    4a94:	001f0000 	andseq	r0, pc, r0
    4a98:	00053d12 	andeq	r3, r5, r2, lsl sp
    4a9c:	06019000 	streq	r9, [r1], -r0
    4aa0:	02cc085d 	sbceq	r0, ip, #6094848	; 0x5d0000
    4aa4:	bc0e0000 	stclt	0, cr0, [lr], {-0}
    4aa8:	06000005 	streq	r0, [r0], -r5
    4aac:	02cc125e 	sbceq	r1, ip, #-536870907	; 0xe0000005
    4ab0:	0e000000 	cdpeq	0, 0, cr0, cr0, cr0, {0}
    4ab4:	000005d4 	ldrdeq	r0, [r0], -r4
    4ab8:	25065f06 	strcs	r5, [r6, #-3846]	; 0xfffff0fa
    4abc:	04000000 	streq	r0, [r0], #-0
    4ac0:	00042c0e 	andeq	r2, r4, lr, lsl #24
    4ac4:	09610600 	stmdbeq	r1!, {r9, sl}^
    4ac8:	000002d2 	ldrdeq	r0, [r0], -r2
    4acc:	02e30e08 	rsceq	r0, r3, #8, 28	; 0x80
    4ad0:	62060000 	andvs	r0, r6, #0, 0
    4ad4:	0002341e 	andeq	r3, r2, lr, lsl r4
    4ad8:	06008800 	streq	r8, [r0], -r0, lsl #16
    4adc:	00028904 	andeq	r8, r2, r4, lsl #18
    4ae0:	02e20b00 	rsceq	r0, r2, #0, 22
    4ae4:	02e20000 	rsceq	r0, r2, #0, 0
    4ae8:	2c0c0000 	stccs	0, cr0, [ip], {-0}
    4aec:	1f000000 	svcne	0x00000000
    4af0:	e8040600 	stmda	r4, {r9, sl}
    4af4:	14000002 	strne	r0, [r0], #-2
    4af8:	00058710 	andeq	r8, r5, r0, lsl r7
    4afc:	75060800 	strvc	r0, [r6, #-2048]	; 0xfffff800
    4b00:	00031108 	andeq	r1, r3, r8, lsl #2
    4b04:	02ce0e00 	sbceq	r0, lr, #0, 28
    4b08:	76060000 	strvc	r0, [r6], -r0
    4b0c:	00031111 	andeq	r1, r3, r1, lsl r1
    4b10:	580e0000 	stmdapl	lr, {}	; <UNPREDICTABLE>
    4b14:	06000002 	streq	r0, [r0], -r2
    4b18:	00250677 	eoreq	r0, r5, r7, ror r6
    4b1c:	00040000 	andeq	r0, r4, r0
    4b20:	004f0406 	subeq	r0, pc, r6, lsl #8
    4b24:	a6100000 	ldrge	r0, [r0], -r0
    4b28:	68000005 	stmdavs	r0, {r0, r2}
    4b2c:	5a08b506 	bpl	231f4c <__bss_end__+0x228a84>
    4b30:	11000004 	tstne	r0, r4
    4b34:	0600705f 			; <UNDEFINED> instruction: 0x0600705f
    4b38:	031112b6 	tsteq	r1, #1610612747	; 0x6000000b
    4b3c:	11000000 	mrsne	r0, (UNDEF: 0)
    4b40:	0600725f 			; <UNDEFINED> instruction: 0x0600725f
    4b44:	002507b7 	strhteq	r0, [r5], -r7
    4b48:	11040000 	mrsne	r0, (UNDEF: 4)
    4b4c:	0600775f 			; <UNDEFINED> instruction: 0x0600775f
    4b50:	002507b8 	strhteq	r0, [r5], -r8
    4b54:	0e080000 	cdpeq	0, 0, cr0, cr8, cr0, {0}
    4b58:	00000301 	andeq	r0, r0, r1, lsl #6
    4b5c:	3a09b906 	bcc	272f7c <__bss_end__+0x269ab4>
    4b60:	0c000000 	stceq	0, cr0, [r0], {-0}
    4b64:	0004a20e 	andeq	sl, r4, lr, lsl #4
    4b68:	09ba0600 	ldmibeq	sl!, {r9, sl}
    4b6c:	0000003a 	andeq	r0, r0, sl, lsr r0
    4b70:	625f110e 	subsvs	r1, pc, #-2147483645	; 0x80000003
    4b74:	bb060066 	bllt	184d14 <__bss_end__+0x17b84c>
    4b78:	0002e911 	andeq	lr, r2, r1, lsl r9
    4b7c:	9c0e1000 	stcls	0, cr1, [lr], {-0}
    4b80:	06000002 	streq	r0, [r0], -r2
    4b84:	002507bc 	strhteq	r0, [r5], -ip
    4b88:	0e180000 	cdpeq	0, 1, cr0, cr8, cr0, {0}
    4b8c:	000002f1 	strdeq	r0, [r0], -r1
    4b90:	770ac306 	strvc	ip, [sl, -r6, lsl #6]
    4b94:	1c000000 	stcne	0, cr0, [r0], {-0}
    4b98:	000ae50e 	andeq	lr, sl, lr, lsl #10
    4b9c:	1dc50600 	stclne	6, cr0, [r5]
    4ba0:	000005cc 	andeq	r0, r0, ip, asr #11
    4ba4:	0aff0e20 	beq	fffc842c <__bss_end__+0xfffbef64>
    4ba8:	c7060000 	strgt	r0, [r6, -r0]
    4bac:	0005f61d 	andeq	pc, r5, sp, lsl r6	; <UNPREDICTABLE>
    4bb0:	280e2400 	stmdacs	lr, {sl, sp}
    4bb4:	06000006 	streq	r0, [r0], -r6
    4bb8:	061a0dca 	ldreq	r0, [sl], -sl, asr #27
    4bbc:	0e280000 	cdpeq	0, 2, cr0, cr8, cr0, {0}
    4bc0:	00000705 	andeq	r0, r0, r5, lsl #14
    4bc4:	3409cb06 	strcc	ip, [r9], #-2822	; 0xfffff4fa
    4bc8:	2c000006 	stccs	0, cr0, [r0], {6}
    4bcc:	62755f11 	rsbsvs	r5, r5, #68	; 0x44
    4bd0:	11ce0600 	bicne	r0, lr, r0, lsl #12
    4bd4:	000002e9 	andeq	r0, r0, r9, ror #5
    4bd8:	755f1130 	ldrbvc	r1, [pc, #-304]	; 4ab0 <__code_start__-0x3550>
    4bdc:	cf060070 	svcgt	0x00060070
    4be0:	00031112 	andeq	r1, r3, r2, lsl r1
    4be4:	5f113800 	svcpl	0x00113800
    4be8:	06007275 			; <UNDEFINED> instruction: 0x06007275
    4bec:	002507d0 	ldrdeq	r0, [r5], -r0	; <UNPREDICTABLE>
    4bf0:	0e3c0000 	cdpeq	0, 3, cr0, cr12, cr0, {0}
    4bf4:	000002c8 	andeq	r0, r0, r8, asr #5
    4bf8:	3a11d306 	bcc	479818 <__bss_end__+0x470350>
    4bfc:	40000006 	andmi	r0, r0, r6
    4c00:	0006dd0e 	andeq	sp, r6, lr, lsl #26
    4c04:	11d40600 	bicsne	r0, r4, r0, lsl #12
    4c08:	0000064a 	andeq	r0, r0, sl, asr #12
    4c0c:	6c5f1143 	ldfvse	f1, [pc], {67}	; 0x43
    4c10:	d7060062 	strle	r0, [r6, -r2, rrx]
    4c14:	0002e911 	andeq	lr, r2, r1, lsl r9
    4c18:	170e4400 	strne	r4, [lr, -r0, lsl #8]
    4c1c:	06000003 	streq	r0, [r0], -r3
    4c20:	002507da 	ldrdeq	r0, [r5], -sl	; <UNPREDICTABLE>
    4c24:	0e4c0000 	cdpeq	0, 4, cr0, cr12, cr0, {0}
    4c28:	00000328 	andeq	r0, r0, r8, lsr #6
    4c2c:	900adb06 	andls	sp, sl, r6, lsl #22
    4c30:	50000000 	andpl	r0, r0, r0
    4c34:	000a410e 	andeq	r4, sl, lr, lsl #2
    4c38:	12de0600 	sbcsne	r0, lr, #0, 12
    4c3c:	00000478 	andeq	r0, r0, r8, ror r4
    4c40:	06220e54 			; <UNDEFINED> instruction: 0x06220e54
    4c44:	e2060000 	and	r0, r6, #0, 0
    4c48:	0001170c 	andeq	r1, r1, ip, lsl #14
    4c4c:	ae0e5800 	cdpge	8, 0, cr5, cr14, cr0, {0}
    4c50:	06000005 	streq	r0, [r0], -r5
    4c54:	010b0ee4 	smlatteq	fp, r4, lr, r0
    4c58:	0e5c0000 	cdpeq	0, 5, cr0, cr12, cr0, {0}
    4c5c:	0000051b 	andeq	r0, r0, fp, lsl r5
    4c60:	2509e506 	strcs	lr, [r9, #-1286]	; 0xfffffafa
    4c64:	64000000 	strvs	r0, [r0], #-0
    4c68:	00251500 	eoreq	r1, r5, r0, lsl #10
    4c6c:	04780000 	ldrbteq	r0, [r8], #-0
    4c70:	78160000 	ldmdavc	r6, {}	; <UNPREDICTABLE>
    4c74:	16000004 	strne	r0, [r0], -r4
    4c78:	00000077 	andeq	r0, r0, r7, ror r0
    4c7c:	00012316 	andeq	r2, r1, r6, lsl r3
    4c80:	00251600 	eoreq	r1, r5, r0, lsl #12
    4c84:	06000000 	streq	r0, [r0], -r0
    4c88:	00048304 	andeq	r8, r4, r4, lsl #6
    4c8c:	04780f00 	ldrbteq	r0, [r8], #-3840	; 0xfffff100
    4c90:	0c170000 	ldceq	0, cr0, [r7], {-0}
    4c94:	28000006 	stmdacs	r0, {r1, r2}
    4c98:	02600604 	rsbeq	r0, r0, #4, 12	; 0x400000
    4c9c:	0005cc08 	andeq	ip, r5, r8, lsl #24
    4ca0:	05761800 	ldrbeq	r1, [r6, #-2048]!	; 0xfffff800
    4ca4:	62060000 	andvs	r0, r6, #0, 0
    4ca8:	00250702 	eoreq	r0, r5, r2, lsl #14
    4cac:	18000000 	stmdane	r0, {}	; <UNPREDICTABLE>
    4cb0:	00000310 	andeq	r0, r0, r0, lsl r3
    4cb4:	0b026706 	bleq	9e8d4 <__bss_end__+0x9540c>
    4cb8:	000006a6 	andeq	r0, r0, r6, lsr #13
    4cbc:	04921804 	ldreq	r1, [r2], #2052	; 0x804
    4cc0:	67060000 	strvs	r0, [r6, -r0]
    4cc4:	06a61402 	strteq	r1, [r6], r2, lsl #8
    4cc8:	18080000 	stmdane	r8, {}	; <UNPREDICTABLE>
    4ccc:	00000440 	andeq	r0, r0, r0, asr #8
    4cd0:	1e026706 	cdpne	7, 0, cr6, cr2, cr6, {0}
    4cd4:	000006a6 	andeq	r0, r0, r6, lsr #13
    4cd8:	05cf180c 	strbeq	r1, [pc, #2060]	; 54ec <__code_start__-0x2b14>
    4cdc:	69060000 	stmdbvs	r6, {}	; <UNPREDICTABLE>
    4ce0:	00250802 	eoreq	r0, r5, r2, lsl #16
    4ce4:	18100000 	ldmdane	r0, {}	; <UNPREDICTABLE>
    4ce8:	0000026d 	andeq	r0, r0, sp, ror #4
    4cec:	08026a06 	stmdaeq	r2, {r1, r2, r9, fp, sp, lr}
    4cf0:	000008a6 	andeq	r0, r0, r6, lsr #17
    4cf4:	05eb1814 	strbeq	r1, [fp, #2068]!	; 0x814
    4cf8:	6d060000 	stcvs	0, cr0, [r6, #-0]
    4cfc:	00250702 	eoreq	r0, r5, r2, lsl #14
    4d00:	18300000 	ldmdane	r0!, {}	; <UNPREDICTABLE>
    4d04:	000005d9 	ldrdeq	r0, [r0], -r9
    4d08:	16026e06 	strne	r6, [r2], -r6, lsl #28
    4d0c:	000008bb 			; <UNDEFINED> instruction: 0x000008bb
    4d10:	05451834 	strbeq	r1, [r5, #-2100]	; 0xfffff7cc
    4d14:	70060000 	andvc	r0, r6, r0
    4d18:	00250702 	eoreq	r0, r5, r2, lsl #14
    4d1c:	18380000 	ldmdane	r8!, {}	; <UNPREDICTABLE>
    4d20:	000005e1 	andeq	r0, r0, r1, ror #11
    4d24:	0a027206 	beq	a1544 <__bss_end__+0x9807c>
    4d28:	000008cc 	andeq	r0, r0, ip, asr #17
    4d2c:	04fe183c 	ldrbteq	r1, [lr], #2108	; 0x83c
    4d30:	75060000 	strvc	r0, [r6, #-0]
    4d34:	019b1302 	orrseq	r1, fp, r2, lsl #6
    4d38:	18400000 	stmdane	r0, {}^	; <UNPREDICTABLE>
    4d3c:	0000045f 	andeq	r0, r0, pc, asr r4
    4d40:	07027606 	streq	r7, [r2, -r6, lsl #12]
    4d44:	00000025 	andeq	r0, r0, r5, lsr #32
    4d48:	071f1844 	ldreq	r1, [pc, -r4, asr #16]
    4d4c:	77060000 	strvc	r0, [r6, -r0]
    4d50:	019b1302 	orrseq	r1, fp, r2, lsl #6
    4d54:	18480000 	stmdane	r8, {}^	; <UNPREDICTABLE>
    4d58:	00000557 	andeq	r0, r0, r7, asr r5
    4d5c:	14027806 	strne	r7, [r2], #-2054	; 0xfffff7fa
    4d60:	000008d2 	ldrdeq	r0, [r0], -r2
    4d64:	049a184c 	ldreq	r1, [sl], #2124	; 0x84c
    4d68:	7b060000 	blvc	184d70 <__bss_end__+0x17b8a8>
    4d6c:	00250702 	eoreq	r0, r5, r2, lsl #14
    4d70:	18500000 	ldmdane	r0, {}^	; <UNPREDICTABLE>
    4d74:	00000320 	andeq	r0, r0, r0, lsr #6
    4d78:	09027c06 	stmdbeq	r2, {r1, r2, sl, fp, ip, sp, lr}
    4d7c:	00000123 	andeq	r0, r0, r3, lsr #2
    4d80:	056f1854 	strbeq	r1, [pc, #-2132]!	; 4534 <__code_start__-0x3acc>
    4d84:	9f060000 	svcls	0x00060000
    4d88:	08810702 	stmeq	r1, {r1, r8, r9, sl}
    4d8c:	19580000 	ldmdbne	r8, {}^	; <UNPREDICTABLE>
    4d90:	0000053d 	andeq	r0, r0, sp, lsr r5
    4d94:	1302a306 	movwne	sl, #8966	; 0x2306
    4d98:	000002cc 	andeq	r0, r0, ip, asr #5
    4d9c:	d8190148 	ldmdale	r9, {r3, r6, r8}
    4da0:	06000004 	streq	r0, [r0], -r4
    4da4:	891202a4 	ldmdbhi	r2, {r2, r5, r7, r9}
    4da8:	4c000002 	stcmi	0, cr0, [r0], {2}
    4dac:	06d31901 	ldrbeq	r1, [r3], r1, lsl #18
    4db0:	a8060000 	stmdage	r6, {}	; <UNPREDICTABLE>
    4db4:	08e30c02 	stmiaeq	r3!, {r1, sl, fp}^
    4db8:	02dc0000 	sbcseq	r0, ip, #0, 0
    4dbc:	0002f919 	andeq	pc, r2, r9, lsl r9	; <UNPREDICTABLE>
    4dc0:	02ad0600 	adceq	r0, sp, #0, 12
    4dc4:	00066710 	andeq	r6, r6, r0, lsl r7
    4dc8:	1902e000 	stmdbne	r2, {sp, lr, pc}
    4dcc:	000002de 	ldrdeq	r0, [r0], -lr
    4dd0:	0a02af06 	beq	b09f0 <__bss_end__+0xa7528>
    4dd4:	000008ef 	andeq	r0, r0, pc, ror #17
    4dd8:	060002ec 	streq	r0, [r0], -ip, ror #5
    4ddc:	00045a04 	andeq	r5, r4, r4, lsl #20
    4de0:	00251500 	eoreq	r1, r5, r0, lsl #10
    4de4:	05f00000 	ldrbeq	r0, [r0, #0]!
    4de8:	78160000 	ldmdavc	r6, {}	; <UNPREDICTABLE>
    4dec:	16000004 	strne	r0, [r0], -r4
    4df0:	00000077 	andeq	r0, r0, r7, ror r0
    4df4:	0005f016 	andeq	pc, r5, r6, lsl r0	; <UNPREDICTABLE>
    4df8:	00251600 	eoreq	r1, r5, r0, lsl #12
    4dfc:	06000000 	streq	r0, [r0], -r0
    4e00:	00013004 	andeq	r3, r1, r4
    4e04:	d2040600 	andle	r0, r4, #0, 12
    4e08:	15000005 	strne	r0, [r0, #-5]
    4e0c:	0000009c 	muleq	r0, ip, r0
    4e10:	0000061a 	andeq	r0, r0, sl, lsl r6
    4e14:	00047816 	andeq	r7, r4, r6, lsl r8
    4e18:	00771600 	rsbseq	r1, r7, r0, lsl #12
    4e1c:	9c160000 	ldcls	0, cr0, [r6], {-0}
    4e20:	16000000 	strne	r0, [r0], -r0
    4e24:	00000025 	andeq	r0, r0, r5, lsr #32
    4e28:	fc040600 	stc2	6, cr0, [r4], {-0}
    4e2c:	15000005 	strne	r0, [r0, #-5]
    4e30:	00000025 	andeq	r0, r0, r5, lsr #32
    4e34:	00000634 	andeq	r0, r0, r4, lsr r6
    4e38:	00047816 	andeq	r7, r4, r6, lsl r8
    4e3c:	00771600 	rsbseq	r1, r7, r0, lsl #12
    4e40:	06000000 	streq	r0, [r0], -r0
    4e44:	00062004 	andeq	r2, r6, r4
    4e48:	004f0b00 	subeq	r0, pc, r0, lsl #22
    4e4c:	064a0000 	strbeq	r0, [sl], -r0
    4e50:	2c0c0000 	stccs	0, cr0, [ip], {-0}
    4e54:	02000000 	andeq	r0, r0, #0, 0
    4e58:	004f0b00 	subeq	r0, pc, r0, lsl #22
    4e5c:	065a0000 	ldrbeq	r0, [sl], -r0
    4e60:	2c0c0000 	stccs	0, cr0, [ip], {-0}
    4e64:	00000000 	andeq	r0, r0, r0
    4e68:	05940800 	ldreq	r0, [r4, #2048]	; 0x800
    4e6c:	1f060000 	svcne	0x00060000
    4e70:	03171a01 	tsteq	r7, #4096	; 0x1000
    4e74:	ba1a0000 	blt	684e7c <__bss_end__+0x67b9b4>
    4e78:	0c000006 	stceq	0, cr0, [r0], {6}
    4e7c:	08012306 	stmdaeq	r1, {r1, r2, r8, r9, sp}
    4e80:	000006a0 	andeq	r0, r0, r0, lsr #13
    4e84:	0005bc18 	andeq	fp, r5, r8, lsl ip
    4e88:	01250600 			; <UNDEFINED> instruction: 0x01250600
    4e8c:	0006a011 	andeq	sl, r6, r1, lsl r0
    4e90:	d1180000 	tstle	r8, r0
    4e94:	06000004 	streq	r0, [r0], -r4
    4e98:	25070126 	strcs	r0, [r7, #-294]	; 0xfffffeda
    4e9c:	04000000 	streq	r0, [r0], #-0
    4ea0:	00058e18 	andeq	r8, r5, r8, lsl lr
    4ea4:	01270600 			; <UNDEFINED> instruction: 0x01270600
    4ea8:	0006a60b 	andeq	sl, r6, fp, lsl #12
    4eac:	06000800 	streq	r0, [r0], -r0, lsl #16
    4eb0:	00066704 	andeq	r6, r6, r4, lsl #14
    4eb4:	5a040600 	bpl	1066bc <__bss_end__+0xfd1f4>
    4eb8:	1a000006 	bne	4ed8 <__code_start__-0x3128>
    4ebc:	00000265 	andeq	r0, r0, r5, ror #4
    4ec0:	013f060e 	teqeq	pc, lr, lsl #12
    4ec4:	0006e508 	andeq	lr, r6, r8, lsl #10
    4ec8:	06131800 	ldreq	r1, [r3], -r0, lsl #16
    4ecc:	40060000 	andmi	r0, r6, r0
    4ed0:	06e51201 	strbteq	r1, [r5], r1, lsl #4
    4ed4:	18000000 	stmdane	r0, {}	; <UNPREDICTABLE>
    4ed8:	0000064d 	andeq	r0, r0, sp, asr #12
    4edc:	12014106 	andne	r4, r1, #-2147483647	; 0x80000001
    4ee0:	000006e5 	andeq	r0, r0, r5, ror #13
    4ee4:	06711806 	ldrbteq	r1, [r1], -r6, lsl #16
    4ee8:	42060000 	andmi	r0, r6, #0, 0
    4eec:	00561201 	subseq	r1, r6, r1, lsl #4
    4ef0:	000c0000 	andeq	r0, ip, r0
    4ef4:	0000560b 	andeq	r5, r0, fp, lsl #12
    4ef8:	0006f500 	andeq	pc, r6, r0, lsl #10
    4efc:	002c0c00 	eoreq	r0, ip, r0, lsl #24
    4f00:	00020000 	andeq	r0, r2, r0
    4f04:	8006d01b 	andhi	sp, r6, fp, lsl r0
    4f08:	080a0702 	stmdaeq	sl, {r1, r8, r9, sl}
    4f0c:	9e180000 	cdpls	0, 1, cr0, cr8, cr0, {0}
    4f10:	06000006 	streq	r0, [r0], -r6
    4f14:	2c180282 	lfmcs	f0, 4, [r8], {130}	; 0x82
    4f18:	00000000 	andeq	r0, r0, r0
    4f1c:	00065318 	andeq	r5, r6, r8, lsl r3
    4f20:	02830600 	addeq	r0, r3, #0, 12
    4f24:	00012312 	andeq	r2, r1, r2, lsl r3
    4f28:	f1180400 			; <UNDEFINED> instruction: 0xf1180400
    4f2c:	06000004 	streq	r0, [r0], -r4
    4f30:	0a100284 	beq	405948 <__bss_end__+0x3fc480>
    4f34:	08000008 	stmdaeq	r0, {r3}
    4f38:	0006f618 	andeq	pc, r6, r8, lsl r6	; <UNPREDICTABLE>
    4f3c:	02850600 	addeq	r0, r5, #0, 12
    4f40:	0001b117 	andeq	fp, r1, r7, lsl r1
    4f44:	50182400 	andspl	r2, r8, r0, lsl #8
    4f48:	06000004 	streq	r0, [r0], -r4
    4f4c:	250f0286 	strcs	r0, [pc, #-646]	; 4cce <__code_start__-0x3332>
    4f50:	48000000 	stmdami	r0, {}	; <UNPREDICTABLE>
    4f54:	0005b718 	andeq	fp, r5, r8, lsl r7
    4f58:	02870600 	addeq	r0, r7, #0, 12
    4f5c:	0000702c 	andeq	r7, r0, ip, lsr #32
    4f60:	0c185000 	ldceq	0, cr5, [r8], {-0}
    4f64:	06000007 	streq	r0, [r0], -r7
    4f68:	ac1a0288 	lfmge	f0, 4, [sl], {136}	; 0x88
    4f6c:	58000006 	stmdapl	r0, {r1, r2}
    4f70:	0005c218 	andeq	ip, r5, r8, lsl r2
    4f74:	02890600 	addeq	r0, r9, #0, 12
    4f78:	00010b16 	andeq	r0, r1, r6, lsl fp
    4f7c:	11186800 	tstne	r8, r0, lsl #16
    4f80:	06000007 	streq	r0, [r0], -r7
    4f84:	0b16028a 	bleq	5859b4 <__bss_end__+0x57c4ec>
    4f88:	70000001 	andvc	r0, r0, r1
    4f8c:	00056118 	andeq	r6, r5, r8, lsl r1
    4f90:	028b0600 	addeq	r0, fp, #0, 12
    4f94:	00010b16 	andeq	r0, r1, r6, lsl fp
    4f98:	c9187800 	ldmdbgt	r8, {fp, ip, sp, lr}
    4f9c:	06000006 	streq	r0, [r0], -r6
    4fa0:	1a10028c 	bne	4059d8 <__bss_end__+0x3fc510>
    4fa4:	80000008 	andhi	r0, r0, r8
    4fa8:	00029018 	andeq	r9, r2, r8, lsl r0
    4fac:	028d0600 	addeq	r0, sp, #0, 12
    4fb0:	00082a10 	andeq	r2, r8, r0, lsl sl
    4fb4:	7e188800 	cdpvc	8, 1, cr8, cr8, cr0, {0}
    4fb8:	06000006 	streq	r0, [r0], -r6
    4fbc:	250f028e 	strcs	r0, [pc, #-654]	; 4d36 <__code_start__-0x32ca>
    4fc0:	a0000000 	andge	r0, r0, r0
    4fc4:	00041618 	andeq	r1, r4, r8, lsl r6
    4fc8:	028f0600 	addeq	r0, pc, #0, 12
    4fcc:	00010b16 	andeq	r0, r1, r6, lsl fp
    4fd0:	b018a400 	andslt	sl, r8, r0, lsl #8
    4fd4:	06000002 	streq	r0, [r0], -r2
    4fd8:	0b160290 	bleq	585a20 <__bss_end__+0x57c558>
    4fdc:	ac000001 	stcge	0, cr0, [r0], {1}
    4fe0:	00040518 	andeq	r0, r4, r8, lsl r5
    4fe4:	02910600 	addseq	r0, r1, #0, 12
    4fe8:	00010b16 	andeq	r0, r1, r6, lsl fp
    4fec:	8118b400 	tsthi	r8, r0, lsl #8
    4ff0:	06000002 	streq	r0, [r0], -r2
    4ff4:	0b160292 	bleq	585a44 <__bss_end__+0x57c57c>
    4ff8:	bc000001 	stclt	0, cr0, [r0], {1}
    4ffc:	00048118 	andeq	r8, r4, r8, lsl r1
    5000:	02930600 	addseq	r0, r3, #0, 12
    5004:	00010b16 	andeq	r0, r1, r6, lsl fp
    5008:	7418c400 	ldrvc	ip, [r8], #-1024	; 0xfffffc00
    500c:	06000005 	streq	r0, [r0], -r5
    5010:	25080294 	strcs	r0, [r8, #-660]	; 0xfffffd6c
    5014:	cc000000 	stcgt	0, cr0, [r0], {-0}
    5018:	01290b00 			; <UNDEFINED> instruction: 0x01290b00
    501c:	081a0000 	ldmdaeq	sl, {}	; <UNPREDICTABLE>
    5020:	2c0c0000 	stccs	0, cr0, [ip], {-0}
    5024:	19000000 	stmdbne	r0, {}	; <UNPREDICTABLE>
    5028:	01290b00 			; <UNDEFINED> instruction: 0x01290b00
    502c:	082a0000 	stmdaeq	sl!, {}	; <UNPREDICTABLE>
    5030:	2c0c0000 	stccs	0, cr0, [ip], {-0}
    5034:	07000000 	streq	r0, [r0, -r0]
    5038:	01290b00 			; <UNDEFINED> instruction: 0x01290b00
    503c:	083a0000 	ldmdaeq	sl!, {}	; <UNPREDICTABLE>
    5040:	2c0c0000 	stccs	0, cr0, [ip], {-0}
    5044:	17000000 	strne	r0, [r0, -r0]
    5048:	06f01b00 	ldrbteq	r1, [r0], r0, lsl #22
    504c:	61070299 			; <UNDEFINED> instruction: 0x61070299
    5050:	18000008 	stmdane	r0, {r3}
    5054:	0000052d 	andeq	r0, r0, sp, lsr #10
    5058:	1b029c06 	blne	ac078 <__bss_end__+0xa2bb0>
    505c:	00000861 	andeq	r0, r0, r1, ror #16
    5060:	06c01800 	strbeq	r1, [r0], r0, lsl #16
    5064:	9d060000 	stcls	0, cr0, [r6, #-0]
    5068:	08711802 	ldmdaeq	r1!, {r1, fp, ip}^
    506c:	00780000 	rsbseq	r0, r8, r0
    5070:	0003110b 	andeq	r1, r3, fp, lsl #2
    5074:	00087100 	andeq	r7, r8, r0, lsl #2
    5078:	002c0c00 	eoreq	r0, ip, r0, lsl #24
    507c:	001d0000 	andseq	r0, sp, r0
    5080:	00002c0b 	andeq	r2, r0, fp, lsl #24
    5084:	00088100 	andeq	r8, r8, r0, lsl #2
    5088:	002c0c00 	eoreq	r0, ip, r0, lsl #24
    508c:	001d0000 	andseq	r0, sp, r0
    5090:	7e06f01c 	mcrvc	0, 0, pc, cr6, cr12, {0}	; <UNPREDICTABLE>
    5094:	08a60302 	stmiaeq	r6!, {r1, r8, r9}
    5098:	0c1d0000 	ldceq	0, cr0, [sp], {-0}
    509c:	06000006 	streq	r0, [r0], -r6
    50a0:	f50b0295 			; <UNDEFINED> instruction: 0xf50b0295
    50a4:	1d000006 	stcne	0, cr0, [r0, #-24]	; 0xffffffe8
    50a8:	000006e3 	andeq	r0, r0, r3, ror #13
    50ac:	0b029e06 	bleq	ac8cc <__bss_end__+0xa3404>
    50b0:	0000083a 	andeq	r0, r0, sl, lsr r8
    50b4:	01290b00 			; <UNDEFINED> instruction: 0x01290b00
    50b8:	08b60000 	ldmeq	r6!, {}	; <UNPREDICTABLE>
    50bc:	2c0c0000 	stccs	0, cr0, [ip], {-0}
    50c0:	18000000 	stmdane	r0, {}	; <UNPREDICTABLE>
    50c4:	02a50700 	adceq	r0, r5, #0, 14
    50c8:	04060000 	streq	r0, [r6], #-0
    50cc:	000008b6 			; <UNDEFINED> instruction: 0x000008b6
    50d0:	0008cc1e 	andeq	ip, r8, lr, lsl ip
    50d4:	04781600 	ldrbteq	r1, [r8], #-1536	; 0xfffffa00
    50d8:	06000000 	streq	r0, [r0], -r0
    50dc:	0008c104 	andeq	ip, r8, r4, lsl #2
    50e0:	9b040600 	blls	1068e8 <__bss_end__+0xfd420>
    50e4:	1e000001 	cdpne	0, 0, cr0, cr0, cr1, {0}
    50e8:	000008e3 	andeq	r0, r0, r3, ror #17
    50ec:	00002516 	andeq	r2, r0, r6, lsl r5
    50f0:	04060000 	streq	r0, [r6], #-0
    50f4:	000008e9 	andeq	r0, r0, r9, ror #17
    50f8:	08d80406 	ldmeq	r8, {r1, r2, sl}^
    50fc:	5a0b0000 	bpl	2c5104 <__bss_end__+0x2bbc3c>
    5100:	ff000006 			; <UNDEFINED> instruction: 0xff000006
    5104:	0c000008 	stceq	0, cr0, [r0], {8}
    5108:	0000002c 	andeq	r0, r0, ip, lsr #32
    510c:	921f0002 	andsls	r0, pc, #2, 0
    5110:	06000006 	streq	r0, [r0], -r6
    5114:	7817032e 	ldmdavc	r7, {r1, r2, r3, r5, r8, r9}
    5118:	1f000004 	svcne	0x00000004
    511c:	0000068b 	andeq	r0, r0, fp, lsl #13
    5120:	1d032f06 	stcne	15, cr2, [r3, #-24]	; 0xffffffe8
    5124:	0000047e 	andeq	r0, r0, lr, ror r4
    5128:	00063604 	andeq	r3, r6, r4, lsl #12
    512c:	0f210700 	svceq	0x00210700
    5130:	00000925 	andeq	r0, r0, r5, lsr #18
    5134:	092b0406 	stmdbeq	fp!, {r1, r2, sl}
    5138:	25150000 	ldrcs	r0, [r5, #-0]
    513c:	3a000000 	bcc	5144 <__code_start__-0x2ebc>
    5140:	16000009 	strne	r0, [r0], -r9
    5144:	00000025 	andeq	r0, r0, r5, lsr #32
    5148:	04692000 	strbteq	r2, [r9], #-0
    514c:	23070000 	movwcs	r0, #28672	; 0x7000
    5150:	00091916 	andeq	r1, r9, r6, lsl r9
    5154:	090a2100 	stmdbeq	sl, {r8, sp}
    5158:	21010000 	mrscs	r0, (UNDEF: 1)
    515c:	008cac06 	addeq	sl, ip, r6, lsl #24
    5160:	00001800 	andeq	r1, r0, r0, lsl #16
    5164:	909c0100 	addsls	r0, ip, r0, lsl #2
    5168:	22000009 	andcs	r0, r0, #9, 0
    516c:	00636573 	rsbeq	r6, r3, r3, ror r5
    5170:	5d192101 	ldfpls	f2, [r9, #-4]
    5174:	91000000 	mrsls	r0, (UNDEF: 0)
    5178:	8d00000a 	stchi	0, cr0, [r0, #-40]	; 0xffffffd8
    517c:	2300000a 	movwcs	r0, #10
    5180:	00008cc0 	andeq	r8, r0, r0, asr #25
    5184:	00000990 	muleq	r0, r0, r9
    5188:	11500124 	cmpne	r0, r4, lsr #2
    518c:	355001f3 	ldrbcc	r0, [r0, #-499]	; 0xfffffe0d
    5190:	5001f324 	andpl	pc, r1, r4, lsr #6
    5194:	f324321c 	vqsub.u32	d3, d4, d12
    5198:	33225001 			; <UNDEFINED> instruction: 0x33225001
    519c:	21000024 	tstcs	r0, r4, lsr #32
    51a0:	000007db 	ldrdeq	r0, [r0], -fp
    51a4:	94061c01 	strls	r1, [r6], #-3073	; 0xfffff3ff
    51a8:	1800008c 	stmdane	r0, {r2, r3, r7}
    51ac:	01000000 	mrseq	r0, (UNDEF: 0)
    51b0:	0009d99c 	muleq	r9, ip, r9
    51b4:	736d2200 	cmnvc	sp, #0, 4
    51b8:	181c0100 	ldmdane	ip, {r8}
    51bc:	0000005d 	andeq	r0, r0, sp, asr r0
    51c0:	00000ab6 			; <UNDEFINED> instruction: 0x00000ab6
    51c4:	00000ab2 			; <UNDEFINED> instruction: 0x00000ab2
    51c8:	008ca823 	addeq	sl, ip, r3, lsr #16
    51cc:	0009d900 	andeq	sp, r9, r0, lsl #18
    51d0:	50012400 	andpl	r2, r1, r0, lsl #8
    51d4:	5001f311 	andpl	pc, r1, r1, lsl r3	; <UNPREDICTABLE>
    51d8:	01f32435 	mvnseq	r2, r5, lsr r4
    51dc:	24321c50 	ldrtcs	r1, [r2], #-3152	; 0xfffff3b0
    51e0:	225001f3 	subscs	r0, r0, #-1073741764	; 0xc000003c
    51e4:	00002433 	andeq	r2, r0, r3, lsr r4
    51e8:	00094d21 	andeq	r4, r9, r1, lsr #26
    51ec:	06120100 	ldreq	r0, [r2], -r0, lsl #2
    51f0:	00008c70 	andeq	r8, r0, r0, ror ip
    51f4:	00000024 	andeq	r0, r0, r4, lsr #32
    51f8:	0a479c01 	beq	11ec204 <__bss_end__+0x11e2d3c>
    51fc:	75220000 	strvc	r0, [r2, #-0]!
    5200:	12010073 	andne	r0, r1, #115, 0	; 0x73
    5204:	00005d18 	andeq	r5, r0, r8, lsl sp
    5208:	000adb00 	andeq	sp, sl, r0, lsl #22
    520c:	000ad700 	andeq	sp, sl, r0, lsl #14
    5210:	00732500 	rsbseq	r2, r3, r0, lsl #10
    5214:	5d0e1301 	stcpl	3, cr1, [lr, #-4]
    5218:	fb000000 	blx	5222 <__code_start__-0x2dde>
    521c:	f900000a 			; <UNDEFINED> instruction: 0xf900000a
    5220:	2600000a 	strcs	r0, [r0], -sl
    5224:	00008c80 	andeq	r8, r0, r0, lsl #25
    5228:	00000014 	andeq	r0, r0, r4, lsl r0
    522c:	00000a3d 	andeq	r0, r0, sp, lsr sl
    5230:	01006525 	tsteq	r0, r5, lsr #10
    5234:	005d1215 	subseq	r1, sp, r5, lsl r2
    5238:	0b100000 	bleq	405240 <__bss_end__+0x3fbd78>
    523c:	0b0e0000 	bleq	385244 <__bss_end__+0x37bd7c>
    5240:	84270000 	strthi	r0, [r7], #-0
    5244:	4700008c 	strmi	r0, [r0, -ip, lsl #1]
    5248:	0000000a 	andeq	r0, r0, sl
    524c:	008c7c27 	addeq	r7, ip, r7, lsr #24
    5250:	000a4700 	andeq	r4, sl, r0, lsl #14
    5254:	fb280000 	blx	a0525e <__bss_end__+0x9fbd96>
    5258:	01000008 	tsteq	r0, r8
    525c:	005d0a0b 	subseq	r0, sp, fp, lsl #20
    5260:	8c540000 	mrahi	r0, r4, acc0
    5264:	001c0000 	andseq	r0, ip, r0
    5268:	9c010000 	stcls	0, cr0, [r1], {-0}
    526c:	00000a8f 	andeq	r0, r0, pc, lsl #21
    5270:	01007525 	tsteq	r0, r5, lsr #10
    5274:	005d0e0d 	subseq	r0, sp, sp, lsl #28
    5278:	0b270000 	bleq	9c5280 <__bss_end__+0x9bbdb8>
    527c:	0b230000 	bleq	8c5284 <__bss_end__+0x8bbdbc>
    5280:	5c270000 	stcpl	0, cr0, [r7], #-0
    5284:	bd00008c 	stclt	0, cr0, [r0, #-560]	; 0xfffffdd0
    5288:	2700000a 	strcs	r0, [r0, -sl]
    528c:	00008c60 	andeq	r8, r0, r0, ror #24
    5290:	00000a8f 	andeq	r0, r0, pc, lsl #21
    5294:	008c6827 	addeq	r6, ip, r7, lsr #16
    5298:	000abd00 	andeq	fp, sl, r0, lsl #26
    529c:	3a280000 	bcc	a052a4 <__bss_end__+0x9fbddc>
    52a0:	01000009 	tsteq	r0, r9
    52a4:	005d0a04 	subseq	r0, sp, r4, lsl #20
    52a8:	8c400000 	marhi	acc0, r0, r0
    52ac:	00140000 	andseq	r0, r4, r0
    52b0:	9c010000 	stcls	0, cr0, [r1], {-0}
    52b4:	00000abd 			; <UNDEFINED> instruction: 0x00000abd
    52b8:	008c4c23 	addeq	r4, ip, r3, lsr #24
    52bc:	000ac900 	andeq	ip, sl, r0, lsl #18
    52c0:	50012400 	andpl	r2, r1, r0, lsl #8
    52c4:	30040c05 	andcc	r0, r4, r5, lsl #24
    52c8:	00002000 	andeq	r2, r0, r0
    52cc:	00092829 	andeq	r2, r9, r9, lsr #16
    52d0:	00092800 	andeq	r2, r9, r0, lsl #16
    52d4:	06840700 	streq	r0, [r4], r0, lsl #14
    52d8:	00093429 	andeq	r3, r9, r9, lsr #8
    52dc:	00093400 	andeq	r3, r9, r0, lsl #8
    52e0:	0aa80700 	beq	fea06ee8 <__bss_end__+0xfe9fda20>
    52e4:	000e6200 	andeq	r6, lr, r0, lsl #4
    52e8:	b4000400 	strlt	r0, [r0], #-1024	; 0xfffffc00
    52ec:	04000012 	streq	r0, [r0], #-18	; 0xffffffee
    52f0:	00033001 	andeq	r3, r3, r1
    52f4:	0a0e0c00 	beq	3882fc <__bss_end__+0x37ee34>
    52f8:	04a80000 	strteq	r0, [r8], #0
    52fc:	00a80000 	adceq	r0, r8, r0
    5300:	00000000 	andeq	r0, r0, r0
    5304:	10b70000 	adcsne	r0, r7, r0
    5308:	04020000 	streq	r0, [r2], #-0
    530c:	746e6905 	strbtvc	r6, [lr], #-2309	; 0xfffff6fb
    5310:	07040300 	streq	r0, [r4, -r0, lsl #6]
    5314:	000001ae 	andeq	r0, r0, lr, lsr #3
    5318:	5c060103 	stfpls	f0, [r6], {3}
    531c:	03000000 	movweq	r0, #0
    5320:	01fe0502 	mvnseq	r0, r2, lsl #10
    5324:	04030000 	streq	r0, [r3], #-0
    5328:	0001ed05 	andeq	lr, r1, r5, lsl #26
    532c:	05080300 	streq	r0, [r8, #-768]	; 0xfffffd00
    5330:	000001e8 	andeq	r0, r0, r8, ror #3
    5334:	00089404 	andeq	r9, r8, r4, lsl #8
    5338:	182e0200 	stmdane	lr!, {r9}
    533c:	0000005b 	andeq	r0, r0, fp, asr r0
    5340:	5a080103 	bpl	205754 <__bss_end__+0x1fc28c>
    5344:	03000000 	movweq	r0, #0
    5348:	001c0702 	andseq	r0, ip, r2, lsl #14
    534c:	1b040000 	blne	105354 <__bss_end__+0xfbe8c>
    5350:	02000002 	andeq	r0, r0, #2, 0
    5354:	00751934 	rsbseq	r1, r5, r4, lsr r9
    5358:	04030000 	streq	r0, [r3], #-0
    535c:	0001a907 	andeq	sl, r1, r7, lsl #18
    5360:	07080300 	streq	r0, [r8, -r0, lsl #6]
    5364:	000001a4 	andeq	r0, r0, r4, lsr #3
    5368:	0c040405 	cfstrseq	mvf0, [r4], {5}
    536c:	03000005 	movweq	r0, #5
    5370:	00911922 	addseq	r1, r1, r2, lsr #18
    5374:	04060000 	streq	r0, [r6], #-0
    5378:	00000097 	muleq	r0, r7, r0
    537c:	00062107 	andeq	r2, r6, r7, lsl #2
    5380:	05500400 	ldrbeq	r0, [r0, #-1024]	; 0xfffffc00
    5384:	2c040000 	stccs	0, cr0, [r4], {-0}
    5388:	0000410e 	andeq	r4, r0, lr, lsl #2
    538c:	062e0400 	strteq	r0, [lr], -r0, lsl #8
    5390:	72040000 	andvc	r0, r4, #0, 0
    5394:	0000410e 	andeq	r4, r0, lr, lsl #2
    5398:	05140800 	ldreq	r0, [r4, #-2048]	; 0xfffff800
    539c:	5e050000 	cdppl	0, 0, cr0, cr5, cr0, {0}
    53a0:	002c1701 	eoreq	r1, ip, r1, lsl #14
    53a4:	04090000 	streq	r0, [r9], #-0
    53a8:	e303a604 	movw	sl, #13828	; 0x3604
    53ac:	0a000000 	beq	53b4 <__code_start__-0x2c4c>
    53b0:	00000506 	andeq	r0, r0, r6, lsl #10
    53b4:	b40ca804 	strlt	sl, [ip], #-2052	; 0xfffff7fc
    53b8:	0a000000 	beq	53c0 <__code_start__-0x2c40>
    53bc:	0000047a 	andeq	r0, r0, sl, ror r4
    53c0:	e313a904 	tst	r3, #4, 18	; 0x10000
    53c4:	00000000 	andeq	r0, r0, r0
    53c8:	00005b0b 	andeq	r5, r0, fp, lsl #22
    53cc:	0000f300 	andeq	pc, r0, r0, lsl #6
    53d0:	002c0c00 	eoreq	r0, ip, r0, lsl #24
    53d4:	00030000 	andeq	r0, r3, r0
    53d8:	a304080d 	movwge	r0, #18445	; 0x480d
    53dc:	00011709 	andeq	r1, r1, r9, lsl #14
    53e0:	06190e00 	ldreq	r0, [r9], -r0, lsl #28
    53e4:	a5040000 	strge	r0, [r4, #-0]
    53e8:	00002507 	andeq	r2, r0, r7, lsl #10
    53ec:	600e0000 	andvs	r0, lr, r0
    53f0:	04000006 	streq	r0, [r0], #-6
    53f4:	00c105aa 	sbceq	r0, r1, sl, lsr #11
    53f8:	00040000 	andeq	r0, r4, r0
    53fc:	00059b04 	andeq	r9, r5, r4, lsl #22
    5400:	03ab0400 			; <UNDEFINED> instruction: 0x03ab0400
    5404:	000000f3 	strdeq	r0, [r0], -r3
    5408:	00043704 	andeq	r3, r4, r4, lsl #14
    540c:	1baf0400 	blne	febc6414 <__bss_end__+0xfebbcf4c>
    5410:	00000085 	andeq	r0, r0, r5, lsl #1
    5414:	01350406 	teqeq	r5, r6, lsl #8
    5418:	01030000 	mrseq	r0, (UNDEF: 3)
    541c:	00006308 	andeq	r6, r0, r8, lsl #6
    5420:	01350f00 	teqeq	r5, r0, lsl #30
    5424:	76040000 	strvc	r0, [r4], -r0
    5428:	06000006 	streq	r0, [r0], -r6
    542c:	00751916 	rsbseq	r1, r5, r6, lsl r9
    5430:	48100000 	ldmdami	r0, {}	; <UNPREDICTABLE>
    5434:	18000004 	stmdane	r0, {r2}
    5438:	a7082f06 	strge	r2, [r8, -r6, lsl #30]
    543c:	0e000001 	cdpeq	0, 0, cr0, cr0, cr1, {0}
    5440:	000005bc 			; <UNDEFINED> instruction: 0x000005bc
    5444:	a7133106 	ldrge	r3, [r3, -r6, lsl #2]
    5448:	00000001 	andeq	r0, r0, r1
    544c:	006b5f11 	rsbeq	r5, fp, r1, lsl pc
    5450:	25073206 	strcs	r3, [r7, #-518]	; 0xfffffdfa
    5454:	04000000 	streq	r0, [r0], #-0
    5458:	0006040e 	andeq	r0, r6, lr, lsl #8
    545c:	0b320600 	bleq	c86c64 <__bss_end__+0xc7d79c>
    5460:	00000025 	andeq	r0, r0, r5, lsr #32
    5464:	04310e08 	ldrteq	r0, [r1], #-3592	; 0xfffff1f8
    5468:	32060000 	andcc	r0, r6, #0, 0
    546c:	00002514 	andeq	r2, r0, r4, lsl r5
    5470:	ab0e0c00 	blge	388478 <__bss_end__+0x37efb0>
    5474:	06000006 	streq	r0, [r0], -r6
    5478:	00251b32 	eoreq	r1, r5, r2, lsr fp
    547c:	11100000 	tstne	r0, r0
    5480:	0600785f 			; <UNDEFINED> instruction: 0x0600785f
    5484:	01ad0b33 			; <UNDEFINED> instruction: 0x01ad0b33
    5488:	00140000 	andseq	r0, r4, r0
    548c:	014d0406 	cmpeq	sp, r6, lsl #8
    5490:	410b0000 	mrsmi	r0, (UNDEF: 11)
    5494:	bd000001 	stclt	0, cr0, [r0, #-4]
    5498:	0c000001 	stceq	0, cr0, [r0], {1}
    549c:	0000002c 	andeq	r0, r0, ip, lsr #32
    54a0:	75100000 	ldrvc	r0, [r0, #-0]
    54a4:	24000004 	strcs	r0, [r0], #-4
    54a8:	40083706 	andmi	r3, r8, r6, lsl #14
    54ac:	0e000002 	cdpeq	0, 0, cr0, cr0, cr2, {0}
    54b0:	000002bf 			; <UNDEFINED> instruction: 0x000002bf
    54b4:	25093906 	strcs	r3, [r9, #-2310]	; 0xfffff6fa
    54b8:	00000000 	andeq	r0, r0, r0
    54bc:	0006440e 	andeq	r4, r6, lr, lsl #8
    54c0:	093a0600 	ldmdbeq	sl!, {r9, sl}
    54c4:	00000025 	andeq	r0, r0, r5, lsr #32
    54c8:	02d40e04 	sbcseq	r0, r4, #4, 28	; 0x40
    54cc:	3b060000 	blcc	1854d4 <__bss_end__+0x17c00c>
    54d0:	00002509 	andeq	r2, r0, r9, lsl #10
    54d4:	240e0800 	strcs	r0, [lr], #-2048	; 0xfffff800
    54d8:	06000007 	streq	r0, [r0], -r7
    54dc:	0025093c 	eoreq	r0, r5, ip, lsr r9
    54e0:	0e0c0000 	cdpeq	0, 0, cr0, cr12, cr0, {0}
    54e4:	00000534 	andeq	r0, r0, r4, lsr r5
    54e8:	25093d06 	strcs	r3, [r9, #-3334]	; 0xfffff2fa
    54ec:	10000000 	andne	r0, r0, r0
    54f0:	0005230e 	andeq	r2, r5, lr, lsl #6
    54f4:	093e0600 	ldmdbeq	lr!, {r9, sl}
    54f8:	00000025 	andeq	r0, r0, r5, lsr #32
    54fc:	06b00e14 	ssateq	r0, #17, r4, lsl #28
    5500:	3f060000 	svccc	0x00060000
    5504:	00002509 	andeq	r2, r0, r9, lsl #10
    5508:	7d0e1800 	stcvc	8, cr1, [lr, #-0]
    550c:	06000005 	streq	r0, [r0], -r5
    5510:	00250940 	eoreq	r0, r5, r0, asr #18
    5514:	0e1c0000 	cdpeq	0, 1, cr0, cr12, cr0, {0}
    5518:	000006eb 	andeq	r0, r0, fp, ror #13
    551c:	25094106 	strcs	r4, [r9, #-262]	; 0xfffffefa
    5520:	20000000 	andcs	r0, r0, r0
    5524:	02e31200 	rsceq	r1, r3, #0, 4
    5528:	01080000 	mrseq	r0, (UNDEF: 8)
    552c:	85084a06 	strhi	r4, [r8, #-2566]	; 0xfffff5fa
    5530:	0e000002 	cdpeq	0, 0, cr0, cr0, cr2, {0}
    5534:	00000424 	andeq	r0, r0, r4, lsr #8
    5538:	850a4b06 	strhi	r4, [sl, #-2822]	; 0xfffff4fa
    553c:	00000002 	andeq	r0, r0, r2
    5540:	00024c0e 	andeq	r4, r2, lr, lsl #24
    5544:	094c0600 	stmdbeq	ip, {r9, sl}^
    5548:	00000285 	andeq	r0, r0, r5, lsl #5
    554c:	06681380 	strbteq	r1, [r8], -r0, lsl #7
    5550:	4e060000 	cdpmi	0, 0, cr0, cr6, cr0, {0}
    5554:	0001410a 	andeq	r4, r1, sl, lsl #2
    5558:	13010000 	movwne	r0, #4096	; 0x1000
    555c:	00000308 	andeq	r0, r0, r8, lsl #6
    5560:	410a5106 	tstmi	sl, r6, lsl #2
    5564:	04000001 	streq	r0, [r0], #-1
    5568:	830b0001 	movwhi	r0, #45057	; 0xb001
    556c:	95000000 	strls	r0, [r0, #-0]
    5570:	0c000002 	stceq	0, cr0, [r0], {2}
    5574:	0000002c 	andeq	r0, r0, ip, lsr #32
    5578:	3d12001f 	ldccc	0, cr0, [r2, #-124]	; 0xffffff84
    557c:	90000005 	andls	r0, r0, r5
    5580:	085d0601 	ldmdaeq	sp, {r0, r9, sl}^
    5584:	000002d8 	ldrdeq	r0, [r0], -r8
    5588:	0005bc0e 	andeq	fp, r5, lr, lsl #24
    558c:	125e0600 	subsne	r0, lr, #0, 12
    5590:	000002d8 	ldrdeq	r0, [r0], -r8
    5594:	05d40e00 	ldrbeq	r0, [r4, #3584]	; 0xe00
    5598:	5f060000 	svcpl	0x00060000
    559c:	00002506 	andeq	r2, r0, r6, lsl #10
    55a0:	2c0e0400 	cfstrscs	mvf0, [lr], {-0}
    55a4:	06000004 	streq	r0, [r0], -r4
    55a8:	02de0961 	sbcseq	r0, lr, #1589248	; 0x184000
    55ac:	0e080000 	cdpeq	0, 0, cr0, cr8, cr0, {0}
    55b0:	000002e3 	andeq	r0, r0, r3, ror #5
    55b4:	401e6206 	andsmi	r6, lr, r6, lsl #4
    55b8:	88000002 	stmdahi	r0, {r1}
    55bc:	95040600 	strls	r0, [r4, #-1536]	; 0xfffffa00
    55c0:	0b000002 	bleq	55d0 <__code_start__-0x2a30>
    55c4:	000002ee 	andeq	r0, r0, lr, ror #5
    55c8:	000002ee 	andeq	r0, r0, lr, ror #5
    55cc:	00002c0c 	andeq	r2, r0, ip, lsl #24
    55d0:	06001f00 	streq	r1, [r0], -r0, lsl #30
    55d4:	0002f404 	andeq	pc, r2, r4, lsl #8
    55d8:	87101400 	ldrhi	r1, [r0, -r0, lsl #8]
    55dc:	08000005 	stmdaeq	r0, {r0, r2}
    55e0:	1d087506 	cfstr32ne	mvfx7, [r8, #-24]	; 0xffffffe8
    55e4:	0e000003 	cdpeq	0, 0, cr0, cr0, cr3, {0}
    55e8:	000002ce 	andeq	r0, r0, lr, asr #5
    55ec:	1d117606 	ldcne	6, cr7, [r1, #-24]	; 0xffffffe8
    55f0:	00000003 	andeq	r0, r0, r3
    55f4:	0002580e 	andeq	r5, r2, lr, lsl #16
    55f8:	06770600 	ldrbteq	r0, [r7], -r0, lsl #12
    55fc:	00000025 	andeq	r0, r0, r5, lsr #32
    5600:	04060004 	streq	r0, [r6], #-4
    5604:	0000005b 	andeq	r0, r0, fp, asr r0
    5608:	0005a610 	andeq	sl, r5, r0, lsl r6
    560c:	b5066800 	strlt	r6, [r6, #-2048]	; 0xfffff800
    5610:	00046608 	andeq	r6, r4, r8, lsl #12
    5614:	705f1100 	subsvc	r1, pc, r0, lsl #2
    5618:	12b60600 	adcsne	r0, r6, #0, 12
    561c:	0000031d 	andeq	r0, r0, sp, lsl r3
    5620:	725f1100 	subsvc	r1, pc, #0
    5624:	07b70600 	ldreq	r0, [r7, r0, lsl #12]!
    5628:	00000025 	andeq	r0, r0, r5, lsr #32
    562c:	775f1104 	ldrbvc	r1, [pc, -r4, lsl #2]
    5630:	07b80600 	ldreq	r0, [r8, r0, lsl #12]!
    5634:	00000025 	andeq	r0, r0, r5, lsr #32
    5638:	03010e08 	movweq	r0, #7688	; 0x1e08
    563c:	b9060000 	stmdblt	r6, {}	; <UNPREDICTABLE>
    5640:	00003a09 	andeq	r3, r0, r9, lsl #20
    5644:	a20e0c00 	andge	r0, lr, #0, 24
    5648:	06000004 	streq	r0, [r0], -r4
    564c:	003a09ba 	ldrhteq	r0, [sl], -sl
    5650:	110e0000 	mrsne	r0, (UNDEF: 14)
    5654:	0066625f 	rsbeq	r6, r6, pc, asr r2
    5658:	f511bb06 			; <UNDEFINED> instruction: 0xf511bb06
    565c:	10000002 	andne	r0, r0, r2
    5660:	00029c0e 	andeq	r9, r2, lr, lsl #24
    5664:	07bc0600 	ldreq	r0, [ip, r0, lsl #12]!
    5668:	00000025 	andeq	r0, r0, r5, lsr #32
    566c:	02f10e18 	rscseq	r0, r1, #24, 28	; 0x180
    5670:	c3060000 	movwgt	r0, #24576	; 0x6000
    5674:	0000830a 	andeq	r8, r0, sl, lsl #6
    5678:	e50e1c00 	str	r1, [lr, #-3072]	; 0xfffff400
    567c:	0600000a 	streq	r0, [r0], -sl
    5680:	05d81dc5 	ldrbeq	r1, [r8, #3525]	; 0xdc5
    5684:	0e200000 	cdpeq	0, 2, cr0, cr0, cr0, {0}
    5688:	00000aff 	strdeq	r0, [r0], -pc	; <UNPREDICTABLE>
    568c:	021dc706 	andseq	ip, sp, #1572864	; 0x180000
    5690:	24000006 	strcs	r0, [r0], #-6
    5694:	0006280e 	andeq	r2, r6, lr, lsl #16
    5698:	0dca0600 	stcleq	6, cr0, [sl]
    569c:	00000626 	andeq	r0, r0, r6, lsr #12
    56a0:	07050e28 	streq	r0, [r5, -r8, lsr #28]
    56a4:	cb060000 	blgt	1856ac <__bss_end__+0x17c1e4>
    56a8:	00064009 	andeq	r4, r6, r9
    56ac:	5f112c00 	svcpl	0x00112c00
    56b0:	06006275 			; <UNDEFINED> instruction: 0x06006275
    56b4:	02f511ce 	rscseq	r1, r5, #-2147483597	; 0x80000033
    56b8:	11300000 	teqne	r0, r0
    56bc:	0070755f 	rsbseq	r7, r0, pc, asr r5
    56c0:	1d12cf06 	ldcne	15, cr12, [r2, #-24]	; 0xffffffe8
    56c4:	38000003 	stmdacc	r0, {r0, r1}
    56c8:	72755f11 	rsbsvc	r5, r5, #68	; 0x44
    56cc:	07d00600 	ldrbeq	r0, [r0, r0, lsl #12]
    56d0:	00000025 	andeq	r0, r0, r5, lsr #32
    56d4:	02c80e3c 	sbceq	r0, r8, #60, 28	; 0x3c0
    56d8:	d3060000 	movwle	r0, #24576	; 0x6000
    56dc:	00064611 	andeq	r4, r6, r1, lsl r6
    56e0:	dd0e4000 	stcle	0, cr4, [lr, #-0]
    56e4:	06000006 	streq	r0, [r0], -r6
    56e8:	065611d4 			; <UNDEFINED> instruction: 0x065611d4
    56ec:	11430000 	mrsne	r0, (UNDEF: 67)
    56f0:	00626c5f 	rsbeq	r6, r2, pc, asr ip
    56f4:	f511d706 			; <UNDEFINED> instruction: 0xf511d706
    56f8:	44000002 	strmi	r0, [r0], #-2
    56fc:	0003170e 	andeq	r1, r3, lr, lsl #14
    5700:	07da0600 	ldrbeq	r0, [sl, r0, lsl #12]
    5704:	00000025 	andeq	r0, r0, r5, lsr #32
    5708:	03280e4c 			; <UNDEFINED> instruction: 0x03280e4c
    570c:	db060000 	blle	185714 <__bss_end__+0x17c24c>
    5710:	00009c0a 	andeq	r9, r0, sl, lsl #24
    5714:	410e5000 	mrsmi	r5, (UNDEF: 14)
    5718:	0600000a 	streq	r0, [r0], -sl
    571c:	048412de 	streq	r1, [r4], #734	; 0x2de
    5720:	0e540000 	cdpeq	0, 5, cr0, cr4, cr0, {0}
    5724:	00000622 	andeq	r0, r0, r2, lsr #12
    5728:	230ce206 	movwcs	lr, #49670	; 0xc206
    572c:	58000001 	stmdapl	r0, {r0}
    5730:	0005ae0e 	andeq	sl, r5, lr, lsl #28
    5734:	0ee40600 	cdpeq	6, 14, cr0, cr4, cr0, {0}
    5738:	00000117 	andeq	r0, r0, r7, lsl r1
    573c:	051b0e5c 	ldreq	r0, [fp, #-3676]	; 0xfffff1a4
    5740:	e5060000 	str	r0, [r6, #-0]
    5744:	00002509 	andeq	r2, r0, r9, lsl #10
    5748:	15006400 	strne	r6, [r0, #-1024]	; 0xfffffc00
    574c:	00000025 	andeq	r0, r0, r5, lsr #32
    5750:	00000484 	andeq	r0, r0, r4, lsl #9
    5754:	00048416 	andeq	r8, r4, r6, lsl r4
    5758:	00831600 	addeq	r1, r3, r0, lsl #12
    575c:	2f160000 	svccs	0x00160000
    5760:	16000001 	strne	r0, [r0], -r1
    5764:	00000025 	andeq	r0, r0, r5, lsr #32
    5768:	8f040600 	svchi	0x00040600
    576c:	0f000004 	svceq	0x00000004
    5770:	00000484 	andeq	r0, r0, r4, lsl #9
    5774:	00060c17 	andeq	r0, r6, r7, lsl ip
    5778:	06042800 	streq	r2, [r4], -r0, lsl #16
    577c:	d8080260 	stmdale	r8, {r5, r6, r9}
    5780:	18000005 	stmdane	r0, {r0, r2}
    5784:	00000576 	andeq	r0, r0, r6, ror r5
    5788:	07026206 	streq	r6, [r2, -r6, lsl #4]
    578c:	00000025 	andeq	r0, r0, r5, lsr #32
    5790:	03101800 	tsteq	r0, #0, 16
    5794:	67060000 	strvs	r0, [r6, -r0]
    5798:	06b20b02 	ldrteq	r0, [r2], r2, lsl #22
    579c:	18040000 	stmdane	r4, {}	; <UNPREDICTABLE>
    57a0:	00000492 	muleq	r0, r2, r4
    57a4:	14026706 	strne	r6, [r2], #-1798	; 0xfffff8fa
    57a8:	000006b2 			; <UNDEFINED> instruction: 0x000006b2
    57ac:	04401808 	strbeq	r1, [r0], #-2056	; 0xfffff7f8
    57b0:	67060000 	strvs	r0, [r6, -r0]
    57b4:	06b21e02 	ldrteq	r1, [r2], r2, lsl #28
    57b8:	180c0000 	stmdane	ip, {}	; <UNPREDICTABLE>
    57bc:	000005cf 	andeq	r0, r0, pc, asr #11
    57c0:	08026906 	stmdaeq	r2, {r1, r2, r8, fp, sp, lr}
    57c4:	00000025 	andeq	r0, r0, r5, lsr #32
    57c8:	026d1810 	rsbeq	r1, sp, #16, 16	; 0x100000
    57cc:	6a060000 	bvs	1857d4 <__bss_end__+0x17c30c>
    57d0:	08b20802 	ldmeq	r2!, {r1, fp}
    57d4:	18140000 	ldmdane	r4, {}	; <UNPREDICTABLE>
    57d8:	000005eb 	andeq	r0, r0, fp, ror #11
    57dc:	07026d06 	streq	r6, [r2, -r6, lsl #26]
    57e0:	00000025 	andeq	r0, r0, r5, lsr #32
    57e4:	05d91830 	ldrbeq	r1, [r9, #2096]	; 0x830
    57e8:	6e060000 	cdpvs	0, 0, cr0, cr6, cr0, {0}
    57ec:	08c71602 	stmiaeq	r7, {r1, r9, sl, ip}^
    57f0:	18340000 	ldmdane	r4!, {}	; <UNPREDICTABLE>
    57f4:	00000545 	andeq	r0, r0, r5, asr #10
    57f8:	07027006 	streq	r7, [r2, -r6]
    57fc:	00000025 	andeq	r0, r0, r5, lsr #32
    5800:	05e11838 	strbeq	r1, [r1, #2104]!	; 0x838
    5804:	72060000 	andvc	r0, r6, #0, 0
    5808:	08d80a02 	ldmeq	r8, {r1, r9, fp}^
    580c:	183c0000 	ldmdane	ip!, {}	; <UNPREDICTABLE>
    5810:	000004fe 	strdeq	r0, [r0], -lr
    5814:	13027506 	movwne	r7, #9478	; 0x2506
    5818:	000001a7 	andeq	r0, r0, r7, lsr #3
    581c:	045f1840 	ldrbeq	r1, [pc], #-2112	; 5824 <__code_start__-0x27dc>
    5820:	76060000 	strvc	r0, [r6], -r0
    5824:	00250702 	eoreq	r0, r5, r2, lsl #14
    5828:	18440000 	stmdane	r4, {}^	; <UNPREDICTABLE>
    582c:	0000071f 	andeq	r0, r0, pc, lsl r7
    5830:	13027706 	movwne	r7, #9990	; 0x2706
    5834:	000001a7 	andeq	r0, r0, r7, lsr #3
    5838:	05571848 	ldrbeq	r1, [r7, #-2120]	; 0xfffff7b8
    583c:	78060000 	stmdavc	r6, {}	; <UNPREDICTABLE>
    5840:	08de1402 	ldmeq	lr, {r1, sl, ip}^
    5844:	184c0000 	stmdane	ip, {}^	; <UNPREDICTABLE>
    5848:	0000049a 	muleq	r0, sl, r4
    584c:	07027b06 	streq	r7, [r2, -r6, lsl #22]
    5850:	00000025 	andeq	r0, r0, r5, lsr #32
    5854:	03201850 			; <UNDEFINED> instruction: 0x03201850
    5858:	7c060000 	stcvc	0, cr0, [r6], {-0}
    585c:	012f0902 			; <UNDEFINED> instruction: 0x012f0902
    5860:	18540000 	ldmdane	r4, {}^	; <UNPREDICTABLE>
    5864:	0000056f 	andeq	r0, r0, pc, ror #10
    5868:	07029f06 	streq	r9, [r2, -r6, lsl #30]
    586c:	0000088d 	andeq	r0, r0, sp, lsl #17
    5870:	053d1958 	ldreq	r1, [sp, #-2392]!	; 0xfffff6a8
    5874:	a3060000 	movwge	r0, #24576	; 0x6000
    5878:	02d81302 	sbcseq	r1, r8, #134217728	; 0x8000000
    587c:	01480000 	mrseq	r0, (UNDEF: 72)
    5880:	0004d819 	andeq	sp, r4, r9, lsl r8
    5884:	02a40600 	adceq	r0, r4, #0, 12
    5888:	00029512 	andeq	r9, r2, r2, lsl r5
    588c:	19014c00 	stmdbne	r1, {sl, fp, lr}
    5890:	000006d3 	ldrdeq	r0, [r0], -r3
    5894:	0c02a806 	stceq	8, cr10, [r2], {6}
    5898:	000008ef 	andeq	r0, r0, pc, ror #17
    589c:	f91902dc 			; <UNDEFINED> instruction: 0xf91902dc
    58a0:	06000002 	streq	r0, [r0], -r2
    58a4:	731002ad 	tstvc	r0, #-805306358	; 0xd000000a
    58a8:	e0000006 	and	r0, r0, r6
    58ac:	02de1902 	sbcseq	r1, lr, #32768	; 0x8000
    58b0:	af060000 	svcge	0x00060000
    58b4:	08fb0a02 	ldmeq	fp!, {r1, r9, fp}^
    58b8:	02ec0000 	rsceq	r0, ip, #0, 0
    58bc:	66040600 	strvs	r0, [r4], -r0, lsl #12
    58c0:	15000004 	strne	r0, [r0, #-4]
    58c4:	00000025 	andeq	r0, r0, r5, lsr #32
    58c8:	000005fc 	strdeq	r0, [r0], -ip
    58cc:	00048416 	andeq	r8, r4, r6, lsl r4
    58d0:	00831600 	addeq	r1, r3, r0, lsl #12
    58d4:	fc160000 	ldc2	0, cr0, [r6], {-0}
    58d8:	16000005 	strne	r0, [r0], -r5
    58dc:	00000025 	andeq	r0, r0, r5, lsr #32
    58e0:	3c040600 	stccc	6, cr0, [r4], {-0}
    58e4:	06000001 	streq	r0, [r0], -r1
    58e8:	0005de04 	andeq	sp, r5, r4, lsl #28
    58ec:	00a81500 	adceq	r1, r8, r0, lsl #10
    58f0:	06260000 	strteq	r0, [r6], -r0
    58f4:	84160000 	ldrhi	r0, [r6], #-0
    58f8:	16000004 	strne	r0, [r0], -r4
    58fc:	00000083 	andeq	r0, r0, r3, lsl #1
    5900:	0000a816 	andeq	sl, r0, r6, lsl r8
    5904:	00251600 	eoreq	r1, r5, r0, lsl #12
    5908:	06000000 	streq	r0, [r0], -r0
    590c:	00060804 	andeq	r0, r6, r4, lsl #16
    5910:	00251500 	eoreq	r1, r5, r0, lsl #10
    5914:	06400000 	strbeq	r0, [r0], -r0
    5918:	84160000 	ldrhi	r0, [r6], #-0
    591c:	16000004 	strne	r0, [r0], -r4
    5920:	00000083 	andeq	r0, r0, r3, lsl #1
    5924:	2c040600 	stccs	6, cr0, [r4], {-0}
    5928:	0b000006 	bleq	5948 <__code_start__-0x26b8>
    592c:	0000005b 	andeq	r0, r0, fp, asr r0
    5930:	00000656 	andeq	r0, r0, r6, asr r6
    5934:	00002c0c 	andeq	r2, r0, ip, lsl #24
    5938:	0b000200 	bleq	6140 <__code_start__-0x1ec0>
    593c:	0000005b 	andeq	r0, r0, fp, asr r0
    5940:	00000666 	andeq	r0, r0, r6, ror #12
    5944:	00002c0c 	andeq	r2, r0, ip, lsl #24
    5948:	08000000 	stmdaeq	r0, {}	; <UNPREDICTABLE>
    594c:	00000594 	muleq	r0, r4, r5
    5950:	1a011f06 	bne	4d570 <__bss_end__+0x440a8>
    5954:	00000323 	andeq	r0, r0, r3, lsr #6
    5958:	0006ba1a 	andeq	fp, r6, sl, lsl sl
    595c:	23060c00 	movwcs	r0, #27648	; 0x6c00
    5960:	06ac0801 	strteq	r0, [ip], r1, lsl #16
    5964:	bc180000 	ldclt	0, cr0, [r8], {-0}
    5968:	06000005 	streq	r0, [r0], -r5
    596c:	ac110125 	ldfges	f0, [r1], {37}	; 0x25
    5970:	00000006 	andeq	r0, r0, r6
    5974:	0004d118 	andeq	sp, r4, r8, lsl r1
    5978:	01260600 			; <UNDEFINED> instruction: 0x01260600
    597c:	00002507 	andeq	r2, r0, r7, lsl #10
    5980:	8e180400 	cfmulshi	mvf0, mvf8, mvf0
    5984:	06000005 	streq	r0, [r0], -r5
    5988:	b20b0127 	andlt	r0, fp, #-1073741815	; 0xc0000009
    598c:	08000006 	stmdaeq	r0, {r1, r2}
    5990:	73040600 	movwvc	r0, #17920	; 0x4600
    5994:	06000006 	streq	r0, [r0], -r6
    5998:	00066604 	andeq	r6, r6, r4, lsl #12
    599c:	02651a00 	rsbeq	r1, r5, #0, 20
    59a0:	060e0000 	streq	r0, [lr], -r0
    59a4:	f108013f 			; <UNDEFINED> instruction: 0xf108013f
    59a8:	18000006 	stmdane	r0, {r1, r2}
    59ac:	00000613 	andeq	r0, r0, r3, lsl r6
    59b0:	12014006 	andne	r4, r1, #6, 0
    59b4:	000006f1 	strdeq	r0, [r0], -r1
    59b8:	064d1800 	strbeq	r1, [sp], -r0, lsl #16
    59bc:	41060000 	mrsmi	r0, (UNDEF: 6)
    59c0:	06f11201 	ldrbteq	r1, [r1], r1, lsl #4
    59c4:	18060000 	stmdane	r6, {}	; <UNPREDICTABLE>
    59c8:	00000671 	andeq	r0, r0, r1, ror r6
    59cc:	12014206 	andne	r4, r1, #1610612736	; 0x60000000
    59d0:	00000062 	andeq	r0, r0, r2, rrx
    59d4:	620b000c 	andvs	r0, fp, #12, 0
    59d8:	01000000 	mrseq	r0, (UNDEF: 0)
    59dc:	0c000007 	stceq	0, cr0, [r0], {7}
    59e0:	0000002c 	andeq	r0, r0, ip, lsr #32
    59e4:	d01b0002 	andsle	r0, fp, r2
    59e8:	07028006 	streq	r8, [r2, -r6]
    59ec:	00000816 	andeq	r0, r0, r6, lsl r8
    59f0:	00069e18 	andeq	r9, r6, r8, lsl lr
    59f4:	02820600 	addeq	r0, r2, #0, 12
    59f8:	00002c18 	andeq	r2, r0, r8, lsl ip
    59fc:	53180000 	tstpl	r8, #0, 0
    5a00:	06000006 	streq	r0, [r0], -r6
    5a04:	2f120283 	svccs	0x00120283
    5a08:	04000001 	streq	r0, [r0], #-1
    5a0c:	0004f118 	andeq	pc, r4, r8, lsl r1	; <UNPREDICTABLE>
    5a10:	02840600 	addeq	r0, r4, #0, 12
    5a14:	00081610 	andeq	r1, r8, r0, lsl r6
    5a18:	f6180800 			; <UNDEFINED> instruction: 0xf6180800
    5a1c:	06000006 	streq	r0, [r0], -r6
    5a20:	bd170285 	lfmlt	f0, 4, [r7, #-532]	; 0xfffffdec
    5a24:	24000001 	strcs	r0, [r0], #-1
    5a28:	00045018 	andeq	r5, r4, r8, lsl r0
    5a2c:	02860600 	addeq	r0, r6, #0, 12
    5a30:	0000250f 	andeq	r2, r0, pc, lsl #10
    5a34:	b7184800 	ldrlt	r4, [r8, -r0, lsl #16]
    5a38:	06000005 	streq	r0, [r0], -r5
    5a3c:	7c2c0287 	sfmvc	f0, 4, [ip], #-540	; 0xfffffde4
    5a40:	50000000 	andpl	r0, r0, r0
    5a44:	00070c18 	andeq	r0, r7, r8, lsl ip
    5a48:	02880600 	addeq	r0, r8, #0, 12
    5a4c:	0006b81a 	andeq	fp, r6, sl, lsl r8
    5a50:	c2185800 	andsgt	r5, r8, #0, 16
    5a54:	06000005 	streq	r0, [r0], -r5
    5a58:	17160289 	ldrne	r0, [r6, -r9, lsl #5]
    5a5c:	68000001 	stmdavs	r0, {r0}
    5a60:	00071118 	andeq	r1, r7, r8, lsl r1
    5a64:	028a0600 	addeq	r0, sl, #0, 12
    5a68:	00011716 	andeq	r1, r1, r6, lsl r7
    5a6c:	61187000 	tstvs	r8, r0
    5a70:	06000005 	streq	r0, [r0], -r5
    5a74:	1716028b 	ldrne	r0, [r6, -fp, lsl #5]
    5a78:	78000001 	stmdavc	r0, {r0}
    5a7c:	0006c918 	andeq	ip, r6, r8, lsl r9
    5a80:	028c0600 	addeq	r0, ip, #0, 12
    5a84:	00082610 	andeq	r2, r8, r0, lsl r6
    5a88:	90188000 	andsls	r8, r8, r0
    5a8c:	06000002 	streq	r0, [r0], -r2
    5a90:	3610028d 	ldrcc	r0, [r0], -sp, lsl #5
    5a94:	88000008 	stmdahi	r0, {r3}
    5a98:	00067e18 	andeq	r7, r6, r8, lsl lr
    5a9c:	028e0600 	addeq	r0, lr, #0, 12
    5aa0:	0000250f 	andeq	r2, r0, pc, lsl #10
    5aa4:	1618a000 	ldrne	sl, [r8], -r0
    5aa8:	06000004 	streq	r0, [r0], -r4
    5aac:	1716028f 	ldrne	r0, [r6, -pc, lsl #5]
    5ab0:	a4000001 	strge	r0, [r0], #-1
    5ab4:	0002b018 	andeq	fp, r2, r8, lsl r0
    5ab8:	02900600 	addseq	r0, r0, #0, 12
    5abc:	00011716 	andeq	r1, r1, r6, lsl r7
    5ac0:	0518ac00 	ldreq	sl, [r8, #-3072]	; 0xfffff400
    5ac4:	06000004 	streq	r0, [r0], -r4
    5ac8:	17160291 			; <UNDEFINED> instruction: 0x17160291
    5acc:	b4000001 	strlt	r0, [r0], #-1
    5ad0:	00028118 	andeq	r8, r2, r8, lsl r1
    5ad4:	02920600 	addseq	r0, r2, #0, 12
    5ad8:	00011716 	andeq	r1, r1, r6, lsl r7
    5adc:	8118bc00 	tsthi	r8, r0, lsl #24
    5ae0:	06000004 	streq	r0, [r0], -r4
    5ae4:	17160293 			; <UNDEFINED> instruction: 0x17160293
    5ae8:	c4000001 	strgt	r0, [r0], #-1
    5aec:	00057418 	andeq	r7, r5, r8, lsl r4
    5af0:	02940600 	addseq	r0, r4, #0, 12
    5af4:	00002508 	andeq	r2, r0, r8, lsl #10
    5af8:	0b00cc00 	bleq	38b00 <__bss_end__+0x2f638>
    5afc:	00000135 	andeq	r0, r0, r5, lsr r1
    5b00:	00000826 	andeq	r0, r0, r6, lsr #16
    5b04:	00002c0c 	andeq	r2, r0, ip, lsl #24
    5b08:	0b001900 	bleq	bf10 <__bss_end__+0x2a48>
    5b0c:	00000135 	andeq	r0, r0, r5, lsr r1
    5b10:	00000836 	andeq	r0, r0, r6, lsr r8
    5b14:	00002c0c 	andeq	r2, r0, ip, lsl #24
    5b18:	0b000700 	bleq	7720 <__code_start__-0x8e0>
    5b1c:	00000135 	andeq	r0, r0, r5, lsr r1
    5b20:	00000846 	andeq	r0, r0, r6, asr #16
    5b24:	00002c0c 	andeq	r2, r0, ip, lsl #24
    5b28:	1b001700 	blne	b730 <__bss_end__+0x2268>
    5b2c:	029906f0 	addseq	r0, r9, #240, 12	; 0xf000000
    5b30:	00086d07 	andeq	r6, r8, r7, lsl #26
    5b34:	052d1800 	streq	r1, [sp, #-2048]!	; 0xfffff800
    5b38:	9c060000 	stcls	0, cr0, [r6], {-0}
    5b3c:	086d1b02 	stmdaeq	sp!, {r1, r8, r9, fp, ip}^
    5b40:	18000000 	stmdane	r0, {}	; <UNPREDICTABLE>
    5b44:	000006c0 	andeq	r0, r0, r0, asr #13
    5b48:	18029d06 	stmdane	r2, {r1, r2, r8, sl, fp, ip, pc}
    5b4c:	0000087d 	andeq	r0, r0, sp, ror r8
    5b50:	1d0b0078 	stcne	0, cr0, [fp, #-480]	; 0xfffffe20
    5b54:	7d000003 	stcvc	0, cr0, [r0, #-12]
    5b58:	0c000008 	stceq	0, cr0, [r0], {8}
    5b5c:	0000002c 	andeq	r0, r0, ip, lsr #32
    5b60:	2c0b001d 	stccs	0, cr0, [fp], {29}
    5b64:	8d000000 	stchi	0, cr0, [r0, #-0]
    5b68:	0c000008 	stceq	0, cr0, [r0], {8}
    5b6c:	0000002c 	andeq	r0, r0, ip, lsr #32
    5b70:	f01c001d 			; <UNDEFINED> instruction: 0xf01c001d
    5b74:	03027e06 	movweq	r7, #11782	; 0x2e06
    5b78:	000008b2 			; <UNDEFINED> instruction: 0x000008b2
    5b7c:	00060c1d 	andeq	r0, r6, sp, lsl ip
    5b80:	02950600 	addseq	r0, r5, #0, 12
    5b84:	0007010b 	andeq	r0, r7, fp, lsl #2
    5b88:	06e31d00 	strbteq	r1, [r3], r0, lsl #26
    5b8c:	9e060000 	cdpls	0, 0, cr0, cr6, cr0, {0}
    5b90:	08460b02 	stmdaeq	r6, {r1, r8, r9, fp}^
    5b94:	0b000000 	bleq	5b9c <__code_start__-0x2464>
    5b98:	00000135 	andeq	r0, r0, r5, lsr r1
    5b9c:	000008c2 	andeq	r0, r0, r2, asr #17
    5ba0:	00002c0c 	andeq	r2, r0, ip, lsl #24
    5ba4:	07001800 	streq	r1, [r0, -r0, lsl #16]
    5ba8:	000002a5 	andeq	r0, r0, r5, lsr #5
    5bac:	08c20406 	stmiaeq	r2, {r1, r2, sl}^
    5bb0:	d81e0000 	ldmdale	lr, {}	; <UNPREDICTABLE>
    5bb4:	16000008 	strne	r0, [r0], -r8
    5bb8:	00000484 	andeq	r0, r0, r4, lsl #9
    5bbc:	cd040600 	stcgt	6, cr0, [r4, #-0]
    5bc0:	06000008 	streq	r0, [r0], -r8
    5bc4:	0001a704 	andeq	sl, r1, r4, lsl #14
    5bc8:	08ef1e00 	stmiaeq	pc!, {r9, sl, fp, ip}^	; <UNPREDICTABLE>
    5bcc:	25160000 	ldrcs	r0, [r6, #-0]
    5bd0:	00000000 	andeq	r0, r0, r0
    5bd4:	08f50406 	ldmeq	r5!, {r1, r2, sl}^
    5bd8:	04060000 	streq	r0, [r6], #-0
    5bdc:	000008e4 	andeq	r0, r0, r4, ror #17
    5be0:	0006660b 	andeq	r6, r6, fp, lsl #12
    5be4:	00090b00 	andeq	r0, r9, r0, lsl #22
    5be8:	002c0c00 	eoreq	r0, ip, r0, lsl #24
    5bec:	00020000 	andeq	r0, r2, r0
    5bf0:	0006921f 	andeq	r9, r6, pc, lsl r2
    5bf4:	032e0600 			; <UNDEFINED> instruction: 0x032e0600
    5bf8:	00048417 	andeq	r8, r4, r7, lsl r4
    5bfc:	068b1f00 	streq	r1, [fp], r0, lsl #30
    5c00:	2f060000 	svccs	0x00060000
    5c04:	048a1d03 	streq	r1, [sl], #3331	; 0xd03
    5c08:	36040000 	strcc	r0, [r4], -r0
    5c0c:	07000006 	streq	r0, [r0, -r6]
    5c10:	09310f21 	ldmdbeq	r1!, {r0, r5, r8, r9, sl, fp}
    5c14:	04060000 	streq	r0, [r6], #-0
    5c18:	00000937 	andeq	r0, r0, r7, lsr r9
    5c1c:	00002515 	andeq	r2, r0, r5, lsl r5
    5c20:	00094600 	andeq	r4, r9, r0, lsl #12
    5c24:	00251600 	eoreq	r1, r5, r0, lsl #12
    5c28:	20000000 	andcs	r0, r0, r0
    5c2c:	00000469 	andeq	r0, r0, r9, ror #8
    5c30:	25162307 	ldrcs	r2, [r6, #-775]	; 0xfffffcf9
    5c34:	21000009 	tstcs	r0, r9
    5c38:	005b0107 	subseq	r0, fp, r7, lsl #2
    5c3c:	0c090000 	stceq	0, cr0, [r9], {-0}
    5c40:	0009910e 	andeq	r9, r9, lr, lsl #2
    5c44:	09562200 	ldmdbeq	r6, {r9, sp}^
    5c48:	22000000 	andcs	r0, r0, #0, 0
    5c4c:	00000a19 	andeq	r0, r0, r9, lsl sl
    5c50:	0a472201 	beq	11ce45c <__bss_end__+0x11c4f94>
    5c54:	22040000 	andcs	r0, r4, #0, 0
    5c58:	00000973 	andeq	r0, r0, r3, ror r9
    5c5c:	0a2a2205 	beq	a8e478 <__bss_end__+0xa84fb0>
    5c60:	22060000 	andcs	r0, r6, #0, 0
    5c64:	00000a56 	andeq	r0, r0, r6, asr sl
    5c68:	0a652207 	beq	194e48c <__bss_end__+0x1944fc4>
    5c6c:	22030000 	andcs	r0, r3, #0, 0
    5c70:	00000a74 	andeq	r0, r0, r4, ror sl
    5c74:	100d0002 	andne	r0, sp, r2
    5c78:	da091f08 	ble	24d8a0 <__bss_end__+0x2443d8>
    5c7c:	11000009 	tstne	r0, r9
    5c80:	08007874 	stmdaeq	r0, {r2, r4, r5, r6, fp, ip, sp, lr}
    5c84:	004f0d20 	subeq	r0, pc, r0, lsr #26
    5c88:	11000000 	mrsne	r0, (UNDEF: 0)
    5c8c:	08007872 	stmdaeq	r0, {r1, r4, r5, r6, fp, ip, sp, lr}
    5c90:	004f0d21 	subeq	r0, pc, r1, lsr #26
    5c94:	0e010000 	cdpeq	0, 0, cr0, cr1, cr0, {0}
    5c98:	000009e2 	andeq	r0, r0, r2, ror #19
    5c9c:	690e2208 	stmdbvs	lr, {r3, r9, sp}
    5ca0:	04000000 	streq	r0, [r0], #-0
    5ca4:	000a900e 	andeq	r9, sl, lr
    5ca8:	0e230800 	cdpeq	8, 2, cr0, cr3, cr0, {0}
    5cac:	00000069 	andeq	r0, r0, r9, rrx
    5cb0:	09660e08 	stmdbeq	r6!, {r3, r9, sl, fp}^
    5cb4:	24080000 	strcs	r0, [r8], #-0
    5cb8:	0000690e 	andeq	r6, r0, lr, lsl #18
    5cbc:	04000c00 	streq	r0, [r0], #-3072	; 0xfffff400
    5cc0:	000009d8 	ldrdeq	r0, [r0], -r8
    5cc4:	91032508 	tstls	r3, r8, lsl #10
    5cc8:	23000009 	movwcs	r0, #9
    5ccc:	000009a7 	andeq	r0, r0, r7, lsr #19
    5cd0:	da122e01 	ble	4914dc <__bss_end__+0x488014>
    5cd4:	24000009 	strcs	r0, [r0], #-9
    5cd8:	000007c8 	andeq	r0, r0, r8, asr #15
    5cdc:	8006e501 	andhi	lr, r6, r1, lsl #10
    5ce0:	1800008e 	stmdane	r0, {r1, r2, r3, r7}
    5ce4:	01000000 	mrseq	r0, (UNDEF: 0)
    5ce8:	000a1b9c 	muleq	sl, ip, fp
    5cec:	8e882500 	cdphi	5, 8, cr2, cr8, cr0, {0}
    5cf0:	0a1b0000 	beq	6c5cf8 <__bss_end__+0x6bc830>
    5cf4:	94250000 	strtls	r0, [r5], #-0
    5cf8:	2900008e 	stmdbcs	r0, {r1, r2, r3, r7}
    5cfc:	0000000e 	andeq	r0, r0, lr
    5d00:	0009e726 	andeq	lr, r9, r6, lsr #14
    5d04:	05d00100 	ldrbeq	r0, [r0, #256]	; 0x100
    5d08:	00000025 	andeq	r0, r0, r5, lsr #32
    5d0c:	00008e44 	andeq	r8, r0, r4, asr #28
    5d10:	0000003c 	andeq	r0, r0, ip, lsr r0
    5d14:	0a909c01 	beq	fe42cd20 <__bss_end__+0xfe423858>
    5d18:	62270000 	eorvs	r0, r7, #0, 0
    5d1c:	01000006 	tsteq	r0, r6
    5d20:	00690ed2 	ldrdeq	r0, [r9], #-226	; 0xffffff1e	; <UNPREDICTABLE>
    5d24:	0b470000 	bleq	11c5d2c <__bss_end__+0x11bc864>
    5d28:	0b450000 	bleq	1145d30 <__bss_end__+0x113c868>
    5d2c:	ff270000 			; <UNDEFINED> instruction: 0xff270000
    5d30:	01000004 	tsteq	r0, r4
    5d34:	00690ed3 	ldrdeq	r0, [r9], #-227	; 0xffffff1d	; <UNPREDICTABLE>
    5d38:	0b600000 	bleq	1805d40 <__bss_end__+0x17fc878>
    5d3c:	0b5a0000 	bleq	1685d44 <__bss_end__+0x167c87c>
    5d40:	4c250000 	stcmi	0, cr0, [r5], #-0
    5d44:	3500008e 	strcc	r0, [r0, #-142]	; 0xffffff72
    5d48:	2800000e 	stmdacs	r0, {r1, r2, r3}
    5d4c:	00008e54 	andeq	r8, r0, r4, asr lr
    5d50:	00000e41 	andeq	r0, r0, r1, asr #28
    5d54:	00000a7d 	andeq	r0, r0, sp, ror sl
    5d58:	05500129 	ldrbeq	r0, [r0, #-297]	; 0xfffffed7
    5d5c:	2150540c 	cmpcs	r0, ip, lsl #8
    5d60:	68250020 	stmdavs	r5!, {r5}
    5d64:	3500008e 	strcc	r0, [r0, #-142]	; 0xffffff72
    5d68:	2500000e 	strcs	r0, [r0, #-14]
    5d6c:	00008e74 	andeq	r8, r0, r4, ror lr
    5d70:	00000e35 	andeq	r0, r0, r5, lsr lr
    5d74:	09c82600 	stmibeq	r8, {r9, sl, sp}^
    5d78:	c7010000 	strgt	r0, [r1, -r0]
    5d7c:	00002505 	andeq	r2, r0, r5, lsl #10
    5d80:	008e2400 	addeq	r2, lr, r0, lsl #8
    5d84:	00002000 	andeq	r2, r0, r0
    5d88:	bd9c0100 	ldflts	f0, [ip]
    5d8c:	2500000a 	strcs	r0, [r0, #-10]
    5d90:	00008e2c 	andeq	r8, r0, ip, lsr #28
    5d94:	00000abd 			; <UNDEFINED> instruction: 0x00000abd
    5d98:	008e3825 	addeq	r3, lr, r5, lsr #16
    5d9c:	000bce00 	andeq	ip, fp, r0, lsl #28
    5da0:	39260000 	stmdbcc	r6!, {}	; <UNPREDICTABLE>
    5da4:	0100000a 	tsteq	r0, sl
    5da8:	002505bc 	strhteq	r0, [r5], -ip
    5dac:	8ddc0000 	ldclhi	0, cr0, [ip]
    5db0:	00180000 	andseq	r0, r8, r0
    5db4:	9c010000 	stcls	0, cr0, [r1], {-0}
    5db8:	00000b13 	andeq	r0, r0, r3, lsl fp
    5dbc:	00066227 	andeq	r6, r6, r7, lsr #4
    5dc0:	0ebe0100 	frdeqe	f0, f6, f0
    5dc4:	00000069 	andeq	r0, r0, r9, rrx
    5dc8:	00000b90 	muleq	r0, r0, fp
    5dcc:	00000b8e 	andeq	r0, r0, lr, lsl #23
    5dd0:	0009bd27 	andeq	fp, r9, r7, lsr #26
    5dd4:	0ebf0100 	frdeqe	f0, f7, f0
    5dd8:	00000069 	andeq	r0, r0, r9, rrx
    5ddc:	00000ba7 	andeq	r0, r0, r7, lsr #23
    5de0:	00000ba3 	andeq	r0, r0, r3, lsr #23
    5de4:	008de82a 	addeq	lr, sp, sl, lsr #16
    5de8:	000e4100 	andeq	r4, lr, r0, lsl #2
    5dec:	50012900 	andpl	r2, r1, r0, lsl #18
    5df0:	50540c05 	subspl	r0, r4, r5, lsl #24
    5df4:	00002021 	andeq	r2, r0, r1, lsr #32
    5df8:	00078e26 	andeq	r8, r7, r6, lsr #28
    5dfc:	05af0100 	streq	r0, [pc, #256]!	; 5f04 <__code_start__-0x20fc>
    5e00:	00000025 	andeq	r0, r0, r5, lsr #32
    5e04:	00008da8 	andeq	r8, r0, r8, lsr #27
    5e08:	00000034 	andeq	r0, r0, r4, lsr r0
    5e0c:	0b789c01 	bleq	1e2ce18 <__bss_end__+0x1e23950>
    5e10:	632b0000 			; <UNDEFINED> instruction: 0x632b0000
    5e14:	17af0100 	strne	r0, [pc, r0, lsl #2]!
    5e18:	0000004f 	andeq	r0, r0, pc, asr #32
    5e1c:	00000bcd 	andeq	r0, r0, sp, asr #23
    5e20:	00000bc9 	andeq	r0, r0, r9, asr #23
    5e24:	008db425 	addeq	fp, sp, r5, lsr #8
    5e28:	000e3500 	andeq	r3, lr, r0, lsl #10
    5e2c:	8db82500 	cfldr32hi	mvfx2, [r8]
    5e30:	0b780000 	bleq	1e05e38 <__bss_end__+0x1dfc970>
    5e34:	cc280000 	stcgt	0, cr0, [r8], #-0
    5e38:	4d00008d 	stcmi	0, cr0, [r0, #-564]	; 0xfffffdcc
    5e3c:	6e00000e 	cdpvs	0, 0, cr0, cr0, cr14, {0}
    5e40:	2900000b 	stmdbcs	r0, {r0, r1, r3}
    5e44:	0c055001 	stceq	0, cr5, [r5], {1}
    5e48:	20215040 	eorcs	r5, r1, r0, asr #32
    5e4c:	02510129 	subseq	r0, r1, #1073741834	; 0x4000000a
    5e50:	25000074 	strcs	r0, [r0, #-116]	; 0xffffff8c
    5e54:	00008dd0 	ldrdeq	r8, [r0], -r0
    5e58:	00000e35 	andeq	r0, r0, r5, lsr lr
    5e5c:	09af2600 	stmibeq	pc!, {r9, sl, sp}	; <UNPREDICTABLE>
    5e60:	a1010000 	mrsge	r0, (UNDEF: 1)
    5e64:	00002505 	andeq	r2, r0, r5, lsl #10
    5e68:	008d8000 	addeq	r8, sp, r0
    5e6c:	00002800 	andeq	r2, r0, r0, lsl #16
    5e70:	ce9c0100 	fmlgte	f0, f4, f0
    5e74:	2700000b 	strcs	r0, [r0, -fp]
    5e78:	00000662 	andeq	r0, r0, r2, ror #12
    5e7c:	690ea301 	stmdbvs	lr, {r0, r8, r9, sp, pc}
    5e80:	f2000000 	vhadd.s8	d0, d0, d0
    5e84:	ee00000b 	cdp	0, 0, cr0, cr0, cr11, {0}
    5e88:	2700000b 	strcs	r0, [r0, -fp]
    5e8c:	000009bd 			; <UNDEFINED> instruction: 0x000009bd
    5e90:	690ea401 	stmdbvs	lr, {r0, sl, sp, pc}
    5e94:	14000000 	strne	r0, [r0], #-0
    5e98:	1000000c 	andne	r0, r0, ip
    5e9c:	2a00000c 	bcs	5ed4 <__code_start__-0x212c>
    5ea0:	00008d8c 	andeq	r8, r0, ip, lsl #27
    5ea4:	00000e41 	andeq	r0, r0, r1, asr #28
    5ea8:	05500129 	ldrbeq	r0, [r0, #-297]	; 0xfffffed7
    5eac:	2150540c 	cmpcs	r0, ip, lsl #8
    5eb0:	26000020 	strcs	r0, [r0], -r0, lsr #32
    5eb4:	00000994 	muleq	r0, r4, r9
    5eb8:	25059601 	strcs	r9, [r5, #-1537]	; 0xfffff9ff
    5ebc:	f4000000 	vst4.8	{d0-d3}, [r0], r0
    5ec0:	3000008d 	andcc	r0, r0, sp, lsl #1
    5ec4:	01000000 	mrseq	r0, (UNDEF: 0)
    5ec8:	000c2f9c 	muleq	ip, ip, pc	; <UNPREDICTABLE>
    5ecc:	09f82700 	ldmibeq	r8!, {r8, r9, sl, sp}^
    5ed0:	9a010000 	bls	45ed8 <__bss_end__+0x3ca10>
    5ed4:	0000690e 	andeq	r6, r0, lr, lsl #18
    5ed8:	000c4000 	andeq	r4, ip, r0
    5edc:	000c3c00 	andeq	r3, ip, r0, lsl #24
    5ee0:	8dfc2500 	cfldr64hi	mvdx2, [ip]
    5ee4:	0e350000 	cdpeq	0, 3, cr0, cr5, cr0, {0}
    5ee8:	00250000 	eoreq	r0, r5, r0
    5eec:	bd00008e 	stclt	0, cr0, [r0, #-568]	; 0xfffffdc8
    5ef0:	2800000a 	stmdacs	r0, {r1, r3}
    5ef4:	00008e10 	andeq	r8, r0, r0, lsl lr
    5ef8:	00000e41 	andeq	r0, r0, r1, asr #28
    5efc:	00000c25 	andeq	r0, r0, r5, lsr #24
    5f00:	05500129 	ldrbeq	r0, [r0, #-297]	; 0xfffffed7
    5f04:	2150400c 	cmpcs	r0, ip
    5f08:	18250020 	stmdane	r5!, {r5}
    5f0c:	3500008e 	strcc	r0, [r0, #-142]	; 0xffffff72
    5f10:	0000000e 	andeq	r0, r0, lr
    5f14:	000a8324 	andeq	r8, sl, r4, lsr #6
    5f18:	06870100 	streq	r0, [r7], r0, lsl #2
    5f1c:	00008e98 	muleq	r0, r8, lr
    5f20:	00000044 	andeq	r0, r0, r4, asr #32
    5f24:	0cc29c01 	stcleq	12, cr9, [r2], {1}
    5f28:	03270000 			; <UNDEFINED> instruction: 0x03270000
    5f2c:	0100000a 	tsteq	r0, sl
    5f30:	00690e8d 	rsbeq	r0, r9, sp, lsl #29
    5f34:	0c640000 	stcleq	0, cr0, [r4], #-0
    5f38:	0c5e0000 	mraeq	r0, lr, acc0
    5f3c:	a0250000 	eorge	r0, r5, r0
    5f40:	3500008e 	strcc	r0, [r0, #-142]	; 0xffffff72
    5f44:	2500000e 	strcs	r0, [r0, #-14]
    5f48:	00008ea4 	andeq	r8, r0, r4, lsr #29
    5f4c:	000009f2 	strdeq	r0, [r0], -r2
    5f50:	008eb028 	addeq	fp, lr, r8, lsr #32
    5f54:	000e4d00 	andeq	r4, lr, r0, lsl #26
    5f58:	000c8700 	andeq	r8, ip, r0, lsl #14
    5f5c:	50012900 	andpl	r2, r1, r0, lsl #18
    5f60:	50600c05 	rsbpl	r0, r0, r5, lsl #24
    5f64:	01292021 			; <UNDEFINED> instruction: 0x01292021
    5f68:	00300151 	eorseq	r0, r0, r1, asr r1
    5f6c:	008eb425 	addeq	fp, lr, r5, lsr #8
    5f70:	000e3500 	andeq	r3, lr, r0, lsl #10
    5f74:	8ec02800 	cdphi	8, 12, cr2, cr0, cr0, {0}
    5f78:	0e410000 	cdpeq	0, 4, cr0, cr1, cr0, {0}
    5f7c:	0ca40000 	stceq	0, cr0, [r4]
    5f80:	01290000 			; <UNDEFINED> instruction: 0x01290000
    5f84:	00740250 	rsbseq	r0, r4, r0, asr r2
    5f88:	8ecc2800 	cdphi	8, 12, cr2, cr12, cr0, {0}
    5f8c:	0e4d0000 	cdpeq	0, 4, cr0, cr13, cr0, {0}
    5f90:	0cb80000 	ldceq	0, cr0, [r8]
    5f94:	01290000 			; <UNDEFINED> instruction: 0x01290000
    5f98:	00740250 	rsbseq	r0, r4, r0, asr r2
    5f9c:	8ed02500 	cdphi	5, 13, cr2, cr0, cr0, {0}
    5fa0:	0e350000 	cdpeq	0, 3, cr0, cr5, cr0, {0}
    5fa4:	24000000 	strcs	r0, [r0], #-0
    5fa8:	000007f7 	strdeq	r0, [r0], -r7
    5fac:	c4066d01 	strgt	r6, [r6], #-3329	; 0xfffff2ff
    5fb0:	bc00008c 	stclt	0, cr0, [r0], {140}	; 0x8c
    5fb4:	01000000 	mrseq	r0, (UNDEF: 0)
    5fb8:	000e299c 	muleq	lr, ip, r9
    5fbc:	0a032700 	beq	cfbc4 <__bss_end__+0xc66fc>
    5fc0:	73010000 	movwvc	r0, #4096	; 0x1000
    5fc4:	0000690e 	andeq	r6, r0, lr, lsl #18
    5fc8:	000c9a00 	andeq	r9, ip, r0, lsl #20
    5fcc:	000c9200 	andeq	r9, ip, r0, lsl #4
    5fd0:	8ccc2500 	cfstr64hi	mvdx2, [ip], {0}
    5fd4:	0e350000 	cdpeq	0, 3, cr0, cr5, cr0, {0}
    5fd8:	d8280000 	stmdale	r8!, {}	; <UNPREDICTABLE>
    5fdc:	5900008c 	stmdbpl	r0, {r2, r3, r7}
    5fe0:	0d00000e 	stceq	0, cr0, [r0, #-56]	; 0xffffffc8
    5fe4:	2900000d 	stmdbcs	r0, {r0, r2, r3}
    5fe8:	3e015001 	cdpcc	0, 0, cr5, cr1, cr1, {0}
    5fec:	01510129 	cmpeq	r1, r9, lsr #2
    5ff0:	e4280032 	strt	r0, [r8], #-50	; 0xffffffce
    5ff4:	5900008c 	stmdbpl	r0, {r2, r3, r7}
    5ff8:	2500000e 	strcs	r0, [r0, #-14]
    5ffc:	2900000d 	stmdbcs	r0, {r0, r2, r3}
    6000:	3f015001 	svccc	0x00015001
    6004:	01510129 	cmpeq	r1, r9, lsr #2
    6008:	e8250032 	stmda	r5!, {r1, r4, r5}
    600c:	3500008c 	strcc	r0, [r0, #-140]	; 0xffffff74
    6010:	2800000e 	stmdacs	r0, {r1, r2, r3}
    6014:	00008cf4 	strdeq	r8, [r0], -r4
    6018:	00000e41 	andeq	r0, r0, r1, asr #28
    601c:	00000d42 	andeq	r0, r0, r2, asr #26
    6020:	02500129 	subseq	r0, r0, #1073741834	; 0x4000000a
    6024:	28000074 	stmdacs	r0, {r2, r4, r5, r6}
    6028:	00008d00 	andeq	r8, r0, r0, lsl #26
    602c:	00000e4d 	andeq	r0, r0, sp, asr #28
    6030:	00000d56 	andeq	r0, r0, r6, asr sp
    6034:	02500129 	subseq	r0, r0, #1073741834	; 0x4000000a
    6038:	25000074 	strcs	r0, [r0, #-116]	; 0xffffff8c
    603c:	00008d04 	andeq	r8, r0, r4, lsl #26
    6040:	00000e35 	andeq	r0, r0, r5, lsr lr
    6044:	008d1428 	addeq	r1, sp, r8, lsr #8
    6048:	000e4d00 	andeq	r4, lr, r0, lsl #26
    604c:	000d7800 	andeq	r7, sp, r0, lsl #16
    6050:	50012900 	andpl	r2, r1, r0, lsl #18
    6054:	29007402 	stmdbcs	r0, {r1, sl, ip, sp, lr}
    6058:	30015101 	andcc	r5, r1, r1, lsl #2
    605c:	8d202800 	stchi	8, cr2, [r0, #-0]
    6060:	0e4d0000 	cdpeq	0, 4, cr0, cr13, cr0, {0}
    6064:	0d940000 	ldceq	0, cr0, [r4]
    6068:	01290000 			; <UNDEFINED> instruction: 0x01290000
    606c:	440c0550 	strmi	r0, [ip], #-1360	; 0xfffffab0
    6070:	29202150 	stmdbcs	r0!, {r4, r6, r8, sp}
    6074:	30015101 	andcc	r5, r1, r1, lsl #2
    6078:	8d2c2800 	stchi	8, cr2, [ip, #-0]
    607c:	0e4d0000 	cdpeq	0, 4, cr0, cr13, cr0, {0}
    6080:	0db00000 	ldceq	0, cr0, [r0]
    6084:	01290000 			; <UNDEFINED> instruction: 0x01290000
    6088:	480c0550 	stmdami	ip, {r4, r6, r8, sl}
    608c:	29202150 	stmdbcs	r0!, {r4, r6, r8, sp}
    6090:	36015101 	strcc	r5, [r1], -r1, lsl #2
    6094:	8d382800 	ldchi	8, cr2, [r8, #-0]
    6098:	0e4d0000 	cdpeq	0, 4, cr0, cr13, cr0, {0}
    609c:	0dcc0000 	stcleq	0, cr0, [ip]
    60a0:	01290000 			; <UNDEFINED> instruction: 0x01290000
    60a4:	4c0c0550 	cfstr32mi	mvfx0, [ip], {80}	; 0x50
    60a8:	29202150 	stmdbcs	r0!, {r4, r6, r8, sp}
    60ac:	33015101 	movwcc	r5, #4353	; 0x1101
    60b0:	8d442800 	stclhi	8, cr2, [r4, #-0]
    60b4:	0e4d0000 	cdpeq	0, 4, cr0, cr13, cr0, {0}
    60b8:	0de80000 	stcleq	0, cr0, [r8]
    60bc:	01290000 			; <UNDEFINED> instruction: 0x01290000
    60c0:	500c0550 	andpl	r0, ip, r0, asr r5
    60c4:	29202150 	stmdbcs	r0!, {r4, r6, r8, sp}
    60c8:	30015101 	andcc	r5, r1, r1, lsl #2
    60cc:	8d502800 	ldclhi	8, cr2, [r0, #-0]
    60d0:	0e4d0000 	cdpeq	0, 4, cr0, cr13, cr0, {0}
    60d4:	0e060000 	cdpeq	0, 0, cr0, cr6, cr0, {0}
    60d8:	01290000 			; <UNDEFINED> instruction: 0x01290000
    60dc:	680c0550 	stmdavs	ip, {r4, r6, r8, sl}
    60e0:	29202150 	stmdbcs	r0!, {r4, r6, r8, sp}
    60e4:	0a035101 	beq	da4f0 <__bss_end__+0xd1028>
    60e8:	2800010e 	stmdacs	r0, {r1, r2, r3, r8}
    60ec:	00008d5c 	andeq	r8, r0, ip, asr sp
    60f0:	00000e4d 	andeq	r0, r0, sp, asr #28
    60f4:	00000e1f 	andeq	r0, r0, pc, lsl lr
    60f8:	02500129 	subseq	r0, r0, #1073741834	; 0x4000000a
    60fc:	01290074 			; <UNDEFINED> instruction: 0x01290074
    6100:	00330151 	eorseq	r0, r3, r1, asr r1
    6104:	008d6025 	addeq	r6, sp, r5, lsr #32
    6108:	000e3500 	andeq	r3, lr, r0, lsl #10
    610c:	9e2c0000 	cdpls	0, 2, cr0, cr12, cr0, {0}
    6110:	9e000009 	cdpls	0, 0, cr0, cr0, cr9, {0}
    6114:	07000009 	streq	r0, [r0, -r9]
    6118:	282c06e5 	stmdacs	ip!, {r0, r2, r5, r6, r7, r9, sl}
    611c:	28000009 	stmdacs	r0, {r0, r3}
    6120:	07000009 	streq	r0, [r0, -r9]
    6124:	342c0684 	strtcc	r0, [ip], #-1668	; 0xfffff97c
    6128:	34000009 	strcc	r0, [r0], #-9
    612c:	07000009 	streq	r0, [r0, -r9]
    6130:	b32c0aa8 			; <UNDEFINED> instruction: 0xb32c0aa8
    6134:	b3000008 	movwlt	r0, #8
    6138:	07000008 	streq	r0, [r0, -r8]
    613c:	822c06a4 	eorhi	r0, ip, #164, 12	; 0xa400000
    6140:	82000009 	andhi	r0, r0, #9, 0
    6144:	09000009 	stmdbeq	r0, {r0, r3}
    6148:	de000619 	mcrle	6, 0, r0, cr0, cr9, {0}
    614c:	0400000d 	streq	r0, [r0], #-13
    6150:	00153800 	andseq	r3, r5, r0, lsl #16
    6154:	30010400 	andcc	r0, r1, r0, lsl #8
    6158:	0c000003 	stceq	0, cr0, [r0], {3}
    615c:	00000b61 	andeq	r0, r0, r1, ror #22
    6160:	000004a8 	andeq	r0, r0, r8, lsr #9
    6164:	00008edc 	ldrdeq	r8, [r0], -ip
    6168:	0000018c 	andeq	r0, r0, ip, lsl #3
    616c:	00001379 	andeq	r1, r0, r9, ror r3
    6170:	a4070802 	strge	r0, [r7], #-2050	; 0xfffff7fe
    6174:	02000001 	andeq	r0, r0, #1, 0
    6178:	01ae0704 			; <UNDEFINED> instruction: 0x01ae0704
    617c:	04030000 	streq	r0, [r3], #-0
    6180:	746e6905 	strbtvc	r6, [lr], #-2309	; 0xfffff6fb
    6184:	06010200 	streq	r0, [r1], -r0, lsl #4
    6188:	0000005c 	andeq	r0, r0, ip, asr r0
    618c:	fe050202 	cdp2	2, 0, cr0, cr5, cr2, {0}
    6190:	02000001 	andeq	r0, r0, #1, 0
    6194:	01ed0504 	mvneq	r0, r4, lsl #10
    6198:	08020000 	stmdaeq	r2, {}	; <UNPREDICTABLE>
    619c:	0001e805 	andeq	lr, r1, r5, lsl #16
    61a0:	08010200 	stmdaeq	r1, {r9}
    61a4:	0000005a 	andeq	r0, r0, sl, asr r0
    61a8:	1c070202 	sfmne	f0, 4, [r7], {2}
    61ac:	02000000 	andeq	r0, r0, #0, 0
    61b0:	01a90704 			; <UNDEFINED> instruction: 0x01a90704
    61b4:	04040000 	streq	r0, [r4], #-0
    61b8:	00050c05 	andeq	r0, r5, r5, lsl #24
    61bc:	19220200 	stmdbne	r2!, {r9}
    61c0:	00000079 	andeq	r0, r0, r9, ror r0
    61c4:	007f0406 	rsbseq	r0, pc, r6, lsl #8
    61c8:	21070000 	mrscs	r0, (UNDEF: 7)
    61cc:	05000006 	streq	r0, [r0, #-6]
    61d0:	00000550 	andeq	r0, r0, r0, asr r5
    61d4:	480e2c03 	stmdami	lr, {r0, r1, sl, fp, sp}
    61d8:	05000000 	streq	r0, [r0, #-0]
    61dc:	0000062e 	andeq	r0, r0, lr, lsr #12
    61e0:	480e7203 	stmdami	lr, {r0, r1, r9, ip, sp, lr}
    61e4:	08000000 	stmdaeq	r0, {}	; <UNPREDICTABLE>
    61e8:	00000514 	andeq	r0, r0, r4, lsl r5
    61ec:	17015e04 	strne	r5, [r1, -r4, lsl #28]
    61f0:	0000002c 	andeq	r0, r0, ip, lsr #32
    61f4:	a6030409 	strge	r0, [r3], -r9, lsl #8
    61f8:	0000cb03 	andeq	ip, r0, r3, lsl #22
    61fc:	05060a00 	streq	r0, [r6, #-2560]	; 0xfffff600
    6200:	a8030000 	stmdage	r3, {}	; <UNPREDICTABLE>
    6204:	00009c0c 	andeq	r9, r0, ip, lsl #24
    6208:	047a0a00 	ldrbteq	r0, [sl], #-2560	; 0xfffff600
    620c:	a9030000 	stmdbge	r3, {}	; <UNPREDICTABLE>
    6210:	0000cb13 	andeq	ip, r0, r3, lsl fp
    6214:	560b0000 	strpl	r0, [fp], -r0
    6218:	db000000 	blle	6220 <__code_start__-0x1de0>
    621c:	0c000000 	stceq	0, cr0, [r0], {-0}
    6220:	0000002c 	andeq	r0, r0, ip, lsr #32
    6224:	080d0003 	stmdaeq	sp, {r0, r1}
    6228:	ff09a303 			; <UNDEFINED> instruction: 0xff09a303
    622c:	0e000000 	cdpeq	0, 0, cr0, cr0, cr0, {0}
    6230:	00000619 	andeq	r0, r0, r9, lsl r6
    6234:	3307a503 	movwcc	sl, #29955	; 0x7503
    6238:	00000000 	andeq	r0, r0, r0
    623c:	0006600e 	andeq	r6, r6, lr
    6240:	05aa0300 	streq	r0, [sl, #768]!	; 0x300
    6244:	000000a9 	andeq	r0, r0, r9, lsr #1
    6248:	9b050004 	blls	146260 <__bss_end__+0x13cd98>
    624c:	03000005 	movweq	r0, #5
    6250:	00db03ab 	sbcseq	r0, fp, fp, lsr #7
    6254:	37050000 	strcc	r0, [r5, -r0]
    6258:	03000004 	movweq	r0, #4
    625c:	006d1baf 	rsbeq	r1, sp, pc, lsr #23
    6260:	04060000 	streq	r0, [r6], #-0
    6264:	0000011d 	andeq	r0, r0, sp, lsl r1
    6268:	63080102 	movwvs	r0, #33026	; 0x8102
    626c:	0f000000 	svceq	0x00000000
    6270:	0000011d 	andeq	r0, r0, sp, lsl r1
    6274:	00067605 	andeq	r7, r6, r5, lsl #12
    6278:	19160500 	ldmdbne	r6, {r8, sl}
    627c:	00000064 	andeq	r0, r0, r4, rrx
    6280:	00044810 	andeq	r4, r4, r0, lsl r8
    6284:	2f051800 	svccs	0x00051800
    6288:	00018f08 	andeq	r8, r1, r8, lsl #30
    628c:	05bc0e00 	ldreq	r0, [ip, #3584]!	; 0xe00
    6290:	31050000 	mrscc	r0, (UNDEF: 5)
    6294:	00018f13 	andeq	r8, r1, r3, lsl pc
    6298:	5f110000 	svcpl	0x00110000
    629c:	3205006b 	andcc	r0, r5, #107, 0	; 0x6b
    62a0:	00003307 	andeq	r3, r0, r7, lsl #6
    62a4:	040e0400 	streq	r0, [lr], #-1024	; 0xfffffc00
    62a8:	05000006 	streq	r0, [r0, #-6]
    62ac:	00330b32 	eorseq	r0, r3, r2, lsr fp
    62b0:	0e080000 	cdpeq	0, 0, cr0, cr8, cr0, {0}
    62b4:	00000431 	andeq	r0, r0, r1, lsr r4
    62b8:	33143205 	tstcc	r4, #1342177280	; 0x50000000
    62bc:	0c000000 	stceq	0, cr0, [r0], {-0}
    62c0:	0006ab0e 	andeq	sl, r6, lr, lsl #22
    62c4:	1b320500 	blne	c876cc <__bss_end__+0xc7e204>
    62c8:	00000033 	andeq	r0, r0, r3, lsr r0
    62cc:	785f1110 	ldmdavc	pc, {r4, r8, ip}^	; <UNPREDICTABLE>
    62d0:	0b330500 	bleq	cc76d8 <__bss_end__+0xcbe210>
    62d4:	00000195 	muleq	r0, r5, r1
    62d8:	04060014 	streq	r0, [r6], #-20	; 0xffffffec
    62dc:	00000135 	andeq	r0, r0, r5, lsr r1
    62e0:	0001290b 	andeq	r2, r1, fp, lsl #18
    62e4:	0001a500 	andeq	sl, r1, r0, lsl #10
    62e8:	002c0c00 	eoreq	r0, ip, r0, lsl #24
    62ec:	00000000 	andeq	r0, r0, r0
    62f0:	00047510 	andeq	r7, r4, r0, lsl r5
    62f4:	37052400 	strcc	r2, [r5, -r0, lsl #8]
    62f8:	00022808 	andeq	r2, r2, r8, lsl #16
    62fc:	02bf0e00 	adcseq	r0, pc, #0, 28
    6300:	39050000 	stmdbcc	r5, {}	; <UNPREDICTABLE>
    6304:	00003309 	andeq	r3, r0, r9, lsl #6
    6308:	440e0000 	strmi	r0, [lr], #-0
    630c:	05000006 	streq	r0, [r0, #-6]
    6310:	0033093a 	eorseq	r0, r3, sl, lsr r9
    6314:	0e040000 	cdpeq	0, 0, cr0, cr4, cr0, {0}
    6318:	000002d4 	ldrdeq	r0, [r0], -r4
    631c:	33093b05 	movwcc	r3, #39685	; 0x9b05
    6320:	08000000 	stmdaeq	r0, {}	; <UNPREDICTABLE>
    6324:	0007240e 	andeq	r2, r7, lr, lsl #8
    6328:	093c0500 	ldmdbeq	ip!, {r8, sl}
    632c:	00000033 	andeq	r0, r0, r3, lsr r0
    6330:	05340e0c 	ldreq	r0, [r4, #-3596]!	; 0xfffff1f4
    6334:	3d050000 	stccc	0, cr0, [r5, #-0]
    6338:	00003309 	andeq	r3, r0, r9, lsl #6
    633c:	230e1000 	movwcs	r1, #57344	; 0xe000
    6340:	05000005 	streq	r0, [r0, #-5]
    6344:	0033093e 	eorseq	r0, r3, lr, lsr r9
    6348:	0e140000 	cdpeq	0, 1, cr0, cr4, cr0, {0}
    634c:	000006b0 			; <UNDEFINED> instruction: 0x000006b0
    6350:	33093f05 	movwcc	r3, #40709	; 0x9f05
    6354:	18000000 	stmdane	r0, {}	; <UNPREDICTABLE>
    6358:	00057d0e 	andeq	r7, r5, lr, lsl #26
    635c:	09400500 	stmdbeq	r0, {r8, sl}^
    6360:	00000033 	andeq	r0, r0, r3, lsr r0
    6364:	06eb0e1c 	usateq	r0, #11, ip, lsl #28
    6368:	41050000 	mrsmi	r0, (UNDEF: 5)
    636c:	00003309 	andeq	r3, r0, r9, lsl #6
    6370:	12002000 	andne	r2, r0, #0, 0
    6374:	000002e3 	andeq	r0, r0, r3, ror #5
    6378:	4a050108 	bmi	1467a0 <__bss_end__+0x13d2d8>
    637c:	00026d08 	andeq	r6, r2, r8, lsl #26
    6380:	04240e00 	strteq	r0, [r4], #-3584	; 0xfffff200
    6384:	4b050000 	blmi	14638c <__bss_end__+0x13cec4>
    6388:	00026d0a 	andeq	r6, r2, sl, lsl #26
    638c:	4c0e0000 	stcmi	0, cr0, [lr], {-0}
    6390:	05000002 	streq	r0, [r0, #-2]
    6394:	026d094c 	rsbeq	r0, sp, #76, 18	; 0x130000
    6398:	13800000 	orrne	r0, r0, #0, 0
    639c:	00000668 	andeq	r0, r0, r8, ror #12
    63a0:	290a4e05 	stmdbcs	sl, {r0, r2, r9, sl, fp, lr}
    63a4:	00000001 	andeq	r0, r0, r1
    63a8:	03081301 	movweq	r1, #33537	; 0x8301
    63ac:	51050000 	mrspl	r0, (UNDEF: 5)
    63b0:	0001290a 	andeq	r2, r1, sl, lsl #18
    63b4:	00010400 	andeq	r0, r1, r0, lsl #8
    63b8:	00006b0b 	andeq	r6, r0, fp, lsl #22
    63bc:	00027d00 	andeq	r7, r2, r0, lsl #26
    63c0:	002c0c00 	eoreq	r0, ip, r0, lsl #24
    63c4:	001f0000 	andseq	r0, pc, r0
    63c8:	00053d12 	andeq	r3, r5, r2, lsl sp
    63cc:	05019000 	streq	r9, [r1, #-0]
    63d0:	02c0085d 	sbceq	r0, r0, #6094848	; 0x5d0000
    63d4:	bc0e0000 	stclt	0, cr0, [lr], {-0}
    63d8:	05000005 	streq	r0, [r0, #-5]
    63dc:	02c0125e 	sbceq	r1, r0, #-536870907	; 0xe0000005
    63e0:	0e000000 	cdpeq	0, 0, cr0, cr0, cr0, {0}
    63e4:	000005d4 	ldrdeq	r0, [r0], -r4
    63e8:	33065f05 	movwcc	r5, #28421	; 0x6f05
    63ec:	04000000 	streq	r0, [r0], #-0
    63f0:	00042c0e 	andeq	r2, r4, lr, lsl #24
    63f4:	09610500 	stmdbeq	r1!, {r8, sl}^
    63f8:	000002c6 	andeq	r0, r0, r6, asr #5
    63fc:	02e30e08 	rsceq	r0, r3, #8, 28	; 0x80
    6400:	62050000 	andvs	r0, r5, #0, 0
    6404:	0002281e 	andeq	r2, r2, lr, lsl r8
    6408:	06008800 	streq	r8, [r0], -r0, lsl #16
    640c:	00027d04 	andeq	r7, r2, r4, lsl #26
    6410:	02d60b00 	sbcseq	r0, r6, #0, 22
    6414:	02d60000 	sbcseq	r0, r6, #0, 0
    6418:	2c0c0000 	stccs	0, cr0, [ip], {-0}
    641c:	1f000000 	svcne	0x00000000
    6420:	dc040600 	stcle	6, cr0, [r4], {-0}
    6424:	14000002 	strne	r0, [r0], #-2
    6428:	00058710 	andeq	r8, r5, r0, lsl r7
    642c:	75050800 	strvc	r0, [r5, #-2048]	; 0xfffff800
    6430:	00030508 	andeq	r0, r3, r8, lsl #10
    6434:	02ce0e00 	sbceq	r0, lr, #0, 28
    6438:	76050000 	strvc	r0, [r5], -r0
    643c:	00030511 	andeq	r0, r3, r1, lsl r5
    6440:	580e0000 	stmdapl	lr, {}	; <UNPREDICTABLE>
    6444:	05000002 	streq	r0, [r0, #-2]
    6448:	00330677 	eorseq	r0, r3, r7, ror r6
    644c:	00040000 	andeq	r0, r4, r0
    6450:	00560406 	subseq	r0, r6, r6, lsl #8
    6454:	a6100000 	ldrge	r0, [r0], -r0
    6458:	68000005 	stmdavs	r0, {r0, r2}
    645c:	4e08b505 	cfsh32mi	mvfx11, mvfx8, #5
    6460:	11000004 	tstne	r0, r4
    6464:	0500705f 	streq	r7, [r0, #-95]	; 0xffffffa1
    6468:	030512b6 	movweq	r1, #21174	; 0x52b6
    646c:	11000000 	mrsne	r0, (UNDEF: 0)
    6470:	0500725f 	streq	r7, [r0, #-607]	; 0xfffffda1
    6474:	003307b7 	ldrhteq	r0, [r3], -r7
    6478:	11040000 	mrsne	r0, (UNDEF: 4)
    647c:	0500775f 	streq	r7, [r0, #-1887]	; 0xfffff8a1
    6480:	003307b8 	ldrhteq	r0, [r3], -r8
    6484:	0e080000 	cdpeq	0, 0, cr0, cr8, cr0, {0}
    6488:	00000301 	andeq	r0, r0, r1, lsl #6
    648c:	4109b905 	tstmi	r9, r5, lsl #18
    6490:	0c000000 	stceq	0, cr0, [r0], {-0}
    6494:	0004a20e 	andeq	sl, r4, lr, lsl #4
    6498:	09ba0500 	ldmibeq	sl!, {r8, sl}
    649c:	00000041 	andeq	r0, r0, r1, asr #32
    64a0:	625f110e 	subsvs	r1, pc, #-2147483645	; 0x80000003
    64a4:	bb050066 	bllt	146644 <__bss_end__+0x13d17c>
    64a8:	0002dd11 	andeq	sp, r2, r1, lsl sp
    64ac:	9c0e1000 	stcls	0, cr1, [lr], {-0}
    64b0:	05000002 	streq	r0, [r0, #-2]
    64b4:	003307bc 	ldrhteq	r0, [r3], -ip
    64b8:	0e180000 	cdpeq	0, 1, cr0, cr8, cr0, {0}
    64bc:	000002f1 	strdeq	r0, [r0], -r1
    64c0:	6b0ac305 	blvs	2b70dc <__bss_end__+0x2adc14>
    64c4:	1c000000 	stcne	0, cr0, [r0], {-0}
    64c8:	000ae50e 	andeq	lr, sl, lr, lsl #10
    64cc:	1dc50500 	cfstr64ne	mvdx0, [r5]
    64d0:	000005c0 	andeq	r0, r0, r0, asr #11
    64d4:	0aff0e20 	beq	fffc9d5c <__bss_end__+0xfffc0894>
    64d8:	c7050000 	strgt	r0, [r5, -r0]
    64dc:	0005ea1d 	andeq	lr, r5, sp, lsl sl
    64e0:	280e2400 	stmdacs	lr, {sl, sp}
    64e4:	05000006 	streq	r0, [r0, #-6]
    64e8:	060e0dca 	streq	r0, [lr], -sl, asr #27
    64ec:	0e280000 	cdpeq	0, 2, cr0, cr8, cr0, {0}
    64f0:	00000705 	andeq	r0, r0, r5, lsl #14
    64f4:	2809cb05 	stmdacs	r9, {r0, r2, r8, r9, fp, lr, pc}
    64f8:	2c000006 	stccs	0, cr0, [r0], {6}
    64fc:	62755f11 	rsbsvs	r5, r5, #68	; 0x44
    6500:	11ce0500 	bicne	r0, lr, r0, lsl #10
    6504:	000002dd 	ldrdeq	r0, [r0], -sp
    6508:	755f1130 	ldrbvc	r1, [pc, #-304]	; 63e0 <__code_start__-0x1c20>
    650c:	cf050070 	svcgt	0x00050070
    6510:	00030512 	andeq	r0, r3, r2, lsl r5
    6514:	5f113800 	svcpl	0x00113800
    6518:	05007275 	streq	r7, [r0, #-629]	; 0xfffffd8b
    651c:	003307d0 	ldrsbteq	r0, [r3], -r0
    6520:	0e3c0000 	cdpeq	0, 3, cr0, cr12, cr0, {0}
    6524:	000002c8 	andeq	r0, r0, r8, asr #5
    6528:	2e11d305 	cdpcs	3, 1, cr13, cr1, cr5, {0}
    652c:	40000006 	andmi	r0, r0, r6
    6530:	0006dd0e 	andeq	sp, r6, lr, lsl #26
    6534:	11d40500 	bicsne	r0, r4, r0, lsl #10
    6538:	0000063e 	andeq	r0, r0, lr, lsr r6
    653c:	6c5f1143 	ldfvse	f1, [pc], {67}	; 0x43
    6540:	d7050062 	strle	r0, [r5, -r2, rrx]
    6544:	0002dd11 	andeq	sp, r2, r1, lsl sp
    6548:	170e4400 	strne	r4, [lr, -r0, lsl #8]
    654c:	05000003 	streq	r0, [r0, #-3]
    6550:	003307da 	ldrsbteq	r0, [r3], -sl
    6554:	0e4c0000 	cdpeq	0, 4, cr0, cr12, cr0, {0}
    6558:	00000328 	andeq	r0, r0, r8, lsr #6
    655c:	840adb05 	strhi	sp, [sl], #-2821	; 0xfffff4fb
    6560:	50000000 	andpl	r0, r0, r0
    6564:	000a410e 	andeq	r4, sl, lr, lsl #2
    6568:	12de0500 	sbcsne	r0, lr, #0, 10
    656c:	0000046c 	andeq	r0, r0, ip, ror #8
    6570:	06220e54 			; <UNDEFINED> instruction: 0x06220e54
    6574:	e2050000 	and	r0, r5, #0, 0
    6578:	00010b0c 	andeq	r0, r1, ip, lsl #22
    657c:	ae0e5800 	cdpge	8, 0, cr5, cr14, cr0, {0}
    6580:	05000005 	streq	r0, [r0, #-5]
    6584:	00ff0ee4 	rscseq	r0, pc, r4, ror #29
    6588:	0e5c0000 	cdpeq	0, 5, cr0, cr12, cr0, {0}
    658c:	0000051b 	andeq	r0, r0, fp, lsl r5
    6590:	3309e505 	movwcc	lr, #38149	; 0x9505
    6594:	64000000 	strvs	r0, [r0], #-0
    6598:	00331500 	eorseq	r1, r3, r0, lsl #10
    659c:	046c0000 	strbteq	r0, [ip], #-0
    65a0:	6c160000 	ldcvs	0, cr0, [r6], {-0}
    65a4:	16000004 	strne	r0, [r0], -r4
    65a8:	0000006b 	andeq	r0, r0, fp, rrx
    65ac:	00011716 	andeq	r1, r1, r6, lsl r7
    65b0:	00331600 	eorseq	r1, r3, r0, lsl #12
    65b4:	06000000 	streq	r0, [r0], -r0
    65b8:	00047704 	andeq	r7, r4, r4, lsl #14
    65bc:	046c0f00 	strbteq	r0, [ip], #-3840	; 0xfffff100
    65c0:	0c170000 	ldceq	0, cr0, [r7], {-0}
    65c4:	28000006 	stmdacs	r0, {r1, r2}
    65c8:	02600504 	rsbeq	r0, r0, #4, 10	; 0x1000000
    65cc:	0005c008 	andeq	ip, r5, r8
    65d0:	05761800 	ldrbeq	r1, [r6, #-2048]!	; 0xfffff800
    65d4:	62050000 	andvs	r0, r5, #0, 0
    65d8:	00330702 	eorseq	r0, r3, r2, lsl #14
    65dc:	18000000 	stmdane	r0, {}	; <UNPREDICTABLE>
    65e0:	00000310 	andeq	r0, r0, r0, lsl r3
    65e4:	0b026705 	bleq	a0200 <__bss_end__+0x96d38>
    65e8:	0000069a 	muleq	r0, sl, r6
    65ec:	04921804 	ldreq	r1, [r2], #2052	; 0x804
    65f0:	67050000 	strvs	r0, [r5, -r0]
    65f4:	069a1402 	ldreq	r1, [sl], r2, lsl #8
    65f8:	18080000 	stmdane	r8, {}	; <UNPREDICTABLE>
    65fc:	00000440 	andeq	r0, r0, r0, asr #8
    6600:	1e026705 	cdpne	7, 0, cr6, cr2, cr5, {0}
    6604:	0000069a 	muleq	r0, sl, r6
    6608:	05cf180c 	strbeq	r1, [pc, #2060]	; 6e1c <__code_start__-0x11e4>
    660c:	69050000 	stmdbvs	r5, {}	; <UNPREDICTABLE>
    6610:	00330802 	eorseq	r0, r3, r2, lsl #16
    6614:	18100000 	ldmdane	r0, {}	; <UNPREDICTABLE>
    6618:	0000026d 	andeq	r0, r0, sp, ror #4
    661c:	08026a05 	stmdaeq	r2, {r0, r2, r9, fp, sp, lr}
    6620:	0000089a 	muleq	r0, sl, r8
    6624:	05eb1814 	strbeq	r1, [fp, #2068]!	; 0x814
    6628:	6d050000 	stcvs	0, cr0, [r5, #-0]
    662c:	00330702 	eorseq	r0, r3, r2, lsl #14
    6630:	18300000 	ldmdane	r0!, {}	; <UNPREDICTABLE>
    6634:	000005d9 	ldrdeq	r0, [r0], -r9
    6638:	16026e05 	strne	r6, [r2], -r5, lsl #28
    663c:	000008af 	andeq	r0, r0, pc, lsr #17
    6640:	05451834 	strbeq	r1, [r5, #-2100]	; 0xfffff7cc
    6644:	70050000 	andvc	r0, r5, r0
    6648:	00330702 	eorseq	r0, r3, r2, lsl #14
    664c:	18380000 	ldmdane	r8!, {}	; <UNPREDICTABLE>
    6650:	000005e1 	andeq	r0, r0, r1, ror #11
    6654:	0a027205 	beq	a2e70 <__bss_end__+0x999a8>
    6658:	000008c0 	andeq	r0, r0, r0, asr #17
    665c:	04fe183c 	ldrbteq	r1, [lr], #2108	; 0x83c
    6660:	75050000 	strvc	r0, [r5, #-0]
    6664:	018f1302 	orreq	r1, pc, r2, lsl #6
    6668:	18400000 	stmdane	r0, {}^	; <UNPREDICTABLE>
    666c:	0000045f 	andeq	r0, r0, pc, asr r4
    6670:	07027605 	streq	r7, [r2, -r5, lsl #12]
    6674:	00000033 	andeq	r0, r0, r3, lsr r0
    6678:	071f1844 	ldreq	r1, [pc, -r4, asr #16]
    667c:	77050000 	strvc	r0, [r5, -r0]
    6680:	018f1302 	orreq	r1, pc, r2, lsl #6
    6684:	18480000 	stmdane	r8, {}^	; <UNPREDICTABLE>
    6688:	00000557 	andeq	r0, r0, r7, asr r5
    668c:	14027805 	strne	r7, [r2], #-2053	; 0xfffff7fb
    6690:	000008c6 	andeq	r0, r0, r6, asr #17
    6694:	049a184c 	ldreq	r1, [sl], #2124	; 0x84c
    6698:	7b050000 	blvc	1466a0 <__bss_end__+0x13d1d8>
    669c:	00330702 	eorseq	r0, r3, r2, lsl #14
    66a0:	18500000 	ldmdane	r0, {}^	; <UNPREDICTABLE>
    66a4:	00000320 	andeq	r0, r0, r0, lsr #6
    66a8:	09027c05 	stmdbeq	r2, {r0, r2, sl, fp, ip, sp, lr}
    66ac:	00000117 	andeq	r0, r0, r7, lsl r1
    66b0:	056f1854 	strbeq	r1, [pc, #-2132]!	; 5e64 <__code_start__-0x219c>
    66b4:	9f050000 	svcls	0x00050000
    66b8:	08750702 	ldmdaeq	r5!, {r1, r8, r9, sl}^
    66bc:	19580000 	ldmdbne	r8, {}^	; <UNPREDICTABLE>
    66c0:	0000053d 	andeq	r0, r0, sp, lsr r5
    66c4:	1302a305 	movwne	sl, #8965	; 0x2305
    66c8:	000002c0 	andeq	r0, r0, r0, asr #5
    66cc:	d8190148 	ldmdale	r9, {r3, r6, r8}
    66d0:	05000004 	streq	r0, [r0, #-4]
    66d4:	7d1202a4 	lfmvc	f0, 4, [r2, #-656]	; 0xfffffd70
    66d8:	4c000002 	stcmi	0, cr0, [r0], {2}
    66dc:	06d31901 	ldrbeq	r1, [r3], r1, lsl #18
    66e0:	a8050000 	stmdage	r5, {}	; <UNPREDICTABLE>
    66e4:	08d70c02 	ldmeq	r7, {r1, sl, fp}^
    66e8:	02dc0000 	sbcseq	r0, ip, #0, 0
    66ec:	0002f919 	andeq	pc, r2, r9, lsl r9	; <UNPREDICTABLE>
    66f0:	02ad0500 	adceq	r0, sp, #0, 10
    66f4:	00065b10 	andeq	r5, r6, r0, lsl fp
    66f8:	1902e000 	stmdbne	r2, {sp, lr, pc}
    66fc:	000002de 	ldrdeq	r0, [r0], -lr
    6700:	0a02af05 	beq	b231c <__bss_end__+0xa8e54>
    6704:	000008e3 	andeq	r0, r0, r3, ror #17
    6708:	060002ec 	streq	r0, [r0], -ip, ror #5
    670c:	00044e04 	andeq	r4, r4, r4, lsl #28
    6710:	00331500 	eorseq	r1, r3, r0, lsl #10
    6714:	05e40000 	strbeq	r0, [r4, #0]!
    6718:	6c160000 	ldcvs	0, cr0, [r6], {-0}
    671c:	16000004 	strne	r0, [r0], -r4
    6720:	0000006b 	andeq	r0, r0, fp, rrx
    6724:	0005e416 	andeq	lr, r5, r6, lsl r4
    6728:	00331600 	eorseq	r1, r3, r0, lsl #12
    672c:	06000000 	streq	r0, [r0], -r0
    6730:	00012404 	andeq	r2, r1, r4, lsl #8
    6734:	c6040600 	strgt	r0, [r4], -r0, lsl #12
    6738:	15000005 	strne	r0, [r0, #-5]
    673c:	00000090 	muleq	r0, r0, r0
    6740:	0000060e 	andeq	r0, r0, lr, lsl #12
    6744:	00046c16 	andeq	r6, r4, r6, lsl ip
    6748:	006b1600 	rsbeq	r1, fp, r0, lsl #12
    674c:	90160000 	andsls	r0, r6, r0
    6750:	16000000 	strne	r0, [r0], -r0
    6754:	00000033 	andeq	r0, r0, r3, lsr r0
    6758:	f0040600 			; <UNDEFINED> instruction: 0xf0040600
    675c:	15000005 	strne	r0, [r0, #-5]
    6760:	00000033 	andeq	r0, r0, r3, lsr r0
    6764:	00000628 	andeq	r0, r0, r8, lsr #12
    6768:	00046c16 	andeq	r6, r4, r6, lsl ip
    676c:	006b1600 	rsbeq	r1, fp, r0, lsl #12
    6770:	06000000 	streq	r0, [r0], -r0
    6774:	00061404 	andeq	r1, r6, r4, lsl #8
    6778:	00560b00 	subseq	r0, r6, r0, lsl #22
    677c:	063e0000 	ldrteq	r0, [lr], -r0
    6780:	2c0c0000 	stccs	0, cr0, [ip], {-0}
    6784:	02000000 	andeq	r0, r0, #0, 0
    6788:	00560b00 	subseq	r0, r6, r0, lsl #22
    678c:	064e0000 	strbeq	r0, [lr], -r0
    6790:	2c0c0000 	stccs	0, cr0, [ip], {-0}
    6794:	00000000 	andeq	r0, r0, r0
    6798:	05940800 	ldreq	r0, [r4, #2048]	; 0x800
    679c:	1f050000 	svcne	0x00050000
    67a0:	030b1a01 	movweq	r1, #47617	; 0xba01
    67a4:	ba1a0000 	blt	6867ac <__bss_end__+0x67d2e4>
    67a8:	0c000006 	stceq	0, cr0, [r0], {6}
    67ac:	08012305 	stmdaeq	r1, {r0, r2, r8, r9, sp}
    67b0:	00000694 	muleq	r0, r4, r6
    67b4:	0005bc18 	andeq	fp, r5, r8, lsl ip
    67b8:	01250500 			; <UNDEFINED> instruction: 0x01250500
    67bc:	00069411 	andeq	r9, r6, r1, lsl r4
    67c0:	d1180000 	tstle	r8, r0
    67c4:	05000004 	streq	r0, [r0, #-4]
    67c8:	33070126 	movwcc	r0, #28966	; 0x7126
    67cc:	04000000 	streq	r0, [r0], #-0
    67d0:	00058e18 	andeq	r8, r5, r8, lsl lr
    67d4:	01270500 			; <UNDEFINED> instruction: 0x01270500
    67d8:	00069a0b 	andeq	r9, r6, fp, lsl #20
    67dc:	06000800 	streq	r0, [r0], -r0, lsl #16
    67e0:	00065b04 	andeq	r5, r6, r4, lsl #22
    67e4:	4e040600 	cfmadd32mi	mvax0, mvfx0, mvfx4, mvfx0
    67e8:	1a000006 	bne	6808 <__code_start__-0x17f8>
    67ec:	00000265 	andeq	r0, r0, r5, ror #4
    67f0:	013f050e 	teqeq	pc, lr, lsl #10
    67f4:	0006d908 	andeq	sp, r6, r8, lsl #18
    67f8:	06131800 	ldreq	r1, [r3], -r0, lsl #16
    67fc:	40050000 	andmi	r0, r5, r0
    6800:	06d91201 	ldrbeq	r1, [r9], r1, lsl #4
    6804:	18000000 	stmdane	r0, {}	; <UNPREDICTABLE>
    6808:	0000064d 	andeq	r0, r0, sp, asr #12
    680c:	12014105 	andne	r4, r1, #1073741825	; 0x40000001
    6810:	000006d9 	ldrdeq	r0, [r0], -r9
    6814:	06711806 	ldrbteq	r1, [r1], -r6, lsl #16
    6818:	42050000 	andmi	r0, r5, #0, 0
    681c:	005d1201 	subseq	r1, sp, r1, lsl #4
    6820:	000c0000 	andeq	r0, ip, r0
    6824:	00005d0b 	andeq	r5, r0, fp, lsl #26
    6828:	0006e900 	andeq	lr, r6, r0, lsl #18
    682c:	002c0c00 	eoreq	r0, ip, r0, lsl #24
    6830:	00020000 	andeq	r0, r2, r0
    6834:	8005d01b 	andhi	sp, r5, fp, lsl r0
    6838:	07fe0702 	ldrbeq	r0, [lr, r2, lsl #14]!
    683c:	9e180000 	cdpls	0, 1, cr0, cr8, cr0, {0}
    6840:	05000006 	streq	r0, [r0, #-6]
    6844:	2c180282 	lfmcs	f0, 4, [r8], {130}	; 0x82
    6848:	00000000 	andeq	r0, r0, r0
    684c:	00065318 	andeq	r5, r6, r8, lsl r3
    6850:	02830500 	addeq	r0, r3, #0, 10
    6854:	00011712 	andeq	r1, r1, r2, lsl r7
    6858:	f1180400 			; <UNDEFINED> instruction: 0xf1180400
    685c:	05000004 	streq	r0, [r0, #-4]
    6860:	fe100284 	cdp2	2, 1, cr0, cr0, cr4, {4}
    6864:	08000007 	stmdaeq	r0, {r0, r1, r2}
    6868:	0006f618 	andeq	pc, r6, r8, lsl r6	; <UNPREDICTABLE>
    686c:	02850500 	addeq	r0, r5, #0, 10
    6870:	0001a517 	andeq	sl, r1, r7, lsl r5
    6874:	50182400 	andspl	r2, r8, r0, lsl #8
    6878:	05000004 	streq	r0, [r0, #-4]
    687c:	330f0286 	movwcc	r0, #62086	; 0xf286
    6880:	48000000 	stmdami	r0, {}	; <UNPREDICTABLE>
    6884:	0005b718 	andeq	fp, r5, r8, lsl r7
    6888:	02870500 	addeq	r0, r7, #0, 10
    688c:	0000252c 	andeq	r2, r0, ip, lsr #10
    6890:	0c185000 	ldceq	0, cr5, [r8], {-0}
    6894:	05000007 	streq	r0, [r0, #-7]
    6898:	a01a0288 	andsge	r0, sl, r8, lsl #5
    689c:	58000006 	stmdapl	r0, {r1, r2}
    68a0:	0005c218 	andeq	ip, r5, r8, lsl r2
    68a4:	02890500 	addeq	r0, r9, #0, 10
    68a8:	0000ff16 	andeq	pc, r0, r6, lsl pc	; <UNPREDICTABLE>
    68ac:	11186800 	tstne	r8, r0, lsl #16
    68b0:	05000007 	streq	r0, [r0, #-7]
    68b4:	ff16028a 			; <UNDEFINED> instruction: 0xff16028a
    68b8:	70000000 	andvc	r0, r0, r0
    68bc:	00056118 	andeq	r6, r5, r8, lsl r1
    68c0:	028b0500 	addeq	r0, fp, #0, 10
    68c4:	0000ff16 	andeq	pc, r0, r6, lsl pc	; <UNPREDICTABLE>
    68c8:	c9187800 	ldmdbgt	r8, {fp, ip, sp, lr}
    68cc:	05000006 	streq	r0, [r0, #-6]
    68d0:	0e10028c 	cdpeq	2, 1, cr0, cr0, cr12, {4}
    68d4:	80000008 	andhi	r0, r0, r8
    68d8:	00029018 	andeq	r9, r2, r8, lsl r0
    68dc:	028d0500 	addeq	r0, sp, #0, 10
    68e0:	00081e10 	andeq	r1, r8, r0, lsl lr
    68e4:	7e188800 	cdpvc	8, 1, cr8, cr8, cr0, {0}
    68e8:	05000006 	streq	r0, [r0, #-6]
    68ec:	330f028e 	movwcc	r0, #62094	; 0xf28e
    68f0:	a0000000 	andge	r0, r0, r0
    68f4:	00041618 	andeq	r1, r4, r8, lsl r6
    68f8:	028f0500 	addeq	r0, pc, #0, 10
    68fc:	0000ff16 	andeq	pc, r0, r6, lsl pc	; <UNPREDICTABLE>
    6900:	b018a400 	andslt	sl, r8, r0, lsl #8
    6904:	05000002 	streq	r0, [r0, #-2]
    6908:	ff160290 			; <UNDEFINED> instruction: 0xff160290
    690c:	ac000000 	stcge	0, cr0, [r0], {-0}
    6910:	00040518 	andeq	r0, r4, r8, lsl r5
    6914:	02910500 	addseq	r0, r1, #0, 10
    6918:	0000ff16 	andeq	pc, r0, r6, lsl pc	; <UNPREDICTABLE>
    691c:	8118b400 	tsthi	r8, r0, lsl #8
    6920:	05000002 	streq	r0, [r0, #-2]
    6924:	ff160292 			; <UNDEFINED> instruction: 0xff160292
    6928:	bc000000 	stclt	0, cr0, [r0], {-0}
    692c:	00048118 	andeq	r8, r4, r8, lsl r1
    6930:	02930500 	addseq	r0, r3, #0, 10
    6934:	0000ff16 	andeq	pc, r0, r6, lsl pc	; <UNPREDICTABLE>
    6938:	7418c400 	ldrvc	ip, [r8], #-1024	; 0xfffffc00
    693c:	05000005 	streq	r0, [r0, #-5]
    6940:	33080294 	movwcc	r0, #33428	; 0x8294
    6944:	cc000000 	stcgt	0, cr0, [r0], {-0}
    6948:	011d0b00 	tsteq	sp, r0, lsl #22
    694c:	080e0000 	stmdaeq	lr, {}	; <UNPREDICTABLE>
    6950:	2c0c0000 	stccs	0, cr0, [ip], {-0}
    6954:	19000000 	stmdbne	r0, {}	; <UNPREDICTABLE>
    6958:	011d0b00 	tsteq	sp, r0, lsl #22
    695c:	081e0000 	ldmdaeq	lr, {}	; <UNPREDICTABLE>
    6960:	2c0c0000 	stccs	0, cr0, [ip], {-0}
    6964:	07000000 	streq	r0, [r0, -r0]
    6968:	011d0b00 	tsteq	sp, r0, lsl #22
    696c:	082e0000 	stmdaeq	lr!, {}	; <UNPREDICTABLE>
    6970:	2c0c0000 	stccs	0, cr0, [ip], {-0}
    6974:	17000000 	strne	r0, [r0, -r0]
    6978:	05f01b00 	ldrbeq	r1, [r0, #2816]!	; 0xb00
    697c:	55070299 	strpl	r0, [r7, #-665]	; 0xfffffd67
    6980:	18000008 	stmdane	r0, {r3}
    6984:	0000052d 	andeq	r0, r0, sp, lsr #10
    6988:	1b029c05 	blne	ad9a4 <__bss_end__+0xa44dc>
    698c:	00000855 	andeq	r0, r0, r5, asr r8
    6990:	06c01800 	strbeq	r1, [r0], r0, lsl #16
    6994:	9d050000 	stcls	0, cr0, [r5, #-0]
    6998:	08651802 	stmdaeq	r5!, {r1, fp, ip}^
    699c:	00780000 	rsbseq	r0, r8, r0
    69a0:	0003050b 	andeq	r0, r3, fp, lsl #10
    69a4:	00086500 	andeq	r6, r8, r0, lsl #10
    69a8:	002c0c00 	eoreq	r0, ip, r0, lsl #24
    69ac:	001d0000 	andseq	r0, sp, r0
    69b0:	00002c0b 	andeq	r2, r0, fp, lsl #24
    69b4:	00087500 	andeq	r7, r8, r0, lsl #10
    69b8:	002c0c00 	eoreq	r0, ip, r0, lsl #24
    69bc:	001d0000 	andseq	r0, sp, r0
    69c0:	7e05f01c 	mcrvc	0, 0, pc, cr5, cr12, {0}	; <UNPREDICTABLE>
    69c4:	089a0302 	ldmeq	sl, {r1, r8, r9}
    69c8:	0c1d0000 	ldceq	0, cr0, [sp], {-0}
    69cc:	05000006 	streq	r0, [r0, #-6]
    69d0:	e90b0295 	stmdb	fp, {r0, r2, r4, r7, r9}
    69d4:	1d000006 	stcne	0, cr0, [r0, #-24]	; 0xffffffe8
    69d8:	000006e3 	andeq	r0, r0, r3, ror #13
    69dc:	0b029e05 	bleq	ae1f8 <__bss_end__+0xa4d30>
    69e0:	0000082e 	andeq	r0, r0, lr, lsr #16
    69e4:	011d0b00 	tsteq	sp, r0, lsl #22
    69e8:	08aa0000 	stmiaeq	sl!, {}	; <UNPREDICTABLE>
    69ec:	2c0c0000 	stccs	0, cr0, [ip], {-0}
    69f0:	18000000 	stmdane	r0, {}	; <UNPREDICTABLE>
    69f4:	02a50700 	adceq	r0, r5, #0, 14
    69f8:	04060000 	streq	r0, [r6], #-0
    69fc:	000008aa 	andeq	r0, r0, sl, lsr #17
    6a00:	0008c01e 	andeq	ip, r8, lr, lsl r0
    6a04:	046c1600 	strbteq	r1, [ip], #-1536	; 0xfffffa00
    6a08:	06000000 	streq	r0, [r0], -r0
    6a0c:	0008b504 	andeq	fp, r8, r4, lsl #10
    6a10:	8f040600 	svchi	0x00040600
    6a14:	1e000001 	cdpne	0, 0, cr0, cr0, cr1, {0}
    6a18:	000008d7 	ldrdeq	r0, [r0], -r7
    6a1c:	00003316 	andeq	r3, r0, r6, lsl r3
    6a20:	04060000 	streq	r0, [r6], #-0
    6a24:	000008dd 	ldrdeq	r0, [r0], -sp
    6a28:	08cc0406 	stmiaeq	ip, {r1, r2, sl}^
    6a2c:	4e0b0000 	cdpmi	0, 0, cr0, cr11, cr0, {0}
    6a30:	f3000006 	vhadd.u8	d0, d0, d6
    6a34:	0c000008 	stceq	0, cr0, [r0], {8}
    6a38:	0000002c 	andeq	r0, r0, ip, lsr #32
    6a3c:	921f0002 	andsls	r0, pc, #2, 0
    6a40:	05000006 	streq	r0, [r0, #-6]
    6a44:	6c17032e 	ldcvs	3, cr0, [r7], {46}	; 0x2e
    6a48:	1f000004 	svcne	0x00000004
    6a4c:	0000068b 	andeq	r0, r0, fp, lsl #13
    6a50:	1d032f05 	stcne	15, cr2, [r3, #-20]	; 0xffffffec
    6a54:	00000472 	andeq	r0, r0, r2, ror r4
    6a58:	00063605 	andeq	r3, r6, r5, lsl #12
    6a5c:	0f210600 	svceq	0x00210600
    6a60:	00000919 	andeq	r0, r0, r9, lsl r9
    6a64:	091f0406 	ldmdbeq	pc, {r1, r2, sl}	; <UNPREDICTABLE>
    6a68:	33150000 	tstcc	r5, #0, 0
    6a6c:	2e000000 	cdpcs	0, 0, cr0, cr0, cr0, {0}
    6a70:	16000009 	strne	r0, [r0], -r9
    6a74:	00000033 	andeq	r0, r0, r3, lsr r0
    6a78:	04692000 	strbteq	r2, [r9], #-0
    6a7c:	23060000 	movwcs	r0, #24576	; 0x6000
    6a80:	00090d16 	andeq	r0, r9, r6, lsl sp
    6a84:	01072100 	mrseq	r2, (UNDEF: 23)
    6a88:	00000056 	andeq	r0, r0, r6, asr r0
    6a8c:	790e0c07 	stmdbvc	lr, {r0, r1, r2, sl, fp}
    6a90:	22000009 	andcs	r0, r0, #9, 0
    6a94:	00000956 	andeq	r0, r0, r6, asr r9
    6a98:	0a192200 	beq	64f2a0 <__bss_end__+0x645dd8>
    6a9c:	22010000 	andcs	r0, r1, #0, 0
    6aa0:	00000a47 	andeq	r0, r0, r7, asr #20
    6aa4:	09732204 	ldmdbeq	r3!, {r2, r9, sp}^
    6aa8:	22050000 	andcs	r0, r5, #0, 0
    6aac:	00000a2a 	andeq	r0, r0, sl, lsr #20
    6ab0:	0a562206 	beq	158f2d0 <__bss_end__+0x1585e08>
    6ab4:	22070000 	andcs	r0, r7, #0, 0
    6ab8:	00000a65 	andeq	r0, r0, r5, ror #20
    6abc:	0a742203 	beq	1d0f2d0 <__bss_end__+0x1d05e08>
    6ac0:	00020000 	andeq	r0, r2, r0
    6ac4:	000b5505 	andeq	r5, fp, r5, lsl #10
    6ac8:	03150700 	tsteq	r5, #0, 14
    6acc:	0000093a 	andeq	r0, r0, sl, lsr r9
    6ad0:	2c040721 	stccs	7, cr0, [r4], {33}	; 0x21
    6ad4:	01000000 	mrseq	r0, (UNDEF: 0)
    6ad8:	09be0620 	ldmibeq	lr!, {r5, r9, sl}
    6adc:	c9220000 	stmdbgt	r2!, {}	; <UNPREDICTABLE>
    6ae0:	3500000a 	strcc	r0, [r0, #-10]
    6ae4:	000aa923 	andeq	sl, sl, r3, lsr #18
    6ae8:	20000000 	andcs	r0, r0, r0
    6aec:	0b062320 	bleq	18f774 <__bss_end__+0x1862ac>
    6af0:	001c0000 	andseq	r0, ip, r0
    6af4:	6c232020 	stcvs	0, cr2, [r3], #-128	; 0xffffff80
    6af8:	2800000b 	stmdacs	r0, {r0, r1, r3}
    6afc:	23202000 	nopcs	{0}	; <UNPREDICTABLE>
    6b00:	00000b10 	andeq	r0, r0, r0, lsl fp
    6b04:	20200034 	eorcs	r0, r0, r4, lsr r0
    6b08:	0aeb2400 	beq	ffacfb10 <__bss_end__+0xffac6648>
    6b0c:	93010000 	movwls	r0, #4096	; 0x1000
    6b10:	00905806 	addseq	r5, r0, r6, lsl #16
    6b14:	00001000 	andeq	r1, r0, r0
    6b18:	ff9c0100 			; <UNDEFINED> instruction: 0xff9c0100
    6b1c:	25000009 	strcs	r0, [r0, #-9]
    6b20:	006e6970 	rsbeq	r6, lr, r0, ror r9
    6b24:	2c1f9301 	ldccs	3, cr9, [pc], {1}
    6b28:	db000000 	blle	6b30 <__code_start__-0x14d0>
    6b2c:	d700000c 	strle	r0, [r0, -ip]
    6b30:	2600000c 	strcs	r0, [r0], -ip
    6b34:	00009064 	andeq	r9, r0, r4, rrx
    6b38:	00000a40 	andeq	r0, r0, r0, asr #20
    6b3c:	03500127 	cmpeq	r0, #-1073741815	; 0xc0000009
    6b40:	275001f3 	smmlsrcs	r0, r3, r1, r0
    6b44:	31015101 	tstcc	r1, r1, lsl #2
    6b48:	1a240000 	bne	906b50 <__bss_end__+0x8fd688>
    6b4c:	0100000b 	tsteq	r0, fp
    6b50:	9048068f 	subls	r0, r8, pc, lsl #13
    6b54:	00100000 	andseq	r0, r0, r0
    6b58:	9c010000 	stcls	0, cr0, [r1], {-0}
    6b5c:	00000a40 	andeq	r0, r0, r0, asr #20
    6b60:	6e697025 	cdpvs	0, 6, cr7, cr9, cr5, {1}
    6b64:	1e8f0100 	rmfnee	f0, f7, f0
    6b68:	0000002c 	andeq	r0, r0, ip, lsr #32
    6b6c:	00000d00 	andeq	r0, r0, r0, lsl #26
    6b70:	00000cfc 	strdeq	r0, [r0], -ip
    6b74:	00905426 	addseq	r5, r0, r6, lsr #8
    6b78:	000a4000 	andeq	r4, sl, r0
    6b7c:	50012700 	andpl	r2, r1, r0, lsl #14
    6b80:	5001f303 	andpl	pc, r1, r3, lsl #6
    6b84:	01510127 	cmpeq	r1, r7, lsr #2
    6b88:	24000030 	strcs	r0, [r0], #-48	; 0xffffffd0
    6b8c:	00000982 	andeq	r0, r0, r2, lsl #19
    6b90:	c8067f01 	stmdagt	r6, {r0, r8, r9, sl, fp, ip, sp, lr}
    6b94:	8000008f 	andhi	r0, r0, pc, lsl #1
    6b98:	01000000 	mrseq	r0, (UNDEF: 0)
    6b9c:	000b279c 	muleq	fp, ip, r7
    6ba0:	69702500 	ldmdbvs	r0!, {r8, sl, sp}^
    6ba4:	7f01006e 	svcvc	0x0001006e
    6ba8:	00002c21 	andeq	r2, r0, r1, lsr #24
    6bac:	000d2f00 	andeq	r2, sp, r0, lsl #30
    6bb0:	000d2100 	andeq	r2, sp, r0, lsl #2
    6bb4:	06d82800 	ldrbeq	r2, [r8], r0, lsl #16
    6bb8:	7f010000 	svcvc	0x00010000
    6bbc:	00097932 	andeq	r7, r9, r2, lsr r9
    6bc0:	000d9300 	andeq	r9, sp, r0, lsl #6
    6bc4:	000d8700 	andeq	r8, sp, r0, lsl #14
    6bc8:	65732900 	ldrbvs	r2, [r3, #-2304]!	; 0xfffff700
    6bcc:	8601006c 	strhi	r0, [r1], -ip, rrx
    6bd0:	00002c0e 	andeq	r2, r0, lr, lsl #24
    6bd4:	000dec00 	andeq	lr, sp, r0, lsl #24
    6bd8:	000de600 	andeq	lr, sp, r0, lsl #12
    6bdc:	0b292a00 	bleq	a513e4 <__bss_end__+0xa47f1c>
    6be0:	87010000 	strhi	r0, [r1, -r0]
    6be4:	00002c0e 	andeq	r2, r0, lr, lsl #24
    6be8:	000e5200 	andeq	r5, lr, r0, lsl #4
    6bec:	000e5000 	andeq	r5, lr, r0
    6bf0:	06622a00 	strbteq	r2, [r2], -r0, lsl #20
    6bf4:	88010000 	stmdahi	r1, {}	; <UNPREDICTABLE>
    6bf8:	00002c12 	andeq	r2, r0, r2, lsl ip
    6bfc:	000e6d00 	andeq	r6, lr, r0, lsl #26
    6c00:	000e6500 	andeq	r6, lr, r0, lsl #10
    6c04:	0ad62a00 	beq	ff59140c <__bss_end__+0xff587f44>
    6c08:	89010000 	stmdbhi	r1, {}	; <UNPREDICTABLE>
    6c0c:	00002c0e 	andeq	r2, r0, lr, lsl #24
    6c10:	000eab00 	andeq	sl, lr, r0, lsl #22
    6c14:	000ea900 	andeq	sl, lr, r0, lsl #18
    6c18:	90042b00 	andls	r2, r4, r0, lsl #22
    6c1c:	0dc90000 	stcleq	0, cr0, [r9]
    6c20:	0ae20000 	beq	ff886c28 <__bss_end__+0xff87d760>
    6c24:	01270000 			; <UNDEFINED> instruction: 0x01270000
    6c28:	00770250 	rsbseq	r0, r7, r0, asr r2
    6c2c:	90242b00 	eorls	r2, r4, r0, lsl #22
    6c30:	0dd50000 	ldcleq	0, cr0, [r5]
    6c34:	0af60000 	beq	ffd86c3c <__bss_end__+0xffd7d774>
    6c38:	01270000 			; <UNDEFINED> instruction: 0x01270000
    6c3c:	00770250 	rsbseq	r0, r7, r0, asr r2
    6c40:	90342b00 	eorsls	r2, r4, r0, lsl #22
    6c44:	0d9d0000 	ldceq	0, cr0, [sp]
    6c48:	0b130000 	bleq	4c6c50 <__bss_end__+0x4bd788>
    6c4c:	01270000 			; <UNDEFINED> instruction: 0x01270000
    6c50:	84030550 	strhi	r0, [r3], #-1360	; 0xfffffab0
    6c54:	27000094 			; <UNDEFINED> instruction: 0x27000094
    6c58:	74025101 	strvc	r5, [r2], #-257	; 0xfffffeff
    6c5c:	3c260000 	stccc	0, cr0, [r6], #-0
    6c60:	9d000090 	stcls	0, cr0, [r0, #-576]	; 0xfffffdc0
    6c64:	2700000d 	strcs	r0, [r0, -sp]
    6c68:	03055001 	movweq	r5, #20481	; 0x5001
    6c6c:	00009494 	muleq	r0, r4, r4
    6c70:	e12c0000 			; <UNDEFINED> instruction: 0xe12c0000
    6c74:	0100000a 	tsteq	r0, sl
    6c78:	0033056e 	eorseq	r0, r3, lr, ror #10
    6c7c:	8f800000 	svchi	0x00800000
    6c80:	00480000 	subeq	r0, r8, r0
    6c84:	9c010000 	stcls	0, cr0, [r1], {-0}
    6c88:	00000bee 	andeq	r0, r0, lr, ror #23
    6c8c:	6e697025 	cdpvs	0, 6, cr7, cr9, cr5, {1}
    6c90:	186e0100 	stmdane	lr!, {r8}^
    6c94:	0000002c 	andeq	r0, r0, ip, lsr #32
    6c98:	00000ec6 	andeq	r0, r0, r6, asr #29
    6c9c:	00000ebe 			; <UNDEFINED> instruction: 0x00000ebe
    6ca0:	01007629 	tsteq	r0, r9, lsr #12
    6ca4:	002c0e6f 	eoreq	r0, ip, pc, ror #28
    6ca8:	0f020000 	svceq	0x00020000
    6cac:	0efa0000 	cdpeq	0, 15, cr0, cr10, cr0, {0}
    6cb0:	4a2a0000 	bmi	a86cb8 <__bss_end__+0xa7d7f0>
    6cb4:	0100000b 	tsteq	r0, fp
    6cb8:	002c0e74 	eoreq	r0, ip, r4, ror lr
    6cbc:	0f430000 	svceq	0x00430000
    6cc0:	0f3d0000 	svceq	0x003d0000
    6cc4:	622a0000 	eorvs	r0, sl, #0, 0
    6cc8:	01000006 	tsteq	r0, r6
    6ccc:	002c1275 	eoreq	r1, ip, r5, ror r2
    6cd0:	0f7d0000 	svceq	0x007d0000
    6cd4:	0f7b0000 	svceq	0x007b0000
    6cd8:	d62a0000 	strtle	r0, [sl], -r0
    6cdc:	0100000a 	tsteq	r0, sl
    6ce0:	002c0e76 	eoreq	r0, ip, r6, ror lr
    6ce4:	0f920000 	svceq	0x00920000
    6ce8:	0f900000 	svceq	0x00900000
    6cec:	dc2a0000 	stcle	0, cr0, [sl], #-0
    6cf0:	0100000a 	tsteq	r0, sl
    6cf4:	002c1277 	eoreq	r1, ip, r7, ror r2
    6cf8:	0fa70000 	svceq	0x00a70000
    6cfc:	0fa50000 	svceq	0x00a50000
    6d00:	a02b0000 	eorge	r0, fp, r0
    6d04:	c900008f 	stmdbgt	r0, {r0, r1, r2, r3, r7}
    6d08:	d400000d 	strle	r0, [r0], #-13
    6d0c:	2700000b 	strcs	r0, [r0, -fp]
    6d10:	740b5001 	strvc	r5, [fp], #-1
    6d14:	23253500 			; <UNDEFINED> instruction: 0x23253500
    6d18:	40a0808d 	adcmi	r8, r0, sp, lsl #1
    6d1c:	26002432 			; <UNDEFINED> instruction: 0x26002432
    6d20:	00008fc0 	andeq	r8, r0, r0, asr #31
    6d24:	00000d9d 	muleq	r0, sp, sp
    6d28:	05500127 	ldrbeq	r0, [r0, #-295]	; 0xfffffed9
    6d2c:	00948403 	addseq	r8, r4, r3, lsl #8
    6d30:	51012700 	tstpl	r1, r0, lsl #14
    6d34:	00007402 	andeq	r7, r0, r2, lsl #8
    6d38:	0afb2400 	beq	ffecfd40 <__bss_end__+0xffec6878>
    6d3c:	62010000 	andvs	r0, r1, #0, 0
    6d40:	008f6406 	addeq	r6, pc, r6, lsl #8
    6d44:	00001c00 	andeq	r1, r0, r0, lsl #24
    6d48:	499c0100 	ldmibmi	ip, {r8}
    6d4c:	2500000c 	strcs	r0, [r0, #-12]
    6d50:	006e6970 	rsbeq	r6, lr, r0, ror r9
    6d54:	2c1a6201 	lfmcs	f6, 4, [sl], {1}
    6d58:	c6000000 	strgt	r0, [r0], -r0
    6d5c:	be00000f 	cdplt	0, 0, cr0, cr0, cr15, {0}
    6d60:	2500000f 	strcs	r0, [r0, #-15]
    6d64:	62010076 	andvs	r0, r1, #118, 0	; 0x76
    6d68:	00002c28 	andeq	r2, r0, r8, lsr #24
    6d6c:	00100800 	andseq	r0, r0, r0, lsl #16
    6d70:	00100000 	andseq	r0, r0, r0
    6d74:	8f742b00 	svchi	0x00742b00
    6d78:	0cf30000 	ldcleq	0, cr0, [r3]
    6d7c:	0c3f0000 	ldceq	0, cr0, [pc], #-0	; 6d84 <__code_start__-0x127c>
    6d80:	01270000 			; <UNDEFINED> instruction: 0x01270000
    6d84:	01f30350 	mvnseq	r0, r0, asr r3
    6d88:	7c2d0050 	stcvc	0, cr0, [sp], #-320	; 0xfffffec0
    6d8c:	4900008f 	stmdbmi	r0, {r0, r1, r2, r3, r7}
    6d90:	0000000c 	andeq	r0, r0, ip
    6d94:	000abc24 	andeq	fp, sl, r4, lsr #24
    6d98:	06520100 	ldrbeq	r0, [r2], -r0, lsl #2
    6d9c:	00008f24 	andeq	r8, r0, r4, lsr #30
    6da0:	00000040 	andeq	r0, r0, r0, asr #32
    6da4:	0cf39c01 	ldcleq	12, cr9, [r3], #4
    6da8:	70250000 	eorvc	r0, r5, r0
    6dac:	01006e69 	tsteq	r0, r9, ror #28
    6db0:	002c1c52 	eoreq	r1, ip, r2, asr ip
    6db4:	104c0000 	subne	r0, ip, r0
    6db8:	10420000 	subne	r0, r2, r0
    6dbc:	9e2a0000 	cdpls	0, 2, cr0, cr10, cr0, {0}
    6dc0:	0100000a 	tsteq	r0, sl
    6dc4:	002c0e5a 	eoreq	r0, ip, sl, asr lr
    6dc8:	10970000 	addsne	r0, r7, r0
    6dcc:	10910000 	addsne	r0, r1, r0
    6dd0:	d62a0000 	strtle	r0, [sl], -r0
    6dd4:	0100000a 	tsteq	r0, sl
    6dd8:	002c0e5b 	eoreq	r0, ip, fp, asr lr
    6ddc:	10d60000 	sbcsne	r0, r6, r0
    6de0:	10d00000 	sbcsne	r0, r0, r0
    6de4:	622a0000 	eorvs	r0, sl, #0, 0
    6de8:	01000006 	tsteq	r0, r6
    6dec:	002c125c 	eoreq	r1, ip, ip, asr r2
    6df0:	110e0000 	mrsne	r0, (UNDEF: 14)
    6df4:	11080000 	mrsne	r0, (UNDEF: 8)
    6df8:	4c2b0000 	stcmi	0, cr0, [fp], #-0
    6dfc:	d500008f 	strle	r0, [r0, #-143]	; 0xffffff71
    6e00:	d800000d 	stmdale	r0, {r0, r2, r3}
    6e04:	2700000c 	strcs	r0, [r0, -ip]
    6e08:	f30c5001 	vhadd.u8	d5, d12, d1
    6e0c:	25355001 	ldrcs	r5, [r5, #-1]!
    6e10:	a0808a23 	addge	r8, r0, r3, lsr #20
    6e14:	27243240 	strcs	r3, [r4, -r0, asr #4]!
    6e18:	31075101 	tstcc	r7, r1, lsl #2
    6e1c:	4f5001f3 	svcmi	0x005001f3
    6e20:	2600241a 			; <UNDEFINED> instruction: 0x2600241a
    6e24:	00008f5c 	andeq	r8, r0, ip, asr pc
    6e28:	00000d9d 	muleq	r0, sp, sp
    6e2c:	05500127 	ldrbeq	r0, [r0, #-295]	; 0xfffffed9
    6e30:	00948403 	addseq	r8, r4, r3, lsl #8
    6e34:	51012700 	tstpl	r1, r0, lsl #14
    6e38:	5001f303 	andpl	pc, r1, r3, lsl #6
    6e3c:	3e240000 	cdpcc	0, 2, cr0, cr4, cr0, {0}
    6e40:	0100000b 	tsteq	r0, fp
    6e44:	8ee40642 	cdphi	6, 14, cr0, cr4, cr2, {2}
    6e48:	00400000 	subeq	r0, r0, r0
    6e4c:	9c010000 	stcls	0, cr0, [r1], {-0}
    6e50:	00000d9d 	muleq	r0, sp, sp
    6e54:	6e697025 	cdpvs	0, 6, cr7, cr9, cr5, {1}
    6e58:	1b420100 	blne	1087260 <__bss_end__+0x107dd98>
    6e5c:	0000002c 	andeq	r0, r0, ip, lsr #32
    6e60:	0000114c 	andeq	r1, r0, ip, asr #2
    6e64:	00001142 	andeq	r1, r0, r2, asr #2
    6e68:	000ab32a 	andeq	fp, sl, sl, lsr #6
    6e6c:	0e4a0100 	dvfeqe	f0, f2, f0
    6e70:	0000002c 	andeq	r0, r0, ip, lsr #32
    6e74:	00001197 	muleq	r0, r7, r1
    6e78:	00001191 	muleq	r0, r1, r1
    6e7c:	000ad62a 	andeq	sp, sl, sl, lsr #12
    6e80:	0e4b0100 	dvfeqe	f0, f3, f0
    6e84:	0000002c 	andeq	r0, r0, ip, lsr #32
    6e88:	000011d6 	ldrdeq	r1, [r0], -r6
    6e8c:	000011d0 	ldrdeq	r1, [r0], -r0
    6e90:	0006622a 	andeq	r6, r6, sl, lsr #4
    6e94:	124c0100 	subne	r0, ip, #0
    6e98:	0000002c 	andeq	r0, r0, ip, lsr #32
    6e9c:	0000120e 	andeq	r1, r0, lr, lsl #4
    6ea0:	00001208 	andeq	r1, r0, r8, lsl #4
    6ea4:	008f0c2b 	addeq	r0, pc, fp, lsr #24
    6ea8:	000dd500 	andeq	sp, sp, r0, lsl #10
    6eac:	000d8200 	andeq	r8, sp, r0, lsl #4
    6eb0:	50012700 	andpl	r2, r1, r0, lsl #14
    6eb4:	5001f30c 	andpl	pc, r1, ip, lsl #6
    6eb8:	87232535 			; <UNDEFINED> instruction: 0x87232535
    6ebc:	3240a080 	subcc	sl, r0, #128, 0	; 0x80
    6ec0:	51012724 	tstpl	r1, r4, lsr #14
    6ec4:	01f33107 	mvnseq	r3, r7, lsl #2
    6ec8:	241a4f50 	ldrcs	r4, [sl], #-3920	; 0xfffff0b0
    6ecc:	8f1c2600 	svchi	0x001c2600
    6ed0:	0d9d0000 	ldceq	0, cr0, [sp]
    6ed4:	01270000 			; <UNDEFINED> instruction: 0x01270000
    6ed8:	84030550 	strhi	r0, [r3], #-1360	; 0xfffffab0
    6edc:	27000094 			; <UNDEFINED> instruction: 0x27000094
    6ee0:	f3035101 	vrhadd.u8	d5, d3, d1
    6ee4:	00005001 	andeq	r5, r0, r1
    6ee8:	000b3324 	andeq	r3, fp, r4, lsr #6
    6eec:	06150100 	ldreq	r0, [r5], -r0, lsl #2
    6ef0:	00008edc 	ldrdeq	r8, [r0], -ip
    6ef4:	00000008 	andeq	r0, r0, r8
    6ef8:	0dc99c01 	stcleq	12, cr9, [r9, #4]
    6efc:	6d250000 	stcvs	0, cr0, [r5, #-0]
    6f00:	01006773 	tsteq	r0, r3, ror r7
    6f04:	05e41d15 	strbeq	r1, [r4, #3349]!	; 0xd15
    6f08:	12440000 	subne	r0, r4, #0, 0
    6f0c:	12420000 	subne	r0, r2, #0, 0
    6f10:	002e0000 	eoreq	r0, lr, r0
    6f14:	0009342f 	andeq	r3, r9, pc, lsr #8
    6f18:	00093400 	andeq	r3, r9, r0, lsl #8
    6f1c:	0aa80600 	beq	fea08724 <__bss_end__+0xfe9ff25c>
    6f20:	0008b32f 	andeq	fp, r8, pc, lsr #6
    6f24:	0008b300 	andeq	fp, r8, r0, lsl #6
    6f28:	06a40600 	strteq	r0, [r4], r0, lsl #12
    6f2c:	00096000 	andeq	r6, r9, r0
    6f30:	e3000400 	movw	r0, #1024	; 0x400
    6f34:	04000017 	streq	r0, [r0], #-23	; 0xffffffe9
    6f38:	00033001 	andeq	r3, r3, r1
    6f3c:	0b760c00 	bleq	1d89f44 <__bss_end__+0x1d80a7c>
    6f40:	04a80000 	strteq	r0, [r8], #0
    6f44:	90680000 	rsbls	r0, r8, r0
    6f48:	00340000 	eorseq	r0, r4, r0
    6f4c:	16490000 	strbne	r0, [r9], -r0
    6f50:	04020000 	streq	r0, [r2], #-0
    6f54:	746e6905 	strbtvc	r6, [lr], #-2309	; 0xfffff6fb
    6f58:	07040300 	streq	r0, [r4, -r0, lsl #6]
    6f5c:	000001ae 	andeq	r0, r0, lr, lsr #3
    6f60:	5c060103 	stfpls	f0, [r6], {3}
    6f64:	03000000 	movweq	r0, #0
    6f68:	01fe0502 	mvnseq	r0, r2, lsl #10
    6f6c:	04030000 	streq	r0, [r3], #-0
    6f70:	0001ed05 	andeq	lr, r1, r5, lsl #26
    6f74:	05080300 	streq	r0, [r8, #-768]	; 0xfffffd00
    6f78:	000001e8 	andeq	r0, r0, r8, ror #3
    6f7c:	5a080103 	bpl	207390 <__bss_end__+0x1fdec8>
    6f80:	03000000 	movweq	r0, #0
    6f84:	001c0702 	andseq	r0, ip, r2, lsl #14
    6f88:	04030000 	streq	r0, [r3], #-0
    6f8c:	0001a907 	andeq	sl, r1, r7, lsl #18
    6f90:	07080300 	streq	r0, [r8, -r0, lsl #6]
    6f94:	000001a4 	andeq	r0, r0, r4, lsr #3
    6f98:	0c050404 	cfstrseq	mvf0, [r5], {4}
    6f9c:	02000005 	andeq	r0, r0, #5, 0
    6fa0:	00791922 	rsbseq	r1, r9, r2, lsr #18
    6fa4:	04060000 	streq	r0, [r6], #-0
    6fa8:	0000007f 	andeq	r0, r0, pc, ror r0
    6fac:	00062107 	andeq	r2, r6, r7, lsl #2
    6fb0:	05500500 	ldrbeq	r0, [r0, #-1280]	; 0xfffffb00
    6fb4:	2c030000 	stccs	0, cr0, [r3], {-0}
    6fb8:	0000410e 	andeq	r4, r0, lr, lsl #2
    6fbc:	062e0500 	strteq	r0, [lr], -r0, lsl #10
    6fc0:	72030000 	andvc	r0, r3, #0, 0
    6fc4:	0000410e 	andeq	r4, r0, lr, lsl #2
    6fc8:	05140800 	ldreq	r0, [r4, #-2048]	; 0xfffff800
    6fcc:	5e040000 	cdppl	0, 0, cr0, cr4, cr0, {0}
    6fd0:	002c1701 	eoreq	r1, ip, r1, lsl #14
    6fd4:	04090000 	streq	r0, [r9], #-0
    6fd8:	cb03a603 	blgt	f07ec <__bss_end__+0xe7324>
    6fdc:	0a000000 	beq	6fe4 <__code_start__-0x101c>
    6fe0:	00000506 	andeq	r0, r0, r6, lsl #10
    6fe4:	9c0ca803 	stcls	8, cr10, [ip], {3}
    6fe8:	0a000000 	beq	6ff0 <__code_start__-0x1010>
    6fec:	0000047a 	andeq	r0, r0, sl, ror r4
    6ff0:	cb13a903 	blgt	4f1404 <__bss_end__+0x4e7f3c>
    6ff4:	00000000 	andeq	r0, r0, r0
    6ff8:	00004f0b 	andeq	r4, r0, fp, lsl #30
    6ffc:	0000db00 	andeq	sp, r0, r0, lsl #22
    7000:	002c0c00 	eoreq	r0, ip, r0, lsl #24
    7004:	00030000 	andeq	r0, r3, r0
    7008:	a303080d 	movwge	r0, #14349	; 0x380d
    700c:	0000ff09 	andeq	pc, r0, r9, lsl #30
    7010:	06190e00 	ldreq	r0, [r9], -r0, lsl #28
    7014:	a5030000 	strge	r0, [r3, #-0]
    7018:	00002507 	andeq	r2, r0, r7, lsl #10
    701c:	600e0000 	andvs	r0, lr, r0
    7020:	03000006 	movweq	r0, #6
    7024:	00a905aa 	adceq	r0, r9, sl, lsr #11
    7028:	00040000 	andeq	r0, r4, r0
    702c:	00059b05 	andeq	r9, r5, r5, lsl #22
    7030:	03ab0300 			; <UNDEFINED> instruction: 0x03ab0300
    7034:	000000db 	ldrdeq	r0, [r0], -fp
    7038:	00043705 	andeq	r3, r4, r5, lsl #14
    703c:	1baf0300 	blne	febc7c44 <__bss_end__+0xfebbe77c>
    7040:	0000006d 	andeq	r0, r0, sp, rrx
    7044:	011d0406 	tsteq	sp, r6, lsl #8
    7048:	01030000 	mrseq	r0, (UNDEF: 3)
    704c:	00006308 	andeq	r6, r0, r8, lsl #6
    7050:	011d0f00 	tsteq	sp, r0, lsl #30
    7054:	76050000 	strvc	r0, [r5], -r0
    7058:	05000006 	streq	r0, [r0, #-6]
    705c:	005d1916 	subseq	r1, sp, r6, lsl r9
    7060:	48100000 	ldmdami	r0, {}	; <UNPREDICTABLE>
    7064:	18000004 	stmdane	r0, {r2}
    7068:	8f082f05 	svchi	0x00082f05
    706c:	0e000001 	cdpeq	0, 0, cr0, cr0, cr1, {0}
    7070:	000005bc 			; <UNDEFINED> instruction: 0x000005bc
    7074:	8f133105 	svchi	0x00133105
    7078:	00000001 	andeq	r0, r0, r1
    707c:	006b5f11 	rsbeq	r5, fp, r1, lsl pc
    7080:	25073205 	strcs	r3, [r7, #-517]	; 0xfffffdfb
    7084:	04000000 	streq	r0, [r0], #-0
    7088:	0006040e 	andeq	r0, r6, lr, lsl #8
    708c:	0b320500 	bleq	c88494 <__bss_end__+0xc7efcc>
    7090:	00000025 	andeq	r0, r0, r5, lsr #32
    7094:	04310e08 	ldrteq	r0, [r1], #-3592	; 0xfffff1f8
    7098:	32050000 	andcc	r0, r5, #0, 0
    709c:	00002514 	andeq	r2, r0, r4, lsl r5
    70a0:	ab0e0c00 	blge	38a0a8 <__bss_end__+0x380be0>
    70a4:	05000006 	streq	r0, [r0, #-6]
    70a8:	00251b32 	eoreq	r1, r5, r2, lsr fp
    70ac:	11100000 	tstne	r0, r0
    70b0:	0500785f 	streq	r7, [r0, #-2143]	; 0xfffff7a1
    70b4:	01950b33 	orrseq	r0, r5, r3, lsr fp
    70b8:	00140000 	andseq	r0, r4, r0
    70bc:	01350406 	teqeq	r5, r6, lsl #8
    70c0:	290b0000 	stmdbcs	fp, {}	; <UNPREDICTABLE>
    70c4:	a5000001 	strge	r0, [r0, #-1]
    70c8:	0c000001 	stceq	0, cr0, [r0], {1}
    70cc:	0000002c 	andeq	r0, r0, ip, lsr #32
    70d0:	75100000 	ldrvc	r0, [r0, #-0]
    70d4:	24000004 	strcs	r0, [r0], #-4
    70d8:	28083705 	stmdacs	r8, {r0, r2, r8, r9, sl, ip, sp}
    70dc:	0e000002 	cdpeq	0, 0, cr0, cr0, cr2, {0}
    70e0:	000002bf 			; <UNDEFINED> instruction: 0x000002bf
    70e4:	25093905 	strcs	r3, [r9, #-2309]	; 0xfffff6fb
    70e8:	00000000 	andeq	r0, r0, r0
    70ec:	0006440e 	andeq	r4, r6, lr, lsl #8
    70f0:	093a0500 	ldmdbeq	sl!, {r8, sl}
    70f4:	00000025 	andeq	r0, r0, r5, lsr #32
    70f8:	02d40e04 	sbcseq	r0, r4, #4, 28	; 0x40
    70fc:	3b050000 	blcc	147104 <__bss_end__+0x13dc3c>
    7100:	00002509 	andeq	r2, r0, r9, lsl #10
    7104:	240e0800 	strcs	r0, [lr], #-2048	; 0xfffff800
    7108:	05000007 	streq	r0, [r0, #-7]
    710c:	0025093c 	eoreq	r0, r5, ip, lsr r9
    7110:	0e0c0000 	cdpeq	0, 0, cr0, cr12, cr0, {0}
    7114:	00000534 	andeq	r0, r0, r4, lsr r5
    7118:	25093d05 	strcs	r3, [r9, #-3333]	; 0xfffff2fb
    711c:	10000000 	andne	r0, r0, r0
    7120:	0005230e 	andeq	r2, r5, lr, lsl #6
    7124:	093e0500 	ldmdbeq	lr!, {r8, sl}
    7128:	00000025 	andeq	r0, r0, r5, lsr #32
    712c:	06b00e14 	ssateq	r0, #17, r4, lsl #28
    7130:	3f050000 	svccc	0x00050000
    7134:	00002509 	andeq	r2, r0, r9, lsl #10
    7138:	7d0e1800 	stcvc	8, cr1, [lr, #-0]
    713c:	05000005 	streq	r0, [r0, #-5]
    7140:	00250940 	eoreq	r0, r5, r0, asr #18
    7144:	0e1c0000 	cdpeq	0, 1, cr0, cr12, cr0, {0}
    7148:	000006eb 	andeq	r0, r0, fp, ror #13
    714c:	25094105 	strcs	r4, [r9, #-261]	; 0xfffffefb
    7150:	20000000 	andcs	r0, r0, r0
    7154:	02e31200 	rsceq	r1, r3, #0, 4
    7158:	01080000 	mrseq	r0, (UNDEF: 8)
    715c:	6d084a05 	vstrvs	s8, [r8, #-20]	; 0xffffffec
    7160:	0e000002 	cdpeq	0, 0, cr0, cr0, cr2, {0}
    7164:	00000424 	andeq	r0, r0, r4, lsr #8
    7168:	6d0a4b05 	vstrvs	d4, [sl, #-20]	; 0xffffffec
    716c:	00000002 	andeq	r0, r0, r2
    7170:	00024c0e 	andeq	r4, r2, lr, lsl #24
    7174:	094c0500 	stmdbeq	ip, {r8, sl}^
    7178:	0000026d 	andeq	r0, r0, sp, ror #4
    717c:	06681380 	strbteq	r1, [r8], -r0, lsl #7
    7180:	4e050000 	cdpmi	0, 0, cr0, cr5, cr0, {0}
    7184:	0001290a 	andeq	r2, r1, sl, lsl #18
    7188:	13010000 	movwne	r0, #4096	; 0x1000
    718c:	00000308 	andeq	r0, r0, r8, lsl #6
    7190:	290a5105 	stmdbcs	sl, {r0, r2, r8, ip, lr}
    7194:	04000001 	streq	r0, [r0], #-1
    7198:	6b0b0001 	blvs	2c71a4 <__bss_end__+0x2bdcdc>
    719c:	7d000000 	stcvc	0, cr0, [r0, #-0]
    71a0:	0c000002 	stceq	0, cr0, [r0], {2}
    71a4:	0000002c 	andeq	r0, r0, ip, lsr #32
    71a8:	3d12001f 	ldccc	0, cr0, [r2, #-124]	; 0xffffff84
    71ac:	90000005 	andls	r0, r0, r5
    71b0:	085d0501 	ldmdaeq	sp, {r0, r8, sl}^
    71b4:	000002c0 	andeq	r0, r0, r0, asr #5
    71b8:	0005bc0e 	andeq	fp, r5, lr, lsl #24
    71bc:	125e0500 	subsne	r0, lr, #0, 10
    71c0:	000002c0 	andeq	r0, r0, r0, asr #5
    71c4:	05d40e00 	ldrbeq	r0, [r4, #3584]	; 0xe00
    71c8:	5f050000 	svcpl	0x00050000
    71cc:	00002506 	andeq	r2, r0, r6, lsl #10
    71d0:	2c0e0400 	cfstrscs	mvf0, [lr], {-0}
    71d4:	05000004 	streq	r0, [r0, #-4]
    71d8:	02c60961 	sbceq	r0, r6, #1589248	; 0x184000
    71dc:	0e080000 	cdpeq	0, 0, cr0, cr8, cr0, {0}
    71e0:	000002e3 	andeq	r0, r0, r3, ror #5
    71e4:	281e6205 	ldmdacs	lr, {r0, r2, r9, sp, lr}
    71e8:	88000002 	stmdahi	r0, {r1}
    71ec:	7d040600 	stcvc	6, cr0, [r4, #-0]
    71f0:	0b000002 	bleq	7200 <__code_start__-0xe00>
    71f4:	000002d6 	ldrdeq	r0, [r0], -r6
    71f8:	000002d6 	ldrdeq	r0, [r0], -r6
    71fc:	00002c0c 	andeq	r2, r0, ip, lsl #24
    7200:	06001f00 	streq	r1, [r0], -r0, lsl #30
    7204:	0002dc04 	andeq	sp, r2, r4, lsl #24
    7208:	87101400 	ldrhi	r1, [r0, -r0, lsl #8]
    720c:	08000005 	stmdaeq	r0, {r0, r2}
    7210:	05087505 	streq	r7, [r8, #-1285]	; 0xfffffafb
    7214:	0e000003 	cdpeq	0, 0, cr0, cr0, cr3, {0}
    7218:	000002ce 	andeq	r0, r0, lr, asr #5
    721c:	05117605 	ldreq	r7, [r1, #-1541]	; 0xfffff9fb
    7220:	00000003 	andeq	r0, r0, r3
    7224:	0002580e 	andeq	r5, r2, lr, lsl #16
    7228:	06770500 	ldrbteq	r0, [r7], -r0, lsl #10
    722c:	00000025 	andeq	r0, r0, r5, lsr #32
    7230:	04060004 	streq	r0, [r6], #-4
    7234:	0000004f 	andeq	r0, r0, pc, asr #32
    7238:	0005a610 	andeq	sl, r5, r0, lsl r6
    723c:	b5056800 	strlt	r6, [r5, #-2048]	; 0xfffff800
    7240:	00044e08 	andeq	r4, r4, r8, lsl #28
    7244:	705f1100 	subsvc	r1, pc, r0, lsl #2
    7248:	12b60500 	adcsne	r0, r6, #0, 10
    724c:	00000305 	andeq	r0, r0, r5, lsl #6
    7250:	725f1100 	subsvc	r1, pc, #0
    7254:	07b70500 	ldreq	r0, [r7, r0, lsl #10]!
    7258:	00000025 	andeq	r0, r0, r5, lsr #32
    725c:	775f1104 	ldrbvc	r1, [pc, -r4, lsl #2]
    7260:	07b80500 	ldreq	r0, [r8, r0, lsl #10]!
    7264:	00000025 	andeq	r0, r0, r5, lsr #32
    7268:	03010e08 	movweq	r0, #7688	; 0x1e08
    726c:	b9050000 	stmdblt	r5, {}	; <UNPREDICTABLE>
    7270:	00003a09 	andeq	r3, r0, r9, lsl #20
    7274:	a20e0c00 	andge	r0, lr, #0, 24
    7278:	05000004 	streq	r0, [r0, #-4]
    727c:	003a09ba 	ldrhteq	r0, [sl], -sl
    7280:	110e0000 	mrsne	r0, (UNDEF: 14)
    7284:	0066625f 	rsbeq	r6, r6, pc, asr r2
    7288:	dd11bb05 	vldrle	d11, [r1, #-20]	; 0xffffffec
    728c:	10000002 	andne	r0, r0, r2
    7290:	00029c0e 	andeq	r9, r2, lr, lsl #24
    7294:	07bc0500 	ldreq	r0, [ip, r0, lsl #10]!
    7298:	00000025 	andeq	r0, r0, r5, lsr #32
    729c:	02f10e18 	rscseq	r0, r1, #24, 28	; 0x180
    72a0:	c3050000 	movwgt	r0, #20480	; 0x5000
    72a4:	00006b0a 	andeq	r6, r0, sl, lsl #22
    72a8:	e50e1c00 	str	r1, [lr, #-3072]	; 0xfffff400
    72ac:	0500000a 	streq	r0, [r0, #-10]
    72b0:	05c01dc5 	strbeq	r1, [r0, #3525]	; 0xdc5
    72b4:	0e200000 	cdpeq	0, 2, cr0, cr0, cr0, {0}
    72b8:	00000aff 	strdeq	r0, [r0], -pc	; <UNPREDICTABLE>
    72bc:	ea1dc705 	b	778ed8 <__bss_end__+0x76fa10>
    72c0:	24000005 	strcs	r0, [r0], #-5
    72c4:	0006280e 	andeq	r2, r6, lr, lsl #16
    72c8:	0dca0500 	cfstr64eq	mvdx0, [sl]
    72cc:	0000060e 	andeq	r0, r0, lr, lsl #12
    72d0:	07050e28 	streq	r0, [r5, -r8, lsr #28]
    72d4:	cb050000 	blgt	1472dc <__bss_end__+0x13de14>
    72d8:	00062809 	andeq	r2, r6, r9, lsl #16
    72dc:	5f112c00 	svcpl	0x00112c00
    72e0:	05006275 	streq	r6, [r0, #-629]	; 0xfffffd8b
    72e4:	02dd11ce 	sbcseq	r1, sp, #-2147483597	; 0x80000033
    72e8:	11300000 	teqne	r0, r0
    72ec:	0070755f 	rsbseq	r7, r0, pc, asr r5
    72f0:	0512cf05 	ldreq	ip, [r2, #-3845]	; 0xfffff0fb
    72f4:	38000003 	stmdacc	r0, {r0, r1}
    72f8:	72755f11 	rsbsvc	r5, r5, #68	; 0x44
    72fc:	07d00500 	ldrbeq	r0, [r0, r0, lsl #10]
    7300:	00000025 	andeq	r0, r0, r5, lsr #32
    7304:	02c80e3c 	sbceq	r0, r8, #60, 28	; 0x3c0
    7308:	d3050000 	movwle	r0, #20480	; 0x5000
    730c:	00062e11 	andeq	r2, r6, r1, lsl lr
    7310:	dd0e4000 	stcle	0, cr4, [lr, #-0]
    7314:	05000006 	streq	r0, [r0, #-6]
    7318:	063e11d4 			; <UNDEFINED> instruction: 0x063e11d4
    731c:	11430000 	mrsne	r0, (UNDEF: 67)
    7320:	00626c5f 	rsbeq	r6, r2, pc, asr ip
    7324:	dd11d705 	ldcle	7, cr13, [r1, #-20]	; 0xffffffec
    7328:	44000002 	strmi	r0, [r0], #-2
    732c:	0003170e 	andeq	r1, r3, lr, lsl #14
    7330:	07da0500 	ldrbeq	r0, [sl, r0, lsl #10]
    7334:	00000025 	andeq	r0, r0, r5, lsr #32
    7338:	03280e4c 			; <UNDEFINED> instruction: 0x03280e4c
    733c:	db050000 	blle	147344 <__bss_end__+0x13de7c>
    7340:	0000840a 	andeq	r8, r0, sl, lsl #8
    7344:	410e5000 	mrsmi	r5, (UNDEF: 14)
    7348:	0500000a 	streq	r0, [r0, #-10]
    734c:	046c12de 	strbteq	r1, [ip], #-734	; 0xfffffd22
    7350:	0e540000 	cdpeq	0, 5, cr0, cr4, cr0, {0}
    7354:	00000622 	andeq	r0, r0, r2, lsr #12
    7358:	0b0ce205 	bleq	33fb74 <__bss_end__+0x3366ac>
    735c:	58000001 	stmdapl	r0, {r0}
    7360:	0005ae0e 	andeq	sl, r5, lr, lsl #28
    7364:	0ee40500 	cdpeq	5, 14, cr0, cr4, cr0, {0}
    7368:	000000ff 	strdeq	r0, [r0], -pc	; <UNPREDICTABLE>
    736c:	051b0e5c 	ldreq	r0, [fp, #-3676]	; 0xfffff1a4
    7370:	e5050000 	str	r0, [r5, #-0]
    7374:	00002509 	andeq	r2, r0, r9, lsl #10
    7378:	15006400 	strne	r6, [r0, #-1024]	; 0xfffffc00
    737c:	00000025 	andeq	r0, r0, r5, lsr #32
    7380:	0000046c 	andeq	r0, r0, ip, ror #8
    7384:	00046c16 	andeq	r6, r4, r6, lsl ip
    7388:	006b1600 	rsbeq	r1, fp, r0, lsl #12
    738c:	17160000 	ldrne	r0, [r6, -r0]
    7390:	16000001 	strne	r0, [r0], -r1
    7394:	00000025 	andeq	r0, r0, r5, lsr #32
    7398:	77040600 	strvc	r0, [r4, -r0, lsl #12]
    739c:	0f000004 	svceq	0x00000004
    73a0:	0000046c 	andeq	r0, r0, ip, ror #8
    73a4:	00060c17 	andeq	r0, r6, r7, lsl ip
    73a8:	05042800 	streq	r2, [r4, #-2048]	; 0xfffff800
    73ac:	c0080260 	andgt	r0, r8, r0, ror #4
    73b0:	18000005 	stmdane	r0, {r0, r2}
    73b4:	00000576 	andeq	r0, r0, r6, ror r5
    73b8:	07026205 	streq	r6, [r2, -r5, lsl #4]
    73bc:	00000025 	andeq	r0, r0, r5, lsr #32
    73c0:	03101800 	tsteq	r0, #0, 16
    73c4:	67050000 	strvs	r0, [r5, -r0]
    73c8:	069a0b02 	ldreq	r0, [sl], r2, lsl #22
    73cc:	18040000 	stmdane	r4, {}	; <UNPREDICTABLE>
    73d0:	00000492 	muleq	r0, r2, r4
    73d4:	14026705 	strne	r6, [r2], #-1797	; 0xfffff8fb
    73d8:	0000069a 	muleq	r0, sl, r6
    73dc:	04401808 	strbeq	r1, [r0], #-2056	; 0xfffff7f8
    73e0:	67050000 	strvs	r0, [r5, -r0]
    73e4:	069a1e02 	ldreq	r1, [sl], r2, lsl #28
    73e8:	180c0000 	stmdane	ip, {}	; <UNPREDICTABLE>
    73ec:	000005cf 	andeq	r0, r0, pc, asr #11
    73f0:	08026905 	stmdaeq	r2, {r0, r2, r8, fp, sp, lr}
    73f4:	00000025 	andeq	r0, r0, r5, lsr #32
    73f8:	026d1810 	rsbeq	r1, sp, #16, 16	; 0x100000
    73fc:	6a050000 	bvs	147404 <__bss_end__+0x13df3c>
    7400:	089a0802 	ldmeq	sl, {r1, fp}
    7404:	18140000 	ldmdane	r4, {}	; <UNPREDICTABLE>
    7408:	000005eb 	andeq	r0, r0, fp, ror #11
    740c:	07026d05 	streq	r6, [r2, -r5, lsl #26]
    7410:	00000025 	andeq	r0, r0, r5, lsr #32
    7414:	05d91830 	ldrbeq	r1, [r9, #2096]	; 0x830
    7418:	6e050000 	cdpvs	0, 0, cr0, cr5, cr0, {0}
    741c:	08af1602 	stmiaeq	pc!, {r1, r9, sl, ip}	; <UNPREDICTABLE>
    7420:	18340000 	ldmdane	r4!, {}	; <UNPREDICTABLE>
    7424:	00000545 	andeq	r0, r0, r5, asr #10
    7428:	07027005 	streq	r7, [r2, -r5]
    742c:	00000025 	andeq	r0, r0, r5, lsr #32
    7430:	05e11838 	strbeq	r1, [r1, #2104]!	; 0x838
    7434:	72050000 	andvc	r0, r5, #0, 0
    7438:	08c00a02 	stmiaeq	r0, {r1, r9, fp}^
    743c:	183c0000 	ldmdane	ip!, {}	; <UNPREDICTABLE>
    7440:	000004fe 	strdeq	r0, [r0], -lr
    7444:	13027505 	movwne	r7, #9477	; 0x2505
    7448:	0000018f 	andeq	r0, r0, pc, lsl #3
    744c:	045f1840 	ldrbeq	r1, [pc], #-2112	; 7454 <__code_start__-0xbac>
    7450:	76050000 	strvc	r0, [r5], -r0
    7454:	00250702 	eoreq	r0, r5, r2, lsl #14
    7458:	18440000 	stmdane	r4, {}^	; <UNPREDICTABLE>
    745c:	0000071f 	andeq	r0, r0, pc, lsl r7
    7460:	13027705 	movwne	r7, #9989	; 0x2705
    7464:	0000018f 	andeq	r0, r0, pc, lsl #3
    7468:	05571848 	ldrbeq	r1, [r7, #-2120]	; 0xfffff7b8
    746c:	78050000 	stmdavc	r5, {}	; <UNPREDICTABLE>
    7470:	08c61402 	stmiaeq	r6, {r1, sl, ip}^
    7474:	184c0000 	stmdane	ip, {}^	; <UNPREDICTABLE>
    7478:	0000049a 	muleq	r0, sl, r4
    747c:	07027b05 	streq	r7, [r2, -r5, lsl #22]
    7480:	00000025 	andeq	r0, r0, r5, lsr #32
    7484:	03201850 			; <UNDEFINED> instruction: 0x03201850
    7488:	7c050000 	stcvc	0, cr0, [r5], {-0}
    748c:	01170902 	tsteq	r7, r2, lsl #18
    7490:	18540000 	ldmdane	r4, {}^	; <UNPREDICTABLE>
    7494:	0000056f 	andeq	r0, r0, pc, ror #10
    7498:	07029f05 	streq	r9, [r2, -r5, lsl #30]
    749c:	00000875 	andeq	r0, r0, r5, ror r8
    74a0:	053d1958 	ldreq	r1, [sp, #-2392]!	; 0xfffff6a8
    74a4:	a3050000 	movwge	r0, #20480	; 0x5000
    74a8:	02c01302 	sbceq	r1, r0, #134217728	; 0x8000000
    74ac:	01480000 	mrseq	r0, (UNDEF: 72)
    74b0:	0004d819 	andeq	sp, r4, r9, lsl r8
    74b4:	02a40500 	adceq	r0, r4, #0, 10
    74b8:	00027d12 	andeq	r7, r2, r2, lsl sp
    74bc:	19014c00 	stmdbne	r1, {sl, fp, lr}
    74c0:	000006d3 	ldrdeq	r0, [r0], -r3
    74c4:	0c02a805 	stceq	8, cr10, [r2], {5}
    74c8:	000008d7 	ldrdeq	r0, [r0], -r7
    74cc:	f91902dc 			; <UNDEFINED> instruction: 0xf91902dc
    74d0:	05000002 	streq	r0, [r0, #-2]
    74d4:	5b1002ad 	blpl	407f90 <__bss_end__+0x3feac8>
    74d8:	e0000006 	and	r0, r0, r6
    74dc:	02de1902 	sbcseq	r1, lr, #32768	; 0x8000
    74e0:	af050000 	svcge	0x00050000
    74e4:	08e30a02 	stmiaeq	r3!, {r1, r9, fp}^
    74e8:	02ec0000 	rsceq	r0, ip, #0, 0
    74ec:	4e040600 	cfmadd32mi	mvax0, mvfx0, mvfx4, mvfx0
    74f0:	15000004 	strne	r0, [r0, #-4]
    74f4:	00000025 	andeq	r0, r0, r5, lsr #32
    74f8:	000005e4 	andeq	r0, r0, r4, ror #11
    74fc:	00046c16 	andeq	r6, r4, r6, lsl ip
    7500:	006b1600 	rsbeq	r1, fp, r0, lsl #12
    7504:	e4160000 	ldr	r0, [r6], #-0
    7508:	16000005 	strne	r0, [r0], -r5
    750c:	00000025 	andeq	r0, r0, r5, lsr #32
    7510:	24040600 	strcs	r0, [r4], #-1536	; 0xfffffa00
    7514:	06000001 	streq	r0, [r0], -r1
    7518:	0005c604 	andeq	ip, r5, r4, lsl #12
    751c:	00901500 	addseq	r1, r0, r0, lsl #10
    7520:	060e0000 	streq	r0, [lr], -r0
    7524:	6c160000 	ldcvs	0, cr0, [r6], {-0}
    7528:	16000004 	strne	r0, [r0], -r4
    752c:	0000006b 	andeq	r0, r0, fp, rrx
    7530:	00009016 	andeq	r9, r0, r6, lsl r0
    7534:	00251600 	eoreq	r1, r5, r0, lsl #12
    7538:	06000000 	streq	r0, [r0], -r0
    753c:	0005f004 	andeq	pc, r5, r4
    7540:	00251500 	eoreq	r1, r5, r0, lsl #10
    7544:	06280000 	strteq	r0, [r8], -r0
    7548:	6c160000 	ldcvs	0, cr0, [r6], {-0}
    754c:	16000004 	strne	r0, [r0], -r4
    7550:	0000006b 	andeq	r0, r0, fp, rrx
    7554:	14040600 	strne	r0, [r4], #-1536	; 0xfffffa00
    7558:	0b000006 	bleq	7578 <__code_start__-0xa88>
    755c:	0000004f 	andeq	r0, r0, pc, asr #32
    7560:	0000063e 	andeq	r0, r0, lr, lsr r6
    7564:	00002c0c 	andeq	r2, r0, ip, lsl #24
    7568:	0b000200 	bleq	7d70 <__code_start__-0x290>
    756c:	0000004f 	andeq	r0, r0, pc, asr #32
    7570:	0000064e 	andeq	r0, r0, lr, asr #12
    7574:	00002c0c 	andeq	r2, r0, ip, lsl #24
    7578:	08000000 	stmdaeq	r0, {}	; <UNPREDICTABLE>
    757c:	00000594 	muleq	r0, r4, r5
    7580:	1a011f05 	bne	4f19c <__bss_end__+0x45cd4>
    7584:	0000030b 	andeq	r0, r0, fp, lsl #6
    7588:	0006ba1a 	andeq	fp, r6, sl, lsl sl
    758c:	23050c00 	movwcs	r0, #23552	; 0x5c00
    7590:	06940801 	ldreq	r0, [r4], r1, lsl #16
    7594:	bc180000 	ldclt	0, cr0, [r8], {-0}
    7598:	05000005 	streq	r0, [r0, #-5]
    759c:	94110125 	ldrls	r0, [r1], #-293	; 0xfffffedb
    75a0:	00000006 	andeq	r0, r0, r6
    75a4:	0004d118 	andeq	sp, r4, r8, lsl r1
    75a8:	01260500 			; <UNDEFINED> instruction: 0x01260500
    75ac:	00002507 	andeq	r2, r0, r7, lsl #10
    75b0:	8e180400 	cfmulshi	mvf0, mvf8, mvf0
    75b4:	05000005 	streq	r0, [r0, #-5]
    75b8:	9a0b0127 	bls	2c7a5c <__bss_end__+0x2be594>
    75bc:	08000006 	stmdaeq	r0, {r1, r2}
    75c0:	5b040600 	blpl	108dc8 <__bss_end__+0xff900>
    75c4:	06000006 	streq	r0, [r0], -r6
    75c8:	00064e04 	andeq	r4, r6, r4, lsl #28
    75cc:	02651a00 	rsbeq	r1, r5, #0, 20
    75d0:	050e0000 	streq	r0, [lr, #-0]
    75d4:	d908013f 	stmdble	r8, {r0, r1, r2, r3, r4, r5, r8}
    75d8:	18000006 	stmdane	r0, {r1, r2}
    75dc:	00000613 	andeq	r0, r0, r3, lsl r6
    75e0:	12014005 	andne	r4, r1, #5, 0
    75e4:	000006d9 	ldrdeq	r0, [r0], -r9
    75e8:	064d1800 	strbeq	r1, [sp], -r0, lsl #16
    75ec:	41050000 	mrsmi	r0, (UNDEF: 5)
    75f0:	06d91201 	ldrbeq	r1, [r9], r1, lsl #4
    75f4:	18060000 	stmdane	r6, {}	; <UNPREDICTABLE>
    75f8:	00000671 	andeq	r0, r0, r1, ror r6
    75fc:	12014205 	andne	r4, r1, #1342177280	; 0x50000000
    7600:	00000056 	andeq	r0, r0, r6, asr r0
    7604:	560b000c 	strpl	r0, [fp], -ip
    7608:	e9000000 	stmdb	r0, {}	; <UNPREDICTABLE>
    760c:	0c000006 	stceq	0, cr0, [r0], {6}
    7610:	0000002c 	andeq	r0, r0, ip, lsr #32
    7614:	d01b0002 	andsle	r0, fp, r2
    7618:	07028005 	streq	r8, [r2, -r5]
    761c:	000007fe 	strdeq	r0, [r0], -lr
    7620:	00069e18 	andeq	r9, r6, r8, lsl lr
    7624:	02820500 	addeq	r0, r2, #0, 10
    7628:	00002c18 	andeq	r2, r0, r8, lsl ip
    762c:	53180000 	tstpl	r8, #0, 0
    7630:	05000006 	streq	r0, [r0, #-6]
    7634:	17120283 	ldrne	r0, [r2, -r3, lsl #5]
    7638:	04000001 	streq	r0, [r0], #-1
    763c:	0004f118 	andeq	pc, r4, r8, lsl r1	; <UNPREDICTABLE>
    7640:	02840500 	addeq	r0, r4, #0, 10
    7644:	0007fe10 	andeq	pc, r7, r0, lsl lr	; <UNPREDICTABLE>
    7648:	f6180800 			; <UNDEFINED> instruction: 0xf6180800
    764c:	05000006 	streq	r0, [r0, #-6]
    7650:	a5170285 	ldrge	r0, [r7, #-645]	; 0xfffffd7b
    7654:	24000001 	strcs	r0, [r0], #-1
    7658:	00045018 	andeq	r5, r4, r8, lsl r0
    765c:	02860500 	addeq	r0, r6, #0, 10
    7660:	0000250f 	andeq	r2, r0, pc, lsl #10
    7664:	b7184800 	ldrlt	r4, [r8, -r0, lsl #16]
    7668:	05000005 	streq	r0, [r0, #-5]
    766c:	642c0287 	strtvs	r0, [ip], #-647	; 0xfffffd79
    7670:	50000000 	andpl	r0, r0, r0
    7674:	00070c18 	andeq	r0, r7, r8, lsl ip
    7678:	02880500 	addeq	r0, r8, #0, 10
    767c:	0006a01a 	andeq	sl, r6, sl, lsl r0
    7680:	c2185800 	andsgt	r5, r8, #0, 16
    7684:	05000005 	streq	r0, [r0, #-5]
    7688:	ff160289 			; <UNDEFINED> instruction: 0xff160289
    768c:	68000000 	stmdavs	r0, {}	; <UNPREDICTABLE>
    7690:	00071118 	andeq	r1, r7, r8, lsl r1
    7694:	028a0500 	addeq	r0, sl, #0, 10
    7698:	0000ff16 	andeq	pc, r0, r6, lsl pc	; <UNPREDICTABLE>
    769c:	61187000 	tstvs	r8, r0
    76a0:	05000005 	streq	r0, [r0, #-5]
    76a4:	ff16028b 			; <UNDEFINED> instruction: 0xff16028b
    76a8:	78000000 	stmdavc	r0, {}	; <UNPREDICTABLE>
    76ac:	0006c918 	andeq	ip, r6, r8, lsl r9
    76b0:	028c0500 	addeq	r0, ip, #0, 10
    76b4:	00080e10 	andeq	r0, r8, r0, lsl lr
    76b8:	90188000 	andsls	r8, r8, r0
    76bc:	05000002 	streq	r0, [r0, #-2]
    76c0:	1e10028d 	cdpne	2, 1, cr0, cr0, cr13, {4}
    76c4:	88000008 	stmdahi	r0, {r3}
    76c8:	00067e18 	andeq	r7, r6, r8, lsl lr
    76cc:	028e0500 	addeq	r0, lr, #0, 10
    76d0:	0000250f 	andeq	r2, r0, pc, lsl #10
    76d4:	1618a000 	ldrne	sl, [r8], -r0
    76d8:	05000004 	streq	r0, [r0, #-4]
    76dc:	ff16028f 			; <UNDEFINED> instruction: 0xff16028f
    76e0:	a4000000 	strge	r0, [r0], #-0
    76e4:	0002b018 	andeq	fp, r2, r8, lsl r0
    76e8:	02900500 	addseq	r0, r0, #0, 10
    76ec:	0000ff16 	andeq	pc, r0, r6, lsl pc	; <UNPREDICTABLE>
    76f0:	0518ac00 	ldreq	sl, [r8, #-3072]	; 0xfffff400
    76f4:	05000004 	streq	r0, [r0, #-4]
    76f8:	ff160291 			; <UNDEFINED> instruction: 0xff160291
    76fc:	b4000000 	strlt	r0, [r0], #-0
    7700:	00028118 	andeq	r8, r2, r8, lsl r1
    7704:	02920500 	addseq	r0, r2, #0, 10
    7708:	0000ff16 	andeq	pc, r0, r6, lsl pc	; <UNPREDICTABLE>
    770c:	8118bc00 	tsthi	r8, r0, lsl #24
    7710:	05000004 	streq	r0, [r0, #-4]
    7714:	ff160293 			; <UNDEFINED> instruction: 0xff160293
    7718:	c4000000 	strgt	r0, [r0], #-0
    771c:	00057418 	andeq	r7, r5, r8, lsl r4
    7720:	02940500 	addseq	r0, r4, #0, 10
    7724:	00002508 	andeq	r2, r0, r8, lsl #10
    7728:	0b00cc00 	bleq	3a730 <__bss_end__+0x31268>
    772c:	0000011d 	andeq	r0, r0, sp, lsl r1
    7730:	0000080e 	andeq	r0, r0, lr, lsl #16
    7734:	00002c0c 	andeq	r2, r0, ip, lsl #24
    7738:	0b001900 	bleq	db40 <__bss_end__+0x4678>
    773c:	0000011d 	andeq	r0, r0, sp, lsl r1
    7740:	0000081e 	andeq	r0, r0, lr, lsl r8
    7744:	00002c0c 	andeq	r2, r0, ip, lsl #24
    7748:	0b000700 	bleq	9350 <__code_end__+0x298>
    774c:	0000011d 	andeq	r0, r0, sp, lsl r1
    7750:	0000082e 	andeq	r0, r0, lr, lsr #16
    7754:	00002c0c 	andeq	r2, r0, ip, lsl #24
    7758:	1b001700 	blne	d360 <__bss_end__+0x3e98>
    775c:	029905f0 	addseq	r0, r9, #240, 10	; 0x3c000000
    7760:	00085507 	andeq	r5, r8, r7, lsl #10
    7764:	052d1800 	streq	r1, [sp, #-2048]!	; 0xfffff800
    7768:	9c050000 	stcls	0, cr0, [r5], {-0}
    776c:	08551b02 	ldmdaeq	r5, {r1, r8, r9, fp, ip}^
    7770:	18000000 	stmdane	r0, {}	; <UNPREDICTABLE>
    7774:	000006c0 	andeq	r0, r0, r0, asr #13
    7778:	18029d05 	stmdane	r2, {r0, r2, r8, sl, fp, ip, pc}
    777c:	00000865 	andeq	r0, r0, r5, ror #16
    7780:	050b0078 	streq	r0, [fp, #-120]	; 0xffffff88
    7784:	65000003 	strvs	r0, [r0, #-3]
    7788:	0c000008 	stceq	0, cr0, [r0], {8}
    778c:	0000002c 	andeq	r0, r0, ip, lsr #32
    7790:	2c0b001d 	stccs	0, cr0, [fp], {29}
    7794:	75000000 	strvc	r0, [r0, #-0]
    7798:	0c000008 	stceq	0, cr0, [r0], {8}
    779c:	0000002c 	andeq	r0, r0, ip, lsr #32
    77a0:	f01c001d 			; <UNDEFINED> instruction: 0xf01c001d
    77a4:	03027e05 	movweq	r7, #11781	; 0x2e05
    77a8:	0000089a 	muleq	r0, sl, r8
    77ac:	00060c1d 	andeq	r0, r6, sp, lsl ip
    77b0:	02950500 	addseq	r0, r5, #0, 10
    77b4:	0006e90b 	andeq	lr, r6, fp, lsl #18
    77b8:	06e31d00 	strbteq	r1, [r3], r0, lsl #26
    77bc:	9e050000 	cdpls	0, 0, cr0, cr5, cr0, {0}
    77c0:	082e0b02 	stmdaeq	lr!, {r1, r8, r9, fp}
    77c4:	0b000000 	bleq	77cc <__code_start__-0x834>
    77c8:	0000011d 	andeq	r0, r0, sp, lsl r1
    77cc:	000008aa 	andeq	r0, r0, sl, lsr #17
    77d0:	00002c0c 	andeq	r2, r0, ip, lsl #24
    77d4:	07001800 	streq	r1, [r0, -r0, lsl #16]
    77d8:	000002a5 	andeq	r0, r0, r5, lsr #5
    77dc:	08aa0406 	stmiaeq	sl!, {r1, r2, sl}
    77e0:	c01e0000 	andsgt	r0, lr, r0
    77e4:	16000008 	strne	r0, [r0], -r8
    77e8:	0000046c 	andeq	r0, r0, ip, ror #8
    77ec:	b5040600 	strlt	r0, [r4, #-1536]	; 0xfffffa00
    77f0:	06000008 	streq	r0, [r0], -r8
    77f4:	00018f04 	andeq	r8, r1, r4, lsl #30
    77f8:	08d71e00 	ldmeq	r7, {r9, sl, fp, ip}^
    77fc:	25160000 	ldrcs	r0, [r6, #-0]
    7800:	00000000 	andeq	r0, r0, r0
    7804:	08dd0406 	ldmeq	sp, {r1, r2, sl}^
    7808:	04060000 	streq	r0, [r6], #-0
    780c:	000008cc 	andeq	r0, r0, ip, asr #17
    7810:	00064e0b 	andeq	r4, r6, fp, lsl #28
    7814:	0008f300 	andeq	pc, r8, r0, lsl #6
    7818:	002c0c00 	eoreq	r0, ip, r0, lsl #24
    781c:	00020000 	andeq	r0, r2, r0
    7820:	0006921f 	andeq	r9, r6, pc, lsl r2
    7824:	032e0500 			; <UNDEFINED> instruction: 0x032e0500
    7828:	00046c17 	andeq	r6, r4, r7, lsl ip
    782c:	068b1f00 	streq	r1, [fp], r0, lsl #30
    7830:	2f050000 	svccs	0x00050000
    7834:	04721d03 	ldrbteq	r1, [r2], #-3331	; 0xfffff2fd
    7838:	36050000 	strcc	r0, [r5], -r0
    783c:	06000006 	streq	r0, [r0], -r6
    7840:	09190f21 	ldmdbeq	r9, {r0, r5, r8, r9, sl, fp}
    7844:	04060000 	streq	r0, [r6], #-0
    7848:	0000091f 	andeq	r0, r0, pc, lsl r9
    784c:	00002515 	andeq	r2, r0, r5, lsl r5
    7850:	00092e00 	andeq	r2, r9, r0, lsl #28
    7854:	00251600 	eoreq	r1, r5, r0, lsl #12
    7858:	20000000 	andcs	r0, r0, r0
    785c:	00000469 	andeq	r0, r0, r9, ror #8
    7860:	0d162306 	ldceq	3, cr2, [r6, #-24]	; 0xffffffe8
    7864:	21000009 	tstcs	r0, r9
    7868:	000007d6 	ldrdeq	r0, [r0], -r6
    786c:	25050301 	strcs	r0, [r5, #-769]	; 0xfffffcff
    7870:	68000000 	stmdavs	r0, {}	; <UNPREDICTABLE>
    7874:	34000090 	strcc	r0, [r0], #-144	; 0xffffff70
    7878:	01000000 	mrseq	r0, (UNDEF: 0)
    787c:	0070229c 			; <UNDEFINED> instruction: 0x0070229c
    7880:	e4160301 	ldr	r0, [r6], #-769	; 0xfffffcff
    7884:	5c000005 	stcpl	0, cr0, [r0], {5}
    7888:	58000012 	stmdapl	r0, {r1, r4}
    788c:	00000012 	andeq	r0, r0, r2, lsl r0
    7890:	00003400 	andeq	r3, r0, r0, lsl #8
    7894:	c8000400 	stmdagt	r0, {sl}
    7898:	04000019 	streq	r0, [r0], #-25	; 0xffffffe7
    789c:	00033001 	andeq	r3, r3, r1
    78a0:	0b840c00 	bleq	fe10a8a8 <__bss_end__+0xfe1013e0>
    78a4:	0b9b0000 	bleq	fe6c78ac <__bss_end__+0xfe6be3e4>
    78a8:	90b40000 	adcsls	r0, r4, r0
    78ac:	00040000 	andeq	r0, r4, r0
    78b0:	17a50000 	strne	r0, [r5, r0]!
    78b4:	9e020000 	cdpls	0, 0, cr0, cr2, cr0, {0}
    78b8:	01000009 	tsteq	r0, r9
    78bc:	90b40602 	adcsls	r0, r4, r2, lsl #12
    78c0:	00040000 	andeq	r0, r4, r0
    78c4:	9c010000 	stcls	0, cr0, [r1], {-0}
	...

Disassembly of section .debug_abbrev:

00000000 <.debug_abbrev>:
       0:	25011101 	strcs	r1, [r1, #-257]	; 0xfffffeff
       4:	030b130e 	movweq	r1, #45838	; 0xb30e
       8:	110e1b0e 	tstne	lr, lr, lsl #22
       c:	10061201 	andne	r1, r6, r1, lsl #4
      10:	02000017 	andeq	r0, r0, #23, 0
      14:	0b0b0024 	bleq	2c00ac <__bss_end__+0x2b6be4>
      18:	08030b3e 	stmdaeq	r3, {r1, r2, r3, r4, r5, r8, r9, fp}
      1c:	24030000 	strcs	r0, [r3], #-0
      20:	3e0b0b00 	vmlacc.f64	d0, d11, d0
      24:	000e030b 	andeq	r0, lr, fp, lsl #6
      28:	00160400 	andseq	r0, r6, r0, lsl #8
      2c:	0b3a0e03 	bleq	e83840 <__bss_end__+0xe7a378>
      30:	0b390b3b 	bleq	e42d24 <__bss_end__+0xe3985c>
      34:	00001349 	andeq	r1, r0, r9, asr #6
      38:	49002605 	stmdbmi	r0, {r0, r2, r9, sl, sp}
      3c:	06000013 			; <UNDEFINED> instruction: 0x06000013
      40:	0b0b000f 	bleq	2c0084 <__bss_end__+0x2b6bbc>
      44:	04070000 	streq	r0, [r7], #-0
      48:	0b0b3e01 	bleq	2cf854 <__bss_end__+0x2c638c>
      4c:	3a13490b 	bcc	4d2480 <__bss_end__+0x4c8fb8>
      50:	390b3b0b 	stmdbcc	fp, {r0, r1, r3, r8, r9, fp, ip, sp}
      54:	0013010b 	andseq	r0, r3, fp, lsl #2
      58:	00280800 	eoreq	r0, r8, r0, lsl #16
      5c:	061c0e03 	ldreq	r0, [ip], -r3, lsl #28
      60:	34090000 	strcc	r0, [r9], #-0
      64:	3a0e0300 	bcc	380c6c <__bss_end__+0x3777a4>
      68:	390b3b0b 	stmdbcc	fp, {r0, r1, r3, r8, r9, fp, ip, sp}
      6c:	0213490b 	andseq	r4, r3, #180224	; 0x2c000
      70:	0a000018 	beq	d8 <__code_start__-0x7f28>
      74:	193f002e 	ldmdbne	pc!, {r1, r2, r3, r5}	; <UNPREDICTABLE>
      78:	0b3a0e03 	bleq	e8388c <__bss_end__+0xe7a3c4>
      7c:	0b390b3b 	bleq	e42d70 <__bss_end__+0xe398a8>
      80:	01111927 	tsteq	r1, r7, lsr #18
      84:	18400612 	stmdane	r0, {r1, r4, r9, sl}^
      88:	00194297 	mulseq	r9, r7, r2
      8c:	012e0b00 			; <UNDEFINED> instruction: 0x012e0b00
      90:	0e03193f 			; <UNDEFINED> instruction: 0x0e03193f
      94:	0b3b0b3a 	bleq	ec2d84 <__bss_end__+0xeb98bc>
      98:	19270b39 	stmdbne	r7!, {r0, r3, r4, r5, r8, r9, fp}
      9c:	01111349 	tsteq	r1, r9, asr #6
      a0:	18400612 	stmdane	r0, {r1, r4, r9, sl}^
      a4:	01194297 			; <UNDEFINED> instruction: 0x01194297
      a8:	0c000013 	stceq	0, cr0, [r0], {19}
      ac:	0e030005 	cdpeq	0, 0, cr0, cr3, cr5, {0}
      b0:	0b3b0b3a 	bleq	ec2da0 <__bss_end__+0xeb98d8>
      b4:	13490b39 	movtne	r0, #39737	; 0x9b39
      b8:	42b71702 	adcsmi	r1, r7, #524288	; 0x80000
      bc:	0d000017 	stceq	0, cr0, [r0, #-92]	; 0xffffffa4
      c0:	0e030034 	mcreq	0, 0, r0, cr3, cr4, {1}
      c4:	19341349 	ldmdbne	r4!, {r0, r3, r6, r8, r9, ip}
      c8:	00001802 	andeq	r1, r0, r2, lsl #16
      cc:	0300340e 	movweq	r3, #1038	; 0x40e
      d0:	3b0b3a08 	blcc	2ce8f8 <__bss_end__+0x2c5430>
      d4:	490b390b 	stmdbmi	fp, {r0, r1, r3, r8, fp, ip, sp}
      d8:	b7170213 			; <UNDEFINED> instruction: 0xb7170213
      dc:	00001742 	andeq	r1, r0, r2, asr #14
      e0:	31011d0f 	tstcc	r1, pc, lsl #26
      e4:	b8015213 	stmdalt	r1, {r0, r1, r4, r9, ip, lr}
      e8:	01110b42 	tsteq	r1, r2, asr #22
      ec:	0b580612 	bleq	160193c <__bss_end__+0x15f8474>
      f0:	0b570b59 	bleq	15c2e5c <__bss_end__+0x15b9994>
      f4:	00001301 	andeq	r1, r0, r1, lsl #6
      f8:	31000510 	tstcc	r0, r0, lsl r5
      fc:	b7170213 			; <UNDEFINED> instruction: 0xb7170213
     100:	00001742 	andeq	r1, r0, r2, asr #14
     104:	31011d11 	tstcc	r1, r1, lsl sp
     108:	b8015213 	stmdalt	r1, {r0, r1, r4, r9, ip, lr}
     10c:	17550b42 	ldrbne	r0, [r5, -r2, asr #22]
     110:	0b590b58 	bleq	1642e78 <__bss_end__+0x16399b0>
     114:	13010b57 	movwne	r0, #6999	; 0x1b57
     118:	0b120000 	bleq	480120 <__bss_end__+0x476c58>
     11c:	00175501 	andseq	r5, r7, r1, lsl #10
     120:	82891300 	addhi	r1, r9, #0, 6
     124:	01110101 	tsteq	r1, r1, lsl #2
     128:	13011331 	movwne	r1, #4913	; 0x1331
     12c:	8a140000 	bhi	500134 <__bss_end__+0x4f6c6c>
     130:	02000182 	andeq	r0, r0, #-2147483616	; 0x80000020
     134:	18429118 	stmdane	r2, {r3, r4, r8, ip, pc}^
     138:	89150000 	ldmdbhi	r5, {}	; <UNPREDICTABLE>
     13c:	11000182 	smlabbne	r0, r2, r1, r0
     140:	00133101 	andseq	r3, r3, r1, lsl #2
     144:	01011600 	tsteq	r1, r0, lsl #12
     148:	13011349 	movwne	r1, #4937	; 0x1349
     14c:	21170000 	tstcs	r7, r0
     150:	2f134900 	svccs	0x00134900
     154:	1800000b 	stmdane	r0, {r0, r1, r3}
     158:	0e030034 	mcreq	0, 0, r0, cr3, cr4, {1}
     15c:	0b3b0b3a 	bleq	ec2e4c <__bss_end__+0xeb9984>
     160:	13490b39 	movtne	r0, #39737	; 0x9b39
     164:	42b71702 	adcsmi	r1, r7, #524288	; 0x80000
     168:	19000017 	stmdbne	r0, {r0, r1, r2, r4}
     16c:	1755000b 	ldrbne	r0, [r5, -fp]
     170:	2e1a0000 	cdpcs	0, 1, cr0, cr10, cr0, {0}
     174:	03193f01 	tsteq	r9, #1, 30
     178:	3b0b3a0e 	blcc	2ce9b8 <__bss_end__+0x2c54f0>
     17c:	270b390b 	strcs	r3, [fp, -fp, lsl #18]
     180:	12011119 	andne	r1, r1, #1073741830	; 0x40000006
     184:	97184006 	ldrls	r4, [r8, -r6]
     188:	13011942 	movwne	r1, #6466	; 0x1942
     18c:	341b0000 	ldrcc	r0, [fp], #-0
     190:	3a080300 	bcc	200d98 <__bss_end__+0x1f78d0>
     194:	390b3b0b 	stmdbcc	fp, {r0, r1, r3, r8, r9, fp, ip, sp}
     198:	1c13490b 			; <UNDEFINED> instruction: 0x1c13490b
     19c:	1c000006 	stcne	0, cr0, [r0], {6}
     1a0:	193f002e 	ldmdbne	pc!, {r1, r2, r3, r5}	; <UNPREDICTABLE>
     1a4:	0b3a0e03 	bleq	e839b8 <__bss_end__+0xe7a4f0>
     1a8:	0b390b3b 	bleq	e42e9c <__bss_end__+0xe399d4>
     1ac:	13491927 	movtne	r1, #39207	; 0x9927
     1b0:	06120111 			; <UNDEFINED> instruction: 0x06120111
     1b4:	42971840 	addsmi	r1, r7, #64, 16	; 0x400000
     1b8:	1d000019 	stcne	0, cr0, [r0, #-100]	; 0xffffff9c
     1bc:	0e03012e 	adfeqsp	f0, f3, #0.5
     1c0:	0b3b0b3a 	bleq	ec2eb0 <__bss_end__+0xeb99e8>
     1c4:	19270b39 	stmdbne	r7!, {r0, r3, r4, r5, r8, r9, fp}
     1c8:	0b201349 	bleq	804ef4 <__bss_end__+0x7fba2c>
     1cc:	00001301 	andeq	r1, r0, r1, lsl #6
     1d0:	0300051e 	movweq	r0, #1310	; 0x51e
     1d4:	3b0b3a08 	blcc	2ce9fc <__bss_end__+0x2c5534>
     1d8:	490b390b 	stmdbmi	fp, {r0, r1, r3, r8, fp, ip, sp}
     1dc:	1f000013 	svcne	0x00000013
     1e0:	193f002e 	ldmdbne	pc!, {r1, r2, r3, r5}	; <UNPREDICTABLE>
     1e4:	0e6e193c 			; <UNDEFINED> instruction: 0x0e6e193c
     1e8:	0b3a0e03 	bleq	e839fc <__bss_end__+0xe7a534>
     1ec:	0b390b3b 	bleq	e42ee0 <__bss_end__+0xe39a18>
     1f0:	2e200000 	cdpcs	0, 2, cr0, cr0, cr0, {0}
     1f4:	3c193f00 	ldccc	15, cr3, [r9], {-0}
     1f8:	030e6e19 	movweq	r6, #60953	; 0xee19
     1fc:	3b0b3a0e 	blcc	2cea3c <__bss_end__+0x2c5574>
     200:	000b3905 	andeq	r3, fp, r5, lsl #18
     204:	11010000 	mrsne	r0, (UNDEF: 1)
     208:	130e2501 	movwne	r2, #58625	; 0xe501
     20c:	1b0e030b 	blne	380e40 <__bss_end__+0x377978>
     210:	1201110e 	andne	r1, r1, #-2147483645	; 0x80000003
     214:	00171006 	andseq	r1, r7, r6
     218:	00240200 	eoreq	r0, r4, r0, lsl #4
     21c:	0b3e0b0b 	bleq	f82e50 <__bss_end__+0xf79988>
     220:	00000803 	andeq	r0, r0, r3, lsl #16
     224:	03001603 	movweq	r1, #1539	; 0x603
     228:	3b0b3a0e 	blcc	2cea68 <__bss_end__+0x2c55a0>
     22c:	490b390b 	stmdbmi	fp, {r0, r1, r3, r8, fp, ip, sp}
     230:	04000013 	streq	r0, [r0], #-19	; 0xffffffed
     234:	0b0b0024 	bleq	2c02cc <__bss_end__+0x2b6e04>
     238:	0e030b3e 	vmoveq.16	d3[0], r0
     23c:	0f050000 	svceq	0x00050000
     240:	000b0b00 	andeq	r0, fp, r0, lsl #22
     244:	000f0600 	andeq	r0, pc, r0, lsl #12
     248:	13490b0b 	movtne	r0, #39691	; 0x9b0b
     24c:	13070000 	movwne	r0, #28672	; 0x7000
     250:	3c0e0300 	stccc	3, cr0, [lr], {-0}
     254:	08000019 	stmdaeq	r0, {r0, r3, r4}
     258:	0e030016 	mcreq	0, 0, r0, cr3, cr6, {0}
     25c:	053b0b3a 	ldreq	r0, [fp, #-2874]!	; 0xfffff4c6
     260:	13490b39 	movtne	r0, #39737	; 0x9b39
     264:	17090000 	strne	r0, [r9, -r0]
     268:	3a0b0b01 	bcc	2c2e74 <__bss_end__+0x2b99ac>
     26c:	390b3b0b 	stmdbcc	fp, {r0, r1, r3, r8, r9, fp, ip, sp}
     270:	0013010b 	andseq	r0, r3, fp, lsl #2
     274:	000d0a00 	andeq	r0, sp, r0, lsl #20
     278:	0b3a0e03 	bleq	e83a8c <__bss_end__+0xe7a5c4>
     27c:	0b390b3b 	bleq	e42f70 <__bss_end__+0xe39aa8>
     280:	00001349 	andeq	r1, r0, r9, asr #6
     284:	4901010b 	stmdbmi	r1, {r0, r1, r3, r8}
     288:	00130113 	andseq	r0, r3, r3, lsl r1
     28c:	00210c00 	eoreq	r0, r1, r0, lsl #24
     290:	0b2f1349 	bleq	bc4fbc <__bss_end__+0xbbbaf4>
     294:	130d0000 	movwne	r0, #53248	; 0xd000
     298:	3a0b0b01 	bcc	2c2ea4 <__bss_end__+0x2b99dc>
     29c:	390b3b0b 	stmdbcc	fp, {r0, r1, r3, r8, r9, fp, ip, sp}
     2a0:	0013010b 	andseq	r0, r3, fp, lsl #2
     2a4:	000d0e00 	andeq	r0, sp, r0, lsl #28
     2a8:	0b3a0e03 	bleq	e83abc <__bss_end__+0xe7a5f4>
     2ac:	0b390b3b 	bleq	e42fa0 <__bss_end__+0xe39ad8>
     2b0:	0b381349 	bleq	e04fdc <__bss_end__+0xdfbb14>
     2b4:	260f0000 	strcs	r0, [pc], -r0
     2b8:	00134900 	andseq	r4, r3, r0, lsl #18
     2bc:	01131000 	tsteq	r3, r0
     2c0:	0b0b0e03 	bleq	2c3ad4 <__bss_end__+0x2ba60c>
     2c4:	0b3b0b3a 	bleq	ec2fb4 <__bss_end__+0xeb9aec>
     2c8:	13010b39 	movwne	r0, #6969	; 0x1b39
     2cc:	0d110000 	ldceq	0, cr0, [r1, #-0]
     2d0:	3a080300 	bcc	200ed8 <__bss_end__+0x1f7a10>
     2d4:	390b3b0b 	stmdbcc	fp, {r0, r1, r3, r8, r9, fp, ip, sp}
     2d8:	3813490b 	ldmdacc	r3, {r0, r1, r3, r8, fp, lr}
     2dc:	1200000b 	andne	r0, r0, #11, 0
     2e0:	0e030113 	mcreq	1, 0, r0, cr3, cr3, {0}
     2e4:	0b3a050b 	bleq	e81718 <__bss_end__+0xe78250>
     2e8:	0b390b3b 	bleq	e42fdc <__bss_end__+0xe39b14>
     2ec:	00001301 	andeq	r1, r0, r1, lsl #6
     2f0:	03000d13 	movweq	r0, #3347	; 0xd13
     2f4:	3b0b3a0e 	blcc	2ceb34 <__bss_end__+0x2c566c>
     2f8:	490b390b 	stmdbmi	fp, {r0, r1, r3, r8, fp, ip, sp}
     2fc:	00053813 	andeq	r3, r5, r3, lsl r8
     300:	00151400 	andseq	r1, r5, r0, lsl #8
     304:	00001927 	andeq	r1, r0, r7, lsr #18
     308:	27011515 	smladcs	r1, r5, r5, r1
     30c:	01134919 	tsteq	r3, r9, lsl r9
     310:	16000013 			; <UNDEFINED> instruction: 0x16000013
     314:	13490005 	movtne	r0, #36869	; 0x9005
     318:	13170000 	tstne	r7, #0, 0
     31c:	0b0e0301 	bleq	380f28 <__bss_end__+0x377a60>
     320:	3b0b3a05 	blcc	2ceb3c <__bss_end__+0x2c5674>
     324:	010b3905 	tsteq	fp, r5, lsl #18
     328:	18000013 	stmdane	r0, {r0, r1, r4}
     32c:	0e03000d 	cdpeq	0, 0, cr0, cr3, cr13, {0}
     330:	053b0b3a 	ldreq	r0, [fp, #-2874]!	; 0xfffff4c6
     334:	13490b39 	movtne	r0, #39737	; 0x9b39
     338:	00000b38 	andeq	r0, r0, r8, lsr fp
     33c:	03000d19 	movweq	r0, #3353	; 0xd19
     340:	3b0b3a0e 	blcc	2ceb80 <__bss_end__+0x2c56b8>
     344:	490b3905 	stmdbmi	fp, {r0, r2, r8, fp, ip, sp}
     348:	00053813 	andeq	r3, r5, r3, lsl r8
     34c:	01131a00 	tsteq	r3, r0, lsl #20
     350:	0b0b0e03 	bleq	2c3b64 <__bss_end__+0x2ba69c>
     354:	053b0b3a 	ldreq	r0, [fp, #-2874]!	; 0xfffff4c6
     358:	13010b39 	movwne	r0, #6969	; 0x1b39
     35c:	131b0000 	tstne	fp, #0, 0
     360:	3a0b0b01 	bcc	2c2f6c <__bss_end__+0x2b9aa4>
     364:	39053b0b 	stmdbcc	r5, {r0, r1, r3, r8, r9, fp, ip, sp}
     368:	0013010b 	andseq	r0, r3, fp, lsl #2
     36c:	01171c00 	tsteq	r7, r0, lsl #24
     370:	0b3a0b0b 	bleq	e82fa4 <__bss_end__+0xe79adc>
     374:	0b39053b 	bleq	e41868 <__bss_end__+0xe383a0>
     378:	00001301 	andeq	r1, r0, r1, lsl #6
     37c:	03000d1d 	movweq	r0, #3357	; 0xd1d
     380:	3b0b3a0e 	blcc	2cebc0 <__bss_end__+0x2c56f8>
     384:	490b3905 	stmdbmi	fp, {r0, r2, r8, fp, ip, sp}
     388:	1e000013 	mcrne	0, 0, r0, cr0, cr3, {0}
     38c:	19270115 	stmdbne	r7!, {r0, r2, r4, r8}
     390:	00001301 	andeq	r1, r0, r1, lsl #6
     394:	0300341f 	movweq	r3, #1055	; 0x41f
     398:	3b0b3a0e 	blcc	2cebd8 <__bss_end__+0x2c5710>
     39c:	490b3905 	stmdbmi	fp, {r0, r2, r8, fp, ip, sp}
     3a0:	3c193f13 	ldccc	15, cr3, [r9], {19}
     3a4:	20000019 	andcs	r0, r0, r9, lsl r0
     3a8:	0e030034 	mcreq	0, 0, r0, cr3, cr4, {1}
     3ac:	0b3b0b3a 	bleq	ec309c <__bss_end__+0xeb9bd4>
     3b0:	13490b39 	movtne	r0, #39737	; 0x9b39
     3b4:	193c193f 	ldmdbne	ip!, {r0, r1, r2, r3, r4, r5, r8, fp, ip}
     3b8:	2e210000 	cdpcs	0, 2, cr0, cr1, cr0, {0}
     3bc:	03193f01 	tsteq	r9, #1, 30
     3c0:	3b0b3a0e 	blcc	2cec00 <__bss_end__+0x2c5738>
     3c4:	270b390b 	strcs	r3, [fp, -fp, lsl #18]
     3c8:	11134919 	tstne	r3, r9, lsl r9
     3cc:	40061201 	andmi	r1, r6, r1, lsl #4
     3d0:	19429718 	stmdbne	r2, {r3, r4, r8, r9, sl, ip, pc}^
     3d4:	00001301 	andeq	r1, r0, r1, lsl #6
     3d8:	03000522 	movweq	r0, #1314	; 0x522
     3dc:	3b0b3a08 	blcc	2cec04 <__bss_end__+0x2c573c>
     3e0:	490b390b 	stmdbmi	fp, {r0, r1, r3, r8, fp, ip, sp}
     3e4:	b7170213 			; <UNDEFINED> instruction: 0xb7170213
     3e8:	00001742 	andeq	r1, r0, r2, asr #14
     3ec:	03000523 	movweq	r0, #1315	; 0x523
     3f0:	3b0b3a08 	blcc	2cec18 <__bss_end__+0x2c5750>
     3f4:	490b390b 	stmdbmi	fp, {r0, r1, r3, r8, fp, ip, sp}
     3f8:	00180213 	andseq	r0, r8, r3, lsl r2
     3fc:	00342400 	eorseq	r2, r4, r0, lsl #8
     400:	0b3a0803 	bleq	e82414 <__bss_end__+0xe78f4c>
     404:	0b390b3b 	bleq	e430f8 <__bss_end__+0xe39c30>
     408:	17021349 	strne	r1, [r2, -r9, asr #6]
     40c:	001742b7 			; <UNDEFINED> instruction: 0x001742b7
     410:	010b2500 	tsteq	fp, r0, lsl #10
     414:	13011755 	movwne	r1, #5973	; 0x1755
     418:	0b260000 	bleq	980420 <__bss_end__+0x976f58>
     41c:	12011101 	andne	r1, r1, #1073741824	; 0x40000000
     420:	00000006 	andeq	r0, r0, r6
     424:	25011101 	strcs	r1, [r1, #-257]	; 0xfffffeff
     428:	030b130e 	movweq	r1, #45838	; 0xb30e
     42c:	110e1b0e 	tstne	lr, lr, lsl #22
     430:	10061201 	andne	r1, r6, r1, lsl #4
     434:	02000017 	andeq	r0, r0, #23, 0
     438:	0b0b0024 	bleq	2c04d0 <__bss_end__+0x2b7008>
     43c:	08030b3e 	stmdaeq	r3, {r1, r2, r3, r4, r5, r8, r9, fp}
     440:	24030000 	strcs	r0, [r3], #-0
     444:	3e0b0b00 	vmlacc.f64	d0, d11, d0
     448:	000e030b 	andeq	r0, lr, fp, lsl #6
     44c:	00160400 	andseq	r0, r6, r0, lsl #8
     450:	0b3a0e03 	bleq	e83c64 <__bss_end__+0xe7a79c>
     454:	0b390b3b 	bleq	e43148 <__bss_end__+0xe39c80>
     458:	00001349 	andeq	r1, r0, r9, asr #6
     45c:	03011305 	movweq	r1, #4869	; 0x1305
     460:	3a0b0b0e 	bcc	2c30a0 <__bss_end__+0x2b9bd8>
     464:	010b3b0b 	tsteq	fp, fp, lsl #22
     468:	06000013 			; <UNDEFINED> instruction: 0x06000013
     46c:	0e03000d 	cdpeq	0, 0, cr0, cr3, cr13, {0}
     470:	0b381349 	bleq	e0519c <__bss_end__+0xdfbcd4>
     474:	00001934 	andeq	r1, r0, r4, lsr r9
     478:	0b000f07 	bleq	409c <__code_start__-0x3f64>
     47c:	0800000b 	stmdaeq	r0, {r0, r1, r3}
     480:	0b0b000f 	bleq	2c04c4 <__bss_end__+0x2b6ffc>
     484:	00001349 	andeq	r1, r0, r9, asr #6
     488:	03001309 	movweq	r1, #777	; 0x309
     48c:	00193c0e 	andseq	r3, r9, lr, lsl #24
     490:	00160a00 	andseq	r0, r6, r0, lsl #20
     494:	0b3a0e03 	bleq	e83ca8 <__bss_end__+0xe7a7e0>
     498:	0b39053b 	bleq	e4198c <__bss_end__+0xe384c4>
     49c:	00001349 	andeq	r1, r0, r9, asr #6
     4a0:	0b01170b 	bleq	460d4 <__bss_end__+0x3cc0c>
     4a4:	3b0b3a0b 	blcc	2cecd8 <__bss_end__+0x2c5810>
     4a8:	010b390b 	tsteq	fp, fp, lsl #18
     4ac:	0c000013 	stceq	0, cr0, [r0], {19}
     4b0:	0e03000d 	cdpeq	0, 0, cr0, cr3, cr13, {0}
     4b4:	0b3b0b3a 	bleq	ec31a4 <__bss_end__+0xeb9cdc>
     4b8:	13490b39 	movtne	r0, #39737	; 0x9b39
     4bc:	010d0000 	mrseq	r0, (UNDEF: 13)
     4c0:	01134901 	tsteq	r3, r1, lsl #18
     4c4:	0e000013 	mcreq	0, 0, r0, cr0, cr3, {0}
     4c8:	13490021 	movtne	r0, #36897	; 0x9021
     4cc:	00000b2f 	andeq	r0, r0, pc, lsr #22
     4d0:	0b01130f 	bleq	45114 <__bss_end__+0x3bc4c>
     4d4:	3b0b3a0b 	blcc	2ced08 <__bss_end__+0x2c5840>
     4d8:	010b390b 	tsteq	fp, fp, lsl #18
     4dc:	10000013 	andne	r0, r0, r3, lsl r0
     4e0:	0e03000d 	cdpeq	0, 0, cr0, cr3, cr13, {0}
     4e4:	0b3b0b3a 	bleq	ec31d4 <__bss_end__+0xeb9d0c>
     4e8:	13490b39 	movtne	r0, #39737	; 0x9b39
     4ec:	00000b38 	andeq	r0, r0, r8, lsr fp
     4f0:	49002611 	stmdbmi	r0, {r0, r4, r9, sl, sp}
     4f4:	12000013 	andne	r0, r0, #19, 0
     4f8:	0e030113 	mcreq	1, 0, r0, cr3, cr3, {0}
     4fc:	0b3a0b0b 	bleq	e83130 <__bss_end__+0xe79c68>
     500:	0b390b3b 	bleq	e431f4 <__bss_end__+0xe39d2c>
     504:	00001301 	andeq	r1, r0, r1, lsl #6
     508:	03000d13 	movweq	r0, #3347	; 0xd13
     50c:	3b0b3a08 	blcc	2ced34 <__bss_end__+0x2c586c>
     510:	490b390b 	stmdbmi	fp, {r0, r1, r3, r8, fp, ip, sp}
     514:	000b3813 	andeq	r3, fp, r3, lsl r8
     518:	01131400 	tsteq	r3, r0, lsl #8
     51c:	050b0e03 	streq	r0, [fp, #-3587]	; 0xfffff1fd
     520:	0b3b0b3a 	bleq	ec3210 <__bss_end__+0xeb9d48>
     524:	13010b39 	movwne	r0, #6969	; 0x1b39
     528:	0d150000 	ldceq	0, cr0, [r5, #-0]
     52c:	3a0e0300 	bcc	381134 <__bss_end__+0x377c6c>
     530:	390b3b0b 	stmdbcc	fp, {r0, r1, r3, r8, r9, fp, ip, sp}
     534:	3813490b 	ldmdacc	r3, {r0, r1, r3, r8, fp, lr}
     538:	16000005 	strne	r0, [r0], -r5
     53c:	19270015 	stmdbne	r7!, {r0, r2, r4}
     540:	15170000 	ldrne	r0, [r7, #-0]
     544:	49192701 	ldmdbmi	r9, {r0, r8, r9, sl, sp}
     548:	00130113 	andseq	r0, r3, r3, lsl r1
     54c:	00051800 	andeq	r1, r5, r0, lsl #16
     550:	00001349 	andeq	r1, r0, r9, asr #6
     554:	03011319 	movweq	r1, #4889	; 0x1319
     558:	3a050b0e 	bcc	143198 <__bss_end__+0x139cd0>
     55c:	39053b0b 	stmdbcc	r5, {r0, r1, r3, r8, r9, fp, ip, sp}
     560:	0013010b 	andseq	r0, r3, fp, lsl #2
     564:	000d1a00 	andeq	r1, sp, r0, lsl #20
     568:	0b3a0e03 	bleq	e83d7c <__bss_end__+0xe7a8b4>
     56c:	0b39053b 	bleq	e41a60 <__bss_end__+0xe38598>
     570:	0b381349 	bleq	e0529c <__bss_end__+0xdfbdd4>
     574:	0d1b0000 	ldceq	0, cr0, [fp, #-0]
     578:	3a0e0300 	bcc	381180 <__bss_end__+0x377cb8>
     57c:	39053b0b 	stmdbcc	r5, {r0, r1, r3, r8, r9, fp, ip, sp}
     580:	3813490b 	ldmdacc	r3, {r0, r1, r3, r8, fp, lr}
     584:	1c000005 	stcne	0, cr0, [r0], {5}
     588:	0e030113 	mcreq	1, 0, r0, cr3, cr3, {0}
     58c:	0b3a0b0b 	bleq	e831c0 <__bss_end__+0xe79cf8>
     590:	0b39053b 	bleq	e41a84 <__bss_end__+0xe385bc>
     594:	00001301 	andeq	r1, r0, r1, lsl #6
     598:	0b01131d 	bleq	45214 <__bss_end__+0x3bd4c>
     59c:	3b0b3a0b 	blcc	2cedd0 <__bss_end__+0x2c5908>
     5a0:	010b3905 	tsteq	fp, r5, lsl #18
     5a4:	1e000013 	mcrne	0, 0, r0, cr0, cr3, {0}
     5a8:	0b0b0117 	bleq	2c0a0c <__bss_end__+0x2b7544>
     5ac:	053b0b3a 	ldreq	r0, [fp, #-2874]!	; 0xfffff4c6
     5b0:	13010b39 	movwne	r0, #6969	; 0x1b39
     5b4:	0d1f0000 	ldceq	0, cr0, [pc, #-0]	; 5bc <__code_start__-0x7a44>
     5b8:	3a0e0300 	bcc	3811c0 <__bss_end__+0x377cf8>
     5bc:	39053b0b 	stmdbcc	r5, {r0, r1, r3, r8, r9, fp, ip, sp}
     5c0:	0013490b 	andseq	r4, r3, fp, lsl #18
     5c4:	01152000 	tsteq	r5, r0
     5c8:	13011927 	movwne	r1, #6439	; 0x1927
     5cc:	34210000 	strtcc	r0, [r1], #-0
     5d0:	3a0e0300 	bcc	3811d8 <__bss_end__+0x377d10>
     5d4:	39053b0b 	stmdbcc	r5, {r0, r1, r3, r8, r9, fp, ip, sp}
     5d8:	3f13490b 	svccc	0x0013490b
     5dc:	00193c19 	andseq	r3, r9, r9, lsl ip
     5e0:	00342200 	eorseq	r2, r4, r0, lsl #4
     5e4:	0b3a0e03 	bleq	e83df8 <__bss_end__+0xe7a930>
     5e8:	0b390b3b 	bleq	e432dc <__bss_end__+0xe39e14>
     5ec:	193f1349 	ldmdbne	pc!, {r0, r3, r6, r8, r9, ip}	; <UNPREDICTABLE>
     5f0:	0000193c 	andeq	r1, r0, ip, lsr r9
     5f4:	3f012e23 	svccc	0x00012e23
     5f8:	3a0e0319 	bcc	381264 <__bss_end__+0x377d9c>
     5fc:	390b3b0b 	stmdbcc	fp, {r0, r1, r3, r8, r9, fp, ip, sp}
     600:	4919270b 	ldmdbmi	r9, {r0, r1, r3, r8, r9, sl, sp}
     604:	12011113 	andne	r1, r1, #-1073741820	; 0xc0000004
     608:	97184006 	ldrls	r4, [r8, -r6]
     60c:	13011942 	movwne	r1, #6466	; 0x1942
     610:	05240000 	streq	r0, [r4, #-0]!
     614:	3a080300 	bcc	20121c <__bss_end__+0x1f7d54>
     618:	390b3b0b 	stmdbcc	fp, {r0, r1, r3, r8, r9, fp, ip, sp}
     61c:	0213490b 	andseq	r4, r3, #180224	; 0x2c000
     620:	25000018 	strcs	r0, [r0, #-24]	; 0xffffffe8
     624:	00000018 	andeq	r0, r0, r8, lsl r0
     628:	03003426 	movweq	r3, #1062	; 0x426
     62c:	3b0b3a0e 	blcc	2cee6c <__bss_end__+0x2c59a4>
     630:	490b390b 	stmdbmi	fp, {r0, r1, r3, r8, fp, ip, sp}
     634:	00180213 	andseq	r0, r8, r3, lsl r2
     638:	00342700 	eorseq	r2, r4, r0, lsl #14
     63c:	0b3a0803 	bleq	e82650 <__bss_end__+0xe79188>
     640:	0b390b3b 	bleq	e43334 <__bss_end__+0xe39e6c>
     644:	17021349 	strne	r1, [r2, -r9, asr #6]
     648:	001742b7 			; <UNDEFINED> instruction: 0x001742b7
     64c:	82892800 	addhi	r2, r9, #0, 16
     650:	01110101 	tsteq	r1, r1, lsl #2
     654:	00001331 	andeq	r1, r0, r1, lsr r3
     658:	01828a29 	orreq	r8, r2, r9, lsr #20
     65c:	91180200 	tstls	r8, r0, lsl #4
     660:	00001842 	andeq	r1, r0, r2, asr #16
     664:	3f012e2a 	svccc	0x00012e2a
     668:	3a0e0319 	bcc	3812d4 <__bss_end__+0x377e0c>
     66c:	390b3b0b 	stmdbcc	fp, {r0, r1, r3, r8, r9, fp, ip, sp}
     670:	4919270b 	ldmdbmi	r9, {r0, r1, r3, r8, r9, sl, sp}
     674:	12011113 	andne	r1, r1, #-1073741820	; 0xc0000004
     678:	96184006 	ldrls	r4, [r8], -r6
     67c:	13011942 	movwne	r1, #6466	; 0x1942
     680:	052b0000 	streq	r0, [fp, #-0]!
     684:	3a080300 	bcc	20128c <__bss_end__+0x1f7dc4>
     688:	390b3b0b 	stmdbcc	fp, {r0, r1, r3, r8, r9, fp, ip, sp}
     68c:	0213490b 	andseq	r4, r3, #180224	; 0x2c000
     690:	1742b717 	smlaldne	fp, r2, r7, r7
     694:	342c0000 	strtcc	r0, [ip], #-0
     698:	490e0300 	stmdbmi	lr, {r8, r9}
     69c:	02193413 	andseq	r3, r9, #318767104	; 0x13000000
     6a0:	2d000018 	stccs	0, cr0, [r0, #-96]	; 0xffffffa0
     6a4:	1755010b 	ldrbne	r0, [r5, -fp, lsl #2]
     6a8:	342e0000 	strtcc	r0, [lr], #-0
     6ac:	3a080300 	bcc	2012b4 <__bss_end__+0x1f7dec>
     6b0:	390b3b0b 	stmdbcc	fp, {r0, r1, r3, r8, r9, fp, ip, sp}
     6b4:	0013490b 	andseq	r4, r3, fp, lsl #18
     6b8:	00342f00 	eorseq	r2, r4, r0, lsl #30
     6bc:	0b3a0803 	bleq	e826d0 <__bss_end__+0xe79208>
     6c0:	0b390b3b 	bleq	e433b4 <__bss_end__+0xe39eec>
     6c4:	18021349 	stmdane	r2, {r0, r3, r6, r8, r9, ip}
     6c8:	89300000 	ldmdbhi	r0!, {}	; <UNPREDICTABLE>
     6cc:	11010182 	smlabbne	r1, r2, r1, r0
     6d0:	01133101 	tsteq	r3, r1, lsl #2
     6d4:	31000013 	tstcc	r0, r3, lsl r0
     6d8:	01018289 	smlabbeq	r1, r9, r2, r8
     6dc:	13010111 	movwne	r0, #4369	; 0x1111
     6e0:	89320000 	ldmdbhi	r2!, {}	; <UNPREDICTABLE>
     6e4:	11000182 	smlabbne	r0, r2, r1, r0
     6e8:	00133101 	andseq	r3, r3, r1, lsl #2
     6ec:	012e3300 			; <UNDEFINED> instruction: 0x012e3300
     6f0:	0b3a0e03 	bleq	e83f04 <__bss_end__+0xe7aa3c>
     6f4:	0b390b3b 	bleq	e433e8 <__bss_end__+0xe39f20>
     6f8:	01111927 	tsteq	r1, r7, lsr #18
     6fc:	18400612 	stmdane	r0, {r1, r4, r9, sl}^
     700:	01194296 			; <UNDEFINED> instruction: 0x01194296
     704:	34000013 	strcc	r0, [r0], #-19	; 0xffffffed
     708:	0e030005 	cdpeq	0, 0, cr0, cr3, cr5, {0}
     70c:	0b3b0b3a 	bleq	ec33fc <__bss_end__+0xeb9f34>
     710:	13490b39 	movtne	r0, #39737	; 0x9b39
     714:	42b71702 	adcsmi	r1, r7, #524288	; 0x80000
     718:	35000017 	strcc	r0, [r0, #-23]	; 0xffffffe9
     71c:	193f002e 	ldmdbne	pc!, {r1, r2, r3, r5}	; <UNPREDICTABLE>
     720:	0e6e193c 			; <UNDEFINED> instruction: 0x0e6e193c
     724:	0b3a0e03 	bleq	e83f38 <__bss_end__+0xe7aa70>
     728:	0b390b3b 	bleq	e4341c <__bss_end__+0xe39f54>
     72c:	01000000 	mrseq	r0, (UNDEF: 0)
     730:	0e250111 	mcreq	1, 1, r0, cr5, cr1, {0}
     734:	0e030b13 	vmoveq.32	d3[0], r0
     738:	01110e1b 	tsteq	r1, fp, lsl lr
     73c:	17100612 			; <UNDEFINED> instruction: 0x17100612
     740:	24020000 	strcs	r0, [r2], #-0
     744:	3e0b0b00 	vmlacc.f64	d0, d11, d0
     748:	0008030b 	andeq	r0, r8, fp, lsl #6
     74c:	00240300 	eoreq	r0, r4, r0, lsl #6
     750:	0b3e0b0b 	bleq	f83384 <__bss_end__+0xf79ebc>
     754:	00000e03 	andeq	r0, r0, r3, lsl #28
     758:	0b000f04 	bleq	4370 <__code_start__-0x3c90>
     75c:	0500000b 	streq	r0, [r0, #-11]
     760:	0e030016 	mcreq	0, 0, r0, cr3, cr6, {0}
     764:	0b3b0b3a 	bleq	ec3454 <__bss_end__+0xeb9f8c>
     768:	13490b39 	movtne	r0, #39737	; 0x9b39
     76c:	0f060000 	svceq	0x00060000
     770:	490b0b00 	stmdbmi	fp, {r8, r9, fp}
     774:	07000013 	smladeq	r0, r3, r0, r0
     778:	0e030013 	mcreq	0, 0, r0, cr3, cr3, {0}
     77c:	0000193c 	andeq	r1, r0, ip, lsr r9
     780:	03001608 	movweq	r1, #1544	; 0x608
     784:	3b0b3a0e 	blcc	2cefc4 <__bss_end__+0x2c5afc>
     788:	490b3905 	stmdbmi	fp, {r0, r2, r8, fp, ip, sp}
     78c:	09000013 	stmdbeq	r0, {r0, r1, r4}
     790:	0b0b0117 	bleq	2c0bf4 <__bss_end__+0x2b772c>
     794:	0b3b0b3a 	bleq	ec3484 <__bss_end__+0xeb9fbc>
     798:	13010b39 	movwne	r0, #6969	; 0x1b39
     79c:	0d0a0000 	stceq	0, cr0, [sl, #-0]
     7a0:	3a0e0300 	bcc	3813a8 <__bss_end__+0x377ee0>
     7a4:	390b3b0b 	stmdbcc	fp, {r0, r1, r3, r8, r9, fp, ip, sp}
     7a8:	0013490b 	andseq	r4, r3, fp, lsl #18
     7ac:	01010b00 	tsteq	r1, r0, lsl #22
     7b0:	13011349 	movwne	r1, #4937	; 0x1349
     7b4:	210c0000 	mrscs	r0, (UNDEF: 12)
     7b8:	2f134900 	svccs	0x00134900
     7bc:	0d00000b 	stceq	0, cr0, [r0, #-44]	; 0xffffffd4
     7c0:	0b0b0113 	bleq	2c0c14 <__bss_end__+0x2b774c>
     7c4:	0b3b0b3a 	bleq	ec34b4 <__bss_end__+0xeb9fec>
     7c8:	13010b39 	movwne	r0, #6969	; 0x1b39
     7cc:	0d0e0000 	stceq	0, cr0, [lr, #-0]
     7d0:	3a0e0300 	bcc	3813d8 <__bss_end__+0x377f10>
     7d4:	390b3b0b 	stmdbcc	fp, {r0, r1, r3, r8, r9, fp, ip, sp}
     7d8:	3813490b 	ldmdacc	r3, {r0, r1, r3, r8, fp, lr}
     7dc:	0f00000b 	svceq	0x0000000b
     7e0:	13490026 	movtne	r0, #36902	; 0x9026
     7e4:	13100000 	tstne	r0, #0, 0
     7e8:	0b0e0301 	bleq	3813f4 <__bss_end__+0x377f2c>
     7ec:	3b0b3a0b 	blcc	2cf020 <__bss_end__+0x2c5b58>
     7f0:	010b390b 	tsteq	fp, fp, lsl #18
     7f4:	11000013 	tstne	r0, r3, lsl r0
     7f8:	0803000d 	stmdaeq	r3, {r0, r2, r3}
     7fc:	0b3b0b3a 	bleq	ec34ec <__bss_end__+0xeba024>
     800:	13490b39 	movtne	r0, #39737	; 0x9b39
     804:	00000b38 	andeq	r0, r0, r8, lsr fp
     808:	03011312 	movweq	r1, #4882	; 0x1312
     80c:	3a050b0e 	bcc	14344c <__bss_end__+0x139f84>
     810:	390b3b0b 	stmdbcc	fp, {r0, r1, r3, r8, r9, fp, ip, sp}
     814:	0013010b 	andseq	r0, r3, fp, lsl #2
     818:	000d1300 	andeq	r1, sp, r0, lsl #6
     81c:	0b3a0e03 	bleq	e84030 <__bss_end__+0xe7ab68>
     820:	0b390b3b 	bleq	e43514 <__bss_end__+0xe3a04c>
     824:	05381349 	ldreq	r1, [r8, #-841]!	; 0xfffffcb7
     828:	15140000 	ldrne	r0, [r4, #-0]
     82c:	00192700 	andseq	r2, r9, r0, lsl #14
     830:	01151500 	tsteq	r5, r0, lsl #10
     834:	13491927 	movtne	r1, #39207	; 0x9927
     838:	00001301 	andeq	r1, r0, r1, lsl #6
     83c:	49000516 	stmdbmi	r0, {r1, r2, r4, r8, sl}
     840:	17000013 	smladne	r0, r3, r0, r0
     844:	0e030113 	mcreq	1, 0, r0, cr3, cr3, {0}
     848:	0b3a050b 	bleq	e81c7c <__bss_end__+0xe787b4>
     84c:	0b39053b 	bleq	e41d40 <__bss_end__+0xe38878>
     850:	00001301 	andeq	r1, r0, r1, lsl #6
     854:	03000d18 	movweq	r0, #3352	; 0xd18
     858:	3b0b3a0e 	blcc	2cf098 <__bss_end__+0x2c5bd0>
     85c:	490b3905 	stmdbmi	fp, {r0, r2, r8, fp, ip, sp}
     860:	000b3813 	andeq	r3, fp, r3, lsl r8
     864:	000d1900 	andeq	r1, sp, r0, lsl #18
     868:	0b3a0e03 	bleq	e8407c <__bss_end__+0xe7abb4>
     86c:	0b39053b 	bleq	e41d60 <__bss_end__+0xe38898>
     870:	05381349 	ldreq	r1, [r8, #-841]!	; 0xfffffcb7
     874:	131a0000 	tstne	sl, #0, 0
     878:	0b0e0301 	bleq	381484 <__bss_end__+0x377fbc>
     87c:	3b0b3a0b 	blcc	2cf0b0 <__bss_end__+0x2c5be8>
     880:	010b3905 	tsteq	fp, r5, lsl #18
     884:	1b000013 	blne	8d8 <__code_start__-0x7728>
     888:	0b0b0113 	bleq	2c0cdc <__bss_end__+0x2b7814>
     88c:	053b0b3a 	ldreq	r0, [fp, #-2874]!	; 0xfffff4c6
     890:	13010b39 	movwne	r0, #6969	; 0x1b39
     894:	171c0000 	ldrne	r0, [ip, -r0]
     898:	3a0b0b01 	bcc	2c34a4 <__bss_end__+0x2b9fdc>
     89c:	39053b0b 	stmdbcc	r5, {r0, r1, r3, r8, r9, fp, ip, sp}
     8a0:	0013010b 	andseq	r0, r3, fp, lsl #2
     8a4:	000d1d00 	andeq	r1, sp, r0, lsl #26
     8a8:	0b3a0e03 	bleq	e840bc <__bss_end__+0xe7abf4>
     8ac:	0b39053b 	bleq	e41da0 <__bss_end__+0xe388d8>
     8b0:	00001349 	andeq	r1, r0, r9, asr #6
     8b4:	2701151e 	smladcs	r1, lr, r5, r1
     8b8:	00130119 	andseq	r0, r3, r9, lsl r1
     8bc:	00341f00 	eorseq	r1, r4, r0, lsl #30
     8c0:	0b3a0e03 	bleq	e840d4 <__bss_end__+0xe7ac0c>
     8c4:	0b39053b 	bleq	e41db8 <__bss_end__+0xe388f0>
     8c8:	193f1349 	ldmdbne	pc!, {r0, r3, r6, r8, r9, ip}	; <UNPREDICTABLE>
     8cc:	0000193c 	andeq	r1, r0, ip, lsr r9
     8d0:	03003420 	movweq	r3, #1056	; 0x420
     8d4:	3b0b3a0e 	blcc	2cf114 <__bss_end__+0x2c5c4c>
     8d8:	490b390b 	stmdbmi	fp, {r0, r1, r3, r8, fp, ip, sp}
     8dc:	3c193f13 	ldccc	15, cr3, [r9], {19}
     8e0:	21000019 	tstcs	r0, r9, lsl r0
     8e4:	13470034 	movtne	r0, #28724	; 0x7034
     8e8:	0b3b0b3a 	bleq	ec35d8 <__bss_end__+0xeba110>
     8ec:	18020b39 	stmdane	r2, {r0, r3, r4, r5, r8, r9, fp}
     8f0:	2e220000 	cdpcs	0, 2, cr0, cr2, cr0, {0}
     8f4:	03193f01 	tsteq	r9, #1, 30
     8f8:	3b0b3a0e 	blcc	2cf138 <__bss_end__+0x2c5c70>
     8fc:	270b390b 	strcs	r3, [fp, -fp, lsl #18]
     900:	11134919 	tstne	r3, r9, lsl r9
     904:	40061201 	andmi	r1, r6, r1, lsl #4
     908:	19429718 	stmdbne	r2, {r3, r4, r8, r9, sl, ip, pc}^
     90c:	00001301 	andeq	r1, r0, r1, lsl #6
     910:	03000523 	movweq	r0, #1315	; 0x523
     914:	3b0b3a0e 	blcc	2cf154 <__bss_end__+0x2c5c8c>
     918:	490b390b 	stmdbmi	fp, {r0, r1, r3, r8, fp, ip, sp}
     91c:	b7170213 			; <UNDEFINED> instruction: 0xb7170213
     920:	00001742 	andeq	r1, r0, r2, asr #14
     924:	03003424 	movweq	r3, #1060	; 0x424
     928:	3b0b3a08 	blcc	2cf150 <__bss_end__+0x2c5c88>
     92c:	490b390b 	stmdbmi	fp, {r0, r1, r3, r8, fp, ip, sp}
     930:	b7170213 			; <UNDEFINED> instruction: 0xb7170213
     934:	00001742 	andeq	r1, r0, r2, asr #14
     938:	03012e25 	movweq	r2, #7717	; 0x1e25
     93c:	3b0b3a0e 	blcc	2cf17c <__bss_end__+0x2c5cb4>
     940:	270b390b 	strcs	r3, [fp, -fp, lsl #18]
     944:	11134919 	tstne	r3, r9, lsl r9
     948:	40061201 	andmi	r1, r6, r1, lsl #4
     94c:	19429718 	stmdbne	r2, {r3, r4, r8, r9, sl, ip, pc}^
     950:	00001301 	andeq	r1, r0, r1, lsl #6
     954:	03000526 	movweq	r0, #1318	; 0x526
     958:	3b0b3a08 	blcc	2cf180 <__bss_end__+0x2c5cb8>
     95c:	490b390b 	stmdbmi	fp, {r0, r1, r3, r8, fp, ip, sp}
     960:	b7170213 			; <UNDEFINED> instruction: 0xb7170213
     964:	00001742 	andeq	r1, r0, r2, asr #14
     968:	01828927 	orreq	r8, r2, r7, lsr #18
     96c:	31011101 	tstcc	r1, r1, lsl #2
     970:	28000013 	stmdacs	r0, {r0, r1, r4}
     974:	0001828a 	andeq	r8, r1, sl, lsl #5
     978:	42911802 	addsmi	r1, r1, #131072	; 0x20000
     97c:	29000018 	stmdbcs	r0, {r3, r4}
     980:	193f002e 	ldmdbne	pc!, {r1, r2, r3, r5}	; <UNPREDICTABLE>
     984:	0e6e193c 			; <UNDEFINED> instruction: 0x0e6e193c
     988:	0b3a0e03 	bleq	e8419c <__bss_end__+0xe7acd4>
     98c:	0b390b3b 	bleq	e43680 <__bss_end__+0xe3a1b8>
     990:	01000000 	mrseq	r0, (UNDEF: 0)
     994:	0e250111 	mcreq	1, 1, r0, cr5, cr1, {0}
     998:	0e030b13 	vmoveq.32	d3[0], r0
     99c:	01110e1b 	tsteq	r1, fp, lsl lr
     9a0:	17100612 			; <UNDEFINED> instruction: 0x17100612
     9a4:	24020000 	strcs	r0, [r2], #-0
     9a8:	3e0b0b00 	vmlacc.f64	d0, d11, d0
     9ac:	0008030b 	andeq	r0, r8, fp, lsl #6
     9b0:	00240300 	eoreq	r0, r4, r0, lsl #6
     9b4:	0b3e0b0b 	bleq	f835e8 <__bss_end__+0xf7a120>
     9b8:	00000e03 	andeq	r0, r0, r3, lsl #28
     9bc:	0b000f04 	bleq	45d4 <__code_start__-0x3a2c>
     9c0:	0500000b 	streq	r0, [r0, #-11]
     9c4:	0e030016 	mcreq	0, 0, r0, cr3, cr6, {0}
     9c8:	0b3b0b3a 	bleq	ec36b8 <__bss_end__+0xeba1f0>
     9cc:	13490b39 	movtne	r0, #39737	; 0x9b39
     9d0:	0f060000 	svceq	0x00060000
     9d4:	490b0b00 	stmdbmi	fp, {r8, r9, fp}
     9d8:	07000013 	smladeq	r0, r3, r0, r0
     9dc:	0e030013 	mcreq	0, 0, r0, cr3, cr3, {0}
     9e0:	0000193c 	andeq	r1, r0, ip, lsr r9
     9e4:	03001608 	movweq	r1, #1544	; 0x608
     9e8:	3b0b3a0e 	blcc	2cf228 <__bss_end__+0x2c5d60>
     9ec:	490b3905 	stmdbmi	fp, {r0, r2, r8, fp, ip, sp}
     9f0:	09000013 	stmdbeq	r0, {r0, r1, r4}
     9f4:	0b0b0117 	bleq	2c0e58 <__bss_end__+0x2b7990>
     9f8:	0b3b0b3a 	bleq	ec36e8 <__bss_end__+0xeba220>
     9fc:	13010b39 	movwne	r0, #6969	; 0x1b39
     a00:	0d0a0000 	stceq	0, cr0, [sl, #-0]
     a04:	3a0e0300 	bcc	38160c <__bss_end__+0x378144>
     a08:	390b3b0b 	stmdbcc	fp, {r0, r1, r3, r8, r9, fp, ip, sp}
     a0c:	0013490b 	andseq	r4, r3, fp, lsl #18
     a10:	01010b00 	tsteq	r1, r0, lsl #22
     a14:	13011349 	movwne	r1, #4937	; 0x1349
     a18:	210c0000 	mrscs	r0, (UNDEF: 12)
     a1c:	2f134900 	svccs	0x00134900
     a20:	0d00000b 	stceq	0, cr0, [r0, #-44]	; 0xffffffd4
     a24:	0b0b0113 	bleq	2c0e78 <__bss_end__+0x2b79b0>
     a28:	0b3b0b3a 	bleq	ec3718 <__bss_end__+0xeba250>
     a2c:	13010b39 	movwne	r0, #6969	; 0x1b39
     a30:	0d0e0000 	stceq	0, cr0, [lr, #-0]
     a34:	3a0e0300 	bcc	38163c <__bss_end__+0x378174>
     a38:	390b3b0b 	stmdbcc	fp, {r0, r1, r3, r8, r9, fp, ip, sp}
     a3c:	3813490b 	ldmdacc	r3, {r0, r1, r3, r8, fp, lr}
     a40:	0f00000b 	svceq	0x0000000b
     a44:	13490026 	movtne	r0, #36902	; 0x9026
     a48:	13100000 	tstne	r0, #0, 0
     a4c:	0b0e0301 	bleq	381658 <__bss_end__+0x378190>
     a50:	3b0b3a0b 	blcc	2cf284 <__bss_end__+0x2c5dbc>
     a54:	010b390b 	tsteq	fp, fp, lsl #18
     a58:	11000013 	tstne	r0, r3, lsl r0
     a5c:	0803000d 	stmdaeq	r3, {r0, r2, r3}
     a60:	0b3b0b3a 	bleq	ec3750 <__bss_end__+0xeba288>
     a64:	13490b39 	movtne	r0, #39737	; 0x9b39
     a68:	00000b38 	andeq	r0, r0, r8, lsr fp
     a6c:	03011312 	movweq	r1, #4882	; 0x1312
     a70:	3a050b0e 	bcc	1436b0 <__bss_end__+0x13a1e8>
     a74:	390b3b0b 	stmdbcc	fp, {r0, r1, r3, r8, r9, fp, ip, sp}
     a78:	0013010b 	andseq	r0, r3, fp, lsl #2
     a7c:	000d1300 	andeq	r1, sp, r0, lsl #6
     a80:	0b3a0e03 	bleq	e84294 <__bss_end__+0xe7adcc>
     a84:	0b390b3b 	bleq	e43778 <__bss_end__+0xe3a2b0>
     a88:	05381349 	ldreq	r1, [r8, #-841]!	; 0xfffffcb7
     a8c:	15140000 	ldrne	r0, [r4, #-0]
     a90:	00192700 	andseq	r2, r9, r0, lsl #14
     a94:	01151500 	tsteq	r5, r0, lsl #10
     a98:	13491927 	movtne	r1, #39207	; 0x9927
     a9c:	00001301 	andeq	r1, r0, r1, lsl #6
     aa0:	49000516 	stmdbmi	r0, {r1, r2, r4, r8, sl}
     aa4:	17000013 	smladne	r0, r3, r0, r0
     aa8:	0e030113 	mcreq	1, 0, r0, cr3, cr3, {0}
     aac:	0b3a050b 	bleq	e81ee0 <__bss_end__+0xe78a18>
     ab0:	0b39053b 	bleq	e41fa4 <__bss_end__+0xe38adc>
     ab4:	00001301 	andeq	r1, r0, r1, lsl #6
     ab8:	03000d18 	movweq	r0, #3352	; 0xd18
     abc:	3b0b3a0e 	blcc	2cf2fc <__bss_end__+0x2c5e34>
     ac0:	490b3905 	stmdbmi	fp, {r0, r2, r8, fp, ip, sp}
     ac4:	000b3813 	andeq	r3, fp, r3, lsl r8
     ac8:	000d1900 	andeq	r1, sp, r0, lsl #18
     acc:	0b3a0e03 	bleq	e842e0 <__bss_end__+0xe7ae18>
     ad0:	0b39053b 	bleq	e41fc4 <__bss_end__+0xe38afc>
     ad4:	05381349 	ldreq	r1, [r8, #-841]!	; 0xfffffcb7
     ad8:	131a0000 	tstne	sl, #0, 0
     adc:	0b0e0301 	bleq	3816e8 <__bss_end__+0x378220>
     ae0:	3b0b3a0b 	blcc	2cf314 <__bss_end__+0x2c5e4c>
     ae4:	010b3905 	tsteq	fp, r5, lsl #18
     ae8:	1b000013 	blne	b3c <__code_start__-0x74c4>
     aec:	0b0b0113 	bleq	2c0f40 <__bss_end__+0x2b7a78>
     af0:	053b0b3a 	ldreq	r0, [fp, #-2874]!	; 0xfffff4c6
     af4:	13010b39 	movwne	r0, #6969	; 0x1b39
     af8:	171c0000 	ldrne	r0, [ip, -r0]
     afc:	3a0b0b01 	bcc	2c3708 <__bss_end__+0x2ba240>
     b00:	39053b0b 	stmdbcc	r5, {r0, r1, r3, r8, r9, fp, ip, sp}
     b04:	0013010b 	andseq	r0, r3, fp, lsl #2
     b08:	000d1d00 	andeq	r1, sp, r0, lsl #26
     b0c:	0b3a0e03 	bleq	e84320 <__bss_end__+0xe7ae58>
     b10:	0b39053b 	bleq	e42004 <__bss_end__+0xe38b3c>
     b14:	00001349 	andeq	r1, r0, r9, asr #6
     b18:	2701151e 	smladcs	r1, lr, r5, r1
     b1c:	00130119 	andseq	r0, r3, r9, lsl r1
     b20:	00341f00 	eorseq	r1, r4, r0, lsl #30
     b24:	0b3a0e03 	bleq	e84338 <__bss_end__+0xe7ae70>
     b28:	0b39053b 	bleq	e4201c <__bss_end__+0xe38b54>
     b2c:	193f1349 	ldmdbne	pc!, {r0, r3, r6, r8, r9, ip}	; <UNPREDICTABLE>
     b30:	0000193c 	andeq	r1, r0, ip, lsr r9
     b34:	03003420 	movweq	r3, #1056	; 0x420
     b38:	3b0b3a0e 	blcc	2cf378 <__bss_end__+0x2c5eb0>
     b3c:	490b390b 	stmdbmi	fp, {r0, r1, r3, r8, fp, ip, sp}
     b40:	3c193f13 	ldccc	15, cr3, [r9], {19}
     b44:	21000019 	tstcs	r0, r9, lsl r0
     b48:	193f012e 	ldmdbne	pc!, {r1, r2, r3, r5, r8}	; <UNPREDICTABLE>
     b4c:	0b3a0e03 	bleq	e84360 <__bss_end__+0xe7ae98>
     b50:	0b390b3b 	bleq	e43844 <__bss_end__+0xe3a37c>
     b54:	01871927 	orreq	r1, r7, r7, lsr #18
     b58:	12011119 	andne	r1, r1, #1073741830	; 0x40000006
     b5c:	97184006 	ldrls	r4, [r8, -r6]
     b60:	13011942 	movwne	r1, #6466	; 0x1942
     b64:	89220000 	stmdbhi	r2!, {}	; <UNPREDICTABLE>
     b68:	11010182 	smlabbne	r1, r2, r1, r0
     b6c:	01133101 	tsteq	r3, r1, lsl #2
     b70:	23000013 	movwcs	r0, #19
     b74:	0001828a 	andeq	r8, r1, sl, lsl #5
     b78:	42911802 	addsmi	r1, r1, #131072	; 0x20000
     b7c:	24000018 	strcs	r0, [r0], #-24	; 0xffffffe8
     b80:	00018289 	andeq	r8, r1, r9, lsl #5
     b84:	13310111 	teqne	r1, #1073741828	; 0x40000004
     b88:	2e250000 	cdpcs	0, 2, cr0, cr5, cr0, {0}
     b8c:	3c193f00 	ldccc	15, cr3, [r9], {-0}
     b90:	030e6e19 	movweq	r6, #60953	; 0xee19
     b94:	3b0b3a0e 	blcc	2cf3d4 <__bss_end__+0x2c5f0c>
     b98:	000b390b 	andeq	r3, fp, fp, lsl #18
     b9c:	11010000 	mrsne	r0, (UNDEF: 1)
     ba0:	130e2501 	movwne	r2, #58625	; 0xe501
     ba4:	1b0e030b 	blne	3817d8 <__bss_end__+0x378310>
     ba8:	1201110e 	andne	r1, r1, #-2147483645	; 0x80000003
     bac:	00171006 	andseq	r1, r7, r6
     bb0:	00240200 	eoreq	r0, r4, r0, lsl #4
     bb4:	0b3e0b0b 	bleq	f837e8 <__bss_end__+0xf7a320>
     bb8:	00000803 	andeq	r0, r0, r3, lsl #16
     bbc:	0b002403 	bleq	9bd0 <__bss_end__+0x708>
     bc0:	030b3e0b 	movweq	r3, #48651	; 0xbe0b
     bc4:	0400000e 	streq	r0, [r0], #-14
     bc8:	0e030016 	mcreq	0, 0, r0, cr3, cr6, {0}
     bcc:	0b3b0b3a 	bleq	ec38bc <__bss_end__+0xeba3f4>
     bd0:	13490b39 	movtne	r0, #39737	; 0x9b39
     bd4:	0f050000 	svceq	0x00050000
     bd8:	000b0b00 	andeq	r0, fp, r0, lsl #22
     bdc:	000f0600 	andeq	r0, pc, r0, lsl #12
     be0:	13490b0b 	movtne	r0, #39691	; 0x9b0b
     be4:	13070000 	movwne	r0, #28672	; 0x7000
     be8:	3c0e0300 	stccc	3, cr0, [lr], {-0}
     bec:	08000019 	stmdaeq	r0, {r0, r3, r4}
     bf0:	0e030016 	mcreq	0, 0, r0, cr3, cr6, {0}
     bf4:	053b0b3a 	ldreq	r0, [fp, #-2874]!	; 0xfffff4c6
     bf8:	13490b39 	movtne	r0, #39737	; 0x9b39
     bfc:	17090000 	strne	r0, [r9, -r0]
     c00:	3a0b0b01 	bcc	2c380c <__bss_end__+0x2ba344>
     c04:	390b3b0b 	stmdbcc	fp, {r0, r1, r3, r8, r9, fp, ip, sp}
     c08:	0013010b 	andseq	r0, r3, fp, lsl #2
     c0c:	000d0a00 	andeq	r0, sp, r0, lsl #20
     c10:	0b3a0e03 	bleq	e84424 <__bss_end__+0xe7af5c>
     c14:	0b390b3b 	bleq	e43908 <__bss_end__+0xe3a440>
     c18:	00001349 	andeq	r1, r0, r9, asr #6
     c1c:	4901010b 	stmdbmi	r1, {r0, r1, r3, r8}
     c20:	00130113 	andseq	r0, r3, r3, lsl r1
     c24:	00210c00 	eoreq	r0, r1, r0, lsl #24
     c28:	0b2f1349 	bleq	bc5954 <__bss_end__+0xbbc48c>
     c2c:	130d0000 	movwne	r0, #53248	; 0xd000
     c30:	3a0b0b01 	bcc	2c383c <__bss_end__+0x2ba374>
     c34:	390b3b0b 	stmdbcc	fp, {r0, r1, r3, r8, r9, fp, ip, sp}
     c38:	0013010b 	andseq	r0, r3, fp, lsl #2
     c3c:	000d0e00 	andeq	r0, sp, r0, lsl #28
     c40:	0b3a0e03 	bleq	e84454 <__bss_end__+0xe7af8c>
     c44:	0b390b3b 	bleq	e43938 <__bss_end__+0xe3a470>
     c48:	0b381349 	bleq	e05974 <__bss_end__+0xdfc4ac>
     c4c:	260f0000 	strcs	r0, [pc], -r0
     c50:	00134900 	andseq	r4, r3, r0, lsl #18
     c54:	01131000 	tsteq	r3, r0
     c58:	0b0b0e03 	bleq	2c446c <__bss_end__+0x2bafa4>
     c5c:	0b3b0b3a 	bleq	ec394c <__bss_end__+0xeba484>
     c60:	13010b39 	movwne	r0, #6969	; 0x1b39
     c64:	0d110000 	ldceq	0, cr0, [r1, #-0]
     c68:	3a080300 	bcc	201870 <__bss_end__+0x1f83a8>
     c6c:	390b3b0b 	stmdbcc	fp, {r0, r1, r3, r8, r9, fp, ip, sp}
     c70:	3813490b 	ldmdacc	r3, {r0, r1, r3, r8, fp, lr}
     c74:	1200000b 	andne	r0, r0, #11, 0
     c78:	0e030113 	mcreq	1, 0, r0, cr3, cr3, {0}
     c7c:	0b3a050b 	bleq	e820b0 <__bss_end__+0xe78be8>
     c80:	0b390b3b 	bleq	e43974 <__bss_end__+0xe3a4ac>
     c84:	00001301 	andeq	r1, r0, r1, lsl #6
     c88:	03000d13 	movweq	r0, #3347	; 0xd13
     c8c:	3b0b3a0e 	blcc	2cf4cc <__bss_end__+0x2c6004>
     c90:	490b390b 	stmdbmi	fp, {r0, r1, r3, r8, fp, ip, sp}
     c94:	00053813 	andeq	r3, r5, r3, lsl r8
     c98:	00151400 	andseq	r1, r5, r0, lsl #8
     c9c:	00001927 	andeq	r1, r0, r7, lsr #18
     ca0:	27011515 	smladcs	r1, r5, r5, r1
     ca4:	01134919 	tsteq	r3, r9, lsl r9
     ca8:	16000013 			; <UNDEFINED> instruction: 0x16000013
     cac:	13490005 	movtne	r0, #36869	; 0x9005
     cb0:	13170000 	tstne	r7, #0, 0
     cb4:	0b0e0301 	bleq	3818c0 <__bss_end__+0x3783f8>
     cb8:	3b0b3a05 	blcc	2cf4d4 <__bss_end__+0x2c600c>
     cbc:	010b3905 	tsteq	fp, r5, lsl #18
     cc0:	18000013 	stmdane	r0, {r0, r1, r4}
     cc4:	0e03000d 	cdpeq	0, 0, cr0, cr3, cr13, {0}
     cc8:	053b0b3a 	ldreq	r0, [fp, #-2874]!	; 0xfffff4c6
     ccc:	13490b39 	movtne	r0, #39737	; 0x9b39
     cd0:	00000b38 	andeq	r0, r0, r8, lsr fp
     cd4:	03000d19 	movweq	r0, #3353	; 0xd19
     cd8:	3b0b3a0e 	blcc	2cf518 <__bss_end__+0x2c6050>
     cdc:	490b3905 	stmdbmi	fp, {r0, r2, r8, fp, ip, sp}
     ce0:	00053813 	andeq	r3, r5, r3, lsl r8
     ce4:	01131a00 	tsteq	r3, r0, lsl #20
     ce8:	0b0b0e03 	bleq	2c44fc <__bss_end__+0x2bb034>
     cec:	053b0b3a 	ldreq	r0, [fp, #-2874]!	; 0xfffff4c6
     cf0:	13010b39 	movwne	r0, #6969	; 0x1b39
     cf4:	131b0000 	tstne	fp, #0, 0
     cf8:	3a0b0b01 	bcc	2c3904 <__bss_end__+0x2ba43c>
     cfc:	39053b0b 	stmdbcc	r5, {r0, r1, r3, r8, r9, fp, ip, sp}
     d00:	0013010b 	andseq	r0, r3, fp, lsl #2
     d04:	01171c00 	tsteq	r7, r0, lsl #24
     d08:	0b3a0b0b 	bleq	e8393c <__bss_end__+0xe7a474>
     d0c:	0b39053b 	bleq	e42200 <__bss_end__+0xe38d38>
     d10:	00001301 	andeq	r1, r0, r1, lsl #6
     d14:	03000d1d 	movweq	r0, #3357	; 0xd1d
     d18:	3b0b3a0e 	blcc	2cf558 <__bss_end__+0x2c6090>
     d1c:	490b3905 	stmdbmi	fp, {r0, r2, r8, fp, ip, sp}
     d20:	1e000013 	mcrne	0, 0, r0, cr0, cr3, {0}
     d24:	19270115 	stmdbne	r7!, {r0, r2, r4, r8}
     d28:	00001301 	andeq	r1, r0, r1, lsl #6
     d2c:	0300341f 	movweq	r3, #1055	; 0x41f
     d30:	3b0b3a0e 	blcc	2cf570 <__bss_end__+0x2c60a8>
     d34:	490b3905 	stmdbmi	fp, {r0, r2, r8, fp, ip, sp}
     d38:	3c193f13 	ldccc	15, cr3, [r9], {19}
     d3c:	20000019 	andcs	r0, r0, r9, lsl r0
     d40:	0e030034 	mcreq	0, 0, r0, cr3, cr4, {1}
     d44:	0b3b0b3a 	bleq	ec3a34 <__bss_end__+0xeba56c>
     d48:	13490b39 	movtne	r0, #39737	; 0x9b39
     d4c:	193c193f 	ldmdbne	ip!, {r0, r1, r2, r3, r4, r5, r8, fp, ip}
     d50:	21210000 			; <UNDEFINED> instruction: 0x21210000
     d54:	22000000 	andcs	r0, r0, #0, 0
     d58:	193f012e 	ldmdbne	pc!, {r1, r2, r3, r5, r8}	; <UNPREDICTABLE>
     d5c:	0b3a0e03 	bleq	e84570 <__bss_end__+0xe7b0a8>
     d60:	0b390b3b 	bleq	e43a54 <__bss_end__+0xe3a58c>
     d64:	06120111 			; <UNDEFINED> instruction: 0x06120111
     d68:	42971840 	addsmi	r1, r7, #64, 16	; 0x400000
     d6c:	00130119 	andseq	r0, r3, r9, lsl r1
     d70:	002e2300 	eoreq	r2, lr, r0, lsl #6
     d74:	0e03193f 			; <UNDEFINED> instruction: 0x0e03193f
     d78:	0b3b0b3a 	bleq	ec3a68 <__bss_end__+0xeba5a0>
     d7c:	19270b39 	stmdbne	r7!, {r0, r3, r4, r5, r8, r9, fp}
     d80:	0000193c 	andeq	r1, r0, ip, lsr r9
     d84:	03003424 	movweq	r3, #1060	; 0x424
     d88:	3b0b3a08 	blcc	2cf5b0 <__bss_end__+0x2c60e8>
     d8c:	490b390b 	stmdbmi	fp, {r0, r1, r3, r8, fp, ip, sp}
     d90:	b7170213 			; <UNDEFINED> instruction: 0xb7170213
     d94:	00001742 	andeq	r1, r0, r2, asr #14
     d98:	03003425 	movweq	r3, #1061	; 0x425
     d9c:	3b0b3a0e 	blcc	2cf5dc <__bss_end__+0x2c6114>
     da0:	490b390b 	stmdbmi	fp, {r0, r1, r3, r8, fp, ip, sp}
     da4:	26000013 			; <UNDEFINED> instruction: 0x26000013
     da8:	1331011d 	teqne	r1, #1073741831	; 0x40000007
     dac:	42b80152 	adcsmi	r0, r8, #-2147483628	; 0x80000014
     db0:	1201110b 	andne	r1, r1, #-1073741822	; 0xc0000002
     db4:	590b5806 	stmdbpl	fp, {r1, r2, fp, ip, lr}
     db8:	010b570b 	tsteq	fp, fp, lsl #14
     dbc:	27000013 	smladcs	r0, r3, r0, r0
     dc0:	13310034 	teqne	r1, #52, 0	; 0x34
     dc4:	00000b1c 	andeq	r0, r0, ip, lsl fp
     dc8:	01828928 	orreq	r8, r2, r8, lsr #18
     dcc:	31011100 	mrscc	r1, (UNDEF: 17)
     dd0:	29000013 	stmdbcs	r0, {r0, r1, r4}
     dd4:	193f002e 	ldmdbne	pc!, {r1, r2, r3, r5}	; <UNPREDICTABLE>
     dd8:	0b3a0e03 	bleq	e845ec <__bss_end__+0xe7b124>
     ddc:	0b390b3b 	bleq	e43ad0 <__bss_end__+0xe3a608>
     de0:	13491927 	movtne	r1, #39207	; 0x9927
     de4:	06120111 			; <UNDEFINED> instruction: 0x06120111
     de8:	42971840 	addsmi	r1, r7, #64, 16	; 0x400000
     dec:	2a000019 	bcs	e58 <__code_start__-0x71a8>
     df0:	0e03012e 	adfeqsp	f0, f3, #0.5
     df4:	0b3b0b3a 	bleq	ec3ae4 <__bss_end__+0xeba61c>
     df8:	19270b39 	stmdbne	r7!, {r0, r3, r4, r5, r8, r9, fp}
     dfc:	13010b20 	movwne	r0, #6944	; 0x1b20
     e00:	342b0000 	strtcc	r0, [fp], #-0
     e04:	3a080300 	bcc	201a0c <__bss_end__+0x1f8544>
     e08:	390b3b0b 	stmdbcc	fp, {r0, r1, r3, r8, r9, fp, ip, sp}
     e0c:	0013490b 	andseq	r4, r3, fp, lsl #18
     e10:	002e2c00 	eoreq	r2, lr, r0, lsl #24
     e14:	193c193f 	ldmdbne	ip!, {r0, r1, r2, r3, r4, r5, r8, fp, ip}
     e18:	0e030e6e 	cdpeq	14, 0, cr0, cr3, cr14, {3}
     e1c:	0b3b0b3a 	bleq	ec3b0c <__bss_end__+0xeba644>
     e20:	00000b39 	andeq	r0, r0, r9, lsr fp
     e24:	01110100 	tsteq	r1, r0, lsl #2
     e28:	0b130e25 	bleq	4c46c4 <__bss_end__+0x4bb1fc>
     e2c:	0e1b0e03 	cdpeq	14, 1, cr0, cr11, cr3, {0}
     e30:	06120111 			; <UNDEFINED> instruction: 0x06120111
     e34:	00001710 	andeq	r1, r0, r0, lsl r7
     e38:	0b002402 	bleq	9e48 <__bss_end__+0x980>
     e3c:	030b3e0b 	movweq	r3, #48651	; 0xbe0b
     e40:	03000008 	movweq	r0, #8
     e44:	13490026 	movtne	r0, #36902	; 0x9026
     e48:	24040000 	strcs	r0, [r4], #-0
     e4c:	3e0b0b00 	vmlacc.f64	d0, d11, d0
     e50:	000e030b 	andeq	r0, lr, fp, lsl #6
     e54:	000f0500 	andeq	r0, pc, r0, lsl #10
     e58:	00000b0b 	andeq	r0, r0, fp, lsl #22
     e5c:	03001606 	movweq	r1, #1542	; 0x606
     e60:	3b0b3a0e 	blcc	2cf6a0 <__bss_end__+0x2c61d8>
     e64:	490b390b 	stmdbmi	fp, {r0, r1, r3, r8, fp, ip, sp}
     e68:	07000013 	smladeq	r0, r3, r0, r0
     e6c:	0b0b000f 	bleq	2c0eb0 <__bss_end__+0x2b79e8>
     e70:	00001349 	andeq	r1, r0, r9, asr #6
     e74:	03001308 	movweq	r1, #776	; 0x308
     e78:	00193c0e 	andseq	r3, r9, lr, lsl #24
     e7c:	00160900 	andseq	r0, r6, r0, lsl #18
     e80:	0b3a0e03 	bleq	e84694 <__bss_end__+0xe7b1cc>
     e84:	0b39053b 	bleq	e42378 <__bss_end__+0xe38eb0>
     e88:	00001349 	andeq	r1, r0, r9, asr #6
     e8c:	0b01170a 	bleq	46abc <__bss_end__+0x3d5f4>
     e90:	3b0b3a0b 	blcc	2cf6c4 <__bss_end__+0x2c61fc>
     e94:	010b390b 	tsteq	fp, fp, lsl #18
     e98:	0b000013 	bleq	eec <__code_start__-0x7114>
     e9c:	0e03000d 	cdpeq	0, 0, cr0, cr3, cr13, {0}
     ea0:	0b3b0b3a 	bleq	ec3b90 <__bss_end__+0xeba6c8>
     ea4:	13490b39 	movtne	r0, #39737	; 0x9b39
     ea8:	010c0000 	mrseq	r0, (UNDEF: 12)
     eac:	01134901 	tsteq	r3, r1, lsl #18
     eb0:	0d000013 	stceq	0, cr0, [r0, #-76]	; 0xffffffb4
     eb4:	13490021 	movtne	r0, #36897	; 0x9021
     eb8:	00000b2f 	andeq	r0, r0, pc, lsr #22
     ebc:	0b01130e 	bleq	45afc <__bss_end__+0x3c634>
     ec0:	3b0b3a0b 	blcc	2cf6f4 <__bss_end__+0x2c622c>
     ec4:	010b390b 	tsteq	fp, fp, lsl #18
     ec8:	0f000013 	svceq	0x00000013
     ecc:	0e03000d 	cdpeq	0, 0, cr0, cr3, cr13, {0}
     ed0:	0b3b0b3a 	bleq	ec3bc0 <__bss_end__+0xeba6f8>
     ed4:	13490b39 	movtne	r0, #39737	; 0x9b39
     ed8:	00000b38 	andeq	r0, r0, r8, lsr fp
     edc:	03011310 	movweq	r1, #4880	; 0x1310
     ee0:	3a0b0b0e 	bcc	2c3b20 <__bss_end__+0x2ba658>
     ee4:	390b3b0b 	stmdbcc	fp, {r0, r1, r3, r8, r9, fp, ip, sp}
     ee8:	0013010b 	andseq	r0, r3, fp, lsl #2
     eec:	000d1100 	andeq	r1, sp, r0, lsl #2
     ef0:	0b3a0803 	bleq	e82f04 <__bss_end__+0xe79a3c>
     ef4:	0b390b3b 	bleq	e43be8 <__bss_end__+0xe3a720>
     ef8:	0b381349 	bleq	e05c24 <__bss_end__+0xdfc75c>
     efc:	13120000 	tstne	r2, #0, 0
     f00:	0b0e0301 	bleq	381b0c <__bss_end__+0x378644>
     f04:	3b0b3a05 	blcc	2cf720 <__bss_end__+0x2c6258>
     f08:	010b390b 	tsteq	fp, fp, lsl #18
     f0c:	13000013 	movwne	r0, #19
     f10:	0e03000d 	cdpeq	0, 0, cr0, cr3, cr13, {0}
     f14:	0b3b0b3a 	bleq	ec3c04 <__bss_end__+0xeba73c>
     f18:	13490b39 	movtne	r0, #39737	; 0x9b39
     f1c:	00000538 	andeq	r0, r0, r8, lsr r5
     f20:	27001514 	smladcs	r0, r4, r5, r1
     f24:	15000019 	strne	r0, [r0, #-25]	; 0xffffffe7
     f28:	19270115 	stmdbne	r7!, {r0, r2, r4, r8}
     f2c:	13011349 	movwne	r1, #4937	; 0x1349
     f30:	05160000 	ldreq	r0, [r6, #-0]
     f34:	00134900 	andseq	r4, r3, r0, lsl #18
     f38:	01131700 	tsteq	r3, r0, lsl #14
     f3c:	050b0e03 	streq	r0, [fp, #-3587]	; 0xfffff1fd
     f40:	053b0b3a 	ldreq	r0, [fp, #-2874]!	; 0xfffff4c6
     f44:	13010b39 	movwne	r0, #6969	; 0x1b39
     f48:	0d180000 	ldceq	0, cr0, [r8, #-0]
     f4c:	3a0e0300 	bcc	381b54 <__bss_end__+0x37868c>
     f50:	39053b0b 	stmdbcc	r5, {r0, r1, r3, r8, r9, fp, ip, sp}
     f54:	3813490b 	ldmdacc	r3, {r0, r1, r3, r8, fp, lr}
     f58:	1900000b 	stmdbne	r0, {r0, r1, r3}
     f5c:	0e03000d 	cdpeq	0, 0, cr0, cr3, cr13, {0}
     f60:	053b0b3a 	ldreq	r0, [fp, #-2874]!	; 0xfffff4c6
     f64:	13490b39 	movtne	r0, #39737	; 0x9b39
     f68:	00000538 	andeq	r0, r0, r8, lsr r5
     f6c:	0301131a 	movweq	r1, #4890	; 0x131a
     f70:	3a0b0b0e 	bcc	2c3bb0 <__bss_end__+0x2ba6e8>
     f74:	39053b0b 	stmdbcc	r5, {r0, r1, r3, r8, r9, fp, ip, sp}
     f78:	0013010b 	andseq	r0, r3, fp, lsl #2
     f7c:	01131b00 	tsteq	r3, r0, lsl #22
     f80:	0b3a0b0b 	bleq	e83bb4 <__bss_end__+0xe7a6ec>
     f84:	0b39053b 	bleq	e42478 <__bss_end__+0xe38fb0>
     f88:	00001301 	andeq	r1, r0, r1, lsl #6
     f8c:	0b01171c 	bleq	46c04 <__bss_end__+0x3d73c>
     f90:	3b0b3a0b 	blcc	2cf7c4 <__bss_end__+0x2c62fc>
     f94:	010b3905 	tsteq	fp, r5, lsl #18
     f98:	1d000013 	stcne	0, cr0, [r0, #-76]	; 0xffffffb4
     f9c:	0e03000d 	cdpeq	0, 0, cr0, cr3, cr13, {0}
     fa0:	053b0b3a 	ldreq	r0, [fp, #-2874]!	; 0xfffff4c6
     fa4:	13490b39 	movtne	r0, #39737	; 0x9b39
     fa8:	151e0000 	ldrne	r0, [lr, #-0]
     fac:	01192701 	tsteq	r9, r1, lsl #14
     fb0:	1f000013 	svcne	0x00000013
     fb4:	0e030034 	mcreq	0, 0, r0, cr3, cr4, {1}
     fb8:	053b0b3a 	ldreq	r0, [fp, #-2874]!	; 0xfffff4c6
     fbc:	13490b39 	movtne	r0, #39737	; 0x9b39
     fc0:	193c193f 	ldmdbne	ip!, {r0, r1, r2, r3, r4, r5, r8, fp, ip}
     fc4:	34200000 	strtcc	r0, [r0], #-0
     fc8:	3a0e0300 	bcc	381bd0 <__bss_end__+0x378708>
     fcc:	390b3b0b 	stmdbcc	fp, {r0, r1, r3, r8, r9, fp, ip, sp}
     fd0:	3f13490b 	svccc	0x0013490b
     fd4:	00193c19 	andseq	r3, r9, r9, lsl ip
     fd8:	012e2100 			; <UNDEFINED> instruction: 0x012e2100
     fdc:	0e03193f 			; <UNDEFINED> instruction: 0x0e03193f
     fe0:	0b3b0b3a 	bleq	ec3cd0 <__bss_end__+0xeba808>
     fe4:	19270b39 	stmdbne	r7!, {r0, r3, r4, r5, r8, r9, fp}
     fe8:	11190187 	tstne	r9, r7, lsl #3
     fec:	40061201 	andmi	r1, r6, r1, lsl #4
     ff0:	19429718 	stmdbne	r2, {r3, r4, r8, r9, sl, ip, pc}^
     ff4:	00001301 	andeq	r1, r0, r1, lsl #6
     ff8:	03003422 	movweq	r3, #1058	; 0x422
     ffc:	3b0b3a0e 	blcc	2cf83c <__bss_end__+0x2c6374>
    1000:	490b390b 	stmdbmi	fp, {r0, r1, r3, r8, fp, ip, sp}
    1004:	00061c13 	andeq	r1, r6, r3, lsl ip
    1008:	00342300 	eorseq	r2, r4, r0, lsl #6
    100c:	0b3a0e03 	bleq	e84820 <__bss_end__+0xe7b358>
    1010:	0b390b3b 	bleq	e43d04 <__bss_end__+0xe3a83c>
    1014:	0b1c1349 	bleq	705d40 <__bss_end__+0x6fc878>
    1018:	89240000 	stmdbhi	r4!, {}	; <UNPREDICTABLE>
    101c:	11000182 	smlabbne	r0, r2, r1, r0
    1020:	00133101 	andseq	r3, r3, r1, lsl #2
    1024:	82892500 	addhi	r2, r9, #0, 10
    1028:	01110101 	tsteq	r1, r1, lsl #2
    102c:	13011331 	movwne	r1, #4913	; 0x1331
    1030:	8a260000 	bhi	981038 <__bss_end__+0x977b70>
    1034:	02000182 	andeq	r0, r0, #-2147483616	; 0x80000020
    1038:	18429118 	stmdane	r2, {r3, r4, r8, ip, pc}^
    103c:	89270000 	stmdbhi	r7!, {}	; <UNPREDICTABLE>
    1040:	11010182 	smlabbne	r1, r2, r1, r0
    1044:	00133101 	andseq	r3, r3, r1, lsl #2
    1048:	002e2800 	eoreq	r2, lr, r0, lsl #16
    104c:	193c193f 	ldmdbne	ip!, {r0, r1, r2, r3, r4, r5, r8, fp, ip}
    1050:	0e030e6e 	cdpeq	14, 0, cr0, cr3, cr14, {3}
    1054:	0b3b0b3a 	bleq	ec3d44 <__bss_end__+0xeba87c>
    1058:	00000b39 	andeq	r0, r0, r9, lsr fp
    105c:	01110100 	tsteq	r1, r0, lsl #2
    1060:	0b130e25 	bleq	4c48fc <__bss_end__+0x4bb434>
    1064:	0e1b0e03 	cdpeq	14, 1, cr0, cr11, cr3, {0}
    1068:	06120111 			; <UNDEFINED> instruction: 0x06120111
    106c:	00001710 	andeq	r1, r0, r0, lsl r7
    1070:	0b002402 	bleq	a080 <__bss_end__+0xbb8>
    1074:	030b3e0b 	movweq	r3, #48651	; 0xbe0b
    1078:	03000008 	movweq	r0, #8
    107c:	0b0b0024 	bleq	2c1114 <__bss_end__+0x2b7c4c>
    1080:	0e030b3e 	vmoveq.16	d3[0], r0
    1084:	16040000 	strne	r0, [r4], -r0
    1088:	3a0e0300 	bcc	381c90 <__bss_end__+0x3787c8>
    108c:	390b3b0b 	stmdbcc	fp, {r0, r1, r3, r8, r9, fp, ip, sp}
    1090:	0013490b 	andseq	r4, r3, fp, lsl #18
    1094:	000f0500 	andeq	r0, pc, r0, lsl #10
    1098:	00000b0b 	andeq	r0, r0, fp, lsl #22
    109c:	0b000f06 	bleq	4cbc <__code_start__-0x3344>
    10a0:	0013490b 	andseq	r4, r3, fp, lsl #18
    10a4:	00130700 	andseq	r0, r3, r0, lsl #14
    10a8:	193c0e03 	ldmdbne	ip!, {r0, r1, r9, sl, fp}
    10ac:	16080000 	strne	r0, [r8], -r0
    10b0:	3a0e0300 	bcc	381cb8 <__bss_end__+0x3787f0>
    10b4:	39053b0b 	stmdbcc	r5, {r0, r1, r3, r8, r9, fp, ip, sp}
    10b8:	0013490b 	andseq	r4, r3, fp, lsl #18
    10bc:	01170900 	tsteq	r7, r0, lsl #18
    10c0:	0b3a0b0b 	bleq	e83cf4 <__bss_end__+0xe7a82c>
    10c4:	0b390b3b 	bleq	e43db8 <__bss_end__+0xe3a8f0>
    10c8:	00001301 	andeq	r1, r0, r1, lsl #6
    10cc:	03000d0a 	movweq	r0, #3338	; 0xd0a
    10d0:	3b0b3a0e 	blcc	2cf910 <__bss_end__+0x2c6448>
    10d4:	490b390b 	stmdbmi	fp, {r0, r1, r3, r8, fp, ip, sp}
    10d8:	0b000013 	bleq	112c <__code_start__-0x6ed4>
    10dc:	13490101 	movtne	r0, #37121	; 0x9101
    10e0:	00001301 	andeq	r1, r0, r1, lsl #6
    10e4:	4900210c 	stmdbmi	r0, {r2, r3, r8, sp}
    10e8:	000b2f13 	andeq	r2, fp, r3, lsl pc
    10ec:	01130d00 	tsteq	r3, r0, lsl #26
    10f0:	0b3a0b0b 	bleq	e83d24 <__bss_end__+0xe7a85c>
    10f4:	0b390b3b 	bleq	e43de8 <__bss_end__+0xe3a920>
    10f8:	00001301 	andeq	r1, r0, r1, lsl #6
    10fc:	03000d0e 	movweq	r0, #3342	; 0xd0e
    1100:	3b0b3a0e 	blcc	2cf940 <__bss_end__+0x2c6478>
    1104:	490b390b 	stmdbmi	fp, {r0, r1, r3, r8, fp, ip, sp}
    1108:	000b3813 	andeq	r3, fp, r3, lsl r8
    110c:	00260f00 	eoreq	r0, r6, r0, lsl #30
    1110:	00001349 	andeq	r1, r0, r9, asr #6
    1114:	03011310 	movweq	r1, #4880	; 0x1310
    1118:	3a0b0b0e 	bcc	2c3d58 <__bss_end__+0x2ba890>
    111c:	390b3b0b 	stmdbcc	fp, {r0, r1, r3, r8, r9, fp, ip, sp}
    1120:	0013010b 	andseq	r0, r3, fp, lsl #2
    1124:	000d1100 	andeq	r1, sp, r0, lsl #2
    1128:	0b3a0803 	bleq	e8313c <__bss_end__+0xe79c74>
    112c:	0b390b3b 	bleq	e43e20 <__bss_end__+0xe3a958>
    1130:	0b381349 	bleq	e05e5c <__bss_end__+0xdfc994>
    1134:	13120000 	tstne	r2, #0, 0
    1138:	0b0e0301 	bleq	381d44 <__bss_end__+0x37887c>
    113c:	3b0b3a05 	blcc	2cf958 <__bss_end__+0x2c6490>
    1140:	010b390b 	tsteq	fp, fp, lsl #18
    1144:	13000013 	movwne	r0, #19
    1148:	0e03000d 	cdpeq	0, 0, cr0, cr3, cr13, {0}
    114c:	0b3b0b3a 	bleq	ec3e3c <__bss_end__+0xeba974>
    1150:	13490b39 	movtne	r0, #39737	; 0x9b39
    1154:	00000538 	andeq	r0, r0, r8, lsr r5
    1158:	27001514 	smladcs	r0, r4, r5, r1
    115c:	15000019 	strne	r0, [r0, #-25]	; 0xffffffe7
    1160:	19270115 	stmdbne	r7!, {r0, r2, r4, r8}
    1164:	13011349 	movwne	r1, #4937	; 0x1349
    1168:	05160000 	ldreq	r0, [r6, #-0]
    116c:	00134900 	andseq	r4, r3, r0, lsl #18
    1170:	01131700 	tsteq	r3, r0, lsl #14
    1174:	050b0e03 	streq	r0, [fp, #-3587]	; 0xfffff1fd
    1178:	053b0b3a 	ldreq	r0, [fp, #-2874]!	; 0xfffff4c6
    117c:	13010b39 	movwne	r0, #6969	; 0x1b39
    1180:	0d180000 	ldceq	0, cr0, [r8, #-0]
    1184:	3a0e0300 	bcc	381d8c <__bss_end__+0x3788c4>
    1188:	39053b0b 	stmdbcc	r5, {r0, r1, r3, r8, r9, fp, ip, sp}
    118c:	3813490b 	ldmdacc	r3, {r0, r1, r3, r8, fp, lr}
    1190:	1900000b 	stmdbne	r0, {r0, r1, r3}
    1194:	0e03000d 	cdpeq	0, 0, cr0, cr3, cr13, {0}
    1198:	053b0b3a 	ldreq	r0, [fp, #-2874]!	; 0xfffff4c6
    119c:	13490b39 	movtne	r0, #39737	; 0x9b39
    11a0:	00000538 	andeq	r0, r0, r8, lsr r5
    11a4:	0301131a 	movweq	r1, #4890	; 0x131a
    11a8:	3a0b0b0e 	bcc	2c3de8 <__bss_end__+0x2ba920>
    11ac:	39053b0b 	stmdbcc	r5, {r0, r1, r3, r8, r9, fp, ip, sp}
    11b0:	0013010b 	andseq	r0, r3, fp, lsl #2
    11b4:	01131b00 	tsteq	r3, r0, lsl #22
    11b8:	0b3a0b0b 	bleq	e83dec <__bss_end__+0xe7a924>
    11bc:	0b39053b 	bleq	e426b0 <__bss_end__+0xe391e8>
    11c0:	00001301 	andeq	r1, r0, r1, lsl #6
    11c4:	0b01171c 	bleq	46e3c <__bss_end__+0x3d974>
    11c8:	3b0b3a0b 	blcc	2cf9fc <__bss_end__+0x2c6534>
    11cc:	010b3905 	tsteq	fp, r5, lsl #18
    11d0:	1d000013 	stcne	0, cr0, [r0, #-76]	; 0xffffffb4
    11d4:	0e03000d 	cdpeq	0, 0, cr0, cr3, cr13, {0}
    11d8:	053b0b3a 	ldreq	r0, [fp, #-2874]!	; 0xfffff4c6
    11dc:	13490b39 	movtne	r0, #39737	; 0x9b39
    11e0:	151e0000 	ldrne	r0, [lr, #-0]
    11e4:	01192701 	tsteq	r9, r1, lsl #14
    11e8:	1f000013 	svcne	0x00000013
    11ec:	0e030034 	mcreq	0, 0, r0, cr3, cr4, {1}
    11f0:	053b0b3a 	ldreq	r0, [fp, #-2874]!	; 0xfffff4c6
    11f4:	13490b39 	movtne	r0, #39737	; 0x9b39
    11f8:	193c193f 	ldmdbne	ip!, {r0, r1, r2, r3, r4, r5, r8, fp, ip}
    11fc:	34200000 	strtcc	r0, [r0], #-0
    1200:	3a0e0300 	bcc	381e08 <__bss_end__+0x378940>
    1204:	390b3b0b 	stmdbcc	fp, {r0, r1, r3, r8, r9, fp, ip, sp}
    1208:	3f13490b 	svccc	0x0013490b
    120c:	00193c19 	andseq	r3, r9, r9, lsl ip
    1210:	012e2100 			; <UNDEFINED> instruction: 0x012e2100
    1214:	0e03193f 			; <UNDEFINED> instruction: 0x0e03193f
    1218:	0b3b0b3a 	bleq	ec3f08 <__bss_end__+0xebaa40>
    121c:	19270b39 	stmdbne	r7!, {r0, r3, r4, r5, r8, r9, fp}
    1220:	06120111 			; <UNDEFINED> instruction: 0x06120111
    1224:	42971840 	addsmi	r1, r7, #64, 16	; 0x400000
    1228:	00130119 	andseq	r0, r3, r9, lsl r1
    122c:	00052200 	andeq	r2, r5, r0, lsl #4
    1230:	0b3a0803 	bleq	e83244 <__bss_end__+0xe79d7c>
    1234:	0b390b3b 	bleq	e43f28 <__bss_end__+0xe3aa60>
    1238:	17021349 	strne	r1, [r2, -r9, asr #6]
    123c:	001742b7 			; <UNDEFINED> instruction: 0x001742b7
    1240:	82892300 	addhi	r2, r9, #0, 6
    1244:	01110101 	tsteq	r1, r1, lsl #2
    1248:	00001331 	andeq	r1, r0, r1, lsr r3
    124c:	01828a24 	orreq	r8, r2, r4, lsr #20
    1250:	91180200 	tstls	r8, r0, lsl #4
    1254:	00001842 	andeq	r1, r0, r2, asr #16
    1258:	03003425 	movweq	r3, #1061	; 0x425
    125c:	3b0b3a08 	blcc	2cfa84 <__bss_end__+0x2c65bc>
    1260:	490b390b 	stmdbmi	fp, {r0, r1, r3, r8, fp, ip, sp}
    1264:	b7170213 			; <UNDEFINED> instruction: 0xb7170213
    1268:	00001742 	andeq	r1, r0, r2, asr #14
    126c:	11010b26 	tstne	r1, r6, lsr #22
    1270:	01061201 	tsteq	r6, r1, lsl #4
    1274:	27000013 	smladcs	r0, r3, r0, r0
    1278:	00018289 	andeq	r8, r1, r9, lsl #5
    127c:	13310111 	teqne	r1, #1073741828	; 0x40000004
    1280:	2e280000 	cdpcs	0, 2, cr0, cr8, cr0, {0}
    1284:	03193f01 	tsteq	r9, #1, 30
    1288:	3b0b3a0e 	blcc	2cfac8 <__bss_end__+0x2c6600>
    128c:	270b390b 	strcs	r3, [fp, -fp, lsl #18]
    1290:	11134919 	tstne	r3, r9, lsl r9
    1294:	40061201 	andmi	r1, r6, r1, lsl #4
    1298:	19429718 	stmdbne	r2, {r3, r4, r8, r9, sl, ip, pc}^
    129c:	00001301 	andeq	r1, r0, r1, lsl #6
    12a0:	3f002e29 	svccc	0x00002e29
    12a4:	6e193c19 	mrcvs	12, 0, r3, cr9, cr9, {0}
    12a8:	3a0e030e 	bcc	381ee8 <__bss_end__+0x378a20>
    12ac:	390b3b0b 	stmdbcc	fp, {r0, r1, r3, r8, r9, fp, ip, sp}
    12b0:	0000000b 	andeq	r0, r0, fp
    12b4:	25011101 	strcs	r1, [r1, #-257]	; 0xfffffeff
    12b8:	030b130e 	movweq	r1, #45838	; 0xb30e
    12bc:	550e1b0e 	strpl	r1, [lr, #-2830]	; 0xfffff4f2
    12c0:	10011117 	andne	r1, r1, r7, lsl r1
    12c4:	02000017 	andeq	r0, r0, #23, 0
    12c8:	0b0b0024 	bleq	2c1360 <__bss_end__+0x2b7e98>
    12cc:	08030b3e 	stmdaeq	r3, {r1, r2, r3, r4, r5, r8, r9, fp}
    12d0:	24030000 	strcs	r0, [r3], #-0
    12d4:	3e0b0b00 	vmlacc.f64	d0, d11, d0
    12d8:	000e030b 	andeq	r0, lr, fp, lsl #6
    12dc:	00160400 	andseq	r0, r6, r0, lsl #8
    12e0:	0b3a0e03 	bleq	e84af4 <__bss_end__+0xe7b62c>
    12e4:	0b390b3b 	bleq	e43fd8 <__bss_end__+0xe3ab10>
    12e8:	00001349 	andeq	r1, r0, r9, asr #6
    12ec:	0b000f05 	bleq	4f08 <__code_start__-0x30f8>
    12f0:	0600000b 	streq	r0, [r0], -fp
    12f4:	0b0b000f 	bleq	2c1338 <__bss_end__+0x2b7e70>
    12f8:	00001349 	andeq	r1, r0, r9, asr #6
    12fc:	03001307 	movweq	r1, #775	; 0x307
    1300:	00193c0e 	andseq	r3, r9, lr, lsl #24
    1304:	00160800 	andseq	r0, r6, r0, lsl #16
    1308:	0b3a0e03 	bleq	e84b1c <__bss_end__+0xe7b654>
    130c:	0b39053b 	bleq	e42800 <__bss_end__+0xe39338>
    1310:	00001349 	andeq	r1, r0, r9, asr #6
    1314:	0b011709 	bleq	46f40 <__bss_end__+0x3da78>
    1318:	3b0b3a0b 	blcc	2cfb4c <__bss_end__+0x2c6684>
    131c:	010b390b 	tsteq	fp, fp, lsl #18
    1320:	0a000013 	beq	1374 <__code_start__-0x6c8c>
    1324:	0e03000d 	cdpeq	0, 0, cr0, cr3, cr13, {0}
    1328:	0b3b0b3a 	bleq	ec4018 <__bss_end__+0xebab50>
    132c:	13490b39 	movtne	r0, #39737	; 0x9b39
    1330:	010b0000 	mrseq	r0, (UNDEF: 11)
    1334:	01134901 	tsteq	r3, r1, lsl #18
    1338:	0c000013 	stceq	0, cr0, [r0], {19}
    133c:	13490021 	movtne	r0, #36897	; 0x9021
    1340:	00000b2f 	andeq	r0, r0, pc, lsr #22
    1344:	0b01130d 	bleq	45f80 <__bss_end__+0x3cab8>
    1348:	3b0b3a0b 	blcc	2cfb7c <__bss_end__+0x2c66b4>
    134c:	010b390b 	tsteq	fp, fp, lsl #18
    1350:	0e000013 	mcreq	0, 0, r0, cr0, cr3, {0}
    1354:	0e03000d 	cdpeq	0, 0, cr0, cr3, cr13, {0}
    1358:	0b3b0b3a 	bleq	ec4048 <__bss_end__+0xebab80>
    135c:	13490b39 	movtne	r0, #39737	; 0x9b39
    1360:	00000b38 	andeq	r0, r0, r8, lsr fp
    1364:	4900260f 	stmdbmi	r0, {r0, r1, r2, r3, r9, sl, sp}
    1368:	10000013 	andne	r0, r0, r3, lsl r0
    136c:	0e030113 	mcreq	1, 0, r0, cr3, cr3, {0}
    1370:	0b3a0b0b 	bleq	e83fa4 <__bss_end__+0xe7aadc>
    1374:	0b390b3b 	bleq	e44068 <__bss_end__+0xe3aba0>
    1378:	00001301 	andeq	r1, r0, r1, lsl #6
    137c:	03000d11 	movweq	r0, #3345	; 0xd11
    1380:	3b0b3a08 	blcc	2cfba8 <__bss_end__+0x2c66e0>
    1384:	490b390b 	stmdbmi	fp, {r0, r1, r3, r8, fp, ip, sp}
    1388:	000b3813 	andeq	r3, fp, r3, lsl r8
    138c:	01131200 	tsteq	r3, r0, lsl #4
    1390:	050b0e03 	streq	r0, [fp, #-3587]	; 0xfffff1fd
    1394:	0b3b0b3a 	bleq	ec4084 <__bss_end__+0xebabbc>
    1398:	13010b39 	movwne	r0, #6969	; 0x1b39
    139c:	0d130000 	ldceq	0, cr0, [r3, #-0]
    13a0:	3a0e0300 	bcc	381fa8 <__bss_end__+0x378ae0>
    13a4:	390b3b0b 	stmdbcc	fp, {r0, r1, r3, r8, r9, fp, ip, sp}
    13a8:	3813490b 	ldmdacc	r3, {r0, r1, r3, r8, fp, lr}
    13ac:	14000005 	strne	r0, [r0], #-5
    13b0:	19270015 	stmdbne	r7!, {r0, r2, r4}
    13b4:	15150000 	ldrne	r0, [r5, #-0]
    13b8:	49192701 	ldmdbmi	r9, {r0, r8, r9, sl, sp}
    13bc:	00130113 	andseq	r0, r3, r3, lsl r1
    13c0:	00051600 	andeq	r1, r5, r0, lsl #12
    13c4:	00001349 	andeq	r1, r0, r9, asr #6
    13c8:	03011317 	movweq	r1, #4887	; 0x1317
    13cc:	3a050b0e 	bcc	14400c <__bss_end__+0x13ab44>
    13d0:	39053b0b 	stmdbcc	r5, {r0, r1, r3, r8, r9, fp, ip, sp}
    13d4:	0013010b 	andseq	r0, r3, fp, lsl #2
    13d8:	000d1800 	andeq	r1, sp, r0, lsl #16
    13dc:	0b3a0e03 	bleq	e84bf0 <__bss_end__+0xe7b728>
    13e0:	0b39053b 	bleq	e428d4 <__bss_end__+0xe3940c>
    13e4:	0b381349 	bleq	e06110 <__bss_end__+0xdfcc48>
    13e8:	0d190000 	ldceq	0, cr0, [r9, #-0]
    13ec:	3a0e0300 	bcc	381ff4 <__bss_end__+0x378b2c>
    13f0:	39053b0b 	stmdbcc	r5, {r0, r1, r3, r8, r9, fp, ip, sp}
    13f4:	3813490b 	ldmdacc	r3, {r0, r1, r3, r8, fp, lr}
    13f8:	1a000005 	bne	1414 <__code_start__-0x6bec>
    13fc:	0e030113 	mcreq	1, 0, r0, cr3, cr3, {0}
    1400:	0b3a0b0b 	bleq	e84034 <__bss_end__+0xe7ab6c>
    1404:	0b39053b 	bleq	e428f8 <__bss_end__+0xe39430>
    1408:	00001301 	andeq	r1, r0, r1, lsl #6
    140c:	0b01131b 	bleq	46080 <__bss_end__+0x3cbb8>
    1410:	3b0b3a0b 	blcc	2cfc44 <__bss_end__+0x2c677c>
    1414:	010b3905 	tsteq	fp, r5, lsl #18
    1418:	1c000013 	stcne	0, cr0, [r0], {19}
    141c:	0b0b0117 	bleq	2c1880 <__bss_end__+0x2b83b8>
    1420:	053b0b3a 	ldreq	r0, [fp, #-2874]!	; 0xfffff4c6
    1424:	13010b39 	movwne	r0, #6969	; 0x1b39
    1428:	0d1d0000 	ldceq	0, cr0, [sp, #-0]
    142c:	3a0e0300 	bcc	382034 <__bss_end__+0x378b6c>
    1430:	39053b0b 	stmdbcc	r5, {r0, r1, r3, r8, r9, fp, ip, sp}
    1434:	0013490b 	andseq	r4, r3, fp, lsl #18
    1438:	01151e00 	tsteq	r5, r0, lsl #28
    143c:	13011927 	movwne	r1, #6439	; 0x1927
    1440:	341f0000 	ldrcc	r0, [pc], #-0	; 1448 <__code_start__-0x6bb8>
    1444:	3a0e0300 	bcc	38204c <__bss_end__+0x378b84>
    1448:	39053b0b 	stmdbcc	r5, {r0, r1, r3, r8, r9, fp, ip, sp}
    144c:	3f13490b 	svccc	0x0013490b
    1450:	00193c19 	andseq	r3, r9, r9, lsl ip
    1454:	00342000 	eorseq	r2, r4, r0
    1458:	0b3a0e03 	bleq	e84c6c <__bss_end__+0xe7b7a4>
    145c:	0b390b3b 	bleq	e44150 <__bss_end__+0xe3ac88>
    1460:	193f1349 	ldmdbne	pc!, {r0, r3, r6, r8, r9, ip}	; <UNPREDICTABLE>
    1464:	0000193c 	andeq	r1, r0, ip, lsr r9
    1468:	3e010421 	cdpcc	4, 0, cr0, cr1, cr1, {1}
    146c:	490b0b0b 	stmdbmi	fp, {r0, r1, r3, r8, r9, fp}
    1470:	3b0b3a13 	blcc	2cfcc4 <__bss_end__+0x2c67fc>
    1474:	010b390b 	tsteq	fp, fp, lsl #18
    1478:	22000013 	andcs	r0, r0, #19, 0
    147c:	0e030028 	cdpeq	0, 0, cr0, cr3, cr8, {1}
    1480:	00000b1c 	andeq	r0, r0, ip, lsl fp
    1484:	03003423 	movweq	r3, #1059	; 0x423
    1488:	3b0b3a0e 	blcc	2cfcc8 <__bss_end__+0x2c6800>
    148c:	490b390b 	stmdbmi	fp, {r0, r1, r3, r8, fp, ip, sp}
    1490:	24000013 	strcs	r0, [r0], #-19	; 0xffffffed
    1494:	193f012e 	ldmdbne	pc!, {r1, r2, r3, r5, r8}	; <UNPREDICTABLE>
    1498:	0b3a0e03 	bleq	e84cac <__bss_end__+0xe7b7e4>
    149c:	0b390b3b 	bleq	e44190 <__bss_end__+0xe3acc8>
    14a0:	01111927 	tsteq	r1, r7, lsr #18
    14a4:	18400612 	stmdane	r0, {r1, r4, r9, sl}^
    14a8:	01194297 			; <UNDEFINED> instruction: 0x01194297
    14ac:	25000013 	strcs	r0, [r0, #-19]	; 0xffffffed
    14b0:	00018289 	andeq	r8, r1, r9, lsl #5
    14b4:	13310111 	teqne	r1, #1073741828	; 0x40000004
    14b8:	2e260000 	cdpcs	0, 2, cr0, cr6, cr0, {0}
    14bc:	03193f01 	tsteq	r9, #1, 30
    14c0:	3b0b3a0e 	blcc	2cfd00 <__bss_end__+0x2c6838>
    14c4:	270b390b 	strcs	r3, [fp, -fp, lsl #18]
    14c8:	11134919 	tstne	r3, r9, lsl r9
    14cc:	40061201 	andmi	r1, r6, r1, lsl #4
    14d0:	19429718 	stmdbne	r2, {r3, r4, r8, r9, sl, ip, pc}^
    14d4:	00001301 	andeq	r1, r0, r1, lsl #6
    14d8:	03003427 	movweq	r3, #1063	; 0x427
    14dc:	3b0b3a0e 	blcc	2cfd1c <__bss_end__+0x2c6854>
    14e0:	490b390b 	stmdbmi	fp, {r0, r1, r3, r8, fp, ip, sp}
    14e4:	b7170213 			; <UNDEFINED> instruction: 0xb7170213
    14e8:	00001742 	andeq	r1, r0, r2, asr #14
    14ec:	01828928 	orreq	r8, r2, r8, lsr #18
    14f0:	31011101 	tstcc	r1, r1, lsl #2
    14f4:	00130113 	andseq	r0, r3, r3, lsl r1
    14f8:	828a2900 	addhi	r2, sl, #0, 18
    14fc:	18020001 	stmdane	r2, {r0}
    1500:	00184291 	mulseq	r8, r1, r2
    1504:	82892a00 	addhi	r2, r9, #0, 20
    1508:	01110101 	tsteq	r1, r1, lsl #2
    150c:	00001331 	andeq	r1, r0, r1, lsr r3
    1510:	0300052b 	movweq	r0, #1323	; 0x52b
    1514:	3b0b3a08 	blcc	2cfd3c <__bss_end__+0x2c6874>
    1518:	490b390b 	stmdbmi	fp, {r0, r1, r3, r8, fp, ip, sp}
    151c:	b7170213 			; <UNDEFINED> instruction: 0xb7170213
    1520:	00001742 	andeq	r1, r0, r2, asr #14
    1524:	3f002e2c 	svccc	0x00002e2c
    1528:	6e193c19 	mrcvs	12, 0, r3, cr9, cr9, {0}
    152c:	3a0e030e 	bcc	38216c <__bss_end__+0x378ca4>
    1530:	390b3b0b 	stmdbcc	fp, {r0, r1, r3, r8, r9, fp, ip, sp}
    1534:	0000000b 	andeq	r0, r0, fp
    1538:	25011101 	strcs	r1, [r1, #-257]	; 0xfffffeff
    153c:	030b130e 	movweq	r1, #45838	; 0xb30e
    1540:	110e1b0e 	tstne	lr, lr, lsl #22
    1544:	10061201 	andne	r1, r6, r1, lsl #4
    1548:	02000017 	andeq	r0, r0, #23, 0
    154c:	0b0b0024 	bleq	2c15e4 <__bss_end__+0x2b811c>
    1550:	0e030b3e 	vmoveq.16	d3[0], r0
    1554:	24030000 	strcs	r0, [r3], #-0
    1558:	3e0b0b00 	vmlacc.f64	d0, d11, d0
    155c:	0008030b 	andeq	r0, r8, fp, lsl #6
    1560:	000f0400 	andeq	r0, pc, r0, lsl #8
    1564:	00000b0b 	andeq	r0, r0, fp, lsl #22
    1568:	03001605 	movweq	r1, #1541	; 0x605
    156c:	3b0b3a0e 	blcc	2cfdac <__bss_end__+0x2c68e4>
    1570:	490b390b 	stmdbmi	fp, {r0, r1, r3, r8, fp, ip, sp}
    1574:	06000013 			; <UNDEFINED> instruction: 0x06000013
    1578:	0b0b000f 	bleq	2c15bc <__bss_end__+0x2b80f4>
    157c:	00001349 	andeq	r1, r0, r9, asr #6
    1580:	03001307 	movweq	r1, #775	; 0x307
    1584:	00193c0e 	andseq	r3, r9, lr, lsl #24
    1588:	00160800 	andseq	r0, r6, r0, lsl #16
    158c:	0b3a0e03 	bleq	e84da0 <__bss_end__+0xe7b8d8>
    1590:	0b39053b 	bleq	e42a84 <__bss_end__+0xe395bc>
    1594:	00001349 	andeq	r1, r0, r9, asr #6
    1598:	0b011709 	bleq	471c4 <__bss_end__+0x3dcfc>
    159c:	3b0b3a0b 	blcc	2cfdd0 <__bss_end__+0x2c6908>
    15a0:	010b390b 	tsteq	fp, fp, lsl #18
    15a4:	0a000013 	beq	15f8 <__code_start__-0x6a08>
    15a8:	0e03000d 	cdpeq	0, 0, cr0, cr3, cr13, {0}
    15ac:	0b3b0b3a 	bleq	ec429c <__bss_end__+0xebadd4>
    15b0:	13490b39 	movtne	r0, #39737	; 0x9b39
    15b4:	010b0000 	mrseq	r0, (UNDEF: 11)
    15b8:	01134901 	tsteq	r3, r1, lsl #18
    15bc:	0c000013 	stceq	0, cr0, [r0], {19}
    15c0:	13490021 	movtne	r0, #36897	; 0x9021
    15c4:	00000b2f 	andeq	r0, r0, pc, lsr #22
    15c8:	0b01130d 	bleq	46204 <__bss_end__+0x3cd3c>
    15cc:	3b0b3a0b 	blcc	2cfe00 <__bss_end__+0x2c6938>
    15d0:	010b390b 	tsteq	fp, fp, lsl #18
    15d4:	0e000013 	mcreq	0, 0, r0, cr0, cr3, {0}
    15d8:	0e03000d 	cdpeq	0, 0, cr0, cr3, cr13, {0}
    15dc:	0b3b0b3a 	bleq	ec42cc <__bss_end__+0xebae04>
    15e0:	13490b39 	movtne	r0, #39737	; 0x9b39
    15e4:	00000b38 	andeq	r0, r0, r8, lsr fp
    15e8:	4900260f 	stmdbmi	r0, {r0, r1, r2, r3, r9, sl, sp}
    15ec:	10000013 	andne	r0, r0, r3, lsl r0
    15f0:	0e030113 	mcreq	1, 0, r0, cr3, cr3, {0}
    15f4:	0b3a0b0b 	bleq	e84228 <__bss_end__+0xe7ad60>
    15f8:	0b390b3b 	bleq	e442ec <__bss_end__+0xe3ae24>
    15fc:	00001301 	andeq	r1, r0, r1, lsl #6
    1600:	03000d11 	movweq	r0, #3345	; 0xd11
    1604:	3b0b3a08 	blcc	2cfe2c <__bss_end__+0x2c6964>
    1608:	490b390b 	stmdbmi	fp, {r0, r1, r3, r8, fp, ip, sp}
    160c:	000b3813 	andeq	r3, fp, r3, lsl r8
    1610:	01131200 	tsteq	r3, r0, lsl #4
    1614:	050b0e03 	streq	r0, [fp, #-3587]	; 0xfffff1fd
    1618:	0b3b0b3a 	bleq	ec4308 <__bss_end__+0xebae40>
    161c:	13010b39 	movwne	r0, #6969	; 0x1b39
    1620:	0d130000 	ldceq	0, cr0, [r3, #-0]
    1624:	3a0e0300 	bcc	38222c <__bss_end__+0x378d64>
    1628:	390b3b0b 	stmdbcc	fp, {r0, r1, r3, r8, r9, fp, ip, sp}
    162c:	3813490b 	ldmdacc	r3, {r0, r1, r3, r8, fp, lr}
    1630:	14000005 	strne	r0, [r0], #-5
    1634:	19270015 	stmdbne	r7!, {r0, r2, r4}
    1638:	15150000 	ldrne	r0, [r5, #-0]
    163c:	49192701 	ldmdbmi	r9, {r0, r8, r9, sl, sp}
    1640:	00130113 	andseq	r0, r3, r3, lsl r1
    1644:	00051600 	andeq	r1, r5, r0, lsl #12
    1648:	00001349 	andeq	r1, r0, r9, asr #6
    164c:	03011317 	movweq	r1, #4887	; 0x1317
    1650:	3a050b0e 	bcc	144290 <__bss_end__+0x13adc8>
    1654:	39053b0b 	stmdbcc	r5, {r0, r1, r3, r8, r9, fp, ip, sp}
    1658:	0013010b 	andseq	r0, r3, fp, lsl #2
    165c:	000d1800 	andeq	r1, sp, r0, lsl #16
    1660:	0b3a0e03 	bleq	e84e74 <__bss_end__+0xe7b9ac>
    1664:	0b39053b 	bleq	e42b58 <__bss_end__+0xe39690>
    1668:	0b381349 	bleq	e06394 <__bss_end__+0xdfcecc>
    166c:	0d190000 	ldceq	0, cr0, [r9, #-0]
    1670:	3a0e0300 	bcc	382278 <__bss_end__+0x378db0>
    1674:	39053b0b 	stmdbcc	r5, {r0, r1, r3, r8, r9, fp, ip, sp}
    1678:	3813490b 	ldmdacc	r3, {r0, r1, r3, r8, fp, lr}
    167c:	1a000005 	bne	1698 <__code_start__-0x6968>
    1680:	0e030113 	mcreq	1, 0, r0, cr3, cr3, {0}
    1684:	0b3a0b0b 	bleq	e842b8 <__bss_end__+0xe7adf0>
    1688:	0b39053b 	bleq	e42b7c <__bss_end__+0xe396b4>
    168c:	00001301 	andeq	r1, r0, r1, lsl #6
    1690:	0b01131b 	bleq	46304 <__bss_end__+0x3ce3c>
    1694:	3b0b3a0b 	blcc	2cfec8 <__bss_end__+0x2c6a00>
    1698:	010b3905 	tsteq	fp, r5, lsl #18
    169c:	1c000013 	stcne	0, cr0, [r0], {19}
    16a0:	0b0b0117 	bleq	2c1b04 <__bss_end__+0x2b863c>
    16a4:	053b0b3a 	ldreq	r0, [fp, #-2874]!	; 0xfffff4c6
    16a8:	13010b39 	movwne	r0, #6969	; 0x1b39
    16ac:	0d1d0000 	ldceq	0, cr0, [sp, #-0]
    16b0:	3a0e0300 	bcc	3822b8 <__bss_end__+0x378df0>
    16b4:	39053b0b 	stmdbcc	r5, {r0, r1, r3, r8, r9, fp, ip, sp}
    16b8:	0013490b 	andseq	r4, r3, fp, lsl #18
    16bc:	01151e00 	tsteq	r5, r0, lsl #28
    16c0:	13011927 	movwne	r1, #6439	; 0x1927
    16c4:	341f0000 	ldrcc	r0, [pc], #-0	; 16cc <__code_start__-0x6934>
    16c8:	3a0e0300 	bcc	3822d0 <__bss_end__+0x378e08>
    16cc:	39053b0b 	stmdbcc	r5, {r0, r1, r3, r8, r9, fp, ip, sp}
    16d0:	3f13490b 	svccc	0x0013490b
    16d4:	00193c19 	andseq	r3, r9, r9, lsl ip
    16d8:	00342000 	eorseq	r2, r4, r0
    16dc:	0b3a0e03 	bleq	e84ef0 <__bss_end__+0xe7ba28>
    16e0:	0b390b3b 	bleq	e443d4 <__bss_end__+0xe3af0c>
    16e4:	193f1349 	ldmdbne	pc!, {r0, r3, r6, r8, r9, ip}	; <UNPREDICTABLE>
    16e8:	0000193c 	andeq	r1, r0, ip, lsr r9
    16ec:	3e010421 	cdpcc	4, 0, cr0, cr1, cr1, {1}
    16f0:	490b0b0b 	stmdbmi	fp, {r0, r1, r3, r8, r9, fp}
    16f4:	3b0b3a13 	blcc	2cff48 <__bss_end__+0x2c6a80>
    16f8:	010b390b 	tsteq	fp, fp, lsl #18
    16fc:	22000013 	andcs	r0, r0, #19, 0
    1700:	0e030028 	cdpeq	0, 0, cr0, cr3, cr8, {1}
    1704:	00000b1c 	andeq	r0, r0, ip, lsl fp
    1708:	03002823 	movweq	r2, #2083	; 0x823
    170c:	00061c0e 	andeq	r1, r6, lr, lsl #24
    1710:	012e2400 			; <UNDEFINED> instruction: 0x012e2400
    1714:	0e03193f 			; <UNDEFINED> instruction: 0x0e03193f
    1718:	0b3b0b3a 	bleq	ec4408 <__bss_end__+0xebaf40>
    171c:	19270b39 	stmdbne	r7!, {r0, r3, r4, r5, r8, r9, fp}
    1720:	06120111 			; <UNDEFINED> instruction: 0x06120111
    1724:	42971840 	addsmi	r1, r7, #64, 16	; 0x400000
    1728:	00130119 	andseq	r0, r3, r9, lsl r1
    172c:	00052500 	andeq	r2, r5, r0, lsl #10
    1730:	0b3a0803 	bleq	e83744 <__bss_end__+0xe7a27c>
    1734:	0b390b3b 	bleq	e44428 <__bss_end__+0xe3af60>
    1738:	17021349 	strne	r1, [r2, -r9, asr #6]
    173c:	001742b7 			; <UNDEFINED> instruction: 0x001742b7
    1740:	82892600 	addhi	r2, r9, #0, 12
    1744:	01110101 	tsteq	r1, r1, lsl #2
    1748:	00001331 	andeq	r1, r0, r1, lsr r3
    174c:	01828a27 	orreq	r8, r2, r7, lsr #20
    1750:	91180200 	tstls	r8, r0, lsl #4
    1754:	00001842 	andeq	r1, r0, r2, asr #16
    1758:	03000528 	movweq	r0, #1320	; 0x528
    175c:	3b0b3a0e 	blcc	2cff9c <__bss_end__+0x2c6ad4>
    1760:	490b390b 	stmdbmi	fp, {r0, r1, r3, r8, fp, ip, sp}
    1764:	b7170213 			; <UNDEFINED> instruction: 0xb7170213
    1768:	00001742 	andeq	r1, r0, r2, asr #14
    176c:	03003429 	movweq	r3, #1065	; 0x429
    1770:	3b0b3a08 	blcc	2cff98 <__bss_end__+0x2c6ad0>
    1774:	490b390b 	stmdbmi	fp, {r0, r1, r3, r8, fp, ip, sp}
    1778:	b7170213 			; <UNDEFINED> instruction: 0xb7170213
    177c:	00001742 	andeq	r1, r0, r2, asr #14
    1780:	0300342a 	movweq	r3, #1066	; 0x42a
    1784:	3b0b3a0e 	blcc	2cffc4 <__bss_end__+0x2c6afc>
    1788:	490b390b 	stmdbmi	fp, {r0, r1, r3, r8, fp, ip, sp}
    178c:	b7170213 			; <UNDEFINED> instruction: 0xb7170213
    1790:	00001742 	andeq	r1, r0, r2, asr #14
    1794:	0182892b 	orreq	r8, r2, fp, lsr #18
    1798:	31011101 	tstcc	r1, r1, lsl #2
    179c:	00130113 	andseq	r0, r3, r3, lsl r1
    17a0:	012e2c00 			; <UNDEFINED> instruction: 0x012e2c00
    17a4:	0e03193f 			; <UNDEFINED> instruction: 0x0e03193f
    17a8:	0b3b0b3a 	bleq	ec4498 <__bss_end__+0xebafd0>
    17ac:	19270b39 	stmdbne	r7!, {r0, r3, r4, r5, r8, r9, fp}
    17b0:	01111349 	tsteq	r1, r9, asr #6
    17b4:	18400612 	stmdane	r0, {r1, r4, r9, sl}^
    17b8:	01194297 			; <UNDEFINED> instruction: 0x01194297
    17bc:	2d000013 	stccs	0, cr0, [r0, #-76]	; 0xffffffb4
    17c0:	00018289 	andeq	r8, r1, r9, lsl #5
    17c4:	13310111 	teqne	r1, #1073741828	; 0x40000004
    17c8:	182e0000 	stmdane	lr!, {}	; <UNPREDICTABLE>
    17cc:	2f000000 	svccs	0x00000000
    17d0:	193f002e 	ldmdbne	pc!, {r1, r2, r3, r5}	; <UNPREDICTABLE>
    17d4:	0e6e193c 			; <UNDEFINED> instruction: 0x0e6e193c
    17d8:	0b3a0e03 	bleq	e84fec <__bss_end__+0xe7bb24>
    17dc:	0b390b3b 	bleq	e444d0 <__bss_end__+0xe3b008>
    17e0:	01000000 	mrseq	r0, (UNDEF: 0)
    17e4:	0e250111 	mcreq	1, 1, r0, cr5, cr1, {0}
    17e8:	0e030b13 	vmoveq.32	d3[0], r0
    17ec:	01110e1b 	tsteq	r1, fp, lsl lr
    17f0:	17100612 			; <UNDEFINED> instruction: 0x17100612
    17f4:	24020000 	strcs	r0, [r2], #-0
    17f8:	3e0b0b00 	vmlacc.f64	d0, d11, d0
    17fc:	0008030b 	andeq	r0, r8, fp, lsl #6
    1800:	00240300 	eoreq	r0, r4, r0, lsl #6
    1804:	0b3e0b0b 	bleq	f84438 <__bss_end__+0xf7af70>
    1808:	00000e03 	andeq	r0, r0, r3, lsl #28
    180c:	0b000f04 	bleq	5424 <__code_start__-0x2bdc>
    1810:	0500000b 	streq	r0, [r0, #-11]
    1814:	0e030016 	mcreq	0, 0, r0, cr3, cr6, {0}
    1818:	0b3b0b3a 	bleq	ec4508 <__bss_end__+0xebb040>
    181c:	13490b39 	movtne	r0, #39737	; 0x9b39
    1820:	0f060000 	svceq	0x00060000
    1824:	490b0b00 	stmdbmi	fp, {r8, r9, fp}
    1828:	07000013 	smladeq	r0, r3, r0, r0
    182c:	0e030013 	mcreq	0, 0, r0, cr3, cr3, {0}
    1830:	0000193c 	andeq	r1, r0, ip, lsr r9
    1834:	03001608 	movweq	r1, #1544	; 0x608
    1838:	3b0b3a0e 	blcc	2d0078 <__bss_end__+0x2c6bb0>
    183c:	490b3905 	stmdbmi	fp, {r0, r2, r8, fp, ip, sp}
    1840:	09000013 	stmdbeq	r0, {r0, r1, r4}
    1844:	0b0b0117 	bleq	2c1ca8 <__bss_end__+0x2b87e0>
    1848:	0b3b0b3a 	bleq	ec4538 <__bss_end__+0xebb070>
    184c:	13010b39 	movwne	r0, #6969	; 0x1b39
    1850:	0d0a0000 	stceq	0, cr0, [sl, #-0]
    1854:	3a0e0300 	bcc	38245c <__bss_end__+0x378f94>
    1858:	390b3b0b 	stmdbcc	fp, {r0, r1, r3, r8, r9, fp, ip, sp}
    185c:	0013490b 	andseq	r4, r3, fp, lsl #18
    1860:	01010b00 	tsteq	r1, r0, lsl #22
    1864:	13011349 	movwne	r1, #4937	; 0x1349
    1868:	210c0000 	mrscs	r0, (UNDEF: 12)
    186c:	2f134900 	svccs	0x00134900
    1870:	0d00000b 	stceq	0, cr0, [r0, #-44]	; 0xffffffd4
    1874:	0b0b0113 	bleq	2c1cc8 <__bss_end__+0x2b8800>
    1878:	0b3b0b3a 	bleq	ec4568 <__bss_end__+0xebb0a0>
    187c:	13010b39 	movwne	r0, #6969	; 0x1b39
    1880:	0d0e0000 	stceq	0, cr0, [lr, #-0]
    1884:	3a0e0300 	bcc	38248c <__bss_end__+0x378fc4>
    1888:	390b3b0b 	stmdbcc	fp, {r0, r1, r3, r8, r9, fp, ip, sp}
    188c:	3813490b 	ldmdacc	r3, {r0, r1, r3, r8, fp, lr}
    1890:	0f00000b 	svceq	0x0000000b
    1894:	13490026 	movtne	r0, #36902	; 0x9026
    1898:	13100000 	tstne	r0, #0, 0
    189c:	0b0e0301 	bleq	3824a8 <__bss_end__+0x378fe0>
    18a0:	3b0b3a0b 	blcc	2d00d4 <__bss_end__+0x2c6c0c>
    18a4:	010b390b 	tsteq	fp, fp, lsl #18
    18a8:	11000013 	tstne	r0, r3, lsl r0
    18ac:	0803000d 	stmdaeq	r3, {r0, r2, r3}
    18b0:	0b3b0b3a 	bleq	ec45a0 <__bss_end__+0xebb0d8>
    18b4:	13490b39 	movtne	r0, #39737	; 0x9b39
    18b8:	00000b38 	andeq	r0, r0, r8, lsr fp
    18bc:	03011312 	movweq	r1, #4882	; 0x1312
    18c0:	3a050b0e 	bcc	144500 <__bss_end__+0x13b038>
    18c4:	390b3b0b 	stmdbcc	fp, {r0, r1, r3, r8, r9, fp, ip, sp}
    18c8:	0013010b 	andseq	r0, r3, fp, lsl #2
    18cc:	000d1300 	andeq	r1, sp, r0, lsl #6
    18d0:	0b3a0e03 	bleq	e850e4 <__bss_end__+0xe7bc1c>
    18d4:	0b390b3b 	bleq	e445c8 <__bss_end__+0xe3b100>
    18d8:	05381349 	ldreq	r1, [r8, #-841]!	; 0xfffffcb7
    18dc:	15140000 	ldrne	r0, [r4, #-0]
    18e0:	00192700 	andseq	r2, r9, r0, lsl #14
    18e4:	01151500 	tsteq	r5, r0, lsl #10
    18e8:	13491927 	movtne	r1, #39207	; 0x9927
    18ec:	00001301 	andeq	r1, r0, r1, lsl #6
    18f0:	49000516 	stmdbmi	r0, {r1, r2, r4, r8, sl}
    18f4:	17000013 	smladne	r0, r3, r0, r0
    18f8:	0e030113 	mcreq	1, 0, r0, cr3, cr3, {0}
    18fc:	0b3a050b 	bleq	e82d30 <__bss_end__+0xe79868>
    1900:	0b39053b 	bleq	e42df4 <__bss_end__+0xe3992c>
    1904:	00001301 	andeq	r1, r0, r1, lsl #6
    1908:	03000d18 	movweq	r0, #3352	; 0xd18
    190c:	3b0b3a0e 	blcc	2d014c <__bss_end__+0x2c6c84>
    1910:	490b3905 	stmdbmi	fp, {r0, r2, r8, fp, ip, sp}
    1914:	000b3813 	andeq	r3, fp, r3, lsl r8
    1918:	000d1900 	andeq	r1, sp, r0, lsl #18
    191c:	0b3a0e03 	bleq	e85130 <__bss_end__+0xe7bc68>
    1920:	0b39053b 	bleq	e42e14 <__bss_end__+0xe3994c>
    1924:	05381349 	ldreq	r1, [r8, #-841]!	; 0xfffffcb7
    1928:	131a0000 	tstne	sl, #0, 0
    192c:	0b0e0301 	bleq	382538 <__bss_end__+0x379070>
    1930:	3b0b3a0b 	blcc	2d0164 <__bss_end__+0x2c6c9c>
    1934:	010b3905 	tsteq	fp, r5, lsl #18
    1938:	1b000013 	blne	198c <__code_start__-0x6674>
    193c:	0b0b0113 	bleq	2c1d90 <__bss_end__+0x2b88c8>
    1940:	053b0b3a 	ldreq	r0, [fp, #-2874]!	; 0xfffff4c6
    1944:	13010b39 	movwne	r0, #6969	; 0x1b39
    1948:	171c0000 	ldrne	r0, [ip, -r0]
    194c:	3a0b0b01 	bcc	2c4558 <__bss_end__+0x2bb090>
    1950:	39053b0b 	stmdbcc	r5, {r0, r1, r3, r8, r9, fp, ip, sp}
    1954:	0013010b 	andseq	r0, r3, fp, lsl #2
    1958:	000d1d00 	andeq	r1, sp, r0, lsl #26
    195c:	0b3a0e03 	bleq	e85170 <__bss_end__+0xe7bca8>
    1960:	0b39053b 	bleq	e42e54 <__bss_end__+0xe3998c>
    1964:	00001349 	andeq	r1, r0, r9, asr #6
    1968:	2701151e 	smladcs	r1, lr, r5, r1
    196c:	00130119 	andseq	r0, r3, r9, lsl r1
    1970:	00341f00 	eorseq	r1, r4, r0, lsl #30
    1974:	0b3a0e03 	bleq	e85188 <__bss_end__+0xe7bcc0>
    1978:	0b39053b 	bleq	e42e6c <__bss_end__+0xe399a4>
    197c:	193f1349 	ldmdbne	pc!, {r0, r3, r6, r8, r9, ip}	; <UNPREDICTABLE>
    1980:	0000193c 	andeq	r1, r0, ip, lsr r9
    1984:	03003420 	movweq	r3, #1056	; 0x420
    1988:	3b0b3a0e 	blcc	2d01c8 <__bss_end__+0x2c6d00>
    198c:	490b390b 	stmdbmi	fp, {r0, r1, r3, r8, fp, ip, sp}
    1990:	3c193f13 	ldccc	15, cr3, [r9], {19}
    1994:	21000019 	tstcs	r0, r9, lsl r0
    1998:	193f012e 	ldmdbne	pc!, {r1, r2, r3, r5, r8}	; <UNPREDICTABLE>
    199c:	0b3a0e03 	bleq	e851b0 <__bss_end__+0xe7bce8>
    19a0:	0b390b3b 	bleq	e44694 <__bss_end__+0xe3b1cc>
    19a4:	13491927 	movtne	r1, #39207	; 0x9927
    19a8:	06120111 			; <UNDEFINED> instruction: 0x06120111
    19ac:	42961840 	addsmi	r1, r6, #64, 16	; 0x400000
    19b0:	22000019 	andcs	r0, r0, #25, 0
    19b4:	08030005 	stmdaeq	r3, {r0, r2}
    19b8:	0b3b0b3a 	bleq	ec46a8 <__bss_end__+0xebb1e0>
    19bc:	13490b39 	movtne	r0, #39737	; 0x9b39
    19c0:	42b71702 	adcsmi	r1, r7, #524288	; 0x80000
    19c4:	00000017 	andeq	r0, r0, r7, lsl r0
    19c8:	25011101 	strcs	r1, [r1, #-257]	; 0xfffffeff
    19cc:	030b130e 	movweq	r1, #45838	; 0xb30e
    19d0:	110e1b0e 	tstne	lr, lr, lsl #22
    19d4:	10061201 	andne	r1, r6, r1, lsl #4
    19d8:	02000017 	andeq	r0, r0, #23, 0
    19dc:	193f002e 	ldmdbne	pc!, {r1, r2, r3, r5}	; <UNPREDICTABLE>
    19e0:	0b3a0e03 	bleq	e851f4 <__bss_end__+0xe7bd2c>
    19e4:	0b390b3b 	bleq	e446d8 <__bss_end__+0xe3b210>
    19e8:	01111927 	tsteq	r1, r7, lsr #18
    19ec:	18400612 	stmdane	r0, {r1, r4, r9, sl}^
    19f0:	00194297 	mulseq	r9, r7, r2
	...

Disassembly of section .debug_loc:

00000000 <.debug_loc>:
	...
      14:	000002a8 	andeq	r0, r0, r8, lsr #5
      18:	00000303 	andeq	r0, r0, r3, lsl #6
      1c:	03500001 	cmpeq	r0, #1, 0
      20:	0c000003 	stceq	0, cr0, [r0], {3}
      24:	04000003 	streq	r0, [r0], #-3
      28:	5001f300 	andpl	pc, r1, r0, lsl #6
      2c:	00030c9f 	muleq	r3, pc, ip	; <UNPREDICTABLE>
      30:	00032400 	andeq	r2, r3, r0, lsl #8
      34:	50000100 	andpl	r0, r0, r0, lsl #2
      38:	00000324 	andeq	r0, r0, r4, lsr #6
      3c:	0000032c 	andeq	r0, r0, ip, lsr #6
      40:	01f30004 	mvnseq	r0, r4
      44:	032c9f50 			; <UNDEFINED> instruction: 0x032c9f50
      48:	03440000 	movteq	r0, #16384	; 0x4000
      4c:	00010000 	andeq	r0, r1, r0
      50:	00034450 	andeq	r4, r3, r0, asr r4
      54:	00034c00 	andeq	r4, r3, r0, lsl #24
      58:	f3000400 	vshl.u8	d0, d0, d0
      5c:	4c9f5001 	ldcmi	0, cr5, [pc], {1}
      60:	64000003 	strvs	r0, [r0], #-3
      64:	01000003 	tsteq	r0, r3
      68:	03645000 	cmneq	r4, #0, 0
      6c:	036c0000 	cmneq	ip, #0, 0
      70:	00040000 	andeq	r0, r4, r0
      74:	9f5001f3 	svcls	0x005001f3
      78:	0000036c 	andeq	r0, r0, ip, ror #6
      7c:	00000384 	andeq	r0, r0, r4, lsl #7
      80:	84500001 	ldrbhi	r0, [r0], #-1
      84:	b8000003 	stmdalt	r0, {r0, r1}
      88:	04000003 	streq	r0, [r0], #-3
      8c:	5001f300 	andpl	pc, r1, r0, lsl #6
      90:	0000009f 	muleq	r0, pc, r0	; <UNPREDICTABLE>
	...
      ac:	0002a800 	andeq	sl, r2, r0, lsl #16
      b0:	0002cc00 	andeq	ip, r2, r0, lsl #24
      b4:	51000100 	mrspl	r0, (UNDEF: 16)
      b8:	000002cc 	andeq	r0, r0, ip, asr #5
      bc:	000002f0 	strdeq	r0, [r0], -r0	; <UNPREDICTABLE>
      c0:	f0510001 			; <UNDEFINED> instruction: 0xf0510001
      c4:	03000002 	movweq	r0, #2
      c8:	03000003 	movweq	r0, #3
      cc:	9f017100 	svcls	0x00017100
      d0:	00000303 	andeq	r0, r0, r3, lsl #6
      d4:	0000030c 	andeq	r0, r0, ip, lsl #6
      d8:	f3380017 	vqadd.u64	d0, d8, d7
      dc:	01f35101 	mvnseq	r5, r1, lsl #2
      e0:	244b4051 	strbcs	r4, [fp], #-81	; 0xffffffaf
      e4:	00080c22 	andeq	r0, r8, r2, lsr #24
      e8:	282d8000 	stmdacs	sp!, {pc}
      ec:	13160001 	tstne	r6, #1, 0
      f0:	00030c9f 	muleq	r3, pc, ip	; <UNPREDICTABLE>
      f4:	00032000 	andeq	r2, r3, r0
      f8:	51000100 	mrspl	r0, (UNDEF: 16)
      fc:	00000320 	andeq	r0, r0, r0, lsr #6
     100:	0000032c 	andeq	r0, r0, ip, lsr #6
     104:	01f30004 	mvnseq	r0, r4
     108:	032c9f51 			; <UNDEFINED> instruction: 0x032c9f51
     10c:	03400000 	movteq	r0, #0
     110:	00010000 	andeq	r0, r1, r0
     114:	00034051 	andeq	r4, r3, r1, asr r0
     118:	00034c00 	andeq	r4, r3, r0, lsl #24
     11c:	f3000400 	vshl.u8	d0, d0, d0
     120:	4c9f5101 	ldfmis	f5, [pc], {1}
     124:	60000003 	andvs	r0, r0, r3
     128:	01000003 	tsteq	r0, r3
     12c:	03605100 	cmneq	r0, #0
     130:	03b80000 			; <UNDEFINED> instruction: 0x03b80000
     134:	00170000 	andseq	r0, r7, r0
     138:	5101f338 	tstpl	r1, r8, lsr r3	; <UNPREDICTABLE>
     13c:	405101f3 	ldrshmi	r0, [r1], #-19	; 0xffffffed
     140:	0c22244b 	cfstrseq	mvf2, [r2], #-300	; 0xfffffed4
     144:	80000008 	andhi	r0, r0, r8
     148:	0001282d 	andeq	r2, r1, sp, lsr #16
     14c:	009f1316 	addseq	r1, pc, r6, lsl r3	; <UNPREDICTABLE>
	...
     164:	d4000000 	strle	r0, [r0], #-0
     168:	e4000002 	str	r0, [r0], #-2
     16c:	01000002 	tsteq	r0, r2
     170:	02e45200 	rsceq	r5, r4, #0, 4
     174:	02ec0000 	rsceq	r0, ip, #0, 0
     178:	00050000 	andeq	r0, r5, r0
     17c:	0094b403 	addseq	fp, r4, r3, lsl #8
     180:	0002ec00 	andeq	lr, r2, r0, lsl #24
     184:	00030300 	andeq	r0, r3, r0, lsl #6
     188:	53000100 	movwpl	r0, #256	; 0x100
     18c:	0000034c 	andeq	r0, r0, ip, asr #6
     190:	0000035c 	andeq	r0, r0, ip, asr r3
     194:	5c520001 	mrrcpl	0, 0, r0, r2, cr1
     198:	67000003 	strvs	r0, [r0, -r3]
     19c:	05000003 	streq	r0, [r0, #-3]
     1a0:	94b40300 	ldrtls	r0, [r4], #768	; 0x300
     1a4:	036c0000 	cmneq	ip, #0, 0
     1a8:	03700000 	cmneq	r0, #0, 0
     1ac:	00010000 	andeq	r0, r1, r0
     1b0:	00037053 	andeq	r7, r3, r3, asr r0
     1b4:	00037c00 	andeq	r7, r3, r0, lsl #24
     1b8:	38001b00 	stmdacc	r0, {r8, r9, fp, ip}
     1bc:	f35101f3 	vbsl	q8, <illegal reg q8.5>, <illegal reg q9.5>
     1c0:	4b405101 	blmi	10145cc <__bss_end__+0x100b104>
     1c4:	080c2224 	stmdaeq	ip, {r2, r5, r9, sp}
     1c8:	2d800000 	stccs	0, cr0, [r0]
     1cc:	16000128 	strne	r0, [r0], -r8, lsr #2
     1d0:	00721f13 	rsbseq	r1, r2, r3, lsl pc
     1d4:	037c9f1a 	cmneq	ip, #104	; 0x68
     1d8:	03870000 	orreq	r0, r7, #0, 0
     1dc:	00380000 	eorseq	r0, r8, r0
     1e0:	5101f338 	tstpl	r1, r8, lsr r3	; <UNPREDICTABLE>
     1e4:	405101f3 	ldrshmi	r0, [r1], #-19	; 0xffffffed
     1e8:	0c22244b 	cfstrseq	mvf2, [r2], #-300	; 0xfffffed4
     1ec:	80000008 	andhi	r0, r0, r8
     1f0:	0001282d 	andeq	r2, r1, sp, lsr #16
     1f4:	b4031316 	strlt	r1, [r3], #-790	; 0xfffffcea
     1f8:	06000094 			; <UNDEFINED> instruction: 0x06000094
     1fc:	381c3122 	ldmdacc	ip, {r1, r5, r8, ip, sp}
     200:	f35101f3 	vbsl	q8, <illegal reg q8.5>, <illegal reg q9.5>
     204:	4b405101 	blmi	1014610 <__bss_end__+0x100b148>
     208:	080c2224 	stmdaeq	ip, {r2, r5, r9, sp}
     20c:	2d800000 	stccs	0, cr0, [r0]
     210:	16000128 	strne	r0, [r0], -r8, lsr #2
     214:	9f1a1f13 	svcls	0x001a1f13
	...
     220:	02b80003 	adcseq	r0, r8, #3, 0
     224:	02bc0000 	adcseq	r0, ip, #0, 0
     228:	00010000 	andeq	r0, r1, r0
     22c:	00000051 	andeq	r0, r0, r1, asr r0
     230:	00000000 	andeq	r0, r0, r0
     234:	c4000200 	strgt	r0, [r0], #-512	; 0xfffffe00
     238:	cc000002 	stcgt	0, cr0, [r0], {2}
     23c:	02000002 	andeq	r0, r0, #2, 0
     240:	009f3800 	addseq	r3, pc, r0, lsl #16
     244:	00000000 	andeq	r0, r0, r0
     248:	02000000 	andeq	r0, r0, #0, 0
     24c:	0002c400 	andeq	ip, r2, r0, lsl #8
     250:	0002cc00 	andeq	ip, r2, r0, lsl #24
     254:	51000100 	mrspl	r0, (UNDEF: 16)
	...
     260:	00000001 	andeq	r0, r0, r1
     264:	02d40000 	sbcseq	r0, r4, #0, 0
     268:	02ec0000 	rsceq	r0, ip, #0, 0
     26c:	00010000 	andeq	r0, r1, r0
     270:	00034c51 	andeq	r4, r3, r1, asr ip
     274:	00036000 	andeq	r6, r3, r0
     278:	51000100 	mrspl	r0, (UNDEF: 16)
     27c:	00000360 	andeq	r0, r0, r0, ror #6
     280:	0000036c 	andeq	r0, r0, ip, ror #6
     284:	f3380017 	vqadd.u64	d0, d8, d7
     288:	01f35101 	mvnseq	r5, r1, lsl #2
     28c:	244b4051 	strbcs	r4, [fp], #-81	; 0xffffffaf
     290:	00080c22 	andeq	r0, r8, r2, lsr #24
     294:	282d8000 	stmdacs	sp!, {pc}
     298:	13160001 	tstne	r6, #1, 0
     29c:	0000009f 	muleq	r0, pc, r0	; <UNPREDICTABLE>
     2a0:	00000000 	andeq	r0, r0, r0
     2a4:	00000100 	andeq	r0, r0, r0, lsl #2
     2a8:	00000000 	andeq	r0, r0, r0
     2ac:	0002d400 	andeq	sp, r2, r0, lsl #8
     2b0:	0002e400 	andeq	lr, r2, r0, lsl #8
     2b4:	52000100 	andpl	r0, r0, #0
     2b8:	000002e4 	andeq	r0, r0, r4, ror #5
     2bc:	000002ec 	andeq	r0, r0, ip, ror #5
     2c0:	b4030005 	strlt	r0, [r3], #-5
     2c4:	4c000094 	stcmi	0, cr0, [r0], {148}	; 0x94
     2c8:	5c000003 	stcpl	0, cr0, [r0], {3}
     2cc:	01000003 	tsteq	r0, r3
     2d0:	035c5200 	cmpeq	ip, #0, 4
     2d4:	03670000 	cmneq	r7, #0, 0
     2d8:	00050000 	andeq	r0, r5, r0
     2dc:	0094b403 	addseq	fp, r4, r3, lsl #8
	...
     2e8:	d4000400 	strle	r0, [r0], #-1024	; 0xfffffc00
     2ec:	d8000002 	stmdale	r0, {r1}
     2f0:	01000002 	tsteq	r0, r2
     2f4:	00005100 	andeq	r5, r0, r0, lsl #2
     2f8:	00000000 	andeq	r0, r0, r0
     2fc:	00030000 	andeq	r0, r3, r0
     300:	000002ec 	andeq	r0, r0, ip, ror #5
     304:	000002f0 	strdeq	r0, [r0], -r0	; <UNPREDICTABLE>
     308:	00510001 	subseq	r0, r1, r1
     30c:	00000000 	andeq	r0, r0, r0
     310:	03000000 	movweq	r0, #0
     314:	0002ec00 	andeq	lr, r2, r0, lsl #24
     318:	0002f000 	andeq	pc, r2, r0
     31c:	53000100 	movwpl	r0, #256	; 0x100
	...
     330:	00000244 	andeq	r0, r0, r4, asr #4
     334:	0000025b 	andeq	r0, r0, fp, asr r2
     338:	5b500001 	blpl	1400344 <__bss_end__+0x13f6e7c>
     33c:	78000002 	stmdavc	r0, {r1}
     340:	01000002 	tsteq	r0, r2
     344:	02785400 	rsbseq	r5, r8, #0, 8
     348:	02900000 	addseq	r0, r0, #0, 0
     34c:	00010000 	andeq	r0, r1, r0
     350:	00029050 	andeq	r9, r2, r0, asr r0
     354:	0002a800 	andeq	sl, r2, r0, lsl #16
     358:	54000100 	strpl	r0, [r0], #-256	; 0xffffff00
	...
     368:	00000260 	andeq	r0, r0, r0, ror #4
     36c:	0000026b 	andeq	r0, r0, fp, ror #4
     370:	6b500001 	blvs	140037c <__bss_end__+0x13f6eb4>
     374:	78000002 	stmdavc	r0, {r1}
     378:	01000002 	tsteq	r0, r2
     37c:	00005500 	andeq	r5, r0, r0, lsl #10
	...
     39c:	01580000 	cmpeq	r8, r0
     3a0:	016c0000 	cmneq	ip, r0
     3a4:	00010000 	andeq	r0, r1, r0
     3a8:	00016c50 	andeq	r6, r1, r0, asr ip
     3ac:	00017000 	andeq	r7, r1, r0
     3b0:	70000300 	andvc	r0, r0, r0, lsl #6
     3b4:	01709f79 	cmneq	r0, r9, ror pc
     3b8:	01a80000 			; <UNDEFINED> instruction: 0x01a80000
     3bc:	00010000 	andeq	r0, r1, r0
     3c0:	0001a853 	andeq	sl, r1, r3, asr r8
     3c4:	0001c000 	andeq	ip, r1, r0
     3c8:	50000100 	andpl	r0, r0, r0, lsl #2
     3cc:	000001c0 	andeq	r0, r0, r0, asr #3
     3d0:	000001c8 	andeq	r0, r0, r8, asr #3
     3d4:	01f30004 	mvnseq	r0, r4
     3d8:	01c89f50 	biceq	r9, r8, r0, asr pc
     3dc:	01cc0000 	biceq	r0, ip, r0
     3e0:	00010000 	andeq	r0, r1, r0
     3e4:	0001cc53 	andeq	ip, r1, r3, asr ip
     3e8:	0001e800 	andeq	lr, r1, r0, lsl #16
     3ec:	f3000900 	vmls.i8	d0, d0, d0
     3f0:	07235001 	streq	r5, [r3, -r1]!
     3f4:	9f1af809 	svcls	0x001af809
     3f8:	000001e8 	andeq	r0, r0, r8, ror #3
     3fc:	000001ec 	andeq	r0, r0, ip, ror #3
     400:	ec530001 	mrrc	0, 0, r0, r3, cr1
     404:	00000001 	andeq	r0, r0, r1
     408:	09000002 	stmdbeq	r0, {r1}
     40c:	5001f300 	andpl	pc, r1, r0, lsl #6
     410:	f8090723 			; <UNDEFINED> instruction: 0xf8090723
     414:	02009f1a 	andeq	r9, r0, #104	; 0x68
     418:	02100000 	andseq	r0, r0, #0, 0
     41c:	00010000 	andeq	r0, r1, r0
     420:	00021053 	andeq	r1, r2, r3, asr r0
     424:	00021f00 	andeq	r1, r2, r0, lsl #30
     428:	91000200 	mrsls	r0, R8_usr
     42c:	00021f68 	andeq	r1, r2, r8, ror #30
     430:	00024400 	andeq	r4, r2, r0, lsl #8
     434:	f3000900 	vmls.i8	d0, d0, d0
     438:	07235001 	streq	r5, [r3, -r1]!
     43c:	9f1af809 	svcls	0x001af809
	...
     448:	00000002 	andeq	r0, r0, r2
     44c:	00000000 	andeq	r0, r0, r0
     450:	01800000 	orreq	r0, r0, r0
     454:	01a80000 			; <UNDEFINED> instruction: 0x01a80000
     458:	00010000 	andeq	r0, r1, r0
     45c:	0001e850 	andeq	lr, r1, r0, asr r8
     460:	0001f800 	andeq	pc, r1, r0, lsl #16
     464:	50000100 	andpl	r0, r0, r0, lsl #2
     468:	000001f8 	strdeq	r0, [r0], -r8
     46c:	000001fb 	strdeq	r0, [r0], -fp
     470:	b4030005 	strlt	r0, [r3], #-5
     474:	00000094 	muleq	r0, r4, r0
     478:	1c000002 	stcne	0, cr0, [r0], {2}
     47c:	01000002 	tsteq	r0, r2
     480:	021c5000 	andseq	r5, ip, #0, 0
     484:	021f0000 	andseq	r0, pc, #0, 0
     488:	00050000 	andeq	r0, r5, r0
     48c:	0094b403 	addseq	fp, r4, r3, lsl #8
	...
     498:	68000200 	stmdavs	r0, {r9}
     49c:	70000001 	andvc	r0, r0, r1
     4a0:	02000001 	andeq	r0, r0, #1, 0
     4a4:	009f3800 	addseq	r3, pc, r0, lsl #16
     4a8:	00000000 	andeq	r0, r0, r0
     4ac:	02000000 	andeq	r0, r0, #0, 0
     4b0:	68000000 	stmdavs	r0, {}	; <UNPREDICTABLE>
     4b4:	6c000001 	stcvs	0, cr0, [r0], {1}
     4b8:	01000001 	tsteq	r0, r1
     4bc:	016c5000 	cmneq	ip, r0
     4c0:	01700000 	cmneq	r0, r0
     4c4:	00030000 	andeq	r0, r3, r0
     4c8:	009f7970 	addseq	r7, pc, r0, ror r9	; <UNPREDICTABLE>
	...
     4dc:	30000000 	andcc	r0, r0, r0
     4e0:	4b000000 	blmi	4e8 <__code_start__-0x7b18>
     4e4:	01000000 	mrseq	r0, (UNDEF: 0)
     4e8:	004b5000 	subeq	r5, fp, r0
     4ec:	008c0000 	addeq	r0, ip, r0
     4f0:	00010000 	andeq	r0, r1, r0
     4f4:	00008c54 	andeq	r8, r0, r4, asr ip
     4f8:	00009800 	andeq	r9, r0, r0, lsl #16
     4fc:	03000500 	movweq	r0, #1280	; 0x500
     500:	000094b4 			; <UNDEFINED> instruction: 0x000094b4
     504:	00000098 	muleq	r0, r8, r0
     508:	000000ac 	andeq	r0, r0, ip, lsr #1
     50c:	ac500001 	mrrcge	0, 0, r0, r0, cr1	; <UNPREDICTABLE>
     510:	b4000000 	strlt	r0, [r0], #-0
     514:	04000000 	streq	r0, [r0], #-0
     518:	5001f300 	andpl	pc, r1, r0, lsl #6
     51c:	0000b49f 	muleq	r0, pc, r4	; <UNPREDICTABLE>
     520:	00015800 	andeq	r5, r1, r0, lsl #16
     524:	54000100 	strpl	r0, [r0], #-256	; 0xffffff00
	...
     538:	00000030 	andeq	r0, r0, r0, lsr r0
     53c:	0000004b 	andeq	r0, r0, fp, asr #32
     540:	4b510001 	blmi	144054c <__bss_end__+0x1437084>
     544:	98000000 	stmdals	r0, {}	; <UNPREDICTABLE>
     548:	01000000 	mrseq	r0, (UNDEF: 0)
     54c:	00985500 	addseq	r5, r8, r0, lsl #10
     550:	00a80000 	adceq	r0, r8, r0
     554:	00010000 	andeq	r0, r1, r0
     558:	0000a851 	andeq	sl, r0, r1, asr r8
     55c:	00015800 	andeq	r5, r1, r0, lsl #16
     560:	55000100 	strpl	r0, [r0, #-256]	; 0xffffff00
	...
     56c:	00000002 	andeq	r0, r0, r2
     570:	00000000 	andeq	r0, r0, r0
     574:	00000048 	andeq	r0, r0, r8, asr #32
     578:	0000004b 	andeq	r0, r0, fp, asr #32
     57c:	4b500001 	blmi	1400588 <__bss_end__+0x13f70c0>
     580:	8c000000 	stchi	0, cr0, [r0], {-0}
     584:	01000000 	mrseq	r0, (UNDEF: 0)
     588:	008c5400 	addeq	r5, ip, r0, lsl #8
     58c:	00980000 	addseq	r0, r8, r0
     590:	00050000 	andeq	r0, r5, r0
     594:	0094b403 	addseq	fp, r4, r3, lsl #8
     598:	0000b400 	andeq	fp, r0, r0, lsl #8
     59c:	00015800 	andeq	r5, r1, r0, lsl #16
     5a0:	54000100 	strpl	r0, [r0], #-256	; 0xffffff00
	...
     5b8:	00000040 	andeq	r0, r0, r0, asr #32
     5bc:	40500001 	subsmi	r0, r0, r1
     5c0:	68000000 	stmdavs	r0, {}	; <UNPREDICTABLE>
     5c4:	04000000 	streq	r0, [r0], #-0
     5c8:	5001f300 	andpl	pc, r1, r0, lsl #6
     5cc:	0000689f 	muleq	r0, pc, r8	; <UNPREDICTABLE>
     5d0:	00007c00 	andeq	r7, r0, r0, lsl #24
     5d4:	50000100 	andpl	r0, r0, r0, lsl #2
     5d8:	0000007c 	andeq	r0, r0, ip, ror r0
     5dc:	000000a0 	andeq	r0, r0, r0, lsr #1
     5e0:	01f30004 	mvnseq	r0, r4
     5e4:	00009f50 	andeq	r9, r0, r0, asr pc
	...
     608:	00000034 	andeq	r0, r0, r4, lsr r0
     60c:	34520001 	ldrbcc	r0, [r2], #-1
     610:	38000000 	stmdacc	r0, {}	; <UNPREDICTABLE>
     614:	04000000 	streq	r0, [r0], #-0
     618:	5201f300 	andpl	pc, r1, #0, 6
     61c:	0000389f 	muleq	r0, pc, r8	; <UNPREDICTABLE>
     620:	00004000 	andeq	r4, r0, r0
     624:	52000100 	andpl	r0, r0, #0
     628:	00000040 	andeq	r0, r0, r0, asr #32
     62c:	00000048 	andeq	r0, r0, r8, asr #32
     630:	48530001 	ldmdami	r3, {r0}^
     634:	4c000000 	stcmi	0, cr0, [r0], {-0}
     638:	01000000 	mrseq	r0, (UNDEF: 0)
     63c:	004c5200 	subeq	r5, ip, r0, lsl #4
     640:	00580000 	subseq	r0, r8, r0
     644:	00010000 	andeq	r0, r1, r0
     648:	00005853 	andeq	r5, r0, r3, asr r8
     64c:	00006800 	andeq	r6, r0, r0, lsl #16
     650:	f3000400 	vshl.u8	d0, d0, d0
     654:	689f5201 	ldmvs	pc, {r0, r9, ip, lr}	; <UNPREDICTABLE>
     658:	70000000 	andvc	r0, r0, r0
     65c:	01000000 	mrseq	r0, (UNDEF: 0)
     660:	00705200 	rsbseq	r5, r0, r0, lsl #4
     664:	008c0000 	addeq	r0, ip, r0
     668:	00010000 	andeq	r0, r1, r0
     66c:	00008c53 	andeq	r8, r0, r3, asr ip
     670:	00009000 	andeq	r9, r0, r0
     674:	52000100 	andpl	r0, r0, #0
     678:	00000090 	muleq	r0, r0, r0
     67c:	000000a0 	andeq	r0, r0, r0, lsr #1
     680:	00530001 	subseq	r0, r3, r1
     684:	00000000 	andeq	r0, r0, r0
     688:	01000000 	mrseq	r0, (UNDEF: 0)
     68c:	02020000 	andeq	r0, r2, #0, 0
     690:	30000000 	andcc	r0, r0, r0
     694:	38000000 	stmdacc	r0, {}	; <UNPREDICTABLE>
     698:	01000000 	mrseq	r0, (UNDEF: 0)
     69c:	00585000 	subseq	r5, r8, r0
     6a0:	00580000 	subseq	r0, r8, r0
     6a4:	00010000 	andeq	r0, r1, r0
     6a8:	00005850 	andeq	r5, r0, r0, asr r8
     6ac:	00005c00 	andeq	r5, r0, r0, lsl #24
     6b0:	70000300 	andvc	r0, r0, r0, lsl #6
     6b4:	005c9f01 	subseq	r9, ip, r1, lsl #30
     6b8:	00680000 	rsbeq	r0, r8, r0
     6bc:	00010000 	andeq	r0, r1, r0
     6c0:	00000050 	andeq	r0, r0, r0, asr r0
	...
     6cc:	00003400 	andeq	r3, r0, r0, lsl #8
     6d0:	00003800 	andeq	r3, r0, r0, lsl #16
     6d4:	52000100 	andpl	r0, r0, #0
     6d8:	00000058 	andeq	r0, r0, r8, asr r0
     6dc:	00000068 	andeq	r0, r0, r8, rrx
     6e0:	00520001 	subseq	r0, r2, r1
     6e4:	00000000 	andeq	r0, r0, r0
     6e8:	01000000 	mrseq	r0, (UNDEF: 0)
     6ec:	00000101 	andeq	r0, r0, r1, lsl #2
     6f0:	00006800 	andeq	r6, r0, r0, lsl #16
     6f4:	00007c00 	andeq	r7, r0, r0, lsl #24
     6f8:	50000100 	andpl	r0, r0, r0, lsl #2
     6fc:	0000007c 	andeq	r0, r0, ip, ror r0
     700:	00000088 	andeq	r0, r0, r8, lsl #1
     704:	08700003 	ldmdaeq	r0!, {r0, r1}^
     708:	0000889f 	muleq	r0, pc, r8	; <UNPREDICTABLE>
     70c:	0000a000 	andeq	sl, r0, r0
     710:	50000100 	andpl	r0, r0, r0, lsl #2
	...
     71c:	00010101 	andeq	r0, r1, r1, lsl #2
     720:	00380000 	eorseq	r0, r8, r0
     724:	00400000 	subeq	r0, r0, r0
     728:	00010000 	andeq	r0, r1, r0
     72c:	00004050 	andeq	r4, r0, r0, asr r0
     730:	00004400 	andeq	r4, r0, r0, lsl #8
     734:	70000300 	andvc	r0, r0, r0, lsl #6
     738:	00449f04 	subeq	r9, r4, r4, lsl #30
     73c:	00580000 	subseq	r0, r8, r0
     740:	00010000 	andeq	r0, r1, r0
     744:	00000050 	andeq	r0, r0, r0, asr r0
     748:	00000000 	andeq	r0, r0, r0
     74c:	1c000000 	stcne	0, cr0, [r0], {-0}
     750:	2c000000 	stccs	0, cr0, [r0], {-0}
     754:	01000000 	mrseq	r0, (UNDEF: 0)
     758:	00005000 	andeq	r5, r0, r0
	...
     774:	013c0000 	teqeq	ip, r0
     778:	01500000 	cmpeq	r0, r0
     77c:	00010000 	andeq	r0, r1, r0
     780:	00015050 	andeq	r5, r1, r0, asr r0
     784:	00017800 	andeq	r7, r1, r0, lsl #16
     788:	54000100 	strpl	r0, [r0], #-256	; 0xffffff00
     78c:	00000178 	andeq	r0, r0, r8, ror r1
     790:	00000278 	andeq	r0, r0, r8, ror r2
     794:	78550001 	ldmdavc	r5, {r0}^
     798:	88000002 	stmdahi	r0, {r1}
     79c:	01000002 	tsteq	r0, r2
     7a0:	02885200 	addeq	r5, r8, #0, 4
     7a4:	02e80000 	rsceq	r0, r8, #0, 0
     7a8:	00010000 	andeq	r0, r1, r0
     7ac:	0002e855 	andeq	lr, r2, r5, asr r8
     7b0:	0002f400 	andeq	pc, r2, r0, lsl #8
     7b4:	52000100 	andpl	r0, r0, #0
     7b8:	000002f4 	strdeq	r0, [r0], -r4
     7bc:	000002ff 	strdeq	r0, [r0], -pc	; <UNPREDICTABLE>
     7c0:	007d0002 	rsbseq	r0, sp, r2
     7c4:	000002ff 	strdeq	r0, [r0], -pc	; <UNPREDICTABLE>
     7c8:	00000304 	andeq	r0, r0, r4, lsl #6
     7cc:	02740003 	rsbseq	r0, r4, #3, 0
     7d0:	0003049f 	muleq	r3, pc, r4	; <UNPREDICTABLE>
     7d4:	00040000 	andeq	r0, r4, r0
     7d8:	55000100 	strpl	r0, [r0, #-256]	; 0xffffff00
     7dc:	00000400 	andeq	r0, r0, r0, lsl #8
     7e0:	00000408 	andeq	r0, r0, r8, lsl #8
     7e4:	00540001 	subseq	r0, r4, r1
	...
     7f0:	80000000 	andhi	r0, r0, r0
     7f4:	90000003 	andls	r0, r0, r3
     7f8:	01000003 	tsteq	r0, r3
     7fc:	03a85400 			; <UNDEFINED> instruction: 0x03a85400
     800:	03ac0000 			; <UNDEFINED> instruction: 0x03ac0000
     804:	00010000 	andeq	r0, r1, r0
     808:	00000054 	andeq	r0, r0, r4, asr r0
     80c:	00000000 	andeq	r0, r0, r0
     810:	bc000000 	stclt	0, cr0, [r0], {-0}
     814:	e0000003 	and	r0, r0, r3
     818:	01000003 	tsteq	r0, r3
     81c:	00005400 	andeq	r5, r0, r0, lsl #8
     820:	00000000 	andeq	r0, r0, r0
     824:	00010000 	andeq	r0, r1, r0
     828:	02cc0000 	sbceq	r0, ip, #0, 0
     82c:	02d40000 	sbcseq	r0, r4, #0, 0
     830:	00010000 	andeq	r0, r1, r0
     834:	00032051 	andeq	r2, r3, r1, asr r0
     838:	00032700 	andeq	r2, r3, r0, lsl #14
     83c:	51000100 	mrspl	r0, (UNDEF: 16)
	...
     848:	00000002 	andeq	r0, r0, r2
     84c:	000002cc 	andeq	r0, r0, ip, asr #5
     850:	000002e4 	andeq	r0, r0, r4, ror #5
     854:	20540001 	subscs	r0, r4, r1
     858:	2c000003 	stccs	0, cr0, [r0], {3}
     85c:	01000003 	tsteq	r0, r3
     860:	00005400 	andeq	r5, r0, r0, lsl #8
	...
     87c:	0000002c 	andeq	r0, r0, ip, lsr #32
     880:	00000060 	andeq	r0, r0, r0, rrx
     884:	60500001 	subsvs	r0, r0, r1
     888:	63000000 	movwvs	r0, #0
     88c:	02000000 	andeq	r0, r0, #0, 0
     890:	63007d00 	movwvs	r7, #3328	; 0xd00
     894:	68000000 	stmdavs	r0, {}	; <UNPREDICTABLE>
     898:	04000000 	streq	r0, [r0], #-0
     89c:	5001f300 	andpl	pc, r1, r0, lsl #6
     8a0:	0000689f 	muleq	r0, pc, r8	; <UNPREDICTABLE>
     8a4:	00006c00 	andeq	r6, r0, r0, lsl #24
     8a8:	50000100 	andpl	r0, r0, r0, lsl #2
     8ac:	0000006c 	andeq	r0, r0, ip, rrx
     8b0:	00000090 	muleq	r0, r0, r0
     8b4:	01f30004 	mvnseq	r0, r4
     8b8:	00909f50 	addseq	r9, r0, r0, asr pc
     8bc:	00940000 	addseq	r0, r4, r0
     8c0:	00010000 	andeq	r0, r1, r0
     8c4:	00009450 	andeq	r9, r0, r0, asr r4
     8c8:	0000d000 	andeq	sp, r0, r0
     8cc:	f3000400 	vshl.u8	d0, d0, d0
     8d0:	d09f5001 	addsle	r5, pc, r1
     8d4:	d4000000 	strle	r0, [r0], #-0
     8d8:	01000000 	mrseq	r0, (UNDEF: 0)
     8dc:	00d45000 	sbcseq	r5, r4, r0
     8e0:	013c0000 	teqeq	ip, r0
     8e4:	00040000 	andeq	r0, r4, r0
     8e8:	9f5001f3 	svcls	0x005001f3
	...
     900:	0000002c 	andeq	r0, r0, ip, lsr #32
     904:	0000005c 	andeq	r0, r0, ip, asr r0
     908:	5c510001 	mrrcpl	0, 0, r0, r1, cr1
     90c:	68000000 	stmdavs	r0, {}	; <UNPREDICTABLE>
     910:	04000000 	streq	r0, [r0], #-0
     914:	5101f300 	mrspl	pc, SP_irq	; <UNPREDICTABLE>
     918:	0000689f 	muleq	r0, pc, r8	; <UNPREDICTABLE>
     91c:	00008800 	andeq	r8, r0, r0, lsl #16
     920:	51000100 	mrspl	r0, (UNDEF: 16)
     924:	00000090 	muleq	r0, r0, r0
     928:	000000c4 	andeq	r0, r0, r4, asr #1
     92c:	c4510001 	ldrbgt	r0, [r1], #-1
     930:	d0000000 	andle	r0, r0, r0
     934:	01000000 	mrseq	r0, (UNDEF: 0)
     938:	00d05000 	sbcseq	r5, r0, r0
     93c:	00f00000 	rscseq	r0, r0, r0
     940:	00010000 	andeq	r0, r1, r0
     944:	00000051 	andeq	r0, r0, r1, asr r0
     948:	00000000 	andeq	r0, r0, r0
     94c:	00000100 	andeq	r0, r0, r0, lsl #2
	...
     960:	00000101 	andeq	r0, r0, r1, lsl #2
     964:	00003400 	andeq	r3, r0, r0, lsl #8
     968:	00006c00 	andeq	r6, r0, r0, lsl #24
     96c:	91000300 	mrsls	r0, LR_irq
     970:	006c9f4c 	rsbeq	r9, ip, ip, asr #30
     974:	00800000 	addeq	r0, r0, r0
     978:	00010000 	andeq	r0, r1, r0
     97c:	00008054 	andeq	r8, r0, r4, asr r0
     980:	00009000 	andeq	r9, r0, r0
     984:	74000300 	strvc	r0, [r0], #-768	; 0xfffffd00
     988:	00909f7f 	addseq	r9, r0, pc, ror pc
     98c:	00940000 	addseq	r0, r4, r0
     990:	00030000 	andeq	r0, r3, r0
     994:	949f4c91 	ldrls	r4, [pc], #3217	; 99c <__code_start__-0x7664>
     998:	bc000000 	stclt	0, cr0, [r0], {-0}
     99c:	01000000 	mrseq	r0, (UNDEF: 0)
     9a0:	00bc5400 	adcseq	r5, ip, r0, lsl #8
     9a4:	00d00000 	sbcseq	r0, r0, r0
     9a8:	00030000 	andeq	r0, r3, r0
     9ac:	d09f7f74 	addsle	r7, pc, r4, ror pc	; <UNPREDICTABLE>
     9b0:	d4000000 	strle	r0, [r0], #-0
     9b4:	03000000 	movweq	r0, #0
     9b8:	9f4c9100 	svcls	0x004c9100
     9bc:	000000d4 	ldrdeq	r0, [r0], -r4
     9c0:	000000e8 	andeq	r0, r0, r8, ror #1
     9c4:	e8540001 	ldmda	r4, {r0}^
     9c8:	f8000000 			; <UNDEFINED> instruction: 0xf8000000
     9cc:	03000000 	movweq	r0, #0
     9d0:	9f7f7400 	svcls	0x007f7400
     9d4:	000000f8 	strdeq	r0, [r0], -r8
     9d8:	000000f8 	strdeq	r0, [r0], -r8
     9dc:	f8540001 			; <UNDEFINED> instruction: 0xf8540001
     9e0:	04000000 	streq	r0, [r0], #-0
     9e4:	03000001 	movweq	r0, #1
     9e8:	9f7f7400 	svcls	0x007f7400
     9ec:	00000104 	andeq	r0, r0, r4, lsl #2
     9f0:	0000011c 	andeq	r0, r0, ip, lsl r1
     9f4:	00540001 	subseq	r0, r4, r1
	...
     a00:	18000000 	stmdane	r0, {}	; <UNPREDICTABLE>
     a04:	28000000 	stmdacs	r0, {}	; <UNPREDICTABLE>
     a08:	01000000 	mrseq	r0, (UNDEF: 0)
     a0c:	00285000 	eoreq	r5, r8, r0
     a10:	00300000 	eorseq	r0, r0, r0
     a14:	00050000 	andeq	r0, r5, r0
     a18:	0094b803 	addseq	fp, r4, r3, lsl #16
	...
     a24:	20000000 	andcs	r0, r0, r0
     a28:	30000000 	andcc	r0, r0, r0
     a2c:	01000000 	mrseq	r0, (UNDEF: 0)
     a30:	00005200 	andeq	r5, r0, r0, lsl #4
	...
     a40:	000c0000 	andeq	r0, ip, r0
     a44:	00010000 	andeq	r0, r1, r0
     a48:	00000c50 	andeq	r0, r0, r0, asr ip
     a4c:	00001800 	andeq	r1, r0, r0, lsl #16
     a50:	54000100 	strpl	r0, [r0], #-256	; 0xffffff00
	...
     a5c:	00010100 	andeq	r0, r1, r0, lsl #2
     a60:	00140000 	andseq	r0, r4, r0
     a64:	001c0000 	andseq	r0, ip, r0
     a68:	00010000 	andeq	r0, r1, r0
     a6c:	00001c53 	andeq	r1, r0, r3, asr ip
     a70:	00002400 	andeq	r2, r0, r0, lsl #8
     a74:	73000300 	movwvc	r0, #768	; 0x300
     a78:	00249f01 	eoreq	r9, r4, r1, lsl #30
     a7c:	002b0000 	eoreq	r0, fp, r0
     a80:	00010000 	andeq	r0, r1, r0
     a84:	00000053 	andeq	r0, r0, r3, asr r0
	...
     a90:	00006c00 	andeq	r6, r0, r0, lsl #24
     a94:	00007800 	andeq	r7, r0, r0, lsl #16
     a98:	50000100 	andpl	r0, r0, r0, lsl #2
     a9c:	00000078 	andeq	r0, r0, r8, ror r0
     aa0:	00000084 	andeq	r0, r0, r4, lsl #1
     aa4:	01f30004 	mvnseq	r0, r4
     aa8:	00009f50 	andeq	r9, r0, r0, asr pc
	...
     ab4:	00540000 	subseq	r0, r4, r0
     ab8:	00600000 	rsbeq	r0, r0, r0
     abc:	00010000 	andeq	r0, r1, r0
     ac0:	00006050 	andeq	r6, r0, r0, asr r0
     ac4:	00006c00 	andeq	r6, r0, r0, lsl #24
     ac8:	f3000400 	vshl.u8	d0, d0, d0
     acc:	009f5001 	addseq	r5, pc, r1
	...
     ad8:	30000000 	andcc	r0, r0, r0
     adc:	3b000000 	blcc	ae4 <__code_start__-0x751c>
     ae0:	01000000 	mrseq	r0, (UNDEF: 0)
     ae4:	003b5000 	eorseq	r5, fp, r0
     ae8:	00540000 	subseq	r0, r4, r0
     aec:	00010000 	andeq	r0, r1, r0
     af0:	00000055 	andeq	r0, r0, r5, asr r0
     af4:	00000000 	andeq	r0, r0, r0
     af8:	40000000 	andmi	r0, r0, r0
     afc:	54000000 	strpl	r0, [r0], #-0
     b00:	01000000 	mrseq	r0, (UNDEF: 0)
     b04:	00005400 	andeq	r5, r0, r0, lsl #8
	...
     b10:	00000044 	andeq	r0, r0, r4, asr #32
     b14:	00000048 	andeq	r0, r0, r8, asr #32
     b18:	00500001 	subseq	r0, r0, r1
	...
     b24:	24000000 	strcs	r0, [r0], #-0
     b28:	27000000 	strcs	r0, [r0, -r0]
     b2c:	01000000 	mrseq	r0, (UNDEF: 0)
     b30:	00275000 	eoreq	r5, r7, r0
     b34:	00300000 	eorseq	r0, r0, r0
     b38:	00010000 	andeq	r0, r1, r0
     b3c:	00000054 	andeq	r0, r0, r4, asr r0
     b40:	00000000 	andeq	r0, r0, r0
     b44:	54000000 	strpl	r0, [r0], #-0
     b48:	5800008e 	stmdapl	r0, {r1, r2, r3, r7}
     b4c:	0100008e 	smlabbeq	r0, lr, r0, r0
     b50:	00005000 	andeq	r5, r0, r0
     b54:	00000000 	andeq	r0, r0, r0
     b58:	00010000 	andeq	r0, r1, r0
     b5c:	00000000 	andeq	r0, r0, r0
     b60:	00008e54 	andeq	r8, r0, r4, asr lr
     b64:	00008e58 	andeq	r8, r0, r8, asr lr
     b68:	00700006 	rsbseq	r0, r0, r6
     b6c:	9f1a6008 	svcls	0x001a6008
     b70:	00008e5c 	andeq	r8, r0, ip, asr lr
     b74:	00008e67 	andeq	r8, r0, r7, ror #28
     b78:	70500001 	subsvc	r0, r0, r1
     b7c:	7300008e 	movwvc	r0, #142	; 0x8e
     b80:	0100008e 	smlabbeq	r0, lr, r0, r0
     b84:	00005000 	andeq	r5, r0, r0
	...
     b90:	00008de8 	andeq	r8, r0, r8, ror #27
     b94:	00008dec 	andeq	r8, r0, ip, ror #27
     b98:	00500001 	subseq	r0, r0, r1
     b9c:	00000000 	andeq	r0, r0, r0
     ba0:	01000000 	mrseq	r0, (UNDEF: 0)
     ba4:	e8000000 	stmda	r0, {}	; <UNPREDICTABLE>
     ba8:	ec00008d 	stc	0, cr0, [r0], {141}	; 0x8d
     bac:	0500008d 	streq	r0, [r0, #-141]	; 0xffffff73
     bb0:	31007000 	mrscc	r7, (UNDEF: 0)
     bb4:	8dec9f1a 	stclhi	15, cr9, [ip, #104]!	; 0x68
     bb8:	8df40000 	ldclhi	0, cr0, [r4]
     bbc:	00010000 	andeq	r0, r1, r0
     bc0:	00000050 	andeq	r0, r0, r0, asr r0
	...
     bcc:	008da800 	addeq	sl, sp, r0, lsl #16
     bd0:	008db300 	addeq	fp, sp, r0, lsl #6
     bd4:	50000100 	andpl	r0, r0, r0, lsl #2
     bd8:	00008db3 			; <UNDEFINED> instruction: 0x00008db3
     bdc:	00008ddc 	ldrdeq	r8, [r0], -ip
     be0:	01f30004 	mvnseq	r0, r4
     be4:	00009f50 	andeq	r9, r0, r0, asr pc
	...
     bf0:	8d8c0000 	stchi	0, cr0, [ip]
     bf4:	8d980000 	ldchi	0, cr0, [r8]
     bf8:	00010000 	andeq	r0, r1, r0
     bfc:	008d9c50 	addeq	r9, sp, r0, asr ip
     c00:	008da000 	addeq	sl, sp, r0
     c04:	50000100 	andpl	r0, r0, r0, lsl #2
	...
     c10:	00000001 	andeq	r0, r0, r1
     c14:	00008d8c 	andeq	r8, r0, ip, lsl #27
     c18:	00008d98 	muleq	r0, r8, sp
     c1c:	00700006 	rsbseq	r0, r0, r6
     c20:	9f1a2008 	svcls	0x001a2008
     c24:	00008d9c 	muleq	r0, ip, sp
     c28:	00008da0 	andeq	r8, r0, r0, lsr #27
     c2c:	00700006 	rsbseq	r0, r0, r6
     c30:	9f1a2008 	svcls	0x001a2008
	...
     c40:	00008e14 	andeq	r8, r0, r4, lsl lr
     c44:	00008e17 	andeq	r8, r0, r7, lsl lr
     c48:	17500001 	ldrbne	r0, [r0, -r1]
     c4c:	2400008e 	strcs	r0, [r0], #-142	; 0xffffff72
     c50:	0100008e 	smlabbeq	r0, lr, r0, r0
     c54:	00005400 	andeq	r5, r0, r0, lsl #8
     c58:	00000000 	andeq	r0, r0, r0
     c5c:	01000000 	mrseq	r0, (UNDEF: 0)
     c60:	00000001 	andeq	r0, r0, r1
     c64:	00008ec0 	andeq	r8, r0, r0, asr #29
     c68:	00008ec0 	andeq	r8, r0, r0, asr #29
     c6c:	c0500001 	subsgt	r0, r0, r1
     c70:	c400008e 	strgt	r0, [r0], #-142	; 0xffffff72
     c74:	0600008e 	streq	r0, [r0], -lr, lsl #1
     c78:	09007000 	stmdbeq	r0, {ip, sp, lr}
     c7c:	c49f1afe 	ldrgt	r1, [pc], #2814	; c84 <__code_start__-0x737c>
     c80:	cb00008e 	blgt	ec0 <__code_start__-0x7140>
     c84:	0100008e 	smlabbeq	r0, lr, r0, r0
     c88:	00005100 	andeq	r5, r0, r0, lsl #2
     c8c:	00000000 	andeq	r0, r0, r0
     c90:	01000000 	mrseq	r0, (UNDEF: 0)
     c94:	00020201 	andeq	r0, r2, r1, lsl #4
     c98:	8cf40000 	ldclhi	0, cr0, [r4]
     c9c:	8cf40000 	ldclhi	0, cr0, [r4]
     ca0:	00010000 	andeq	r0, r1, r0
     ca4:	008cf450 	addeq	pc, ip, r0, asr r4	; <UNPREDICTABLE>
     ca8:	008cf400 	addeq	pc, ip, r0, lsl #8
     cac:	70000600 	andvc	r0, r0, r0, lsl #12
     cb0:	1afe0900 	bne	fff830b8 <__bss_end__+0xfff79bf0>
     cb4:	008cf49f 	umulleq	pc, ip, pc, r4	; <UNPREDICTABLE>
     cb8:	008cf800 	addeq	pc, ip, r0, lsl #16
     cbc:	70000500 	andvc	r0, r0, r0, lsl #10
     cc0:	9f213100 	svcls	0x00213100
     cc4:	00008cf8 	strdeq	r8, [r0], -r8	; <UNPREDICTABLE>
     cc8:	00008cff 	strdeq	r8, [r0], -pc	; <UNPREDICTABLE>
     ccc:	00510001 	subseq	r0, r1, r1
	...
     cd8:	7c000000 	stcvc	0, cr0, [r0], {-0}
     cdc:	87000001 	strhi	r0, [r0, -r1]
     ce0:	01000001 	tsteq	r0, r1
     ce4:	01875000 	orreq	r5, r7, r0
     ce8:	018c0000 	orreq	r0, ip, r0
     cec:	00040000 	andeq	r0, r4, r0
     cf0:	9f5001f3 	svcls	0x005001f3
	...
     d00:	0000016c 	andeq	r0, r0, ip, ror #2
     d04:	00000177 	andeq	r0, r0, r7, ror r1
     d08:	77500001 	ldrbvc	r0, [r0, -r1]
     d0c:	7c000001 	stcvc	0, cr0, [r0], {1}
     d10:	04000001 	streq	r0, [r0], #-1
     d14:	5001f300 	andpl	pc, r1, r0, lsl #6
     d18:	0000009f 	muleq	r0, pc, r0	; <UNPREDICTABLE>
	...
     d2c:	ec000000 	stc	0, cr0, [r0], {-0}
     d30:	24000000 	strcs	r0, [r0], #-0
     d34:	01000001 	tsteq	r0, r1
     d38:	01245000 			; <UNDEFINED> instruction: 0x01245000
     d3c:	01300000 	teqeq	r0, r0
     d40:	00010000 	andeq	r0, r1, r0
     d44:	00013054 	andeq	r3, r1, r4, asr r0
     d48:	00014c00 	andeq	r4, r1, r0, lsl #24
     d4c:	f3000400 	vshl.u8	d0, d0, d0
     d50:	4c9f5001 	ldcmi	0, cr5, [pc], {1}
     d54:	54000001 	strpl	r0, [r0], #-1
     d58:	01000001 	tsteq	r0, r1
     d5c:	01545000 	cmpeq	r4, r0
     d60:	01580000 	cmpeq	r8, r0
     d64:	00010000 	andeq	r0, r1, r0
     d68:	00015854 	andeq	r5, r1, r4, asr r8
     d6c:	00015c00 	andeq	r5, r1, r0, lsl #24
     d70:	50000100 	andpl	r0, r0, r0, lsl #2
     d74:	0000015c 	andeq	r0, r0, ip, asr r1
     d78:	0000016c 	andeq	r0, r0, ip, ror #2
     d7c:	00540001 	subseq	r0, r4, r1
	...
     d90:	ec000000 	stc	0, cr0, [r0], {-0}
     d94:	27000000 	strcs	r0, [r0, -r0]
     d98:	01000001 	tsteq	r0, r1
     d9c:	01275100 			; <UNDEFINED> instruction: 0x01275100
     da0:	014c0000 	mrseq	r0, (UNDEF: 76)
     da4:	00040000 	andeq	r0, r4, r0
     da8:	9f5101f3 	svcls	0x005101f3
     dac:	0000014c 	andeq	r0, r0, ip, asr #2
     db0:	00000150 	andeq	r0, r0, r0, asr r1
     db4:	50510001 	subspl	r0, r1, r1
     db8:	58000001 	stmdapl	r0, {r0}
     dbc:	04000001 	streq	r0, [r0], #-1
     dc0:	5101f300 	mrspl	pc, SP_irq	; <UNPREDICTABLE>
     dc4:	0001589f 	muleq	r1, pc, r8	; <UNPREDICTABLE>
     dc8:	00015f00 	andeq	r5, r1, r0, lsl #30
     dcc:	51000100 	mrspl	r0, (UNDEF: 16)
     dd0:	0000015f 	andeq	r0, r0, pc, asr r1
     dd4:	0000016c 	andeq	r0, r0, ip, ror #2
     dd8:	01f30004 	mvnseq	r0, r4
     ddc:	00009f51 	andeq	r9, r0, r1, asr pc
	...
     dec:	00000114 	andeq	r0, r0, r4, lsl r1
     df0:	0000012c 	andeq	r0, r0, ip, lsr #2
     df4:	2c550001 	mrrccs	0, 0, r0, r5, cr1
     df8:	30000001 	andcc	r0, r0, r1
     dfc:	1e000001 	cdpne	0, 0, cr0, cr0, cr1, {0}
     e00:	f7007400 			; <UNDEFINED> instruction: 0xf7007400
     e04:	f425f72c 	vld1.8	{d15}, [r5 :128], ip
     e08:	cccd0825 	stclgt	8, cr0, [sp], {37}	; 0x25
     e0c:	0000cccc 	andeq	ip, r0, ip, asr #25
     e10:	081e0000 	ldmdaeq	lr, {}	; <UNPREDICTABLE>
     e14:	2525f720 	strcs	pc, [r5, #-1824]!	; 0xfffff8e0
     e18:	00f72cf7 	ldrshteq	r2, [r7], #199	; 0xc7
     e1c:	309f2533 	addscc	r2, pc, r3, lsr r5	; <UNPREDICTABLE>
     e20:	4c000001 	stcmi	0, cr0, [r0], {1}
     e24:	1f000001 	svcne	0x00000001
     e28:	5001f300 	andpl	pc, r1, r0, lsl #6
     e2c:	25f72cf7 	ldrbcs	r2, [r7, #3319]!	; 0xcf7
     e30:	cd0825f4 	cfstr32gt	mvfx2, [r8, #-976]	; 0xfffffc30
     e34:	00cccccc 	sbceq	ip, ip, ip, asr #25
     e38:	1e000000 	cdpne	0, 0, cr0, cr0, cr0, {0}
     e3c:	25f72008 	ldrbcs	r2, [r7, #8]!
     e40:	f72cf725 			; <UNDEFINED> instruction: 0xf72cf725
     e44:	9f253300 	svcls	0x00253300
	...
     e50:	01200000 			; <UNDEFINED> instruction: 0x01200000
     e54:	014c0000 	mrseq	r0, (UNDEF: 76)
     e58:	00010000 	andeq	r0, r1, r0
     e5c:	00000057 	andeq	r0, r0, r7, asr r0
	...
     e68:	00000101 	andeq	r0, r0, r1, lsl #2
     e6c:	00012800 	andeq	r2, r1, r0, lsl #16
     e70:	00013c00 	andeq	r3, r1, r0, lsl #24
     e74:	50000100 	andpl	r0, r0, r0, lsl #2
     e78:	0000013c 	andeq	r0, r0, ip, lsr r1
     e7c:	0000013c 	andeq	r0, r0, ip, lsr r1
     e80:	3c510001 	mrrccc	0, 0, r0, r1, cr1
     e84:	40000001 	andmi	r0, r0, r1
     e88:	09000001 	stmdbeq	r0, {r0}
     e8c:	74007600 	strvc	r7, [r0], #-1536	; 0xfffffa00
     e90:	00712400 	rsbseq	r2, r1, r0, lsl #8
     e94:	01409f21 	cmpeq	r0, r1, lsr #30
     e98:	01470000 	mrseq	r0, (UNDEF: 71)
     e9c:	00010000 	andeq	r0, r1, r0
     ea0:	00000051 	andeq	r0, r0, r1, asr r0
     ea4:	00000000 	andeq	r0, r0, r0
     ea8:	34000000 	strcc	r0, [r0], #-0
     eac:	4c000001 	stcmi	0, cr0, [r0], {1}
     eb0:	01000001 	tsteq	r0, r1
     eb4:	00005400 	andeq	r5, r0, r0, lsl #8
	...
     ec4:	00a40000 	adceq	r0, r4, r0
     ec8:	00b80000 	adcseq	r0, r8, r0
     ecc:	00010000 	andeq	r0, r1, r0
     ed0:	0000b850 	andeq	fp, r0, r0, asr r8
     ed4:	0000d800 	andeq	sp, r0, r0, lsl #16
     ed8:	54000100 	strpl	r0, [r0], #-256	; 0xffffff00
     edc:	000000d8 	ldrdeq	r0, [r0], -r8
     ee0:	000000e0 	andeq	r0, r0, r0, ror #1
     ee4:	e0500001 	subs	r0, r0, r1
     ee8:	ec000000 	stc	0, cr0, [r0], {-0}
     eec:	01000000 	mrseq	r0, (UNDEF: 0)
     ef0:	00005400 	andeq	r5, r0, r0, lsl #8
     ef4:	00000000 	andeq	r0, r0, r0
     ef8:	01010000 	mrseq	r0, (UNDEF: 1)
     efc:	00000001 	andeq	r0, r0, r1
     f00:	00ac0000 	adceq	r0, ip, r0
     f04:	00d00000 	sbcseq	r0, r0, r0
     f08:	00020000 	andeq	r0, r2, r0
     f0c:	00d09f30 	sbcseq	r9, r0, r0, lsr pc
     f10:	00d40000 	sbcseq	r0, r4, r0
     f14:	00060000 	andeq	r0, r6, r0
     f18:	00730070 	rsbseq	r0, r3, r0, ror r0
     f1c:	00d49f25 	sbcseq	r9, r4, r5, lsr #30
     f20:	00d80000 	sbcseq	r0, r8, r0
     f24:	00010000 	andeq	r0, r1, r0
     f28:	0000d850 	andeq	sp, r0, r0, asr r8
     f2c:	0000ec00 	andeq	lr, r0, r0, lsl #24
     f30:	30000200 	andcc	r0, r0, r0, lsl #4
     f34:	0000009f 	muleq	r0, pc, r0	; <UNPREDICTABLE>
	...
     f40:	bc000000 	stclt	0, cr0, [r0], {-0}
     f44:	c0000000 	andgt	r0, r0, r0
     f48:	05000000 	streq	r0, [r0, #-0]
     f4c:	32007000 	andcc	r7, r0, #0, 0
     f50:	00c09f24 	sbceq	r9, r0, r4, lsr #30
     f54:	00c30000 	sbceq	r0, r3, r0
     f58:	00010000 	andeq	r0, r1, r0
     f5c:	0000c350 	andeq	ip, r0, r0, asr r3
     f60:	0000d800 	andeq	sp, r0, r0, lsl #16
     f64:	74000c00 	strvc	r0, [r0], #-3072	; 0xfffff400
     f68:	23253500 			; <UNDEFINED> instruction: 0x23253500
     f6c:	40a0808d 	adcmi	r8, r0, sp, lsl #1
     f70:	009f2432 	addseq	r2, pc, r2, lsr r4	; <UNPREDICTABLE>
	...
     f7c:	0000c400 	andeq	ip, r0, r0, lsl #8
     f80:	0000d400 	andeq	sp, r0, r0, lsl #8
     f84:	50000100 	andpl	r0, r0, r0, lsl #2
	...
     f90:	00c80000 	sbceq	r0, r8, r0
     f94:	00d80000 	sbcseq	r0, r8, r0
     f98:	00010000 	andeq	r0, r1, r0
     f9c:	00000053 	andeq	r0, r0, r3, asr r0
     fa0:	00000000 	andeq	r0, r0, r0
     fa4:	c8000100 	stmdagt	r0, {r8}
     fa8:	d8000000 	stmdale	r0, {}	; <UNPREDICTABLE>
     fac:	05000000 	streq	r0, [r0, #-0]
     fb0:	00743100 	rsbseq	r3, r4, r0, lsl #2
     fb4:	00009f24 	andeq	r9, r0, r4, lsr #30
	...
     fc4:	00880000 	addeq	r0, r8, r0
     fc8:	00970000 	addseq	r0, r7, r0
     fcc:	00010000 	andeq	r0, r1, r0
     fd0:	00009750 	andeq	r9, r0, r0, asr r7
     fd4:	00009c00 	andeq	r9, r0, r0, lsl #24
     fd8:	f3000400 	vshl.u8	d0, d0, d0
     fdc:	9c9f5001 	ldcls	0, cr5, [pc], {1}
     fe0:	9f000000 	svcls	0x00000000
     fe4:	01000000 	mrseq	r0, (UNDEF: 0)
     fe8:	009f5000 	addseq	r5, pc, r0
     fec:	00a40000 	adceq	r0, r4, r0
     ff0:	00040000 	andeq	r0, r4, r0
     ff4:	9f5001f3 	svcls	0x005001f3
	...
    1008:	00000088 	andeq	r0, r0, r8, lsl #1
    100c:	00000097 	muleq	r0, r7, r0
    1010:	97510001 	ldrbls	r0, [r1, -r1]
    1014:	9c000000 	stcls	0, cr0, [r0], {-0}
    1018:	04000000 	streq	r0, [r0], #-0
    101c:	5101f300 	mrspl	pc, SP_irq	; <UNPREDICTABLE>
    1020:	00009c9f 	muleq	r0, pc, ip	; <UNPREDICTABLE>
    1024:	00009f00 	andeq	r9, r0, r0, lsl #30
    1028:	51000100 	mrspl	r0, (UNDEF: 16)
    102c:	0000009f 	muleq	r0, pc, r0	; <UNPREDICTABLE>
    1030:	000000a4 	andeq	r0, r0, r4, lsr #1
    1034:	01f30004 	mvnseq	r0, r4
    1038:	00009f51 	andeq	r9, r0, r1, asr pc
	...
    104c:	00000048 	andeq	r0, r0, r8, asr #32
    1050:	0000006c 	andeq	r0, r0, ip, rrx
    1054:	6c500001 	mrrcvs	0, 0, r0, r0, cr1	; <UNPREDICTABLE>
    1058:	74000000 	strvc	r0, [r0], #-0
    105c:	04000000 	streq	r0, [r0], #-0
    1060:	5001f300 	andpl	pc, r1, r0, lsl #6
    1064:	0000749f 	muleq	r0, pc, r4	; <UNPREDICTABLE>
    1068:	00007c00 	andeq	r7, r0, r0, lsl #24
    106c:	50000100 	andpl	r0, r0, r0, lsl #2
    1070:	0000007c 	andeq	r0, r0, ip, ror r0
    1074:	0000007f 	andeq	r0, r0, pc, ror r0
    1078:	7f510001 	svcvc	0x00510001
    107c:	88000000 	stmdahi	r0, {}	; <UNPREDICTABLE>
    1080:	04000000 	streq	r0, [r0], #-0
    1084:	5001f300 	andpl	pc, r1, r0, lsl #6
    1088:	0000009f 	muleq	r0, pc, r0	; <UNPREDICTABLE>
	...
    1094:	5c000000 	stcpl	0, cr0, [r0], {-0}
    1098:	6c000000 	stcvs	0, cr0, [r0], {-0}
    109c:	05000000 	streq	r0, [r0, #-0]
    10a0:	32007300 	andcc	r7, r0, #0, 6
    10a4:	006c9f24 	rsbeq	r9, ip, r4, lsr #30
    10a8:	006f0000 	rsbeq	r0, pc, r0
    10ac:	00010000 	andeq	r0, r1, r0
    10b0:	00006f50 	andeq	r6, r0, r0, asr pc
    10b4:	00007400 	andeq	r7, r0, r0, lsl #8
    10b8:	f3000d00 	vpadd.f32	d0, d0, d0
    10bc:	25355001 	ldrcs	r5, [r5, #-1]!
    10c0:	a0808a23 	addge	r8, r0, r3, lsr #20
    10c4:	9f243240 	svcls	0x00243240
	...
    10d4:	00600000 	rsbeq	r0, r0, r0
    10d8:	00680000 	rsbeq	r0, r8, r0
    10dc:	00010000 	andeq	r0, r1, r0
    10e0:	00006851 	andeq	r6, r0, r1, asr r8
    10e4:	00006c00 	andeq	r6, r0, r0, lsl #24
    10e8:	70000500 	andvc	r0, r0, r0, lsl #10
    10ec:	9f1a4f00 	svcls	0x001a4f00
    10f0:	0000006c 	andeq	r0, r0, ip, rrx
    10f4:	00000074 	andeq	r0, r0, r4, ror r0
    10f8:	01f30006 	mvnseq	r0, r6
    10fc:	9f1a4f50 	svcls	0x001a4f50
	...
    1108:	00000001 	andeq	r0, r0, r1
    110c:	00600000 	rsbeq	r0, r0, r0
    1110:	00680000 	rsbeq	r0, r8, r0
    1114:	00050000 	andeq	r0, r5, r0
    1118:	24007131 	strcs	r7, [r0], #-305	; 0xfffffecf
    111c:	0000689f 	muleq	r0, pc, r8	; <UNPREDICTABLE>
    1120:	00006f00 	andeq	r6, r0, r0, lsl #30
    1124:	51000100 	mrspl	r0, (UNDEF: 16)
    1128:	0000006f 	andeq	r0, r0, pc, rrx
    112c:	00000074 	andeq	r0, r0, r4, ror r0
    1130:	f3310008 	vhadd.u<illegal width 64>	d0, d1, d8
    1134:	1a4f5001 	bne	13d5140 <__bss_end__+0x13cbc78>
    1138:	00009f24 	andeq	r9, r0, r4, lsr #30
	...
    114c:	00000008 	andeq	r0, r0, r8
    1150:	0000002c 	andeq	r0, r0, ip, lsr #32
    1154:	2c500001 	mrrccs	0, 0, r0, r0, cr1	; <UNPREDICTABLE>
    1158:	34000000 	strcc	r0, [r0], #-0
    115c:	04000000 	streq	r0, [r0], #-0
    1160:	5001f300 	andpl	pc, r1, r0, lsl #6
    1164:	0000349f 	muleq	r0, pc, r4	; <UNPREDICTABLE>
    1168:	00003c00 	andeq	r3, r0, r0, lsl #24
    116c:	50000100 	andpl	r0, r0, r0, lsl #2
    1170:	0000003c 	andeq	r0, r0, ip, lsr r0
    1174:	0000003f 	andeq	r0, r0, pc, lsr r0
    1178:	3f510001 	svccc	0x00510001
    117c:	48000000 	stmdami	r0, {}	; <UNPREDICTABLE>
    1180:	04000000 	streq	r0, [r0], #-0
    1184:	5001f300 	andpl	pc, r1, r0, lsl #6
    1188:	0000009f 	muleq	r0, pc, r0	; <UNPREDICTABLE>
	...
    1194:	1c000000 	stcne	0, cr0, [r0], {-0}
    1198:	2c000000 	stccs	0, cr0, [r0], {-0}
    119c:	05000000 	streq	r0, [r0, #-0]
    11a0:	32007300 	andcc	r7, r0, #0, 6
    11a4:	002c9f24 	eoreq	r9, ip, r4, lsr #30
    11a8:	002f0000 	eoreq	r0, pc, r0
    11ac:	00010000 	andeq	r0, r1, r0
    11b0:	00002f50 	andeq	r2, r0, r0, asr pc
    11b4:	00003400 	andeq	r3, r0, r0, lsl #8
    11b8:	f3000d00 	vpadd.f32	d0, d0, d0
    11bc:	25355001 	ldrcs	r5, [r5, #-1]!
    11c0:	a0808723 	addge	r8, r0, r3, lsr #14
    11c4:	9f243240 	svcls	0x00243240
	...
    11d4:	00200000 	eoreq	r0, r0, r0
    11d8:	00280000 	eoreq	r0, r8, r0
    11dc:	00010000 	andeq	r0, r1, r0
    11e0:	00002851 	andeq	r2, r0, r1, asr r8
    11e4:	00002c00 	andeq	r2, r0, r0, lsl #24
    11e8:	70000500 	andvc	r0, r0, r0, lsl #10
    11ec:	9f1a4f00 	svcls	0x001a4f00
    11f0:	0000002c 	andeq	r0, r0, ip, lsr #32
    11f4:	00000034 	andeq	r0, r0, r4, lsr r0
    11f8:	01f30006 	mvnseq	r0, r6
    11fc:	9f1a4f50 	svcls	0x001a4f50
	...
    1208:	00000001 	andeq	r0, r0, r1
    120c:	00200000 	eoreq	r0, r0, r0
    1210:	00280000 	eoreq	r0, r8, r0
    1214:	00050000 	andeq	r0, r5, r0
    1218:	24007131 	strcs	r7, [r0], #-305	; 0xfffffecf
    121c:	0000289f 	muleq	r0, pc, r8	; <UNPREDICTABLE>
    1220:	00002f00 	andeq	r2, r0, r0, lsl #30
    1224:	51000100 	mrspl	r0, (UNDEF: 16)
    1228:	0000002f 	andeq	r0, r0, pc, lsr #32
    122c:	00000034 	andeq	r0, r0, r4, lsr r0
    1230:	f3310008 	vhadd.u<illegal width 64>	d0, d1, d8
    1234:	1a4f5001 	bne	13d5240 <__bss_end__+0x13cbd78>
    1238:	00009f24 	andeq	r9, r0, r4, lsr #30
    123c:	00000000 	andeq	r0, r0, r0
    1240:	00010000 	andeq	r0, r1, r0
    1244:	00000000 	andeq	r0, r0, r0
    1248:	00000008 	andeq	r0, r0, r8
    124c:	70910002 	addsvc	r0, r1, r2
	...
    1258:	00010100 	andeq	r0, r1, r0, lsl #2
    125c:	00000000 	andeq	r0, r0, r0
    1260:	00000008 	andeq	r0, r0, r8
    1264:	08500001 	ldmdaeq	r0, {r0}^
    1268:	34000000 	strcc	r0, [r0], #-0
    126c:	01000000 	mrseq	r0, (UNDEF: 0)
    1270:	00005400 	andeq	r5, r0, r0, lsl #8
    1274:	00000000 	andeq	r0, r0, r0
	...

Disassembly of section .debug_aranges:

00000000 <.debug_aranges>:
   0:	0000001c 	andeq	r0, r0, ip, lsl r0
   4:	00000002 	andeq	r0, r0, r2
   8:	00040000 	andeq	r0, r4, r0
   c:	00000000 	andeq	r0, r0, r0
  10:	000082e8 	andeq	r8, r0, r8, ror #5
  14:	000003cc 	andeq	r0, r0, ip, asr #7
	...
  20:	0000001c 	andeq	r0, r0, ip, lsl r0
  24:	08ad0002 	stmiaeq	sp!, {r1}
  28:	00040000 	andeq	r0, r4, r0
  2c:	00000000 	andeq	r0, r0, r0
  30:	000086b4 			; <UNDEFINED> instruction: 0x000086b4
  34:	000000a0 	andeq	r0, r0, r0, lsr #1
	...
  40:	0000001c 	andeq	r0, r0, ip, lsl r0
  44:	12c10002 	sbcne	r0, r1, #2, 0
  48:	00040000 	andeq	r0, r4, r0
  4c:	00000000 	andeq	r0, r0, r0
  50:	00008754 	andeq	r8, r0, r4, asr r7
  54:	0000041c 	andeq	r0, r0, ip, lsl r4
	...
  60:	0000001c 	andeq	r0, r0, ip, lsl r0
  64:	1fdb0002 	svcne	0x00db0002
  68:	00040000 	andeq	r0, r4, r0
  6c:	00000000 	andeq	r0, r0, r0
  70:	00008b70 	andeq	r8, r0, r0, ror fp
  74:	00000030 	andeq	r0, r0, r0, lsr r0
	...
  80:	0000001c 	andeq	r0, r0, ip, lsl r0
  84:	29b00002 	ldmibcs	r0!, {r1}
  88:	00040000 	andeq	r0, r4, r0
  8c:	00000000 	andeq	r0, r0, r0
  90:	00008ba0 	andeq	r8, r0, r0, lsr #23
  94:	00000020 	andeq	r0, r0, r0, lsr #32
	...
  a0:	0000001c 	andeq	r0, r0, ip, lsl r0
  a4:	336e0002 	cmncc	lr, #2, 0
  a8:	00040000 	andeq	r0, r4, r0
  ac:	00000000 	andeq	r0, r0, r0
  b0:	00008bc0 	andeq	r8, r0, r0, asr #23
  b4:	00000044 	andeq	r0, r0, r4, asr #32
	...
  c0:	0000001c 	andeq	r0, r0, ip, lsl r0
  c4:	3dff0002 	ldclcc	0, cr0, [pc, #8]!	; d4 <__code_start__-0x7f2c>
  c8:	00040000 	andeq	r0, r4, r0
  cc:	00000000 	andeq	r0, r0, r0
  d0:	00008c04 	andeq	r8, r0, r4, lsl #24
  d4:	0000003c 	andeq	r0, r0, ip, lsr r0
	...
  e0:	0000001c 	andeq	r0, r0, ip, lsl r0
  e4:	480f0002 	stmdami	pc, {r1}	; <UNPREDICTABLE>
  e8:	00040000 	andeq	r0, r4, r0
  ec:	00000000 	andeq	r0, r0, r0
  f0:	00008c40 	andeq	r8, r0, r0, asr #24
  f4:	00000084 	andeq	r0, r0, r4, lsl #1
	...
 100:	0000001c 	andeq	r0, r0, ip, lsl r0
 104:	52e50002 	rscpl	r0, r5, #2, 0
 108:	00040000 	andeq	r0, r4, r0
 10c:	00000000 	andeq	r0, r0, r0
 110:	00008cc4 	andeq	r8, r0, r4, asr #25
 114:	00000218 	andeq	r0, r0, r8, lsl r2
	...
 120:	0000001c 	andeq	r0, r0, ip, lsl r0
 124:	614b0002 	cmpvs	fp, r2
 128:	00040000 	andeq	r0, r4, r0
 12c:	00000000 	andeq	r0, r0, r0
 130:	00008edc 	ldrdeq	r8, [r0], -ip
 134:	0000018c 	andeq	r0, r0, ip, lsl #3
	...
 140:	0000001c 	andeq	r0, r0, ip, lsl r0
 144:	6f2d0002 	svcvs	0x002d0002
 148:	00040000 	andeq	r0, r4, r0
 14c:	00000000 	andeq	r0, r0, r0
 150:	00009068 	andeq	r9, r0, r8, rrx
 154:	00000034 	andeq	r0, r0, r4, lsr r0
	...
 160:	0000001c 	andeq	r0, r0, ip, lsl r0
 164:	78910002 	ldmvc	r1, {r1}
 168:	00040000 	andeq	r0, r4, r0
 16c:	00000000 	andeq	r0, r0, r0
 170:	000090b4 	strheq	r9, [r0], -r4
 174:	00000004 	andeq	r0, r0, r4
	...

Disassembly of section .debug_ranges:

00000000 <.debug_ranges>:
   0:	00000168 	andeq	r0, r0, r8, ror #2
   4:	00000168 	andeq	r0, r0, r8, ror #2
   8:	00000168 	andeq	r0, r0, r8, ror #2
   c:	00000170 	andeq	r0, r0, r0, ror r1
	...
  18:	000002d4 	ldrdeq	r0, [r0], -r4
  1c:	000002ec 	andeq	r0, r0, ip, ror #5
  20:	0000034c 	andeq	r0, r0, ip, asr #6
  24:	0000036c 	andeq	r0, r0, ip, ror #6
	...
  30:	00000068 	andeq	r0, r0, r8, rrx
  34:	00000078 	andeq	r0, r0, r8, ror r0
  38:	0000007c 	andeq	r0, r0, ip, ror r0
  3c:	00000098 	muleq	r0, r8, r0
	...
  48:	0000015c 	andeq	r0, r0, ip, asr r1
  4c:	0000015c 	andeq	r0, r0, ip, asr r1
  50:	00000174 	andeq	r0, r0, r4, ror r1
  54:	00000400 	andeq	r0, r0, r0, lsl #8
	...
  60:	0000015c 	andeq	r0, r0, ip, asr r1
  64:	0000015c 	andeq	r0, r0, ip, asr r1
  68:	00000210 	andeq	r0, r0, r0, lsl r2
  6c:	00000228 	andeq	r0, r0, r8, lsr #4
  70:	0000022c 	andeq	r0, r0, ip, lsr #4
  74:	00000248 	andeq	r0, r0, r8, asr #4
  78:	0000024c 	andeq	r0, r0, ip, asr #4
  7c:	0000026c 	andeq	r0, r0, ip, ror #4
  80:	00000270 	andeq	r0, r0, r0, ror r2
  84:	00000360 	andeq	r0, r0, r0, ror #6
  88:	00000364 	andeq	r0, r0, r4, ror #6
  8c:	0000038c 	andeq	r0, r0, ip, lsl #7
  90:	00000390 	muleq	r0, r0, r3
  94:	000003dc 	ldrdeq	r0, [r0], -ip
  98:	000003e4 	andeq	r0, r0, r4, ror #7
  9c:	00000400 	andeq	r0, r0, r0, lsl #8
	...
  a8:	00008cc4 	andeq	r8, r0, r4, asr #25
  ac:	00008edc 	ldrdeq	r8, [r0], -ip
	...

Disassembly of section .debug_line:

00000000 <.debug_line>:
       0:	00000376 	andeq	r0, r0, r6, ror r3
       4:	00b40003 	adcseq	r0, r4, r3
       8:	01020000 	mrseq	r0, (UNDEF: 2)
       c:	000d0efb 	strdeq	r0, [sp], -fp
      10:	01010101 	tsteq	r1, r1, lsl #2
      14:	01000000 	mrseq	r0, (UNDEF: 0)
      18:	2f010000 	svccs	0x00010000
      1c:	656d6f68 	strbvs	r6, [sp, #-3944]!	; 0xfffff098
      20:	676e652f 	strbvs	r6, [lr, -pc, lsr #10]!
      24:	2f72656c 	svccs	0x0072656c
      28:	73616c63 	cmnvc	r1, #25344	; 0x6300
      2c:	73632f73 	cmnvc	r3, #460	; 0x1cc
      30:	65303431 	ldrvs	r3, [r0, #-1073]!	; 0xfffffbcf
      34:	7736322d 	ldrvc	r3, [r6, -sp, lsr #4]!
      38:	2f2f6e69 	svccs	0x002f6e69
      3c:	7062696c 	rsbvc	r6, r2, ip, ror #18
      40:	6e692f69 	cdpvs	15, 6, cr2, cr9, cr9, {3}
      44:	64756c63 	ldrbtvs	r6, [r5], #-3171	; 0xfffff39d
      48:	752f0065 	strvc	r0, [pc, #-101]!	; ffffffeb <__bss_end__+0xffff6b23>
      4c:	692f7273 	stmdbvs	pc!, {r0, r1, r4, r5, r6, r9, ip, sp, lr}	; <UNPREDICTABLE>
      50:	756c636e 	strbvc	r6, [ip, #-878]!	; 0xfffffc92
      54:	6e2f6564 	cfsh64vs	mvdx6, mvdx15, #52
      58:	696c7765 	stmdbvs	ip!, {r0, r2, r5, r6, r8, r9, sl, ip, sp, lr}^
      5c:	752f0062 	strvc	r0, [pc, #-98]!	; 2 <__code_start__-0x7ffe>
      60:	6c2f7273 	sfmvs	f7, 4, [pc], #-460	; fffffe9c <__bss_end__+0xffff69d4>
      64:	672f6269 	strvs	r6, [pc, -r9, ror #4]!
      68:	612f6363 			; <UNDEFINED> instruction: 0x612f6363
      6c:	6e2d6d72 	mcrvs	13, 1, r6, cr13, cr2, {3}
      70:	2d656e6f 	stclcs	14, cr6, [r5, #-444]!	; 0xfffffe44
      74:	69626165 	stmdbvs	r2!, {r0, r2, r5, r6, r8, sp, lr}^
      78:	2e30312f 	rsfcssp	f3, f0, #10.0
      7c:	2f312e33 	svccs	0x00312e33
      80:	6c636e69 	stclvs	14, cr6, [r3], #-420	; 0xfffffe5c
      84:	00656475 	rsbeq	r6, r5, r5, ror r4
      88:	61747300 	cmnvs	r4, r0, lsl #6
      8c:	6b2d6666 	blvs	b59a2c <__bss_end__+0xb50564>
      90:	6c6c616d 	stfvse	f6, [ip], #-436	; 0xfffffe4c
      94:	632e636f 			; <UNDEFINED> instruction: 0x632e636f
      98:	00000000 	andeq	r0, r0, r0
      9c:	2e697072 	mcrcs	0, 3, r7, cr9, cr2, {3}
      a0:	00010068 	andeq	r0, r1, r8, rrx
      a4:	72747300 	rsbsvc	r7, r4, #0, 6
      a8:	2e676e69 	cdpcs	14, 6, cr6, cr7, cr9, {3}
      ac:	00020068 	andeq	r0, r2, r8, rrx
      b0:	64747300 	ldrbtvs	r7, [r4], #-768	; 0xfffffd00
      b4:	2e746e69 	cdpcs	14, 7, cr6, cr4, cr9, {3}
      b8:	00030068 	andeq	r0, r3, r8, rrx
      bc:	1e050000 	cdpne	0, 0, cr0, cr5, cr0, {0}
      c0:	e8020500 	stmda	r2, {r8, sl}
      c4:	03000082 	movweq	r0, #130	; 0x82
      c8:	20050133 	andcs	r0, r5, r3, lsr r1
      cc:	06310501 	ldrteq	r0, [r1], -r1, lsl #10
      d0:	06200501 	strteq	r0, [r0], -r1, lsl #10
      d4:	01220583 	smlawbeq	r2, r3, r5, r0
      d8:	01063505 	tsteq	r6, r5, lsl #10
      dc:	83061e05 	movwhi	r1, #28165	; 0x6e05
      e0:	05012005 	streq	r2, [r1, #-5]
      e4:	0501062d 	streq	r0, [r1, #-1581]	; 0xfffff9d3
      e8:	0685063f 			; <UNDEFINED> instruction: 0x0685063f
      ec:	06050501 	streq	r0, [r5], -r1, lsl #10
      f0:	07051367 	streq	r1, [r5, -r7, ror #6]
      f4:	09050106 	stmdbeq	r5, {r1, r2, r8}
      f8:	05056706 	streq	r6, [r5, #-1798]	; 0xfffff8fa
      fc:	0f051314 	svceq	0x00051314
     100:	07050106 	streq	r0, [r5, -r6, lsl #2]
     104:	0609052e 	streq	r0, [r9], -lr, lsr #10
     108:	1405054b 	strne	r0, [r5], #-1355	; 0xfffffab5
     10c:	04020001 	streq	r0, [r2], #-1
     110:	02004a02 	andeq	r4, r0, #8192	; 0x2000
     114:	05130204 	ldreq	r0, [r3, #-516]	; 0xfffffdfc
     118:	04020013 	streq	r0, [r2], #-19	; 0xffffffed
     11c:	05010602 	streq	r0, [r1, #-1538]	; 0xfffff9fe
     120:	04020007 	streq	r0, [r2], #-7
     124:	09054a02 	stmdbeq	r5, {r1, r9, fp, lr}
     128:	05054b06 	streq	r4, [r5, #-2822]	; 0xfffff4fa
     12c:	060d0515 			; <UNDEFINED> instruction: 0x060d0515
     130:	4a070501 	bmi	1c153c <__bss_end__+0x1b8074>
     134:	4b060905 	blmi	182550 <__bss_end__+0x179088>
     138:	05150505 	ldreq	r0, [r5, #-1285]	; 0xfffffafb
     13c:	05010617 	streq	r0, [r1, #-1559]	; 0xfffff9e9
     140:	05054a10 	streq	r4, [r5, #-2576]	; 0xfffff5f0
     144:	1b052f06 	blne	14bd64 <__bss_end__+0x14289c>
     148:	0e050106 	adfeqs	f0, f5, f6
     14c:	2f01052e 	svccs	0x0001052e
     150:	03060905 	movweq	r0, #26885	; 0x6905
     154:	06014a6f 	streq	r4, [r1], -pc, ror #20
     158:	2e062e82 	cdpcs	14, 0, cr2, cr6, cr2, {4}
     15c:	059e0132 	ldreq	r0, [lr, #306]	; 0x132
     160:	04020005 	streq	r0, [r2], #-5
     164:	02003001 	andeq	r3, r0, #1, 0
     168:	05d60104 	ldrbeq	r0, [r6, #260]	; 0x104
     16c:	d6013009 	strle	r3, [r1], -r9
     170:	20080132 	andcs	r0, r8, r2, lsr r1
     174:	44082805 	strmi	r2, [r8], #-2053	; 0xfffff7fb
     178:	05050106 	streq	r0, [r5, #-262]	; 0xfffffefa
     17c:	06014b06 	streq	r4, [r1], -r6, lsl #22
     180:	132e062e 			; <UNDEFINED> instruction: 0x132e062e
     184:	be031805 	cdplt	8, 0, cr1, cr3, cr5, {0}
     188:	0505017f 	streq	r0, [r5, #-383]	; 0xfffffe81
     18c:	01060113 	tsteq	r6, r3, lsl r1
     190:	13150f06 	tstne	r5, #6, 30
     194:	01060e05 	tsteq	r6, r5, lsl #28
     198:	2e2e1605 	cfmadda32cs	mvax0, mvax1, mvfx14, mvfx5
     19c:	03060505 	movweq	r0, #25861	; 0x6505
     1a0:	010100c2 	smlabteq	r1, r2, r0, r0
     1a4:	02040200 	andeq	r0, r4, #0, 4
     1a8:	04020082 	streq	r0, [r2], #-130	; 0xffffff7e
     1ac:	02001402 	andeq	r1, r0, #33554432	; 0x2000000
     1b0:	05130204 	ldreq	r0, [r3, #-516]	; 0xfffffdfc
     1b4:	04020007 	streq	r0, [r2], #-7
     1b8:	05010602 	streq	r0, [r1, #-1538]	; 0xfffff9fe
     1bc:	054b0609 	strbeq	r0, [fp, #-1545]	; 0xfffff9f7
     1c0:	0a051405 	beq	1451dc <__bss_end__+0x13bd14>
     1c4:	05050106 	streq	r0, [r5, #-262]	; 0xfffffefa
     1c8:	0d056706 	stceq	7, cr6, [r5, #-24]	; 0xffffffe8
     1cc:	07050106 	streq	r0, [r5, -r6, lsl #2]
     1d0:	4e01052e 	cfsh32mi	mvfx0, mvfx1, #30
     1d4:	02000505 	andeq	r0, r0, #20971520	; 0x1400000
     1d8:	03060104 	movweq	r0, #24836	; 0x6104
     1dc:	02004a72 	andeq	r4, r0, #466944	; 0x72000
     1e0:	ba060104 	blt	1805f8 <__bss_end__+0x177130>
     1e4:	01040200 	mrseq	r0, R12_usr
     1e8:	02002e06 	andeq	r2, r0, #96	; 0x60
     1ec:	00310104 	eorseq	r0, r1, r4, lsl #2
     1f0:	06010402 	streq	r0, [r1], -r2, lsl #8
     1f4:	0402002e 	streq	r0, [r2], #-46	; 0xffffffd2
     1f8:	05ba0601 	ldreq	r0, [sl, #1537]!	; 0x601
     1fc:	06013209 	streq	r3, [r1], -r9, lsl #4
     200:	2e06662e 	cfmadd32cs	mvax1, mvfx6, mvfx6, mvfx14
     204:	82060132 	andhi	r0, r6, #-2147483636	; 0x8000000c
     208:	052e0666 	streq	r0, [lr, #-1638]!	; 0xfffff99a
     20c:	06260820 	strteq	r0, [r6], -r0, lsr #16
     210:	06050501 	streq	r0, [r5], -r1, lsl #10
     214:	0200014c 	andeq	r0, r0, #19
     218:	004a0204 	subeq	r0, sl, r4, lsl #4
     21c:	13020402 	movwne	r0, #9218	; 0x2402
     220:	02001205 	andeq	r1, r0, #1342177280	; 0x50000000
     224:	01060204 	tsteq	r6, r4, lsl #4
     228:	02040200 	andeq	r0, r4, #0, 4
     22c:	0402002e 	streq	r0, [r2], #-46	; 0xffffffd2
     230:	05052e02 	streq	r2, [r5, #-3586]	; 0xfffff1fe
     234:	02040200 	andeq	r0, r4, #0, 4
     238:	02002f06 	andeq	r2, r0, #6, 30
     23c:	05670204 	strbeq	r0, [r7, #-516]!	; 0xfffffdfc
     240:	04020001 	streq	r0, [r2], #-1
     244:	05130602 	ldreq	r0, [r3, #-1538]	; 0xfffff9fe
     248:	04020005 	streq	r0, [r2], #-5
     24c:	00620601 	rsbeq	r0, r2, r1, lsl #12
     250:	06010402 	streq	r0, [r1], -r2, lsl #8
     254:	040200ba 	streq	r0, [r2], #-186	; 0xffffff46
     258:	052e0601 	streq	r0, [lr, #-1537]!	; 0xfffff9ff
     25c:	9e09033c 	mcrls	3, 0, r0, cr9, cr12, {1}
     260:	05050106 	streq	r0, [r5, #-262]	; 0xfffffefa
     264:	06014b06 	streq	r4, [r1], -r6, lsl #22
     268:	132e062e 			; <UNDEFINED> instruction: 0x132e062e
     26c:	03180501 	tsteq	r8, #4194304	; 0x400000
     270:	05017f9e 	streq	r7, [r1, #-3998]	; 0xfffff062
     274:	11051305 	tstne	r5, r5, lsl #6
     278:	052e0106 	streq	r0, [lr, #-262]!	; 0xfffffefa
     27c:	00e10305 	rsceq	r0, r1, r5, lsl #6
     280:	134a0601 	movtne	r0, #42497	; 0xa601
     284:	94031805 	strls	r1, [r3], #-2053	; 0xfffff7fb
     288:	0505017f 	streq	r0, [r5, #-383]	; 0xfffffe81
     28c:	06160513 			; <UNDEFINED> instruction: 0x06160513
     290:	05054a01 	streq	r4, [r5, #-2561]	; 0xfffff5ff
     294:	00ef0306 	rsceq	r0, pc, r6, lsl #6
     298:	06120501 	ldreq	r0, [r2], -r1, lsl #10
     29c:	06050501 	streq	r0, [r5], -r1, lsl #10
     2a0:	0318054b 	tsteq	r8, #314572800	; 0x12c00000
     2a4:	05017f9b 	streq	r7, [r1, #-3995]	; 0xfffff065
     2a8:	05011305 	streq	r1, [r1, #-773]	; 0xfffffcfb
     2ac:	05050e18 	streq	r0, [r5, #-3608]	; 0xfffff1e8
     2b0:	06110513 			; <UNDEFINED> instruction: 0x06110513
     2b4:	05052e01 	streq	r2, [r5, #-3585]	; 0xfffff1ff
     2b8:	134a0615 	movtne	r0, #42517	; 0xa615
     2bc:	01060e05 	tsteq	r6, r5, lsl #28
     2c0:	2e16052e 	cfmul64cs	mvdx0, mvdx6, mvdx14
     2c4:	0605052e 	streq	r0, [r5], -lr, lsr #10
     2c8:	0100e403 	tsteq	r0, r3, lsl #8
     2cc:	03180501 	tsteq	r8, #4194304	; 0x400000
     2d0:	05017f91 	streq	r7, [r1, #-3985]	; 0xfffff06f
     2d4:	19051305 	stmdbne	r5, {r0, r2, r8, r9, ip}
     2d8:	052e0106 	streq	r0, [lr, #-262]!	; 0xfffffefa
     2dc:	00ee0305 	rsceq	r0, lr, r5, lsl #6
     2e0:	04020001 	streq	r0, [r2], #-1
     2e4:	004a0602 	subeq	r0, sl, r2, lsl #12
     2e8:	14020402 	strne	r0, [r2], #-1026	; 0xfffffbfe
     2ec:	02000a05 	andeq	r0, r0, #20480	; 0x5000
     2f0:	01060204 	tsteq	r6, r4, lsl #4
     2f4:	02000505 	andeq	r0, r0, #20971520	; 0x1400000
     2f8:	4b060204 	blmi	180b10 <__bss_end__+0x177648>
     2fc:	02000c05 	andeq	r0, r0, #1280	; 0x500
     300:	01060204 	tsteq	r6, r4, lsl #4
     304:	02000105 	andeq	r0, r0, #1073741825	; 0x40000001
     308:	052f0204 	streq	r0, [pc, #-516]!	; 10c <__code_start__-0x7ef4>
     30c:	04020005 	streq	r0, [r2], #-5
     310:	74030601 	strvc	r0, [r3], #-1537	; 0xfffff9ff
     314:	0402004a 	streq	r0, [r2], #-74	; 0xffffffb6
     318:	009e0601 	addseq	r0, lr, r1, lsl #12
     31c:	2e010402 	cdpcs	4, 0, cr0, cr1, cr2, {0}
     320:	01040200 	mrseq	r0, R12_usr
     324:	02002e06 	andeq	r2, r0, #96	; 0x60
     328:	002f0104 	eoreq	r0, pc, r4, lsl #2
     32c:	06010402 	streq	r0, [r1], -r2, lsl #8
     330:	0402009e 	streq	r0, [r2], #-158	; 0xffffff62
     334:	02002e01 	andeq	r2, r0, #1, 28
     338:	2e060104 	adfcss	f0, f6, f4
     33c:	2e7fa203 	cdpcs	2, 7, cr10, cr15, cr3, {0}
     340:	2e2e8206 	cdpcs	2, 2, cr8, cr14, cr6, {0}
     344:	2e062e06 	cdpcs	14, 0, cr2, cr6, cr6, {0}
     348:	01040200 	mrseq	r0, R12_usr
     34c:	00e50306 	rsceq	r0, r5, r6, lsl #6
     350:	04020001 	streq	r0, [r2], #-1
     354:	002e0601 	eoreq	r0, lr, r1, lsl #12
     358:	66010402 	strvs	r0, [r1], -r2, lsl #8
     35c:	01040200 	mrseq	r0, R12_usr
     360:	0402004a 	streq	r0, [r2], #-74	; 0xffffffb6
     364:	052e0601 	streq	r0, [lr, #-1537]!	; 0xfffff9ff
     368:	057b0816 	ldrbeq	r0, [fp, #-2070]!	; 0xfffff7ea
     36c:	1d050118 	stfnes	f0, [r5, #-96]	; 0xffffffa0
     370:	2b050106 	blcs	140790 <__bss_end__+0x1372c8>
     374:	00040266 	andeq	r0, r4, r6, ror #4
     378:	02400101 	subeq	r0, r0, #1073741824	; 0x40000000
     37c:	00030000 	andeq	r0, r3, r0
     380:	00000176 	andeq	r0, r0, r6, ror r1
     384:	0efb0102 	cdpeq	1, 15, cr0, cr11, cr2, {0}
     388:	0101000d 	tsteq	r1, sp
     38c:	00000101 	andeq	r0, r0, r1, lsl #2
     390:	00000100 	andeq	r0, r0, r0, lsl #2
     394:	6c2f2e01 	stcvs	14, cr2, [pc], #-4	; 398 <__code_start__-0x7c68>
     398:	00636269 	rsbeq	r6, r3, r9, ror #4
     39c:	74706f2f 	ldrbtvc	r6, [r0], #-3887	; 0xfffff0d1
     3a0:	6d6f682f 	stclvs	8, cr6, [pc, #-188]!	; 2ec <__code_start__-0x7d14>
     3a4:	65726265 	ldrbvs	r6, [r2, #-613]!	; 0xfffffd9b
     3a8:	65432f77 	strbvs	r2, [r3, #-3959]	; 0xfffff089
     3ac:	72616c6c 	rsbvc	r6, r1, #108, 24	; 0x6c00
     3b0:	6d72612f 	ldfvse	f6, [r2, #-188]!	; 0xffffff44
     3b4:	6e6f6e2d 	cdpvs	14, 6, cr6, cr15, cr13, {1}
     3b8:	61652d65 	cmnvs	r5, r5, ror #26
     3bc:	742d6962 	strtvc	r6, [sp], #-2402	; 0xfffff69e
     3c0:	2f747365 	svccs	0x00747365
     3c4:	30322d39 	eorscc	r2, r2, r9, lsr sp
     3c8:	34713931 	ldrbtcc	r3, [r1], #-2353	; 0xfffff6cf
     3cc:	3173632d 	cmncc	r3, sp, lsr #6
     3d0:	2f653730 	svccs	0x00653730
     3d4:	2f62696c 	svccs	0x0062696c
     3d8:	2f636367 	svccs	0x00636367
     3dc:	2d6d7261 	sfmcs	f7, 2, [sp, #-388]!	; 0xfffffe7c
     3e0:	656e6f6e 	strbvs	r6, [lr, #-3950]!	; 0xfffff092
     3e4:	6261652d 	rsbvs	r6, r1, #188743680	; 0xb400000
     3e8:	2e392f69 	cdpcs	15, 3, cr2, cr9, cr9, {3}
     3ec:	2f312e32 	svccs	0x00312e32
     3f0:	6c636e69 	stclvs	14, cr6, [r3], #-420	; 0xfffffe5c
     3f4:	00656475 	rsbeq	r6, r5, r5, ror r4
     3f8:	74706f2f 	ldrbtvc	r6, [r0], #-3887	; 0xfffff0d1
     3fc:	6d6f682f 	stclvs	8, cr6, [pc, #-188]!	; 348 <__code_start__-0x7cb8>
     400:	65726265 	ldrbvs	r6, [r2, #-613]!	; 0xfffffd9b
     404:	65432f77 	strbvs	r2, [r3, #-3959]	; 0xfffff089
     408:	72616c6c 	rsbvc	r6, r1, #108, 24	; 0x6c00
     40c:	6d72612f 	ldfvse	f6, [r2, #-188]!	; 0xffffff44
     410:	6e6f6e2d 	cdpvs	14, 6, cr6, cr15, cr13, {1}
     414:	61652d65 	cmnvs	r5, r5, ror #26
     418:	742d6962 	strtvc	r6, [sp], #-2402	; 0xfffff69e
     41c:	2f747365 	svccs	0x00747365
     420:	30322d39 	eorscc	r2, r2, r9, lsr sp
     424:	34713931 	ldrbtcc	r3, [r1], #-2353	; 0xfffff6cf
     428:	3173632d 	cmncc	r3, sp, lsr #6
     42c:	2f653730 	svccs	0x00653730
     430:	2d6d7261 	sfmcs	f7, 2, [sp, #-388]!	; 0xfffffe7c
     434:	656e6f6e 	strbvs	r6, [lr, #-3950]!	; 0xfffff092
     438:	6261652d 	rsbvs	r6, r1, #188743680	; 0xb400000
     43c:	6e692f69 	cdpvs	15, 6, cr2, cr9, cr9, {3}
     440:	64756c63 	ldrbtvs	r6, [r5], #-3171	; 0xfffff39d
     444:	79732f65 	ldmdbvc	r3!, {r0, r2, r5, r6, r8, r9, sl, fp, sp}^
     448:	002e0073 	eoreq	r0, lr, r3, ror r0
     44c:	74706f2f 	ldrbtvc	r6, [r0], #-3887	; 0xfffff0d1
     450:	6d6f682f 	stclvs	8, cr6, [pc, #-188]!	; 39c <__code_start__-0x7c64>
     454:	65726265 	ldrbvs	r6, [r2, #-613]!	; 0xfffffd9b
     458:	65432f77 	strbvs	r2, [r3, #-3959]	; 0xfffff089
     45c:	72616c6c 	rsbvc	r6, r1, #108, 24	; 0x6c00
     460:	6d72612f 	ldfvse	f6, [r2, #-188]!	; 0xffffff44
     464:	6e6f6e2d 	cdpvs	14, 6, cr6, cr15, cr13, {1}
     468:	61652d65 	cmnvs	r5, r5, ror #26
     46c:	742d6962 	strtvc	r6, [sp], #-2402	; 0xfffff69e
     470:	2f747365 	svccs	0x00747365
     474:	30322d39 	eorscc	r2, r2, r9, lsr sp
     478:	34713931 	ldrbtcc	r3, [r1], #-2353	; 0xfffff6cf
     47c:	3173632d 	cmncc	r3, sp, lsr #6
     480:	2f653730 	svccs	0x00653730
     484:	2d6d7261 	sfmcs	f7, 2, [sp, #-388]!	; 0xfffffe7c
     488:	656e6f6e 	strbvs	r6, [lr, #-3950]!	; 0xfffff092
     48c:	6261652d 	rsbvs	r6, r1, #188743680	; 0xb400000
     490:	6e692f69 	cdpvs	15, 6, cr2, cr9, cr9, {3}
     494:	64756c63 	ldrbtvs	r6, [r5], #-3171	; 0xfffff39d
     498:	6d000065 	stcvs	0, cr0, [r0, #-404]	; 0xfffffe6c
     49c:	65736d65 	ldrbvs	r6, [r3, #-3429]!	; 0xfffff29b
     4a0:	00632e74 	rsbeq	r2, r3, r4, ror lr
     4a4:	73000001 	movwvc	r0, #1
     4a8:	65646474 	strbvs	r6, [r4, #-1140]!	; 0xfffffb8c
     4ac:	00682e66 	rsbeq	r2, r8, r6, ror #28
     4b0:	73000002 	movwvc	r0, #2
     4b4:	6e696474 	mcrvs	4, 3, r6, cr9, cr4, {3}
     4b8:	63672d74 	cmnvs	r7, #116, 26	; 0x1d00
     4bc:	00682e63 	rsbeq	r2, r8, r3, ror #28
     4c0:	6c000002 	stcvs	0, cr0, [r0], {2}
     4c4:	2e6b636f 	cdpcs	3, 6, cr6, cr11, cr15, {3}
     4c8:	00030068 	andeq	r0, r3, r8, rrx
     4cc:	79745f00 	ldmdbvc	r4!, {r8, r9, sl, fp, ip, lr}^
     4d0:	2e736570 	mrccs	5, 3, r6, cr3, cr0, {3}
     4d4:	00030068 	andeq	r0, r3, r8, rrx
     4d8:	65657200 	strbvs	r7, [r5, #-512]!	; 0xfffffe00
     4dc:	682e746e 	stmdavs	lr!, {r1, r2, r3, r5, r6, sl, ip, sp, lr}
     4e0:	00000300 	andeq	r0, r0, r0, lsl #6
     4e4:	2e697072 	mcrcs	0, 3, r7, cr9, cr2, {3}
     4e8:	00040068 	andeq	r0, r4, r8, rrx
     4ec:	72747300 	rsbsvc	r7, r4, #0, 6
     4f0:	2e676e69 	cdpcs	14, 6, cr6, cr7, cr9, {3}
     4f4:	00050068 	andeq	r0, r5, r8, rrx
     4f8:	2a050000 	bcs	140500 <__bss_end__+0x137038>
     4fc:	b4020500 	strlt	r0, [r2], #-1280	; 0xfffffb00
     500:	18000086 	stmdane	r0, {r1, r2, r7}
     504:	05130505 	ldreq	r0, [r3, #-1285]	; 0xfffffafb
     508:	2e010607 	cfmadd32cs	mvax0, mvfx0, mvfx1, mvfx7
     50c:	31060505 	tstcc	r6, r5, lsl #10
     510:	01060705 	tsteq	r6, r5, lsl #14
     514:	4b060905 	blmi	182930 <__bss_end__+0x179468>
     518:	01060b05 	tsteq	r6, r5, lsl #22
     51c:	02001a05 	andeq	r1, r0, #20480	; 0x5000
     520:	054a0104 	strbeq	r0, [sl, #-260]	; 0xfffffefc
     524:	05500610 	ldrbeq	r0, [r0, #-1552]	; 0xfffff9f0
     528:	05010612 	streq	r0, [r1, #-1554]	; 0xfffff9ee
     52c:	04020021 	streq	r0, [r2], #-33	; 0xffffffdf
     530:	05054a01 	streq	r4, [r5, #-2561]	; 0xfffff5ff
     534:	4a0a0306 	bmi	281154 <__bss_end__+0x277c8c>
     538:	01061505 	tsteq	r6, r5, lsl #10
     53c:	2f060505 	svccs	0x00060505
     540:	01060a05 	tsteq	r6, r5, lsl #20
     544:	03060d05 	movweq	r0, #27909	; 0x6d05
     548:	05132e77 	ldreq	r2, [r3, #-3703]	; 0xfffff189
     54c:	0501060f 	streq	r0, [r1, #-1551]	; 0xfffff9f1
     550:	052f060d 	streq	r0, [pc, #-1549]!	; ffffff4b <__bss_end__+0xffff6a83>
     554:	05010612 	streq	r0, [r1, #-1554]	; 0xfffff9ee
     558:	052f0611 	streq	r0, [pc, #-1553]!	; ffffff4f <__bss_end__+0xffff6a87>
     55c:	05010616 	streq	r0, [r1, #-1558]	; 0xfffff9ea
     560:	12052d14 	andne	r2, r5, #20, 26	; 0x500
     564:	14052e06 	strne	r2, [r5], #-3590	; 0xfffff1fa
     568:	12050106 	andne	r0, r5, #-2147483647	; 0x80000001
     56c:	052e4a2e 	streq	r4, [lr, #-2606]!	; 0xfffff5d2
     570:	051a0609 	ldreq	r0, [sl, #-1545]	; 0xfffff9f7
     574:	0501060e 	streq	r0, [r1, #-1550]	; 0xfffff9f2
     578:	062d060a 	strteq	r0, [sp], -sl, lsl #12
     57c:	060d054a 	streq	r0, [sp], -sl, asr #10
     580:	132e7003 			; <UNDEFINED> instruction: 0x132e7003
     584:	01060f05 	tsteq	r6, r5, lsl #30
     588:	2f060d05 	svccs	0x00060d05
     58c:	05011205 	streq	r1, [r1, #-517]	; 0xfffffdfb
     590:	05010614 	streq	r0, [r1, #-1556]	; 0xfffff9ec
     594:	2a052e12 	bcs	14bde4 <__bss_end__+0x14291c>
     598:	054a7803 	strbeq	r7, [sl, #-2051]	; 0xfffff7fd
     59c:	09030611 	stmdbeq	r3, {r0, r4, r9, sl}
     5a0:	0616052e 	ldreq	r0, [r6], -lr, lsr #10
     5a4:	65140501 	ldrvs	r0, [r4, #-1281]	; 0xfffffaff
     5a8:	2e061205 	cdpcs	2, 0, cr1, cr6, cr5, {0}
     5ac:	01061405 	tsteq	r6, r5, lsl #8
     5b0:	4a2e1205 	bmi	b84dcc <__bss_end__+0xb7b904>
     5b4:	11030105 	tstne	r3, r5, lsl #2
     5b8:	00040201 	andeq	r0, r4, r1, lsl #4
     5bc:	03bc0101 			; <UNDEFINED> instruction: 0x03bc0101
     5c0:	00030000 	andeq	r0, r3, r0
     5c4:	00000136 	andeq	r0, r0, r6, lsr r1
     5c8:	0efb0102 	cdpeq	1, 15, cr0, cr11, cr2, {0}
     5cc:	0101000d 	tsteq	r1, sp
     5d0:	00000101 	andeq	r0, r0, r1, lsl #2
     5d4:	00000100 	andeq	r0, r0, r0, lsl #2
     5d8:	6c2f2e01 	stcvs	14, cr2, [pc], #-4	; 5dc <__code_start__-0x7a24>
     5dc:	00636269 	rsbeq	r6, r3, r9, ror #4
     5e0:	74706f2f 	ldrbtvc	r6, [r0], #-3887	; 0xfffff0d1
     5e4:	6d6f682f 	stclvs	8, cr6, [pc, #-188]!	; 530 <__code_start__-0x7ad0>
     5e8:	65726265 	ldrbvs	r6, [r2, #-613]!	; 0xfffffd9b
     5ec:	65432f77 	strbvs	r2, [r3, #-3959]	; 0xfffff089
     5f0:	72616c6c 	rsbvc	r6, r1, #108, 24	; 0x6c00
     5f4:	6d72612f 	ldfvse	f6, [r2, #-188]!	; 0xffffff44
     5f8:	6e6f6e2d 	cdpvs	14, 6, cr6, cr15, cr13, {1}
     5fc:	61652d65 	cmnvs	r5, r5, ror #26
     600:	742d6962 	strtvc	r6, [sp], #-2402	; 0xfffff69e
     604:	2f747365 	svccs	0x00747365
     608:	30322d39 	eorscc	r2, r2, r9, lsr sp
     60c:	34713931 	ldrbtcc	r3, [r1], #-2353	; 0xfffff6cf
     610:	3173632d 	cmncc	r3, sp, lsr #6
     614:	2f653730 	svccs	0x00653730
     618:	2f62696c 	svccs	0x0062696c
     61c:	2f636367 	svccs	0x00636367
     620:	2d6d7261 	sfmcs	f7, 2, [sp, #-388]!	; 0xfffffe7c
     624:	656e6f6e 	strbvs	r6, [lr, #-3950]!	; 0xfffff092
     628:	6261652d 	rsbvs	r6, r1, #188743680	; 0xb400000
     62c:	2e392f69 	cdpcs	15, 3, cr2, cr9, cr9, {3}
     630:	2f312e32 	svccs	0x00312e32
     634:	6c636e69 	stclvs	14, cr6, [r3], #-420	; 0xfffffe5c
     638:	00656475 	rsbeq	r6, r5, r5, ror r4
     63c:	74706f2f 	ldrbtvc	r6, [r0], #-3887	; 0xfffff0d1
     640:	6d6f682f 	stclvs	8, cr6, [pc, #-188]!	; 58c <__code_start__-0x7a74>
     644:	65726265 	ldrbvs	r6, [r2, #-613]!	; 0xfffffd9b
     648:	65432f77 	strbvs	r2, [r3, #-3959]	; 0xfffff089
     64c:	72616c6c 	rsbvc	r6, r1, #108, 24	; 0x6c00
     650:	6d72612f 	ldfvse	f6, [r2, #-188]!	; 0xffffff44
     654:	6e6f6e2d 	cdpvs	14, 6, cr6, cr15, cr13, {1}
     658:	61652d65 	cmnvs	r5, r5, ror #26
     65c:	742d6962 	strtvc	r6, [sp], #-2402	; 0xfffff69e
     660:	2f747365 	svccs	0x00747365
     664:	30322d39 	eorscc	r2, r2, r9, lsr sp
     668:	34713931 	ldrbtcc	r3, [r1], #-2353	; 0xfffff6cf
     66c:	3173632d 	cmncc	r3, sp, lsr #6
     670:	2f653730 	svccs	0x00653730
     674:	2d6d7261 	sfmcs	f7, 2, [sp, #-388]!	; 0xfffffe7c
     678:	656e6f6e 	strbvs	r6, [lr, #-3950]!	; 0xfffff092
     67c:	6261652d 	rsbvs	r6, r1, #188743680	; 0xb400000
     680:	6e692f69 	cdpvs	15, 6, cr2, cr9, cr9, {3}
     684:	64756c63 	ldrbtvs	r6, [r5], #-3171	; 0xfffff39d
     688:	79732f65 	ldmdbvc	r3!, {r0, r2, r5, r6, r8, r9, sl, fp, sp}^
     68c:	002e0073 	eoreq	r0, lr, r3, ror r0
     690:	69727000 	ldmdbvs	r2!, {ip, sp, lr}^
     694:	2e6b746e 	cdpcs	4, 6, cr7, cr11, cr14, {3}
     698:	00010063 	andeq	r0, r1, r3, rrx
     69c:	64747300 	ldrbtvs	r7, [r4], #-768	; 0xfffffd00
     6a0:	2d746e69 	ldclcs	14, cr6, [r4, #-420]!	; 0xfffffe5c
     6a4:	2e636367 	cdpcs	3, 6, cr6, cr3, cr7, {3}
     6a8:	00020068 	andeq	r0, r2, r8, rrx
     6ac:	64747300 	ldrbtvs	r7, [r4], #-768	; 0xfffffd00
     6b0:	2e677261 	cdpcs	2, 6, cr7, cr7, cr1, {3}
     6b4:	00020068 	andeq	r0, r2, r8, rrx
     6b8:	636f6c00 	cmnvs	pc, #0, 24
     6bc:	00682e6b 	rsbeq	r2, r8, fp, ror #28
     6c0:	5f000003 	svcpl	0x00000003
     6c4:	65707974 	ldrbvs	r7, [r0, #-2420]!	; 0xfffff68c
     6c8:	00682e73 	rsbeq	r2, r8, r3, ror lr
     6cc:	73000003 	movwvc	r0, #3
     6d0:	65646474 	strbvs	r6, [r4, #-1140]!	; 0xfffffb8c
     6d4:	00682e66 	rsbeq	r2, r8, r6, ror #28
     6d8:	72000002 	andvc	r0, r0, #2, 0
     6dc:	746e6565 	strbtvc	r6, [lr], #-1381	; 0xfffffa9b
     6e0:	0300682e 	movweq	r6, #2094	; 0x82e
     6e4:	70720000 	rsbsvc	r0, r2, r0
     6e8:	00682e69 	rsbeq	r2, r8, r9, ror #28
     6ec:	3c000004 	stccc	0, cr0, [r0], {4}
     6f0:	6c697562 	cfstr64vs	mvdx7, [r9], #-392	; 0xfffffe78
     6f4:	6e692d74 	mcrvs	13, 3, r2, cr9, cr4, {3}
     6f8:	0000003e 	andeq	r0, r0, lr, lsr r0
     6fc:	22050000 	andcs	r0, r5, #0, 0
     700:	54020500 	strpl	r0, [r2], #-1280	; 0xfffffb00
     704:	03000087 	movweq	r0, #135	; 0x87
     708:	060100e9 	streq	r0, [r1], -r9, ror #1
     70c:	06050501 	streq	r0, [r5], -r1, lsl #10
     710:	05131467 	ldreq	r1, [r3, #-1127]	; 0xfffffb99
     714:	0e054b08 	vmlaeq.f64	d4, d5, d8
     718:	05050106 	streq	r0, [r5, #-262]	; 0xfffffefa
     71c:	05134b06 	ldreq	r4, [r3, #-2822]	; 0xfffff4fa
     720:	05130601 	ldreq	r0, [r3, #-1537]	; 0xfffff9ff
     724:	95030631 	strls	r0, [r3, #-1585]	; 0xfffff9cf
     728:	0106827f 	tsteq	r6, pc, ror r2
     72c:	4b060505 	blmi	181b48 <__bss_end__+0x178680>
     730:	03090514 	movweq	r0, #38164	; 0x9514
     734:	0601ba11 			; <UNDEFINED> instruction: 0x0601ba11
     738:	2e062e82 	cdpcs	14, 0, cr2, cr6, cr2, {4}
     73c:	03060505 	movweq	r0, #25861	; 0x6505
     740:	09052e6f 	stmdbeq	r5, {r0, r1, r2, r3, r5, r6, r9, sl, fp, sp}
     744:	01040200 	mrseq	r0, R12_usr
     748:	0d053006 	stceq	0, cr3, [r5, #-24]	; 0xffffffe8
     74c:	01040200 	mrseq	r0, R12_usr
     750:	001b0513 	andseq	r0, fp, r3, lsl r5
     754:	06010402 	streq	r0, [r1], -r2, lsl #8
     758:	00180501 	andseq	r0, r8, r1, lsl #10
     75c:	2e010402 	cdpcs	4, 0, cr0, cr1, cr2, {0}
     760:	02001205 	andeq	r1, r0, #1342177280	; 0x50000000
     764:	054a0104 	strbeq	r0, [sl, #-260]	; 0xfffffefc
     768:	04020010 	streq	r0, [r2], #-16
     76c:	054b0601 	strbeq	r0, [fp, #-1537]	; 0xfffff9ff
     770:	04020009 	streq	r0, [r2], #-9
     774:	00010601 	andeq	r0, r1, r1, lsl #12
     778:	4a010402 	bmi	41788 <__bss_end__+0x382c0>
     77c:	05460505 	strbeq	r0, [r6, #-1285]	; 0xfffffafb
     780:	04020009 	streq	r0, [r2], #-9
     784:	05350601 	ldreq	r0, [r5, #-1537]!	; 0xfffff9ff
     788:	0402000d 	streq	r0, [r2], #-13
     78c:	23051301 	movwcs	r1, #21249	; 0x5301
     790:	01040200 	mrseq	r0, R12_usr
     794:	20050106 	andcs	r0, r5, r6, lsl #2
     798:	01040200 	mrseq	r0, R12_usr
     79c:	001205ba 			; <UNDEFINED> instruction: 0x001205ba
     7a0:	4a010402 	bmi	417b0 <__bss_end__+0x382e8>
     7a4:	02001005 	andeq	r1, r0, #5, 0
     7a8:	4b060104 	blmi	180bc0 <__bss_end__+0x1776f8>
     7ac:	02001305 	andeq	r1, r0, #335544320	; 0x14000000
     7b0:	2e060104 	adfcss	f0, f6, f4
     7b4:	02000905 	andeq	r0, r0, #81920	; 0x14000
     7b8:	052e0104 	streq	r0, [lr, #-260]!	; 0xfffffefc
     7bc:	66770305 	ldrbtvs	r0, [r7], -r5, lsl #6
     7c0:	02000905 	andeq	r0, r0, #81920	; 0x14000
     7c4:	03060104 	movweq	r0, #24836	; 0x6104
     7c8:	0d052e0c 	stceq	14, cr2, [r5, #-48]	; 0xffffffd0
     7cc:	01040200 	mrseq	r0, R12_usr
     7d0:	00290513 	eoreq	r0, r9, r3, lsl r5
     7d4:	06010402 	streq	r0, [r1], -r2, lsl #8
     7d8:	00260501 	eoreq	r0, r6, r1, lsl #10
     7dc:	2e010402 	cdpcs	4, 0, cr0, cr1, cr2, {0}
     7e0:	02001205 	andeq	r1, r0, #1342177280	; 0x50000000
     7e4:	054a0104 	strbeq	r0, [sl, #-260]	; 0xfffffefc
     7e8:	04020010 	streq	r0, [r2], #-16
     7ec:	054b0601 	strbeq	r0, [fp, #-1537]	; 0xfffff9ff
     7f0:	04020009 	streq	r0, [r2], #-9
     7f4:	00010601 	andeq	r0, r1, r1, lsl #12
     7f8:	4a010402 	bmi	41808 <__bss_end__+0x38340>
     7fc:	06135206 	ldreq	r5, [r3], -r6, lsl #4
     800:	000a0566 	andeq	r0, sl, r6, ror #10
     804:	06010402 	streq	r0, [r1], -r2, lsl #8
     808:	0601052c 	streq	r0, [r1], -ip, lsr #10
     80c:	2a054a6a 	bcs	1531bc <__bss_end__+0x149cf4>
     810:	02050006 	andeq	r0, r5, #6, 0
     814:	00008890 	muleq	r0, r0, r8
     818:	05010616 	streq	r0, [r1, #-1558]	; 0xfffff9ea
     81c:	05830605 	streq	r0, [r3, #1541]	; 0x605
     820:	1605300d 	strne	r3, [r5], -sp
     824:	05663903 	strbeq	r3, [r6, #-2307]!	; 0xfffff6fd
     828:	01450311 	cmpeq	r5, r1, lsl r3
     82c:	01061405 	tsteq	r6, r5, lsl #8
     830:	02000b05 	andeq	r0, r0, #5120	; 0x1400
     834:	2e060104 	adfcss	f0, f6, f4
     838:	02000505 	andeq	r0, r0, #20971520	; 0x1400000
     83c:	2e060104 	adfcss	f0, f6, f4
     840:	4b060905 	blmi	182c5c <__bss_end__+0x179794>
     844:	01060b05 	tsteq	r6, r5, lsl #22
     848:	4d060d05 	stcmi	13, cr0, [r6, #-20]	; 0xffffffec
     84c:	01061005 	tsteq	r6, r5
     850:	30060d05 	andcc	r0, r6, r5, lsl #26
     854:	05141313 	ldreq	r1, [r4, #-787]	; 0xfffffced
     858:	05010614 	streq	r0, [r1, #-1556]	; 0xfffff9ec
     85c:	4c020617 	stcmi	6, cr0, [r2], {23}
     860:	ba3a0513 	blt	e81cb4 <__bss_end__+0xe787ec>
     864:	03061005 	movweq	r1, #24581	; 0x6005
     868:	0d050179 	stfeqs	f0, [r5, #-484]	; 0xfffffe1c
     86c:	06170535 			; <UNDEFINED> instruction: 0x06170535
     870:	ba3b052f 	blt	ec1d34 <__bss_end__+0xeb886c>
     874:	03061005 	movweq	r1, #24581	; 0x6005
     878:	0d050178 	stfeqs	f0, [r5, #-480]	; 0xfffffe20
     87c:	06170536 			; <UNDEFINED> instruction: 0x06170536
     880:	d631052f 	ldrtle	r0, [r1], -pc, lsr #10
     884:	03061005 	movweq	r1, #24581	; 0x6005
     888:	0d050177 	stfeqs	f0, [r5, #-476]	; 0xfffffe24
     88c:	052e0903 	streq	r0, [lr, #-2307]!	; 0xfffff6fd
     890:	05320611 	ldreq	r0, [r2, #-1553]!	; 0xfffff9ef
     894:	05010614 	streq	r0, [r1, #-1556]	; 0xfffff9ec
     898:	052f0611 	streq	r0, [pc, #-1553]!	; 28f <__code_start__-0x7d71>
     89c:	05010614 	streq	r0, [r1, #-1556]	; 0xfffff9ec
     8a0:	15052e13 	strne	r2, [r5, #-3603]	; 0xfffff1ed
     8a4:	11054b06 	tstne	r5, r6, lsl #22
     8a8:	06140513 			; <UNDEFINED> instruction: 0x06140513
     8ac:	06110501 	ldreq	r0, [r1], -r1, lsl #10
     8b0:	0614052f 	ldreq	r0, [r4], -pc, lsr #10
     8b4:	2e130501 	cfmul32cs	mvfx0, mvfx3, mvfx1
     8b8:	4b061505 	blmi	185cd4 <__bss_end__+0x17c80c>
     8bc:	83131105 	tsthi	r3, #1073741825	; 0x40000001
     8c0:	061a0568 	ldreq	r0, [sl], -r8, ror #10
     8c4:	06110501 	ldreq	r0, [r1], -r1, lsl #10
     8c8:	051313da 	ldreq	r1, [r3, #-986]	; 0xfffffc26
     8cc:	05010613 	streq	r0, [r1, #-1555]	; 0xfffff9ed
     8d0:	674c0611 	smlaldvs	r0, ip, r1, r6
     8d4:	03061405 	movweq	r1, #25605	; 0x6405
     8d8:	11050171 	tstne	r5, r1, ror r1
     8dc:	052e0f03 	streq	r0, [lr, #-3843]!	; 0xfffff0fd
     8e0:	70030615 	andvc	r0, r3, r5, lsl r6
     8e4:	6606012e 	strvs	r0, [r6], -lr, lsr #2
     8e8:	01316606 	teqeq	r1, r6, lsl #12
     8ec:	2e0b03ba 	mcrcs	3, 0, r0, cr11, cr10, {5}
     8f0:	11054a06 	tstne	r5, r6, lsl #20
     8f4:	68833506 	stmvs	r3, {r1, r2, r8, sl, ip, sp}
     8f8:	061005bb 			; <UNDEFINED> instruction: 0x061005bb
     8fc:	05015803 	streq	r5, [r1, #-2051]	; 0xfffff7fd
     900:	2e280311 	mcrcs	3, 1, r0, cr8, cr1, {0}
     904:	13053106 	movwne	r3, #20742	; 0x5106
     908:	11050106 	tstne	r5, r6, lsl #2
     90c:	13058306 	movwne	r8, #21254	; 0x5306
     910:	11050106 	tstne	r5, r6, lsl #2
     914:	05674e06 	strbeq	r4, [r7, #-3590]!	; 0xfffff1fa
     918:	4f030610 	svcmi	0x00030610
     91c:	03110501 	tsteq	r1, #4194304	; 0x400000
     920:	15052e31 	strne	r2, [r5, #-3633]	; 0xfffff1cf
     924:	05832a06 	streq	r2, [r3, #2566]	; 0xa06
     928:	2e010617 	mcrcs	6, 0, r0, cr1, cr7, {0}
     92c:	34061105 	strcc	r1, [r6], #-261	; 0xfffffefb
     930:	01061705 	tsteq	r6, r5, lsl #14
     934:	02002d05 	andeq	r2, r0, #320	; 0x140
     938:	82060104 	andhi	r0, r6, #1
     93c:	02001105 	andeq	r1, r0, #1073741825	; 0x40000001
     940:	2e060104 	adfcss	f0, f6, f4
     944:	02001505 	andeq	r1, r0, #20971520	; 0x1400000
     948:	4b060304 	blmi	181560 <__bss_end__+0x178098>
     94c:	02003105 	andeq	r3, r0, #1073741825	; 0x40000001
     950:	05650304 	strbeq	r0, [r5, #-772]!	; 0xfffffcfc
     954:	04020032 	streq	r0, [r2], #-50	; 0xffffffce
     958:	00010603 	andeq	r0, r1, r3, lsl #12
     95c:	2e030402 	cdpcs	4, 0, cr0, cr3, cr2, {0}
     960:	03040200 	movweq	r0, #16896	; 0x4200
     964:	0310052e 	tsteq	r0, #192937984	; 0xb800000
     968:	052e014c 	streq	r0, [lr, #-332]!	; 0xfffffeb4
     96c:	37030616 	smladcc	r3, r6, r6, r0
     970:	06ba012e 	ldrteq	r0, [sl], lr, lsr #2
     974:	1701052e 	strne	r0, [r1, -lr, lsr #10]
     978:	000a024a 	andeq	r0, sl, sl, asr #4
     97c:	014e0101 	cmpeq	lr, r1, lsl #2
     980:	00030000 	andeq	r0, r3, r0
     984:	0000010d 	andeq	r0, r0, sp, lsl #2
     988:	0efb0102 	cdpeq	1, 15, cr0, cr11, cr2, {0}
     98c:	0101000d 	tsteq	r1, sp
     990:	00000101 	andeq	r0, r0, r1, lsl #2
     994:	00000100 	andeq	r0, r0, r0, lsl #2
     998:	6c2f2e01 	stcvs	14, cr2, [pc], #-4	; 99c <__code_start__-0x7664>
     99c:	00636269 	rsbeq	r6, r3, r9, ror #4
     9a0:	74706f2f 	ldrbtvc	r6, [r0], #-3887	; 0xfffff0d1
     9a4:	6d6f682f 	stclvs	8, cr6, [pc, #-188]!	; 8f0 <__code_start__-0x7710>
     9a8:	65726265 	ldrbvs	r6, [r2, #-613]!	; 0xfffffd9b
     9ac:	65432f77 	strbvs	r2, [r3, #-3959]	; 0xfffff089
     9b0:	72616c6c 	rsbvc	r6, r1, #108, 24	; 0x6c00
     9b4:	6d72612f 	ldfvse	f6, [r2, #-188]!	; 0xffffff44
     9b8:	6e6f6e2d 	cdpvs	14, 6, cr6, cr15, cr13, {1}
     9bc:	61652d65 	cmnvs	r5, r5, ror #26
     9c0:	742d6962 	strtvc	r6, [sp], #-2402	; 0xfffff69e
     9c4:	2f747365 	svccs	0x00747365
     9c8:	30322d39 	eorscc	r2, r2, r9, lsr sp
     9cc:	34713931 	ldrbtcc	r3, [r1], #-2353	; 0xfffff6cf
     9d0:	3173632d 	cmncc	r3, sp, lsr #6
     9d4:	2f653730 	svccs	0x00653730
     9d8:	2d6d7261 	sfmcs	f7, 2, [sp, #-388]!	; 0xfffffe7c
     9dc:	656e6f6e 	strbvs	r6, [lr, #-3950]!	; 0xfffff092
     9e0:	6261652d 	rsbvs	r6, r1, #188743680	; 0xb400000
     9e4:	6e692f69 	cdpvs	15, 6, cr2, cr9, cr9, {3}
     9e8:	64756c63 	ldrbtvs	r6, [r5], #-3171	; 0xfffff39d
     9ec:	79732f65 	ldmdbvc	r3!, {r0, r2, r5, r6, r8, r9, sl, fp, sp}^
     9f0:	6f2f0073 	svcvs	0x002f0073
     9f4:	682f7470 	stmdavs	pc!, {r4, r5, r6, sl, ip, sp, lr}	; <UNPREDICTABLE>
     9f8:	62656d6f 	rsbvs	r6, r5, #7104	; 0x1bc0
     9fc:	2f776572 	svccs	0x00776572
     a00:	6c6c6543 	cfstr64vs	mvdx6, [ip], #-268	; 0xfffffef4
     a04:	612f7261 			; <UNDEFINED> instruction: 0x612f7261
     a08:	6e2d6d72 	mcrvs	13, 1, r6, cr13, cr2, {3}
     a0c:	2d656e6f 	stclcs	14, cr6, [r5, #-444]!	; 0xfffffe44
     a10:	69626165 	stmdbvs	r2!, {r0, r2, r5, r6, r8, sp, lr}^
     a14:	7365742d 	cmnvc	r5, #754974720	; 0x2d000000
     a18:	2d392f74 	ldccs	15, cr2, [r9, #-464]!	; 0xfffffe30
     a1c:	39313032 	ldmdbcc	r1!, {r1, r4, r5, ip, sp}
     a20:	632d3471 			; <UNDEFINED> instruction: 0x632d3471
     a24:	37303173 			; <UNDEFINED> instruction: 0x37303173
     a28:	696c2f65 	stmdbvs	ip!, {r0, r2, r5, r6, r8, r9, sl, fp, sp}^
     a2c:	63672f62 	cmnvs	r7, #392	; 0x188
     a30:	72612f63 	rsbvc	r2, r1, #396	; 0x18c
     a34:	6f6e2d6d 	svcvs	0x006e2d6d
     a38:	652d656e 	strvs	r6, [sp, #-1390]!	; 0xfffffa92
     a3c:	2f696261 	svccs	0x00696261
     a40:	2e322e39 	mrccs	14, 1, r2, cr2, cr9, {1}
     a44:	6e692f31 	mcrvs	15, 3, r2, cr9, cr1, {1}
     a48:	64756c63 	ldrbtvs	r6, [r5], #-3171	; 0xfffff39d
     a4c:	002e0065 	eoreq	r0, lr, r5, rrx
     a50:	74757000 	ldrbtvc	r7, [r5], #-0
     a54:	72616863 	rsbvc	r6, r1, #6488064	; 0x630000
     a58:	0100632e 	tsteq	r0, lr, lsr #6
     a5c:	6f6c0000 	svcvs	0x006c0000
     a60:	682e6b63 	stmdavs	lr!, {r0, r1, r5, r6, r8, r9, fp, sp, lr}
     a64:	00000200 	andeq	r0, r0, r0, lsl #4
     a68:	7079745f 	rsbsvc	r7, r9, pc, asr r4
     a6c:	682e7365 	stmdavs	lr!, {r0, r2, r5, r6, r8, r9, ip, sp, lr}
     a70:	00000200 	andeq	r0, r0, r0, lsl #4
     a74:	64647473 	strbtvs	r7, [r4], #-1139	; 0xfffffb8d
     a78:	682e6665 	stmdavs	lr!, {r0, r2, r5, r6, r9, sl, sp, lr}
     a7c:	00000300 	andeq	r0, r0, r0, lsl #6
     a80:	6e656572 	mcrvs	5, 3, r6, cr5, cr2, {3}
     a84:	00682e74 	rsbeq	r2, r8, r4, ror lr
     a88:	72000002 	andvc	r0, r0, #2, 0
     a8c:	682e6970 	stmdavs	lr!, {r4, r5, r6, r8, fp, sp, lr}
     a90:	00000400 	andeq	r0, r0, r0, lsl #8
     a94:	00230500 	eoreq	r0, r3, r0, lsl #10
     a98:	8b700205 	blhi	1c012b4 <__bss_end__+0x1bf7dec>
     a9c:	0a030000 	beq	c0aa4 <__bss_end__+0xb75dc>
     aa0:	05010601 	streq	r0, [r1, #-1537]	; 0xfffff9ff
     aa4:	064b0605 	strbeq	r0, [fp], -r5, lsl #12
     aa8:	052f062e 	streq	r0, [pc, #-1582]!	; 482 <__code_start__-0x7b7e>
     aac:	05130601 	ldreq	r0, [r3, #-1537]	; 0xfffff9ff
     ab0:	054e0633 	strbeq	r0, [lr, #-1587]	; 0xfffff9cd
     ab4:	13051305 	movwne	r1, #21253	; 0x5305
     ab8:	05050106 	streq	r0, [r5, #-262]	; 0xfffffefa
     abc:	11054b06 	tstne	r5, r6, lsl #22
     ac0:	05050106 	streq	r0, [r5, #-262]	; 0xfffffefa
     ac4:	01052f06 	tsteq	r5, r6, lsl #30
     ac8:	022e1306 	eoreq	r1, lr, #402653184	; 0x18000000
     acc:	01010004 	tsteq	r1, r4
     ad0:	00000132 	andeq	r0, r0, r2, lsr r1
     ad4:	01170003 	tsteq	r7, r3
     ad8:	01020000 	mrseq	r0, (UNDEF: 2)
     adc:	000d0efb 	strdeq	r0, [sp], -fp
     ae0:	01010101 	tsteq	r1, r1, lsl #2
     ae4:	01000000 	mrseq	r0, (UNDEF: 0)
     ae8:	2e010000 	cdpcs	0, 0, cr0, cr1, cr0, {0}
     aec:	6174732f 	cmnvs	r4, pc, lsr #6
     af0:	732d6666 			; <UNDEFINED> instruction: 0x732d6666
     af4:	2f006372 	svccs	0x00006372
     af8:	2f74706f 	svccs	0x0074706f
     afc:	656d6f68 	strbvs	r6, [sp, #-3944]!	; 0xfffff098
     b00:	77657262 	strbvc	r7, [r5, -r2, ror #4]!
     b04:	6c65432f 	stclvs	3, cr4, [r5], #-188	; 0xffffff44
     b08:	2f72616c 	svccs	0x0072616c
     b0c:	2d6d7261 	sfmcs	f7, 2, [sp, #-388]!	; 0xfffffe7c
     b10:	656e6f6e 	strbvs	r6, [lr, #-3950]!	; 0xfffff092
     b14:	6261652d 	rsbvs	r6, r1, #188743680	; 0xb400000
     b18:	65742d69 	ldrbvs	r2, [r4, #-3433]!	; 0xfffff297
     b1c:	392f7473 	stmdbcc	pc!, {r0, r1, r4, r5, r6, sl, ip, sp, lr}	; <UNPREDICTABLE>
     b20:	3130322d 	teqcc	r0, sp, lsr #4
     b24:	2d347139 	ldfcss	f7, [r4, #-228]!	; 0xffffff1c
     b28:	30317363 	eorscc	r7, r1, r3, ror #6
     b2c:	612f6537 			; <UNDEFINED> instruction: 0x612f6537
     b30:	6e2d6d72 	mcrvs	13, 1, r6, cr13, cr2, {3}
     b34:	2d656e6f 	stclcs	14, cr6, [r5, #-444]!	; 0xfffffe44
     b38:	69626165 	stmdbvs	r2!, {r0, r2, r5, r6, r8, sp, lr}^
     b3c:	636e692f 	cmnvs	lr, #770048	; 0xbc000
     b40:	6564756c 	strbvs	r7, [r4, #-1388]!	; 0xfffffa94
     b44:	7379732f 	cmnvc	r9, #-1140850688	; 0xbc000000
     b48:	706f2f00 	rsbvc	r2, pc, r0, lsl #30
     b4c:	6f682f74 	svcvs	0x00682f74
     b50:	7262656d 	rsbvc	r6, r2, #457179136	; 0x1b400000
     b54:	432f7765 			; <UNDEFINED> instruction: 0x432f7765
     b58:	616c6c65 	cmnvs	ip, r5, ror #24
     b5c:	72612f72 	rsbvc	r2, r1, #456	; 0x1c8
     b60:	6f6e2d6d 	svcvs	0x006e2d6d
     b64:	652d656e 	strvs	r6, [sp, #-1390]!	; 0xfffffa92
     b68:	2d696261 	sfmcs	f6, 2, [r9, #-388]!	; 0xfffffe7c
     b6c:	74736574 	ldrbtvc	r6, [r3], #-1396	; 0xfffffa8c
     b70:	322d392f 	eorcc	r3, sp, #770048	; 0xbc000
     b74:	71393130 	teqvc	r9, r0, lsr r1
     b78:	73632d34 	cmnvc	r3, #52, 26	; 0xd00
     b7c:	65373031 	ldrvs	r3, [r7, #-49]!	; 0xffffffcf
     b80:	62696c2f 	rsbvs	r6, r9, #12032	; 0x2f00
     b84:	6363672f 	cmnvs	r3, #12320768	; 0xbc0000
     b88:	6d72612f 	ldfvse	f6, [r2, #-188]!	; 0xffffff44
     b8c:	6e6f6e2d 	cdpvs	14, 6, cr6, cr15, cr13, {1}
     b90:	61652d65 	cmnvs	r5, r5, ror #26
     b94:	392f6962 	stmdbcc	pc!, {r1, r5, r6, r8, fp, sp, lr}	; <UNPREDICTABLE>
     b98:	312e322e 			; <UNDEFINED> instruction: 0x312e322e
     b9c:	636e692f 	cmnvs	lr, #770048	; 0xbc000
     ba0:	6564756c 	strbvs	r7, [r4, #-1388]!	; 0xfffffa94
     ba4:	00002e00 	andeq	r2, r0, r0, lsl #28
     ba8:	61656c63 	cmnvs	r5, r3, ror #24
     bac:	65722d6e 	ldrbvs	r2, [r2, #-3438]!	; 0xfffff292
     bb0:	746f6f62 	strbtvc	r6, [pc], #-3938	; bb8 <__code_start__-0x7448>
     bb4:	0100632e 	tsteq	r0, lr, lsr #6
     bb8:	6f6c0000 	svcvs	0x006c0000
     bbc:	682e6b63 	stmdavs	lr!, {r0, r1, r5, r6, r8, r9, fp, sp, lr}
     bc0:	00000200 	andeq	r0, r0, r0, lsl #4
     bc4:	7079745f 	rsbsvc	r7, r9, pc, asr r4
     bc8:	682e7365 	stmdavs	lr!, {r0, r2, r5, r6, r8, r9, ip, sp, lr}
     bcc:	00000200 	andeq	r0, r0, r0, lsl #4
     bd0:	64647473 	strbtvs	r7, [r4], #-1139	; 0xfffffb8d
     bd4:	682e6665 	stmdavs	lr!, {r0, r2, r5, r6, r9, sl, sp, lr}
     bd8:	00000300 	andeq	r0, r0, r0, lsl #6
     bdc:	6e656572 	mcrvs	5, 3, r6, cr5, cr2, {3}
     be0:	00682e74 	rsbeq	r2, r8, r4, ror lr
     be4:	72000002 	andvc	r0, r0, #2, 0
     be8:	682e6970 	stmdavs	lr!, {r4, r5, r6, r8, fp, sp, lr}
     bec:	00000400 	andeq	r0, r0, r0, lsl #8
     bf0:	00190500 	andseq	r0, r9, r0, lsl #10
     bf4:	8ba00205 	blhi	fe801410 <__bss_end__+0xfe7f7f48>
     bf8:	05150000 	ldreq	r0, [r5, #-0]
     bfc:	2f4b2f05 	svccs	0x004b2f05
     c00:	0004024b 	andeq	r0, r4, fp, asr #4
     c04:	01cb0101 	biceq	r0, fp, r1, lsl #2
     c08:	00030000 	andeq	r0, r3, r0
     c0c:	00000170 	andeq	r0, r0, r0, ror r1
     c10:	0efb0102 	cdpeq	1, 15, cr0, cr11, cr2, {0}
     c14:	0101000d 	tsteq	r1, sp
     c18:	00000101 	andeq	r0, r0, r1, lsl #2
     c1c:	00000100 	andeq	r0, r0, r0, lsl #2
     c20:	732f2e01 			; <UNDEFINED> instruction: 0x732f2e01
     c24:	66666174 			; <UNDEFINED> instruction: 0x66666174
     c28:	6372732d 	cmnvs	r2, #-1275068416	; 0xb4000000
     c2c:	73552f00 	cmpvc	r5, #0, 30
     c30:	2f737265 	svccs	0x00737265
     c34:	616e6f69 	cmnvs	lr, r9, ror #30
     c38:	2f616978 	svccs	0x00616978
     c3c:	34317363 	ldrtcc	r7, [r1], #-867	; 0xfffffc9d
     c40:	632f6530 			; <UNDEFINED> instruction: 0x632f6530
     c44:	30343173 	eorscc	r3, r4, r3, ror r1
     c48:	36322d65 	ldrtcc	r2, [r2], -r5, ror #26
     c4c:	2f6e6977 	svccs	0x006e6977
     c50:	62696c2f 	rsbvs	r6, r9, #12032	; 0x2f00
     c54:	692f6970 	stmdbvs	pc!, {r4, r5, r6, r8, fp, sp, lr}	; <UNPREDICTABLE>
     c58:	756c636e 	strbvc	r6, [ip, #-878]!	; 0xfffffc92
     c5c:	2f006564 	svccs	0x00006564
     c60:	2f74706f 	svccs	0x0074706f
     c64:	656d6f68 	strbvs	r6, [sp, #-3944]!	; 0xfffff098
     c68:	77657262 	strbvc	r7, [r5, -r2, ror #4]!
     c6c:	6c65432f 	stclvs	3, cr4, [r5], #-188	; 0xffffff44
     c70:	2f72616c 	svccs	0x0072616c
     c74:	2d6d7261 	sfmcs	f7, 2, [sp, #-388]!	; 0xfffffe7c
     c78:	656e6f6e 	strbvs	r6, [lr, #-3950]!	; 0xfffff092
     c7c:	6261652d 	rsbvs	r6, r1, #188743680	; 0xb400000
     c80:	65742d69 	ldrbvs	r2, [r4, #-3433]!	; 0xfffff297
     c84:	392f7473 	stmdbcc	pc!, {r0, r1, r4, r5, r6, sl, ip, sp, lr}	; <UNPREDICTABLE>
     c88:	3130322d 	teqcc	r0, sp, lsr #4
     c8c:	2d347139 	ldfcss	f7, [r4, #-228]!	; 0xffffff1c
     c90:	30317363 	eorscc	r7, r1, r3, ror #6
     c94:	6c2f6537 	cfstr32vs	mvfx6, [pc], #-220	; bc0 <__code_start__-0x7440>
     c98:	672f6269 	strvs	r6, [pc, -r9, ror #4]!
     c9c:	612f6363 			; <UNDEFINED> instruction: 0x612f6363
     ca0:	6e2d6d72 	mcrvs	13, 1, r6, cr13, cr2, {3}
     ca4:	2d656e6f 	stclcs	14, cr6, [r5, #-444]!	; 0xfffffe44
     ca8:	69626165 	stmdbvs	r2!, {r0, r2, r5, r6, r8, sp, lr}^
     cac:	322e392f 	eorcc	r3, lr, #770048	; 0xbc000
     cb0:	692f312e 	stmdbvs	pc!, {r1, r2, r3, r5, r8, ip, sp}	; <UNPREDICTABLE>
     cb4:	756c636e 	strbvc	r6, [ip, #-878]!	; 0xfffffc92
     cb8:	2f006564 	svccs	0x00006564
     cbc:	2f74706f 	svccs	0x0074706f
     cc0:	656d6f68 	strbvs	r6, [sp, #-3944]!	; 0xfffff098
     cc4:	77657262 	strbvc	r7, [r5, -r2, ror #4]!
     cc8:	6c65432f 	stclvs	3, cr4, [r5], #-188	; 0xffffff44
     ccc:	2f72616c 	svccs	0x0072616c
     cd0:	2d6d7261 	sfmcs	f7, 2, [sp, #-388]!	; 0xfffffe7c
     cd4:	656e6f6e 	strbvs	r6, [lr, #-3950]!	; 0xfffff092
     cd8:	6261652d 	rsbvs	r6, r1, #188743680	; 0xb400000
     cdc:	65742d69 	ldrbvs	r2, [r4, #-3433]!	; 0xfffff297
     ce0:	392f7473 	stmdbcc	pc!, {r0, r1, r4, r5, r6, sl, ip, sp, lr}	; <UNPREDICTABLE>
     ce4:	3130322d 	teqcc	r0, sp, lsr #4
     ce8:	2d347139 	ldfcss	f7, [r4, #-228]!	; 0xffffff1c
     cec:	30317363 	eorscc	r7, r1, r3, ror #6
     cf0:	612f6537 			; <UNDEFINED> instruction: 0x612f6537
     cf4:	6e2d6d72 	mcrvs	13, 1, r6, cr13, cr2, {3}
     cf8:	2d656e6f 	stclcs	14, cr6, [r5, #-444]!	; 0xfffffe44
     cfc:	69626165 	stmdbvs	r2!, {r0, r2, r5, r6, r8, sp, lr}^
     d00:	636e692f 	cmnvs	lr, #770048	; 0xbc000
     d04:	6564756c 	strbvs	r7, [r4, #-1388]!	; 0xfffffa94
     d08:	7379732f 	cmnvc	r9, #-1140850688	; 0xbc000000
     d0c:	00002e00 	andeq	r2, r0, r0, lsl #28
     d10:	61747363 	cmnvs	r4, r3, ror #6
     d14:	632e7472 			; <UNDEFINED> instruction: 0x632e7472
     d18:	00000100 	andeq	r0, r0, r0, lsl #2
     d1c:	6c637963 			; <UNDEFINED> instruction: 0x6c637963
     d20:	6f632d65 	svcvs	0x00632d65
     d24:	2e746e75 	mrccs	14, 3, r6, cr4, cr5, {3}
     d28:	00020068 	andeq	r0, r2, r8, rrx
     d2c:	64747300 	ldrbtvs	r7, [r4], #-768	; 0xfffffd00
     d30:	2d746e69 	ldclcs	14, cr6, [r4, #-420]!	; 0xfffffe5c
     d34:	2e636367 	cdpcs	3, 6, cr6, cr3, cr7, {3}
     d38:	00030068 	andeq	r0, r3, r8, rrx
     d3c:	636f6c00 	cmnvs	pc, #0, 24
     d40:	00682e6b 	rsbeq	r2, r8, fp, ror #28
     d44:	5f000004 	svcpl	0x00000004
     d48:	65707974 	ldrbvs	r7, [r0, #-2420]!	; 0xfffff68c
     d4c:	00682e73 	rsbeq	r2, r8, r3, ror lr
     d50:	73000004 	movwvc	r0, #4
     d54:	65646474 	strbvs	r6, [r4, #-1140]!	; 0xfffffb8c
     d58:	00682e66 	rsbeq	r2, r8, r6, ror #28
     d5c:	72000003 	andvc	r0, r0, #3, 0
     d60:	746e6565 	strbtvc	r6, [lr], #-1381	; 0xfffffa9b
     d64:	0400682e 	streq	r6, [r0], #-2094	; 0xfffff7d2
     d68:	70720000 	rsbsvc	r0, r2, r0
     d6c:	00682e69 	rsbeq	r2, r8, r9, ror #28
     d70:	6d000005 	stcvs	0, cr0, [r0, #-20]	; 0xffffffec
     d74:	616d6d65 	cmnvs	sp, r5, ror #26
     d78:	00682e70 	rsbeq	r2, r8, r0, ror lr
     d7c:	00000002 	andeq	r0, r0, r2
     d80:	05001905 	streq	r1, [r0, #-2309]	; 0xfffff6fb
     d84:	008bc002 	addeq	ip, fp, r2
     d88:	010d0300 	mrseq	r0, SP_mon
     d8c:	05130505 	ldreq	r0, [r3, #-1285]	; 0xfffffafb
     d90:	05130601 	ldreq	r0, [r3, #-1537]	; 0xfffff9ff
     d94:	09030610 	stmdbeq	r3, {r4, r9, sl}
     d98:	2f020566 	svccs	0x00020566
     d9c:	15030505 	strne	r0, [r3, #-1285]	; 0xfffffafb
     da0:	13131301 	tstne	r3, #67108864	; 0x4000000
     da4:	10060f05 	andne	r0, r6, r5, lsl #30
     da8:	30060a05 	andcc	r0, r6, r5, lsl #20
     dac:	054b0905 	strbeq	r0, [fp, #-2309]	; 0xfffff6fb
     db0:	4a010610 	bmi	425f8 <__bss_end__+0x39130>
     db4:	2f060505 	svccs	0x00060505
     db8:	35010903 	strcc	r0, [r1, #-2307]	; 0xfffff6fd
     dbc:	14050204 	strne	r0, [r5], #-516	; 0xfffffdfc
     dc0:	05014303 	streq	r4, [r1, #-771]	; 0xfffffcfd
     dc4:	04131305 	ldreq	r1, [r3], #-773	; 0xfffffcfb
     dc8:	00c20301 	sbceq	r0, r2, r1, lsl #6
     dcc:	3102054a 	tstcc	r2, sl, asr #10
     dd0:	01000602 	tsteq	r0, r2, lsl #12
     dd4:	00014301 	andeq	r4, r1, r1, lsl #6
     dd8:	11000300 	mrsne	r0, LR_irq
     ddc:	02000001 	andeq	r0, r0, #1, 0
     de0:	0d0efb01 	vstreq	d15, [lr, #-4]
     de4:	01010100 	mrseq	r0, (UNDEF: 17)
     de8:	00000001 	andeq	r0, r0, r1
     dec:	01000001 	tsteq	r0, r1
     df0:	74732f2e 	ldrbtvc	r2, [r3], #-3886	; 0xfffff0d2
     df4:	2d666661 	stclcs	6, cr6, [r6, #-388]!	; 0xfffffe7c
     df8:	00637273 	rsbeq	r7, r3, r3, ror r2
     dfc:	74706f2f 	ldrbtvc	r6, [r0], #-3887	; 0xfffff0d1
     e00:	6d6f682f 	stclvs	8, cr6, [pc, #-188]!	; d4c <__code_start__-0x72b4>
     e04:	65726265 	ldrbvs	r6, [r2, #-613]!	; 0xfffffd9b
     e08:	65432f77 	strbvs	r2, [r3, #-3959]	; 0xfffff089
     e0c:	72616c6c 	rsbvc	r6, r1, #108, 24	; 0x6c00
     e10:	6d72612f 	ldfvse	f6, [r2, #-188]!	; 0xffffff44
     e14:	6e6f6e2d 	cdpvs	14, 6, cr6, cr15, cr13, {1}
     e18:	61652d65 	cmnvs	r5, r5, ror #26
     e1c:	742d6962 	strtvc	r6, [sp], #-2402	; 0xfffff69e
     e20:	2f747365 	svccs	0x00747365
     e24:	30322d39 	eorscc	r2, r2, r9, lsr sp
     e28:	34713931 	ldrbtcc	r3, [r1], #-2353	; 0xfffff6cf
     e2c:	3173632d 	cmncc	r3, sp, lsr #6
     e30:	2f653730 	svccs	0x00653730
     e34:	2d6d7261 	sfmcs	f7, 2, [sp, #-388]!	; 0xfffffe7c
     e38:	656e6f6e 	strbvs	r6, [lr, #-3950]!	; 0xfffff092
     e3c:	6261652d 	rsbvs	r6, r1, #188743680	; 0xb400000
     e40:	6e692f69 	cdpvs	15, 6, cr2, cr9, cr9, {3}
     e44:	64756c63 	ldrbtvs	r6, [r5], #-3171	; 0xfffff39d
     e48:	79732f65 	ldmdbvc	r3!, {r0, r2, r5, r6, r8, r9, sl, fp, sp}^
     e4c:	6f2f0073 	svcvs	0x002f0073
     e50:	682f7470 	stmdavs	pc!, {r4, r5, r6, sl, ip, sp, lr}	; <UNPREDICTABLE>
     e54:	62656d6f 	rsbvs	r6, r5, #7104	; 0x1bc0
     e58:	2f776572 	svccs	0x00776572
     e5c:	6c6c6543 	cfstr64vs	mvdx6, [ip], #-268	; 0xfffffef4
     e60:	612f7261 			; <UNDEFINED> instruction: 0x612f7261
     e64:	6e2d6d72 	mcrvs	13, 1, r6, cr13, cr2, {3}
     e68:	2d656e6f 	stclcs	14, cr6, [r5, #-444]!	; 0xfffffe44
     e6c:	69626165 	stmdbvs	r2!, {r0, r2, r5, r6, r8, sp, lr}^
     e70:	7365742d 	cmnvc	r5, #754974720	; 0x2d000000
     e74:	2d392f74 	ldccs	15, cr2, [r9, #-464]!	; 0xfffffe30
     e78:	39313032 	ldmdbcc	r1!, {r1, r4, r5, ip, sp}
     e7c:	632d3471 			; <UNDEFINED> instruction: 0x632d3471
     e80:	37303173 			; <UNDEFINED> instruction: 0x37303173
     e84:	696c2f65 	stmdbvs	ip!, {r0, r2, r5, r6, r8, r9, sl, fp, sp}^
     e88:	63672f62 	cmnvs	r7, #392	; 0x188
     e8c:	72612f63 	rsbvc	r2, r1, #396	; 0x18c
     e90:	6f6e2d6d 	svcvs	0x006e2d6d
     e94:	652d656e 	strvs	r6, [sp, #-1390]!	; 0xfffffa92
     e98:	2f696261 	svccs	0x00696261
     e9c:	2e322e39 	mrccs	14, 1, r2, cr2, cr9, {1}
     ea0:	6e692f31 	mcrvs	15, 3, r2, cr9, cr1, {1}
     ea4:	64756c63 	ldrbtvs	r6, [r5], #-3171	; 0xfffff39d
     ea8:	002e0065 	eoreq	r0, lr, r5, rrx
     eac:	62657200 	rsbvs	r7, r5, #0, 4
     eb0:	2e746f6f 	cdpcs	15, 7, cr6, cr4, cr15, {3}
     eb4:	00010063 	andeq	r0, r1, r3, rrx
     eb8:	636f6c00 	cmnvs	pc, #0, 24
     ebc:	00682e6b 	rsbeq	r2, r8, fp, ror #28
     ec0:	5f000002 	svcpl	0x00000002
     ec4:	65707974 	ldrbvs	r7, [r0, #-2420]!	; 0xfffff68c
     ec8:	00682e73 	rsbeq	r2, r8, r3, ror lr
     ecc:	73000002 	movwvc	r0, #2
     ed0:	65646474 	strbvs	r6, [r4, #-1140]!	; 0xfffffb8c
     ed4:	00682e66 	rsbeq	r2, r8, r6, ror #28
     ed8:	72000003 	andvc	r0, r0, #3, 0
     edc:	746e6565 	strbtvc	r6, [lr], #-1381	; 0xfffffa9b
     ee0:	0200682e 	andeq	r6, r0, #3014656	; 0x2e0000
     ee4:	70720000 	rsbsvc	r0, r2, r0
     ee8:	00682e69 	rsbeq	r2, r8, r9, ror #28
     eec:	00000004 	andeq	r0, r0, r4
     ef0:	05001705 	streq	r1, [r0, #-1797]	; 0xfffff8fb
     ef4:	008c0402 	addeq	r0, ip, r2, lsl #8
     ef8:	05051500 	streq	r1, [r5, #-1280]	; 0xfffffb00
     efc:	134d2f2f 	movtne	r2, #57135	; 0xdf2f
     f00:	67151313 			; <UNDEFINED> instruction: 0x67151313
     f04:	01040200 	mrseq	r0, R12_usr
     f08:	000d0567 	andeq	r0, sp, r7, ror #10
     f0c:	01010402 	tsteq	r1, r2, lsl #8
     f10:	02000a05 	andeq	r0, r0, #20480	; 0x5000
     f14:	02010104 	andeq	r0, r1, #1
     f18:	0101000a 	tsteq	r1, sl
     f1c:	00000197 	muleq	r0, r7, r1
     f20:	01200003 			; <UNDEFINED> instruction: 0x01200003
     f24:	01020000 	mrseq	r0, (UNDEF: 2)
     f28:	000d0efb 	strdeq	r0, [sp], -fp
     f2c:	01010101 	tsteq	r1, r1, lsl #2
     f30:	01000000 	mrseq	r0, (UNDEF: 0)
     f34:	2e010000 	cdpcs	0, 0, cr0, cr1, cr0, {0}
     f38:	6174732f 	cmnvs	r4, pc, lsr #6
     f3c:	732d6666 			; <UNDEFINED> instruction: 0x732d6666
     f40:	2f006372 	svccs	0x00006372
     f44:	2f74706f 	svccs	0x0074706f
     f48:	656d6f68 	strbvs	r6, [sp, #-3944]!	; 0xfffff098
     f4c:	77657262 	strbvc	r7, [r5, -r2, ror #4]!
     f50:	6c65432f 	stclvs	3, cr4, [r5], #-188	; 0xffffff44
     f54:	2f72616c 	svccs	0x0072616c
     f58:	2d6d7261 	sfmcs	f7, 2, [sp, #-388]!	; 0xfffffe7c
     f5c:	656e6f6e 	strbvs	r6, [lr, #-3950]!	; 0xfffff092
     f60:	6261652d 	rsbvs	r6, r1, #188743680	; 0xb400000
     f64:	65742d69 	ldrbvs	r2, [r4, #-3433]!	; 0xfffff297
     f68:	392f7473 	stmdbcc	pc!, {r0, r1, r4, r5, r6, sl, ip, sp, lr}	; <UNPREDICTABLE>
     f6c:	3130322d 	teqcc	r0, sp, lsr #4
     f70:	2d347139 	ldfcss	f7, [r4, #-228]!	; 0xffffff1c
     f74:	30317363 	eorscc	r7, r1, r3, ror #6
     f78:	6c2f6537 	cfstr32vs	mvfx6, [pc], #-220	; ea4 <__code_start__-0x715c>
     f7c:	672f6269 	strvs	r6, [pc, -r9, ror #4]!
     f80:	612f6363 			; <UNDEFINED> instruction: 0x612f6363
     f84:	6e2d6d72 	mcrvs	13, 1, r6, cr13, cr2, {3}
     f88:	2d656e6f 	stclcs	14, cr6, [r5, #-444]!	; 0xfffffe44
     f8c:	69626165 	stmdbvs	r2!, {r0, r2, r5, r6, r8, sp, lr}^
     f90:	322e392f 	eorcc	r3, lr, #770048	; 0xbc000
     f94:	692f312e 	stmdbvs	pc!, {r1, r2, r3, r5, r8, ip, sp}	; <UNPREDICTABLE>
     f98:	756c636e 	strbvc	r6, [ip, #-878]!	; 0xfffffc92
     f9c:	2f006564 	svccs	0x00006564
     fa0:	2f74706f 	svccs	0x0074706f
     fa4:	656d6f68 	strbvs	r6, [sp, #-3944]!	; 0xfffff098
     fa8:	77657262 	strbvc	r7, [r5, -r2, ror #4]!
     fac:	6c65432f 	stclvs	3, cr4, [r5], #-188	; 0xffffff44
     fb0:	2f72616c 	svccs	0x0072616c
     fb4:	2d6d7261 	sfmcs	f7, 2, [sp, #-388]!	; 0xfffffe7c
     fb8:	656e6f6e 	strbvs	r6, [lr, #-3950]!	; 0xfffff092
     fbc:	6261652d 	rsbvs	r6, r1, #188743680	; 0xb400000
     fc0:	65742d69 	ldrbvs	r2, [r4, #-3433]!	; 0xfffff297
     fc4:	392f7473 	stmdbcc	pc!, {r0, r1, r4, r5, r6, sl, ip, sp, lr}	; <UNPREDICTABLE>
     fc8:	3130322d 	teqcc	r0, sp, lsr #4
     fcc:	2d347139 	ldfcss	f7, [r4, #-228]!	; 0xffffff1c
     fd0:	30317363 	eorscc	r7, r1, r3, ror #6
     fd4:	612f6537 			; <UNDEFINED> instruction: 0x612f6537
     fd8:	6e2d6d72 	mcrvs	13, 1, r6, cr13, cr2, {3}
     fdc:	2d656e6f 	stclcs	14, cr6, [r5, #-444]!	; 0xfffffe44
     fe0:	69626165 	stmdbvs	r2!, {r0, r2, r5, r6, r8, sp, lr}^
     fe4:	636e692f 	cmnvs	lr, #770048	; 0xbc000
     fe8:	6564756c 	strbvs	r7, [r4, #-1388]!	; 0xfffffa94
     fec:	7379732f 	cmnvc	r9, #-1140850688	; 0xbc000000
     ff0:	00002e00 	andeq	r2, r0, r0, lsl #28
     ff4:	656d6974 	strbvs	r6, [sp, #-2420]!	; 0xfffff68c
     ff8:	00632e72 	rsbeq	r2, r3, r2, ror lr
     ffc:	73000001 	movwvc	r0, #1
    1000:	6e696474 	mcrvs	4, 3, r6, cr9, cr4, {3}
    1004:	63672d74 	cmnvs	r7, #116, 26	; 0x1d00
    1008:	00682e63 	rsbeq	r2, r8, r3, ror #28
    100c:	6c000002 	stcvs	0, cr0, [r0], {2}
    1010:	2e6b636f 	cdpcs	3, 6, cr6, cr11, cr15, {3}
    1014:	00030068 	andeq	r0, r3, r8, rrx
    1018:	79745f00 	ldmdbvc	r4!, {r8, r9, sl, fp, ip, lr}^
    101c:	2e736570 	mrccs	5, 3, r6, cr3, cr0, {3}
    1020:	00030068 	andeq	r0, r3, r8, rrx
    1024:	64747300 	ldrbtvs	r7, [r4], #-768	; 0xfffffd00
    1028:	2e666564 	cdpcs	5, 6, cr6, cr6, cr4, {3}
    102c:	00020068 	andeq	r0, r2, r8, rrx
    1030:	65657200 	strbvs	r7, [r5, #-512]!	; 0xfffffe00
    1034:	682e746e 	stmdavs	lr!, {r1, r2, r3, r5, r6, sl, ip, sp, lr}
    1038:	00000300 	andeq	r0, r0, r0, lsl #6
    103c:	2e697072 	mcrcs	0, 3, r7, cr9, cr2, {3}
    1040:	00040068 	andeq	r0, r4, r8, rrx
    1044:	23050000 	movwcs	r0, #20480	; 0x5000
    1048:	40020500 	andmi	r0, r2, r0, lsl #10
    104c:	1500008c 	strne	r0, [r0, #-140]	; 0xffffff74
    1050:	052f0505 	streq	r0, [pc, #-1285]!	; b53 <__code_start__-0x74ad>
    1054:	0501060c 	streq	r0, [r1, #-1548]	; 0xfffff9f4
    1058:	1f054b01 	svcne	0x00054b01
    105c:	05054f06 	streq	r4, [r5, #-3846]	; 0xfffff0fa
    1060:	12052f2f 	andne	r2, r5, #188	; 0xbc
    1064:	05050106 	streq	r0, [r5, #-262]	; 0xfffffefa
    1068:	052f4b06 	streq	r4, [pc, #-2822]!	; 56a <__code_start__-0x7a96>
    106c:	05130601 	ldreq	r0, [r3, #-1537]	; 0xfffff9ff
    1070:	064c061c 			; <UNDEFINED> instruction: 0x064c061c
    1074:	06050501 	streq	r0, [r5], -r1, lsl #10
    1078:	0612054b 	ldreq	r0, [r2], -fp, asr #10
    107c:	05052e01 	streq	r2, [r5, #-3585]	; 0xfffff1ff
    1080:	09052f06 	stmdbeq	r5, {r1, r2, r8, r9, sl, fp, sp}
    1084:	06160513 			; <UNDEFINED> instruction: 0x06160513
    1088:	06090501 	streq	r0, [r9], -r1, lsl #10
    108c:	0610052f 	ldreq	r0, [r0], -pc, lsr #10
    1090:	2e0c0501 	cfsh32cs	mvfx0, mvfx12, #1
    1094:	6c061c05 	stcvs	12, cr1, [r6], {5}
    1098:	05050106 	streq	r0, [r5, #-262]	; 0xfffffefa
    109c:	4a062f06 	bmi	18ccbc <__bss_end__+0x1837f4>
    10a0:	054b0105 	strbeq	r0, [fp, #-261]	; 0xfffffefb
    10a4:	0631061e 			; <UNDEFINED> instruction: 0x0631061e
    10a8:	06050501 	streq	r0, [r5], -r1, lsl #10
    10ac:	054a062f 	strbeq	r0, [sl, #-1583]	; 0xfffff9d1
    10b0:	02024b01 	andeq	r4, r2, #1024	; 0x400
    10b4:	be010100 	adflts	f0, f1, f0
    10b8:	03000002 	movweq	r0, #2
    10bc:	00016000 	andeq	r6, r1, r0
    10c0:	fb010200 	blx	418ca <__bss_end__+0x38402>
    10c4:	01000d0e 	tsteq	r0, lr, lsl #26
    10c8:	00010101 	andeq	r0, r1, r1, lsl #2
    10cc:	00010000 	andeq	r0, r1, r0
    10d0:	72730100 	rsbsvc	r0, r3, #0
    10d4:	6f2f0063 	svcvs	0x002f0063
    10d8:	682f7470 	stmdavs	pc!, {r4, r5, r6, sl, ip, sp, lr}	; <UNPREDICTABLE>
    10dc:	62656d6f 	rsbvs	r6, r5, #7104	; 0x1bc0
    10e0:	2f776572 	svccs	0x00776572
    10e4:	6c6c6543 	cfstr64vs	mvdx6, [ip], #-268	; 0xfffffef4
    10e8:	612f7261 			; <UNDEFINED> instruction: 0x612f7261
    10ec:	6e2d6d72 	mcrvs	13, 1, r6, cr13, cr2, {3}
    10f0:	2d656e6f 	stclcs	14, cr6, [r5, #-444]!	; 0xfffffe44
    10f4:	69626165 	stmdbvs	r2!, {r0, r2, r5, r6, r8, sp, lr}^
    10f8:	7365742d 	cmnvc	r5, #754974720	; 0x2d000000
    10fc:	2d392f74 	ldccs	15, cr2, [r9, #-464]!	; 0xfffffe30
    1100:	39313032 	ldmdbcc	r1!, {r1, r4, r5, ip, sp}
    1104:	632d3471 			; <UNDEFINED> instruction: 0x632d3471
    1108:	37303173 			; <UNDEFINED> instruction: 0x37303173
    110c:	696c2f65 	stmdbvs	ip!, {r0, r2, r5, r6, r8, r9, sl, fp, sp}^
    1110:	63672f62 	cmnvs	r7, #392	; 0x188
    1114:	72612f63 	rsbvc	r2, r1, #396	; 0x18c
    1118:	6f6e2d6d 	svcvs	0x006e2d6d
    111c:	652d656e 	strvs	r6, [sp, #-1390]!	; 0xfffffa92
    1120:	2f696261 	svccs	0x00696261
    1124:	2e322e39 	mrccs	14, 1, r2, cr2, cr9, {1}
    1128:	6e692f31 	mcrvs	15, 3, r2, cr9, cr1, {1}
    112c:	64756c63 	ldrbtvs	r6, [r5], #-3171	; 0xfffff39d
    1130:	6f2f0065 	svcvs	0x002f0065
    1134:	682f7470 	stmdavs	pc!, {r4, r5, r6, sl, ip, sp, lr}	; <UNPREDICTABLE>
    1138:	62656d6f 	rsbvs	r6, r5, #7104	; 0x1bc0
    113c:	2f776572 	svccs	0x00776572
    1140:	6c6c6543 	cfstr64vs	mvdx6, [ip], #-268	; 0xfffffef4
    1144:	612f7261 			; <UNDEFINED> instruction: 0x612f7261
    1148:	6e2d6d72 	mcrvs	13, 1, r6, cr13, cr2, {3}
    114c:	2d656e6f 	stclcs	14, cr6, [r5, #-444]!	; 0xfffffe44
    1150:	69626165 	stmdbvs	r2!, {r0, r2, r5, r6, r8, sp, lr}^
    1154:	7365742d 	cmnvc	r5, #754974720	; 0x2d000000
    1158:	2d392f74 	ldccs	15, cr2, [r9, #-464]!	; 0xfffffe30
    115c:	39313032 	ldmdbcc	r1!, {r1, r4, r5, ip, sp}
    1160:	632d3471 			; <UNDEFINED> instruction: 0x632d3471
    1164:	37303173 			; <UNDEFINED> instruction: 0x37303173
    1168:	72612f65 	rsbvc	r2, r1, #404	; 0x194
    116c:	6f6e2d6d 	svcvs	0x006e2d6d
    1170:	652d656e 	strvs	r6, [sp, #-1390]!	; 0xfffffa92
    1174:	2f696261 	svccs	0x00696261
    1178:	6c636e69 	stclvs	14, cr6, [r3], #-420	; 0xfffffe5c
    117c:	2f656475 	svccs	0x00656475
    1180:	00737973 	rsbseq	r7, r3, r3, ror r9
    1184:	552f002e 	strpl	r0, [pc, #-46]!	; 115e <__code_start__-0x6ea2>
    1188:	73726573 	cmnvc	r2, #482344960	; 0x1cc00000
    118c:	6e6f692f 	vmulvs.f16	s13, s30, s31	; <UNPREDICTABLE>
    1190:	61697861 	cmnvs	r9, r1, ror #16
    1194:	3173632f 	cmncc	r3, pc, lsr #6
    1198:	2f653034 	svccs	0x00653034
    119c:	34317363 	ldrtcc	r7, [r1], #-867	; 0xfffffc9d
    11a0:	322d6530 	eorcc	r6, sp, #48, 10	; 0xc000000
    11a4:	6e697736 	mcrvs	7, 3, r7, cr9, cr6, {1}
    11a8:	696c2f2f 	stmdbvs	ip!, {r0, r1, r2, r3, r5, r8, r9, sl, fp, sp}^
    11ac:	2f697062 	svccs	0x00697062
    11b0:	6c636e69 	stclvs	14, cr6, [r3], #-420	; 0xfffffe5c
    11b4:	00656475 	rsbeq	r6, r5, r5, ror r4
    11b8:	72617500 	rsbvc	r7, r1, #0, 10
    11bc:	00632e74 	rsbeq	r2, r3, r4, ror lr
    11c0:	73000001 	movwvc	r0, #1
    11c4:	6e696474 	mcrvs	4, 3, r6, cr9, cr4, {3}
    11c8:	63672d74 	cmnvs	r7, #116, 26	; 0x1d00
    11cc:	00682e63 	rsbeq	r2, r8, r3, ror #28
    11d0:	6c000002 	stcvs	0, cr0, [r0], {2}
    11d4:	2e6b636f 	cdpcs	3, 6, cr6, cr11, cr15, {3}
    11d8:	00030068 	andeq	r0, r3, r8, rrx
    11dc:	79745f00 	ldmdbvc	r4!, {r8, r9, sl, fp, ip, lr}^
    11e0:	2e736570 	mrccs	5, 3, r6, cr3, cr0, {3}
    11e4:	00030068 	andeq	r0, r3, r8, rrx
    11e8:	64747300 	ldrbtvs	r7, [r4], #-768	; 0xfffffd00
    11ec:	2e666564 	cdpcs	5, 6, cr6, cr6, cr4, {3}
    11f0:	00020068 	andeq	r0, r2, r8, rrx
    11f4:	65657200 	strbvs	r7, [r5, #-512]!	; 0xfffffe00
    11f8:	682e746e 	stmdavs	lr!, {r1, r2, r3, r5, r6, sl, ip, sp, lr}
    11fc:	00000300 	andeq	r0, r0, r0, lsl #6
    1200:	2e697072 	mcrcs	0, 3, r7, cr9, cr2, {3}
    1204:	00040068 	andeq	r0, r4, r8, rrx
    1208:	2d777300 	ldclcs	3, cr7, [r7, #-0]
    120c:	74726175 	ldrbtvc	r6, [r2], #-373	; 0xfffffe8b
    1210:	0500682e 	streq	r6, [r0, #-2094]	; 0xfffff7d2
    1214:	70670000 	rsbvc	r0, r7, r0
    1218:	682e6f69 	stmdavs	lr!, {r0, r3, r5, r6, r8, r9, sl, fp, sp, lr}
    121c:	00000500 	andeq	r0, r0, r0, lsl #10
    1220:	00160500 	andseq	r0, r6, r0, lsl #10
    1224:	8cc40205 	sfmhi	f0, 2, [r4], {5}
    1228:	ec030000 	stc	0, cr0, [r3], {-0}
    122c:	05050100 	streq	r0, [r5, #-256]	; 0xffffff00
    1230:	67672f2f 	strbvs	r2, [r7, -pc, lsr #30]!
    1234:	061b0530 			; <UNDEFINED> instruction: 0x061b0530
    1238:	06050501 	streq	r0, [r5], -r1, lsl #10
    123c:	06131367 	ldreq	r1, [r3], -r7, ror #6
    1240:	304b062e 	subcc	r0, fp, lr, lsr #12
    1244:	67676783 	strbvs	r6, [r7, -r3, lsl #15]!
    1248:	05686767 	strbeq	r6, [r8, #-1895]!	; 0xfffff899
    124c:	05300601 	ldreq	r0, [r0, #-1537]!	; 0xfffff9ff
    1250:	1e030619 	mcrne	6, 0, r0, cr3, cr9, {0}
    1254:	300505f2 	strdcc	r0, [r5], -r2
    1258:	01061605 	tsteq	r6, r5, lsl #12
    125c:	4b060505 	blmi	182678 <__bss_end__+0x1791b0>
    1260:	06080513 			; <UNDEFINED> instruction: 0x06080513
    1264:	4f0c0501 	svcmi	0x000c0501
    1268:	2b10052e 	blcs	402728 <__bss_end__+0x3f9260>
    126c:	05320105 	ldreq	r0, [r2, #-261]!	; 0xfffffefb
    1270:	064e061a 			; <UNDEFINED> instruction: 0x064e061a
    1274:	06050501 	streq	r0, [r5], -r1, lsl #10
    1278:	1f05304b 	svcne	0x0005304b
    127c:	01040200 	mrseq	r0, R12_usr
    1280:	000b0501 	andeq	r0, fp, r1, lsl #10
    1284:	01010402 	tsteq	r1, r2, lsl #8
    1288:	02000d05 	andeq	r0, r0, #320	; 0x140
    128c:	01060104 	tsteq	r6, r4, lsl #2
    1290:	02000b05 	andeq	r0, r0, #5120	; 0x1400
    1294:	052e0104 	streq	r0, [lr, #-260]!	; 0xfffffefc
    1298:	674b0605 	strbvs	r0, [fp, -r5, lsl #12]
    129c:	0601052f 	streq	r0, [r1], -pc, lsr #10
    12a0:	06190514 			; <UNDEFINED> instruction: 0x06190514
    12a4:	3005056b 	andcc	r0, r5, fp, ror #10
    12a8:	01061605 	tsteq	r6, r5, lsl #12
    12ac:	4b060505 	blmi	1826c8 <__bss_end__+0x179200>
    12b0:	06010514 			; <UNDEFINED> instruction: 0x06010514
    12b4:	15052e13 	strne	r2, [r5, #-3603]	; 0xfffff1ed
    12b8:	4a540306 	bmi	1501ed8 <__bss_end__+0x14f8a10>
    12bc:	2f2f0505 	svccs	0x002f0505
    12c0:	02001f05 	andeq	r1, r0, #5, 30
    12c4:	05010104 	streq	r0, [r1, #-260]	; 0xfffffefc
    12c8:	0402000b 	streq	r0, [r2], #-11
    12cc:	0d050101 	stfeqs	f0, [r5, #-4]
    12d0:	01040200 	mrseq	r0, R12_usr
    12d4:	0b050106 	bleq	1416f4 <__bss_end__+0x13822c>
    12d8:	01040200 	mrseq	r0, R12_usr
    12dc:	0605052e 	streq	r0, [r5], -lr, lsr #10
    12e0:	061b054c 	ldreq	r0, [fp], -ip, asr #10
    12e4:	06050501 	streq	r0, [r5], -r1, lsl #10
    12e8:	01052f67 	tsteq	r5, r7, ror #30
    12ec:	1b051306 	blne	145f0c <__bss_end__+0x13ca44>
    12f0:	662a0306 	strtvs	r0, [sl], -r6, lsl #6
    12f4:	052f0505 	streq	r0, [pc, #-1285]!	; df7 <__code_start__-0x7209>
    12f8:	05010609 	streq	r0, [r1, #-1545]	; 0xfffff9f7
    12fc:	05052e07 	streq	r2, [r5, #-3591]	; 0xfffff1f9
    1300:	0c054c06 	stceq	12, cr4, [r5], {6}
    1304:	10050106 	andne	r0, r5, r6, lsl #2
    1308:	30010549 	andcc	r0, r1, r9, asr #10
    130c:	33061c05 	movwcc	r1, #27653	; 0x6c05
    1310:	2f2f0505 	svccs	0x002f0505
    1314:	01061605 	tsteq	r6, r5, lsl #12
    1318:	4b060505 	blmi	182734 <__bss_end__+0x17926c>
    131c:	060c0513 			; <UNDEFINED> instruction: 0x060c0513
    1320:	05052e01 	streq	r2, [r5, #-3585]	; 0xfffff1ff
    1324:	08052f06 	stmdaeq	r5, {r1, r2, r8, r9, sl, fp, sp}
    1328:	05050106 	streq	r0, [r5, #-262]	; 0xfffffefa
    132c:	052f4e06 	streq	r4, [pc, #-3590]!	; 52e <__code_start__-0x7ad2>
    1330:	0501060c 	streq	r0, [r1, #-1548]	; 0xfffff9f4
    1334:	09052f01 	stmdbeq	r5, {r0, r8, r9, sl, fp, sp}
    1338:	052f2906 	streq	r2, [pc, #-2310]!	; a3a <__code_start__-0x75c6>
    133c:	05010610 	streq	r0, [r1, #-1552]	; 0xfffff9f0
    1340:	0e03061a 	mcreq	6, 0, r0, cr3, cr10, {0}
    1344:	2f050566 	svccs	0x00050566
    1348:	05010a05 	streq	r0, [r1, #-2565]	; 0xfffff5fb
    134c:	0501060c 	streq	r0, [r1, #-1548]	; 0xfffff9f4
    1350:	09052e0a 	stmdbeq	r5, {r1, r3, r9, sl, fp, sp}
    1354:	19054b06 	stmdbne	r5, {r1, r2, r8, r9, fp, lr}
    1358:	4a7fa003 	bmi	1fe936c <__bss_end__+0x1fdfea4>
    135c:	2f2f0505 	svccs	0x002f0505
    1360:	0530672f 	ldreq	r6, [r0, #-1839]!	; 0xfffff8d1
    1364:	0501061b 	streq	r0, [r1, #-1563]	; 0xfffff9e5
    1368:	13670605 	cmnne	r7, #5242880	; 0x500000
    136c:	4b062e06 	blmi	18cb8c <__bss_end__+0x1836c4>
    1370:	2f060105 	svccs	0x00060105
    1374:	01000602 	tsteq	r0, r2, lsl #12
    1378:	0002cc01 	andeq	ip, r2, r1, lsl #24
    137c:	43000300 	movwmi	r0, #768	; 0x300
    1380:	02000001 	andeq	r0, r0, #1, 0
    1384:	0d0efb01 	vstreq	d15, [lr, #-4]
    1388:	01010100 	mrseq	r0, (UNDEF: 17)
    138c:	00000001 	andeq	r0, r0, r1
    1390:	01000001 	tsteq	r0, r1
    1394:	00637273 	rsbeq	r7, r3, r3, ror r2
    1398:	74706f2f 	ldrbtvc	r6, [r0], #-3887	; 0xfffff0d1
    139c:	6d6f682f 	stclvs	8, cr6, [pc, #-188]!	; 12e8 <__code_start__-0x6d18>
    13a0:	65726265 	ldrbvs	r6, [r2, #-613]!	; 0xfffffd9b
    13a4:	65432f77 	strbvs	r2, [r3, #-3959]	; 0xfffff089
    13a8:	72616c6c 	rsbvc	r6, r1, #108, 24	; 0x6c00
    13ac:	6d72612f 	ldfvse	f6, [r2, #-188]!	; 0xffffff44
    13b0:	6e6f6e2d 	cdpvs	14, 6, cr6, cr15, cr13, {1}
    13b4:	61652d65 	cmnvs	r5, r5, ror #26
    13b8:	742d6962 	strtvc	r6, [sp], #-2402	; 0xfffff69e
    13bc:	2f747365 	svccs	0x00747365
    13c0:	30322d39 	eorscc	r2, r2, r9, lsr sp
    13c4:	34713931 	ldrbtcc	r3, [r1], #-2353	; 0xfffff6cf
    13c8:	3173632d 	cmncc	r3, sp, lsr #6
    13cc:	2f653730 	svccs	0x00653730
    13d0:	2d6d7261 	sfmcs	f7, 2, [sp, #-388]!	; 0xfffffe7c
    13d4:	656e6f6e 	strbvs	r6, [lr, #-3950]!	; 0xfffff092
    13d8:	6261652d 	rsbvs	r6, r1, #188743680	; 0xb400000
    13dc:	6e692f69 	cdpvs	15, 6, cr2, cr9, cr9, {3}
    13e0:	64756c63 	ldrbtvs	r6, [r5], #-3171	; 0xfffff39d
    13e4:	79732f65 	ldmdbvc	r3!, {r0, r2, r5, r6, r8, r9, sl, fp, sp}^
    13e8:	6f2f0073 	svcvs	0x002f0073
    13ec:	682f7470 	stmdavs	pc!, {r4, r5, r6, sl, ip, sp, lr}	; <UNPREDICTABLE>
    13f0:	62656d6f 	rsbvs	r6, r5, #7104	; 0x1bc0
    13f4:	2f776572 	svccs	0x00776572
    13f8:	6c6c6543 	cfstr64vs	mvdx6, [ip], #-268	; 0xfffffef4
    13fc:	612f7261 			; <UNDEFINED> instruction: 0x612f7261
    1400:	6e2d6d72 	mcrvs	13, 1, r6, cr13, cr2, {3}
    1404:	2d656e6f 	stclcs	14, cr6, [r5, #-444]!	; 0xfffffe44
    1408:	69626165 	stmdbvs	r2!, {r0, r2, r5, r6, r8, sp, lr}^
    140c:	7365742d 	cmnvc	r5, #754974720	; 0x2d000000
    1410:	2d392f74 	ldccs	15, cr2, [r9, #-464]!	; 0xfffffe30
    1414:	39313032 	ldmdbcc	r1!, {r1, r4, r5, ip, sp}
    1418:	632d3471 			; <UNDEFINED> instruction: 0x632d3471
    141c:	37303173 			; <UNDEFINED> instruction: 0x37303173
    1420:	696c2f65 	stmdbvs	ip!, {r0, r2, r5, r6, r8, r9, sl, fp, sp}^
    1424:	63672f62 	cmnvs	r7, #392	; 0x188
    1428:	72612f63 	rsbvc	r2, r1, #396	; 0x18c
    142c:	6f6e2d6d 	svcvs	0x006e2d6d
    1430:	652d656e 	strvs	r6, [sp, #-1390]!	; 0xfffffa92
    1434:	2f696261 	svccs	0x00696261
    1438:	2e322e39 	mrccs	14, 1, r2, cr2, cr9, {1}
    143c:	6e692f31 	mcrvs	15, 3, r2, cr9, cr1, {1}
    1440:	64756c63 	ldrbtvs	r6, [r5], #-3171	; 0xfffff39d
    1444:	002e0065 	eoreq	r0, lr, r5, rrx
    1448:	6573552f 	ldrbvs	r5, [r3, #-1327]!	; 0xfffffad1
    144c:	692f7372 	stmdbvs	pc!, {r1, r4, r5, r6, r8, r9, ip, sp, lr}	; <UNPREDICTABLE>
    1450:	78616e6f 	stmdavc	r1!, {r0, r1, r2, r3, r5, r6, r9, sl, fp, sp, lr}^
    1454:	632f6169 			; <UNDEFINED> instruction: 0x632f6169
    1458:	30343173 	eorscc	r3, r4, r3, ror r1
    145c:	73632f65 	cmnvc	r3, #404	; 0x194
    1460:	65303431 	ldrvs	r3, [r0, #-1073]!	; 0xfffffbcf
    1464:	7736322d 	ldrvc	r3, [r6, -sp, lsr #4]!
    1468:	2f2f6e69 	svccs	0x002f6e69
    146c:	7062696c 	rsbvc	r6, r2, ip, ror #18
    1470:	6e692f69 	cdpvs	15, 6, cr2, cr9, cr9, {3}
    1474:	64756c63 	ldrbtvs	r6, [r5], #-3171	; 0xfffff39d
    1478:	67000065 	strvs	r0, [r0, -r5, rrx]
    147c:	2e6f6970 			; <UNDEFINED> instruction: 0x2e6f6970
    1480:	00010063 	andeq	r0, r1, r3, rrx
    1484:	636f6c00 	cmnvs	pc, #0, 24
    1488:	00682e6b 	rsbeq	r2, r8, fp, ror #28
    148c:	5f000002 	svcpl	0x00000002
    1490:	65707974 	ldrbvs	r7, [r0, #-2420]!	; 0xfffff68c
    1494:	00682e73 	rsbeq	r2, r8, r3, ror lr
    1498:	73000002 	movwvc	r0, #2
    149c:	65646474 	strbvs	r6, [r4, #-1140]!	; 0xfffffb8c
    14a0:	00682e66 	rsbeq	r2, r8, r6, ror #28
    14a4:	72000003 	andvc	r0, r0, #3, 0
    14a8:	746e6565 	strbtvc	r6, [lr], #-1381	; 0xfffffa9b
    14ac:	0200682e 	andeq	r6, r0, #3014656	; 0x2e0000
    14b0:	70720000 	rsbsvc	r0, r2, r0
    14b4:	00682e69 	rsbeq	r2, r8, r9, ror #28
    14b8:	67000004 	strvs	r0, [r0, -r4]
    14bc:	2e6f6970 			; <UNDEFINED> instruction: 0x2e6f6970
    14c0:	00050068 	andeq	r0, r5, r8, rrx
    14c4:	27050000 	strcs	r0, [r5, -r0]
    14c8:	dc020500 	cfstr32le	mvfx0, [r2], {-0}
    14cc:	0300008e 	movweq	r0, #142	; 0x8e
    14d0:	01060114 	tsteq	r6, r4, lsl r1
    14d4:	02000505 	andeq	r0, r0, #20971520	; 0x1400000
    14d8:	2f060104 	svccs	0x00060104
    14dc:	02000d05 	andeq	r0, r0, #320	; 0x140
    14e0:	05010104 	streq	r0, [r1, #-260]	; 0xfffffefc
    14e4:	0402000a 	streq	r0, [r2], #-10
    14e8:	20050101 	andcs	r0, r5, r1, lsl #2
    14ec:	062e2c03 	strteq	r2, [lr], -r3, lsl #24
    14f0:	06050501 	streq	r0, [r5], -r1, lsl #10
    14f4:	0607052f 	streq	r0, [r7], -pc, lsr #10
    14f8:	06050501 	streq	r0, [r5], -r1, lsl #10
    14fc:	06230551 			; <UNDEFINED> instruction: 0x06230551
    1500:	06050501 	streq	r0, [r5], -r1, lsl #10
    1504:	060e054b 	streq	r0, [lr], -fp, asr #10
    1508:	06050501 	streq	r0, [r5], -r1, lsl #10
    150c:	4a06132f 	bmi	1861d0 <__bss_end__+0x17cd08>
    1510:	3001052e 	andcc	r0, r1, lr, lsr #10
    1514:	03060905 	movweq	r0, #26885	; 0x6905
    1518:	4a062e75 	bmi	18cef4 <__bss_end__+0x183a2c>
    151c:	0621052e 	strteq	r0, [r1], -lr, lsr #10
    1520:	24020500 	strcs	r0, [r2], #-1280	; 0xfffffb00
    1524:	0300008f 	movweq	r0, #143	; 0x8f
    1528:	0106010e 	tsteq	r6, lr, lsl #2
    152c:	2f060505 	svccs	0x00060505
    1530:	01060705 	tsteq	r6, r5, lsl #14
    1534:	51060505 	tstpl	r6, r5, lsl #10
    1538:	01062505 	tsteq	r6, r5, lsl #10
    153c:	4b060505 	blmi	182958 <__bss_end__+0x179490>
    1540:	01060e05 	tsteq	r6, r5, lsl #28
    1544:	2f060505 	svccs	0x00060505
    1548:	2e4a0613 	mcrcs	6, 2, r0, cr10, cr3, {0}
    154c:	05300105 	ldreq	r0, [r0, #-261]!	; 0xfffffefb
    1550:	75030609 	strvc	r0, [r3, #-1545]	; 0xfffff9f7
    1554:	2e4a062e 	cdpcs	6, 4, cr0, cr10, cr14, {1}
    1558:	00062b05 	andeq	r2, r6, r5, lsl #22
    155c:	8f640205 	svchi	0x00640205
    1560:	0e030000 	cdpeq	0, 0, cr0, cr3, cr0, {0}
    1564:	05010601 	streq	r0, [r1, #-1537]	; 0xfffff9ff
    1568:	052f0605 	streq	r0, [pc, #-1541]!	; f6b <__code_start__-0x7095>
    156c:	05010607 	streq	r0, [r1, #-1543]	; 0xfffff9f9
    1570:	064b0609 	strbeq	r0, [fp], -r9, lsl #12
    1574:	0530062e 	ldreq	r0, [r0, #-1582]!	; 0xfffff9d2
    1578:	052f0601 	streq	r0, [pc, #-1537]!	; f7f <__code_start__-0x7081>
    157c:	0635061d 			; <UNDEFINED> instruction: 0x0635061d
    1580:	06050501 	streq	r0, [r5], -r1, lsl #10
    1584:	0705144b 	streq	r1, [r5, -fp, asr #8]
    1588:	05050106 	streq	r0, [r5, #-262]	; 0xfffffefa
    158c:	25054d06 	strcs	r4, [r5, #-3334]	; 0xfffff2fa
    1590:	052e0106 	streq	r0, [lr, #-262]!	; 0xfffffefa
    1594:	052f0605 	streq	r0, [pc, #-1541]!	; f97 <__code_start__-0x7069>
    1598:	2e01061a 	mcrcs	6, 0, r0, cr1, cr10, {0}
    159c:	2f060505 	svccs	0x00060505
    15a0:	01060e05 	tsteq	r6, r5, lsl #28
    15a4:	2f060505 	svccs	0x00060505
    15a8:	060b0513 			; <UNDEFINED> instruction: 0x060b0513
    15ac:	06050501 	streq	r0, [r5], -r1, lsl #10
    15b0:	0105154b 	tsteq	r5, fp, asr #10
    15b4:	052e1306 	streq	r1, [lr, #-774]!	; 0xfffffcfa
    15b8:	75030609 	strvc	r0, [r3, #-1545]	; 0xfffff9f7
    15bc:	054a062e 	strbeq	r0, [sl, #-1582]	; 0xfffff9d2
    15c0:	0d030638 	stceq	6, cr0, [r3, #-224]	; 0xffffff20
    15c4:	05010666 	streq	r0, [r1, #-1638]	; 0xfffff99a
    15c8:	054b0605 	strbeq	r0, [fp, #-1541]	; 0xfffff9fb
    15cc:	05010607 	streq	r0, [r1, #-1543]	; 0xfffff9f9
    15d0:	05690605 	strbeq	r0, [r9, #-1541]!	; 0xfffff9fb
    15d4:	05010607 	streq	r0, [r1, #-1543]	; 0xfffff9f9
    15d8:	054d0605 	strbeq	r0, [sp, #-1541]	; 0xfffff9fb
    15dc:	0501060e 	streq	r0, [r1, #-1550]	; 0xfffff9f2
    15e0:	05670605 	strbeq	r0, [r7, #-1541]!	; 0xfffff9fb
    15e4:	05010624 	streq	r0, [r1, #-1572]	; 0xfffff9dc
    15e8:	05054a0e 	streq	r4, [r5, #-2574]	; 0xfffff5f2
    15ec:	1a052f06 	bne	14d20c <__bss_end__+0x143d44>
    15f0:	052e0106 	streq	r0, [lr, #-262]!	; 0xfffffefa
    15f4:	052f0605 	streq	r0, [pc, #-1541]!	; ff7 <__code_start__-0x7009>
    15f8:	2e01061f 	mcrcs	6, 0, r0, cr1, cr15, {0}
    15fc:	052e0e05 	streq	r0, [lr, #-3589]!	; 0xfffff1fb
    1600:	052f0605 	streq	r0, [pc, #-1541]!	; 1003 <__code_start__-0x6ffd>
    1604:	0501060b 	streq	r0, [r1, #-1547]	; 0xfffff9f5
    1608:	134b0605 	movtne	r0, #46597	; 0xb605
    160c:	01052e06 	tsteq	r5, r6, lsl #28
    1610:	0609054b 	streq	r0, [r9], -fp, asr #10
    1614:	062e7403 	strteq	r7, [lr], -r3, lsl #8
    1618:	31062e2e 	tstcc	r6, lr, lsr #28
    161c:	052e2e06 	streq	r2, [lr, #-3590]!	; 0xfffff1fa
    1620:	05000623 	streq	r0, [r0, #-1571]	; 0xfffff9dd
    1624:	00904802 	addseq	r4, r0, r2, lsl #16
    1628:	010b0300 	mrseq	r0, (UNDEF: 59)
    162c:	05050106 	streq	r0, [r5, #-262]	; 0xfffffefa
    1630:	01052f06 	tsteq	r5, r6, lsl #30
    1634:	24054b06 	strcs	r4, [r5], #-2822	; 0xfffff4fa
    1638:	01063006 	tsteq	r6, r6
    163c:	2f060505 	svccs	0x00060505
    1640:	4b060105 	blmi	181a5c <__bss_end__+0x178594>
    1644:	01000202 	tsteq	r0, r2, lsl #4
    1648:	00015801 	andeq	r5, r1, r1, lsl #16
    164c:	0a000300 	beq	2254 <__code_start__-0x5dac>
    1650:	02000001 	andeq	r0, r0, #1, 0
    1654:	0d0efb01 	vstreq	d15, [lr, #-4]
    1658:	01010100 	mrseq	r0, (UNDEF: 17)
    165c:	00000001 	andeq	r0, r0, r1
    1660:	01000001 	tsteq	r0, r1
    1664:	696c2f2e 	stmdbvs	ip!, {r1, r2, r3, r5, r8, r9, sl, fp, sp}^
    1668:	2f006362 	svccs	0x00006362
    166c:	2f74706f 	svccs	0x0074706f
    1670:	656d6f68 	strbvs	r6, [sp, #-3944]!	; 0xfffff098
    1674:	77657262 	strbvc	r7, [r5, -r2, ror #4]!
    1678:	6c65432f 	stclvs	3, cr4, [r5], #-188	; 0xffffff44
    167c:	2f72616c 	svccs	0x0072616c
    1680:	2d6d7261 	sfmcs	f7, 2, [sp, #-388]!	; 0xfffffe7c
    1684:	656e6f6e 	strbvs	r6, [lr, #-3950]!	; 0xfffff092
    1688:	6261652d 	rsbvs	r6, r1, #188743680	; 0xb400000
    168c:	65742d69 	ldrbvs	r2, [r4, #-3433]!	; 0xfffff297
    1690:	392f7473 	stmdbcc	pc!, {r0, r1, r4, r5, r6, sl, ip, sp, lr}	; <UNPREDICTABLE>
    1694:	3130322d 	teqcc	r0, sp, lsr #4
    1698:	2d347139 	ldfcss	f7, [r4, #-228]!	; 0xffffff1c
    169c:	30317363 	eorscc	r7, r1, r3, ror #6
    16a0:	612f6537 			; <UNDEFINED> instruction: 0x612f6537
    16a4:	6e2d6d72 	mcrvs	13, 1, r6, cr13, cr2, {3}
    16a8:	2d656e6f 	stclcs	14, cr6, [r5, #-444]!	; 0xfffffe44
    16ac:	69626165 	stmdbvs	r2!, {r0, r2, r5, r6, r8, sp, lr}^
    16b0:	636e692f 	cmnvs	lr, #770048	; 0xbc000
    16b4:	6564756c 	strbvs	r7, [r4, #-1388]!	; 0xfffffa94
    16b8:	7379732f 	cmnvc	r9, #-1140850688	; 0xbc000000
    16bc:	706f2f00 	rsbvc	r2, pc, r0, lsl #30
    16c0:	6f682f74 	svcvs	0x00682f74
    16c4:	7262656d 	rsbvc	r6, r2, #457179136	; 0x1b400000
    16c8:	432f7765 			; <UNDEFINED> instruction: 0x432f7765
    16cc:	616c6c65 	cmnvs	ip, r5, ror #24
    16d0:	72612f72 	rsbvc	r2, r1, #456	; 0x1c8
    16d4:	6f6e2d6d 	svcvs	0x006e2d6d
    16d8:	652d656e 	strvs	r6, [sp, #-1390]!	; 0xfffffa92
    16dc:	2d696261 	sfmcs	f6, 2, [r9, #-388]!	; 0xfffffe7c
    16e0:	74736574 	ldrbtvc	r6, [r3], #-1396	; 0xfffffa8c
    16e4:	322d392f 	eorcc	r3, sp, #770048	; 0xbc000
    16e8:	71393130 	teqvc	r9, r0, lsr r1
    16ec:	73632d34 	cmnvc	r3, #52, 26	; 0xd00
    16f0:	65373031 	ldrvs	r3, [r7, #-49]!	; 0xffffffcf
    16f4:	62696c2f 	rsbvs	r6, r9, #12032	; 0x2f00
    16f8:	6363672f 	cmnvs	r3, #12320768	; 0xbc0000
    16fc:	6d72612f 	ldfvse	f6, [r2, #-188]!	; 0xffffff44
    1700:	6e6f6e2d 	cdpvs	14, 6, cr6, cr15, cr13, {1}
    1704:	61652d65 	cmnvs	r5, r5, ror #26
    1708:	392f6962 	stmdbcc	pc!, {r1, r5, r6, r8, fp, sp, lr}	; <UNPREDICTABLE>
    170c:	312e322e 			; <UNDEFINED> instruction: 0x312e322e
    1710:	636e692f 	cmnvs	lr, #770048	; 0xbc000
    1714:	6564756c 	strbvs	r7, [r4, #-1388]!	; 0xfffffa94
    1718:	00002e00 	andeq	r2, r0, r0, lsl #28
    171c:	6b747570 	blvs	1d1ece4 <__bss_end__+0x1d1581c>
    1720:	0100632e 	tsteq	r0, lr, lsr #6
    1724:	6f6c0000 	svcvs	0x006c0000
    1728:	682e6b63 	stmdavs	lr!, {r0, r1, r5, r6, r8, r9, fp, sp, lr}
    172c:	00000200 	andeq	r0, r0, r0, lsl #4
    1730:	7079745f 	rsbsvc	r7, r9, pc, asr r4
    1734:	682e7365 	stmdavs	lr!, {r0, r2, r5, r6, r8, r9, ip, sp, lr}
    1738:	00000200 	andeq	r0, r0, r0, lsl #4
    173c:	64647473 	strbtvs	r7, [r4], #-1139	; 0xfffffb8d
    1740:	682e6665 	stmdavs	lr!, {r0, r2, r5, r6, r9, sl, sp, lr}
    1744:	00000300 	andeq	r0, r0, r0, lsl #6
    1748:	6e656572 	mcrvs	5, 3, r6, cr5, cr2, {3}
    174c:	00682e74 	rsbeq	r2, r8, r4, ror lr
    1750:	72000002 	andvc	r0, r0, #2, 0
    1754:	682e6970 	stmdavs	lr!, {r4, r5, r6, r8, fp, sp, lr}
    1758:	00000400 	andeq	r0, r0, r0, lsl #8
    175c:	00190500 	andseq	r0, r9, r0, lsl #10
    1760:	90680205 	rsbls	r0, r8, r5, lsl #4
    1764:	06140000 	ldreq	r0, [r4], -r0
    1768:	06050501 	streq	r0, [r5], -r1, lsl #10
    176c:	000b054b 	andeq	r0, fp, fp, asr #10
    1770:	01010402 	tsteq	r1, r2, lsl #8
    1774:	02000505 	andeq	r0, r0, #20971520	; 0x1400000
    1778:	2e060104 	adfcss	f0, f6, f4
    177c:	02000905 	andeq	r0, r0, #81920	; 0x14000
    1780:	4b060204 	blmi	181f98 <__bss_end__+0x178ad0>
    1784:	02000f05 	andeq	r0, r0, #5, 30
    1788:	05650204 	strbeq	r0, [r5, #-516]!	; 0xfffffdfc
    178c:	04020010 	streq	r0, [r2], #-16
    1790:	00010602 	andeq	r0, r1, r2, lsl #12
    1794:	2e020402 	cdpcs	4, 0, cr0, cr2, cr2, {0}
    1798:	32060505 	andcc	r0, r6, #20971520	; 0x1400000
    179c:	13060105 	movwne	r0, #24837	; 0x6105
    17a0:	01000602 	tsteq	r0, r2, lsl #12
    17a4:	00004901 	andeq	r4, r0, r1, lsl #18
    17a8:	2d000300 	stccs	3, cr0, [r0, #-0]
    17ac:	02000000 	andeq	r0, r0, #0, 0
    17b0:	0d0efb01 	vstreq	d15, [lr, #-4]
    17b4:	01010100 	mrseq	r0, (UNDEF: 17)
    17b8:	00000001 	andeq	r0, r0, r1
    17bc:	01000001 	tsteq	r0, r1
    17c0:	74732f2e 	ldrbtvc	r2, [r3], #-3886	; 0xfffff0d2
    17c4:	2d666661 	stclcs	6, cr6, [r6, #-388]!	; 0xfffffe7c
    17c8:	00637273 	rsbeq	r7, r3, r3, ror r2
    17cc:	69707200 	ldmdbvs	r0!, {r9, ip, sp, lr}^
    17d0:	6961772d 	stmdbvs	r1!, {r0, r2, r3, r5, r8, r9, sl, ip, sp, lr}^
    17d4:	00632e74 	rsbeq	r2, r3, r4, ror lr
    17d8:	00000001 	andeq	r0, r0, r1
    17dc:	05001505 	streq	r1, [r0, #-1285]	; 0xfffffafb
    17e0:	0090b402 	addseq	fp, r0, r2, lsl #8
    17e4:	17051300 	strne	r1, [r5, -r0, lsl #6]
    17e8:	06010501 	streq	r0, [r1], -r1, lsl #10
    17ec:	00020201 	andeq	r0, r2, r1, lsl #4
    17f0:	Address 0x00000000000017f0 is out of bounds.


Disassembly of section .debug_str:

00000000 <.debug_str>:
   0:	6c616d6b 	stclvs	13, cr6, [r1], #-428	; 0xfffffe54
   4:	5f636f6c 	svcpl	0x00636f6c
   8:	67696c61 	strbvs	r6, [r9, -r1, ror #24]!
   c:	0064656e 	rsbeq	r6, r4, lr, ror #10
  10:	676f7270 			; <UNDEFINED> instruction: 0x676f7270
  14:	5f6d6172 	svcpl	0x006d6172
  18:	00646e65 	rsbeq	r6, r4, r5, ror #28
  1c:	726f6873 	rsbvc	r6, pc, #7536640	; 0x730000
  20:	6e752074 	mrcvs	0, 3, r2, cr5, cr4, {3}
  24:	6e676973 			; <UNDEFINED> instruction: 0x6e676973
  28:	69206465 	stmdbvs	r0!, {r0, r2, r5, r6, sl, sp, lr}
  2c:	6b00746e 	blvs	1d1ec <__bss_end__+0x13d24>
  30:	65657266 	strbvs	r7, [r5, #-614]!	; 0xfffffd9a
  34:	6c6c615f 	stfvse	f6, [ip], #-380	; 0xfffffe84
  38:	616d6b00 	cmnvs	sp, r0, lsl #22
  3c:	636f6c6c 	cmnvs	pc, #108, 24	; 0x6c00
  40:	6165685f 	cmnvs	r5, pc, asr r8
  44:	6e655f70 	mcrvs	15, 3, r5, cr5, cr0, {3}
  48:	74730064 	ldrbtvc	r0, [r3], #-100	; 0xffffff9c
  4c:	2d666661 	stclcs	6, cr6, [r6, #-388]!	; 0xfffffe7c
  50:	6c616d6b 	stclvs	13, cr6, [r1], #-428	; 0xfffffe54
  54:	2e636f6c 	cdpcs	15, 6, cr6, cr3, cr12, {3}
  58:	6e750063 	cdpvs	0, 7, cr0, cr5, cr3, {3}
  5c:	6e676973 			; <UNDEFINED> instruction: 0x6e676973
  60:	63206465 			; <UNDEFINED> instruction: 0x63206465
  64:	00726168 	rsbseq	r6, r2, r8, ror #2
  68:	61656c63 	cmnvs	r5, r3, ror #24
  6c:	65725f6e 	ldrbvs	r5, [r2, #-3950]!	; 0xfffff092
  70:	746f6f62 	strbtvc	r6, [pc], #-3938	; 78 <__code_start__-0x7f88>
  74:	78616d00 	stmdavc	r1!, {r8, sl, fp, sp, lr}^
  78:	79626e5f 	stmdbvc	r2!, {r0, r1, r2, r3, r4, r6, r9, sl, fp, sp, lr}^
  7c:	00736574 	rsbseq	r6, r3, r4, ror r5
  80:	67696c61 	strbvs	r6, [r9, -r1, ror #24]!
  84:	6e656d6e 	cdpvs	13, 6, cr6, cr5, cr14, {3}
  88:	6d6b0074 	stclvs	0, cr0, [fp, #-464]!	; 0xfffffe30
  8c:	6f6c6c61 	svcvs	0x006c6c61
  90:	73690063 	cmnvc	r9, #99, 0	; 0x63
  94:	776f705f 			; <UNDEFINED> instruction: 0x776f705f
  98:	656d0032 	strbvs	r0, [sp, #-50]!	; 0xffffffce
  9c:	7465736d 	strbtvc	r7, [r5], #-877	; 0xfffffc93
  a0:	756f7200 	strbvc	r7, [pc, #-512]!	; fffffea8 <__bss_end__+0xffff69e0>
  a4:	7075646e 	rsbsvc	r6, r5, lr, ror #8
  a8:	756f6400 	strbvc	r6, [pc, #-1024]!	; fffffcb0 <__bss_end__+0xffff67e8>
  ac:	00656c62 	rsbeq	r6, r5, r2, ror #24
  b0:	55465f5f 	strbpl	r5, [r6, #-3935]	; 0xfffff0a1
  b4:	4954434e 	ldmdbmi	r4, {r1, r2, r3, r6, r8, r9, lr}^
  b8:	5f5f4e4f 	svcpl	0x005f4e4f
  bc:	554e4700 	strbpl	r4, [lr, #-1792]	; 0xfffff900
  c0:	39394320 	ldmdbcc	r9!, {r5, r8, r9, lr}
  c4:	2e303120 	rsfcssp	f3, f0, f0
  c8:	20312e33 	eorscs	r2, r1, r3, lsr lr
  cc:	31323032 	teqcc	r2, r2, lsr r0
  d0:	31323630 	teqcc	r2, r0, lsr r6
  d4:	65722820 	ldrbvs	r2, [r2, #-2080]!	; 0xfffff7e0
  d8:	7361656c 	cmnvc	r1, #108, 10	; 0x1b000000
  dc:	2d202965 			; <UNDEFINED> instruction: 0x2d202965
  e0:	7570636d 	ldrbvc	r6, [r0, #-877]!	; 0xfffffc93
  e4:	6d72613d 	ldfvse	f6, [r2, #-244]!	; 0xffffff0c
  e8:	36373131 			; <UNDEFINED> instruction: 0x36373131
  ec:	2d667a6a 	vstmdbcs	r6!, {s15-s120}
  f0:	6d2d2073 	stcvs	0, cr2, [sp, #-460]!	; 0xfffffe34
  f4:	656e7574 	strbvs	r7, [lr, #-1396]!	; 0xfffffa8c
  f8:	6d72613d 	ldfvse	f6, [r2, #-244]!	; 0xffffff0c
  fc:	36373131 			; <UNDEFINED> instruction: 0x36373131
 100:	2d667a6a 	vstmdbcs	r6!, {s15-s120}
 104:	6d2d2073 	stcvs	0, cr2, [sp, #-460]!	; 0xfffffe34
 108:	752d6f6e 	strvc	r6, [sp, #-3950]!	; 0xfffff092
 10c:	696c616e 	stmdbvs	ip!, {r1, r2, r3, r5, r6, r8, sp, lr}^
 110:	64656e67 	strbtvs	r6, [r5], #-3687	; 0xfffff199
 114:	6363612d 	cmnvs	r3, #1073741835	; 0x4000000b
 118:	20737365 	rsbscs	r7, r3, r5, ror #6
 11c:	70746d2d 	rsbsvc	r6, r4, sp, lsr #26
 120:	666f733d 			; <UNDEFINED> instruction: 0x666f733d
 124:	6d2d2074 	stcvs	0, cr2, [sp, #-464]!	; 0xfffffe30
 128:	616f6c66 	cmnvs	pc, r6, ror #24
 12c:	62612d74 	rsbvs	r2, r1, #116, 26	; 0x1d00
 130:	6f733d69 	svcvs	0x00733d69
 134:	2d207466 	cfstrscs	mvf7, [r0, #-408]!	; 0xfffffe68
 138:	6d72616d 	ldfvse	f6, [r2, #-436]!	; 0xfffffe4c
 13c:	616d2d20 	cmnvs	sp, r0, lsr #26
 140:	3d686372 	stclcc	3, cr6, [r8, #-456]!	; 0xfffffe38
 144:	766d7261 	strbtvc	r7, [sp], -r1, ror #4
 148:	207a6b36 	rsbscs	r6, sl, r6, lsr fp
 14c:	6467672d 	strbtvs	r6, [r7], #-1837	; 0xfffff8d3
 150:	4f2d2062 	svcmi	0x002d2062
 154:	732d2067 			; <UNDEFINED> instruction: 0x732d2067
 158:	673d6474 			; <UNDEFINED> instruction: 0x673d6474
 15c:	3939756e 	ldmdbcc	r9!, {r1, r2, r3, r5, r6, r8, sl, ip, sp, lr}
 160:	66662d20 	strbtvs	r2, [r6], -r0, lsr #26
 164:	73656572 	cmnvc	r5, #478150656	; 0x1c800000
 168:	646e6174 	strbtvs	r6, [lr], #-372	; 0xfffffe8c
 16c:	00676e69 	rsbeq	r6, r7, r9, ror #28
 170:	6d6f682f 	stclvs	8, cr6, [pc, #-188]!	; bc <__code_start__-0x7f44>
 174:	6e652f65 	cdpvs	15, 6, cr2, cr5, cr5, {3}
 178:	72656c67 	rsbvc	r6, r5, #26368	; 0x6700
 17c:	616c632f 	cmnvs	ip, pc, lsr #6
 180:	632f7373 			; <UNDEFINED> instruction: 0x632f7373
 184:	30343173 	eorscc	r3, r4, r3, ror r1
 188:	36322d65 	ldrtcc	r2, [r2], -r5, ror #26
 18c:	2f6e6977 	svccs	0x006e6977
 190:	7062696c 	rsbvc	r6, r2, ip, ror #18
 194:	74732f69 	ldrbtvc	r2, [r3], #-3945	; 0xfffff097
 198:	2d666661 	stclcs	6, cr6, [r6, #-388]!	; 0xfffffe7c
 19c:	76697270 			; <UNDEFINED> instruction: 0x76697270
 1a0:	00657461 	rsbeq	r7, r5, r1, ror #8
 1a4:	676e6f6c 	strbvs	r6, [lr, -ip, ror #30]!
 1a8:	6e6f6c20 	cdpvs	12, 6, cr6, cr15, cr0, {1}
 1ac:	6e752067 	cdpvs	0, 7, cr2, cr5, cr7, {3}
 1b0:	6e676973 			; <UNDEFINED> instruction: 0x6e676973
 1b4:	69206465 	stmdbvs	r0!, {r0, r2, r5, r6, sl, sp, lr}
 1b8:	6800746e 	stmdavs	r0, {r1, r2, r3, r5, r6, sl, ip, sp, lr}
 1bc:	00706165 	rsbseq	r6, r0, r5, ror #2
 1c0:	6c616d6b 	stclvs	13, cr6, [r1], #-428	; 0xfffffe54
 1c4:	5f636f6c 	svcpl	0x00636f6c
 1c8:	70616568 	rsbvc	r6, r1, r8, ror #10
 1cc:	7274705f 	rsbsvc	r7, r4, #95, 0	; 0x5f
 1d0:	656e6f00 	strbvs	r6, [lr, #-3840]!	; 0xfffff100
 1d4:	00626d5f 	rsbeq	r6, r2, pc, asr sp
 1d8:	6c616d6b 	stclvs	13, cr6, [r1], #-428	; 0xfffffe54
 1dc:	5f636f6c 	svcpl	0x00636f6c
 1e0:	7a746f6e 	bvc	1d1bfa0 <__bss_end__+0x1d12ad8>
 1e4:	006f7265 	rsbeq	r7, pc, r5, ror #4
 1e8:	676e6f6c 	strbvs	r6, [lr, -ip, ror #30]!
 1ec:	6e6f6c20 	cdpvs	12, 6, cr6, cr15, cr0, {1}
 1f0:	6e692067 	cdpvs	0, 6, cr2, cr9, cr7, {3}
 1f4:	616d0074 	smcvs	53252	; 0xd004
 1f8:	33755f78 	cmncc	r5, #120, 30	; 0x1e0
 1fc:	68730032 	ldmdavs	r3!, {r1, r4, r5}^
 200:	2074726f 	rsbscs	r7, r4, pc, ror #4
 204:	00746e69 	rsbseq	r6, r4, r9, ror #28
 208:	6c616d6b 	stclvs	13, cr6, [r1], #-428	; 0xfffffe54
 20c:	5f636f6c 	svcpl	0x00636f6c
 210:	70616568 	rsbvc	r6, r1, r8, ror #10
 214:	6174735f 	cmnvs	r4, pc, asr r3
 218:	75007472 	strvc	r7, [r0, #-1138]	; 0xfffffb8e
 21c:	33746e69 	cmncc	r4, #1680	; 0x690
 220:	00745f32 	rsbseq	r5, r4, r2, lsr pc
 224:	615f7369 	cmpvs	pc, r9, ror #6
 228:	6e67696c 	vnmulvs.f16	s13, s14, s25	; <UNPREDICTABLE>
 22c:	6b006465 	blvs	193c8 <__bss_end__+0xff00>
 230:	6c6c616d 	stfvse	f6, [ip], #-436	; 0xfffffe4c
 234:	695f636f 	ldmdbvs	pc, {r0, r1, r2, r3, r5, r6, r8, r9, sp, lr}^	; <UNPREDICTABLE>
 238:	5f74696e 	svcpl	0x0074696e
 23c:	5f746573 	svcpl	0x00746573
 240:	72617473 	rsbvc	r7, r1, #1929379840	; 0x73000000
 244:	615f0074 	cmpvs	pc, r4, ror r0	; <UNPREDICTABLE>
 248:	00726464 	rsbseq	r6, r2, r4, ror #8
 24c:	6f73645f 	svcvs	0x0073645f
 250:	6e61685f 	mcrvs	8, 3, r6, cr1, cr15, {2}
 254:	00656c64 	rsbeq	r6, r5, r4, ror #24
 258:	7a69735f 	bvc	1a5cfdc <__bss_end__+0x1a53b14>
 25c:	69730065 	ldmdbvs	r3!, {r0, r2, r5, r6}^
 260:	745f657a 	ldrbvc	r6, [pc], #-1402	; 268 <__code_start__-0x7d98>
 264:	61725f00 	cmnvs	r2, r0, lsl #30
 268:	3834646e 	ldmdacc	r4!, {r1, r2, r3, r5, r6, sl, sp, lr}
 26c:	6d655f00 	stclvs	15, cr5, [r5, #-0]
 270:	65677265 	strbvs	r7, [r7, #-613]!	; 0xfffffd9b
 274:	0079636e 	rsbseq	r6, r9, lr, ror #6
 278:	746e6975 	strbtvc	r6, [lr], #-2421	; 0xfffff68b
 27c:	745f3436 	ldrbvc	r3, [pc], #-1078	; 284 <__code_start__-0x7d7c>
 280:	63775f00 	cmnvs	r7, #0, 30
 284:	6d6f7472 	cfstrdvs	mvd7, [pc, #-456]!	; c4 <__code_start__-0x7f3c>
 288:	74735f62 	ldrbtvc	r5, [r3], #-3938	; 0xfffff09e
 28c:	00657461 	rsbeq	r7, r5, r1, ror #8
 290:	6769735f 			; <UNDEFINED> instruction: 0x6769735f
 294:	5f6c616e 	svcpl	0x006c616e
 298:	00667562 	rsbeq	r7, r6, r2, ror #10
 29c:	66626c5f 			; <UNDEFINED> instruction: 0x66626c5f
 2a0:	657a6973 	ldrbvs	r6, [sl, #-2419]!	; 0xfffff68d
 2a4:	6c5f5f00 	mrrcvs	15, 0, r5, pc, cr0	; <UNPREDICTABLE>
 2a8:	6c61636f 	stclvs	3, cr6, [r1], #-444	; 0xfffffe44
 2ac:	00745f65 	rsbseq	r5, r4, r5, ror #30
 2b0:	72626d5f 	rsbvc	r6, r2, #6080	; 0x17c0
 2b4:	63776f74 	cmnvs	r7, #116, 30	; 0x1d0
 2b8:	6174735f 	cmnvs	r4, pc, asr r3
 2bc:	5f006574 	svcpl	0x00006574
 2c0:	5f6d745f 	svcpl	0x006d745f
 2c4:	00636573 	rsbeq	r6, r3, r3, ror r5
 2c8:	7562755f 	strbvc	r7, [r2, #-1375]!	; 0xfffffaa1
 2cc:	625f0066 	subsvs	r0, pc, #102, 0	; 0x66
 2d0:	00657361 	rsbeq	r7, r5, r1, ror #6
 2d4:	6d745f5f 	ldclvs	15, cr5, [r4, #-380]!	; 0xfffffe84
 2d8:	756f685f 	strbvc	r6, [pc, #-2143]!	; fffffa81 <__bss_end__+0xffff65b9>
 2dc:	5f5f0072 	svcpl	0x005f0072
 2e0:	5f006673 	svcpl	0x00006673
 2e4:	655f6e6f 	ldrbvs	r6, [pc, #-3695]	; fffff47d <__bss_end__+0xffff5fb5>
 2e8:	5f746978 	svcpl	0x00746978
 2ec:	73677261 	cmnvc	r7, #268435462	; 0x10000006
 2f0:	6f635f00 	svcvs	0x00635f00
 2f4:	65696b6f 	strbvs	r6, [r9, #-2927]!	; 0xfffff491
 2f8:	735f5f00 	cmpvc	pc, #0, 30
 2fc:	65756c67 	ldrbvs	r6, [r5, #-3175]!	; 0xfffff399
 300:	6c665f00 	stclvs	15, cr5, [r6], #-0
 304:	00736761 	rsbseq	r6, r3, r1, ror #14
 308:	5f73695f 	svcpl	0x0073695f
 30c:	00617863 	rsbeq	r7, r1, r3, ror #16
 310:	6474735f 	ldrbtvs	r7, [r4], #-863	; 0xfffffca1
 314:	5f006e69 	svcpl	0x00006e69
 318:	736b6c62 	cmnvc	fp, #25088	; 0x6200
 31c:	00657a69 	rsbeq	r7, r5, r9, ror #20
 320:	7476635f 	ldrbtvc	r6, [r6], #-863	; 0xfffffca1
 324:	00667562 	rsbeq	r7, r6, r2, ror #10
 328:	66666f5f 	uqsaxvs	r6, r6, pc	; <UNPREDICTABLE>
 32c:	00746573 	rsbseq	r6, r4, r3, ror r5
 330:	20554e47 	subscs	r4, r5, r7, asr #28
 334:	20393943 	eorscs	r3, r9, r3, asr #18
 338:	2e322e39 	mrccs	14, 1, r2, cr2, cr9, {1}
 33c:	30322031 	eorscc	r2, r2, r1, lsr r0
 340:	30313931 	eorscc	r3, r1, r1, lsr r9
 344:	28203532 	stmdacs	r0!, {r1, r4, r5, r8, sl, ip, sp}
 348:	656c6572 	strbvs	r6, [ip, #-1394]!	; 0xfffffa8e
 34c:	29657361 	stmdbcs	r5!, {r0, r5, r6, r8, r9, ip, sp, lr}^
 350:	52415b20 	subpl	r5, r1, #32, 22	; 0x8000
 354:	72612f4d 	rsbvc	r2, r1, #308	; 0x134
 358:	2d392d6d 	ldccs	13, cr2, [r9, #-436]!	; 0xfffffe4c
 35c:	6e617262 	cdpvs	2, 6, cr7, cr1, cr2, {3}
 360:	72206863 	eorvc	r6, r0, #6488064	; 0x630000
 364:	73697665 	cmnvc	r9, #105906176	; 0x6500000
 368:	206e6f69 	rsbcs	r6, lr, r9, ror #30
 36c:	35373732 	ldrcc	r3, [r7, #-1842]!	; 0xfffff8ce
 370:	205d3939 	subscs	r3, sp, r9, lsr r9
 374:	70636d2d 	rsbvc	r6, r3, sp, lsr #26
 378:	72613d75 	rsbvc	r3, r1, #7488	; 0x1d40
 37c:	3731316d 	ldrcc	r3, [r1, -sp, ror #2]!
 380:	667a6a36 			; <UNDEFINED> instruction: 0x667a6a36
 384:	2d20732d 	stccs	3, cr7, [r0, #-180]!	; 0xffffff4c
 388:	6e75746d 	cdpvs	4, 7, cr7, cr5, cr13, {3}
 38c:	72613d65 	rsbvc	r3, r1, #6464	; 0x1940
 390:	3731316d 	ldrcc	r3, [r1, -sp, ror #2]!
 394:	667a6a36 			; <UNDEFINED> instruction: 0x667a6a36
 398:	2d20732d 	stccs	3, cr7, [r0, #-180]!	; 0xffffff4c
 39c:	2d6f6e6d 	stclcs	14, cr6, [pc, #-436]!	; 1f0 <__code_start__-0x7e10>
 3a0:	6c616e75 	stclvs	14, cr6, [r1], #-468	; 0xfffffe2c
 3a4:	656e6769 	strbvs	r6, [lr, #-1897]!	; 0xfffff897
 3a8:	63612d64 	cmnvs	r1, #100, 26	; 0x1900
 3ac:	73736563 	cmnvc	r3, #415236096	; 0x18c00000
 3b0:	746d2d20 	strbtvc	r2, [sp], #-3360	; 0xfffff2e0
 3b4:	6f733d70 	svcvs	0x00733d70
 3b8:	2d207466 	cfstrscs	mvf7, [r0, #-408]!	; 0xfffffe68
 3bc:	6f6c666d 	svcvs	0x006c666d
 3c0:	612d7461 			; <UNDEFINED> instruction: 0x612d7461
 3c4:	733d6962 	teqvc	sp, #1605632	; 0x188000
 3c8:	2074666f 	rsbscs	r6, r4, pc, ror #12
 3cc:	72616d2d 	rsbvc	r6, r1, #2880	; 0xb40
 3d0:	6d2d206d 	stcvs	0, cr2, [sp, #-436]!	; 0xfffffe4c
 3d4:	68637261 	stmdavs	r3!, {r0, r5, r6, r9, ip, sp, lr}^
 3d8:	6d72613d 	ldfvse	f6, [r2, #-244]!	; 0xffffff0c
 3dc:	7a6b3676 	bvc	1acddbc <__bss_end__+0x1ac48f4>
 3e0:	67672d20 	strbvs	r2, [r7, -r0, lsr #26]!
 3e4:	2d206264 	sfmcs	f6, 4, [r0, #-400]!	; 0xfffffe70
 3e8:	2d20674f 	stccs	7, cr6, [r0, #-316]!	; 0xfffffec4
 3ec:	3d647473 	cfstrdcc	mvd7, [r4, #-460]!	; 0xfffffe34
 3f0:	39756e67 	ldmdbcc	r5!, {r0, r1, r2, r5, r6, r9, sl, fp, sp, lr}^
 3f4:	662d2039 			; <UNDEFINED> instruction: 0x662d2039
 3f8:	65657266 	strbvs	r7, [r5, #-614]!	; 0xfffffd9a
 3fc:	6e617473 	mcrvs	4, 3, r7, cr1, cr3, {3}
 400:	676e6964 	strbvs	r6, [lr, -r4, ror #18]!
 404:	626d5f00 	rsbvs	r5, sp, #0, 30
 408:	6f747273 	svcvs	0x00747273
 40c:	5f736377 	svcpl	0x00736377
 410:	74617473 	strbtvc	r7, [r1], #-1139	; 0xfffffb8d
 414:	6d5f0065 	ldclvs	0, cr0, [pc, #-404]	; 288 <__code_start__-0x7d78>
 418:	656c7262 	strbvs	r7, [ip, #-610]!	; 0xfffffd9e
 41c:	74735f6e 	ldrbtvc	r5, [r3], #-3950	; 0xfffff092
 420:	00657461 	rsbeq	r7, r5, r1, ror #8
 424:	616e665f 	cmnvs	lr, pc, asr r6
 428:	00736772 	rsbseq	r6, r3, r2, ror r7
 42c:	736e665f 	cmnvc	lr, #99614720	; 0x5f00000
 430:	69735f00 	ldmdbvs	r3!, {r8, r9, sl, fp, ip, lr}^
 434:	5f006e67 	svcpl	0x00006e67
 438:	636f6c66 	cmnvs	pc, #26112	; 0x6600
 43c:	00745f6b 	rsbseq	r5, r4, fp, ror #30
 440:	6474735f 	ldrbtvs	r7, [r4], #-863	; 0xfffffca1
 444:	00727265 	rsbseq	r7, r2, r5, ror #4
 448:	6769425f 			; <UNDEFINED> instruction: 0x6769425f
 44c:	00746e69 	rsbseq	r6, r4, r9, ror #28
 450:	6d61675f 	stclvs	7, cr6, [r1, #-380]!	; 0xfffffe84
 454:	735f616d 	cmpvc	pc, #1073741851	; 0x4000001b
 458:	676e6769 	strbvs	r6, [lr, -r9, ror #14]!
 45c:	5f006d61 	svcpl	0x00006d61
 460:	75736572 	ldrbvc	r6, [r3, #-1394]!	; 0xfffffa8e
 464:	6b5f746c 	blvs	17dd61c <__bss_end__+0x17d4154>
 468:	69707200 	ldmdbvs	r0!, {r9, ip, sp, lr}^
 46c:	7475705f 	ldrbtvc	r7, [r5], #-95	; 0xffffffa1
 470:	72616863 	rsbvc	r6, r1, #6488064	; 0x630000
 474:	745f5f00 	ldrbvc	r5, [pc], #-3840	; 47c <__code_start__-0x7b84>
 478:	5f5f006d 	svcpl	0x005f006d
 47c:	62686377 	rsbvs	r6, r8, #-603979775	; 0xdc000001
 480:	63775f00 	cmnvs	r7, #0, 30
 484:	6f747273 	svcvs	0x00747273
 488:	5f73626d 	svcpl	0x0073626d
 48c:	74617473 	strbtvc	r7, [r1], #-1139	; 0xfffffb8d
 490:	735f0065 	cmpvc	pc, #101, 0	; 0x65
 494:	756f6474 	strbvc	r6, [pc, #-1140]!	; 28 <__code_start__-0x7fd8>
 498:	635f0074 	cmpvs	pc, #116, 0	; 0x74
 49c:	656c7476 	strbvs	r7, [ip, #-1142]!	; 0xfffffb8a
 4a0:	665f006e 	ldrbvs	r0, [pc], -lr, rrx
 4a4:	00656c69 	rsbeq	r6, r5, r9, ror #24
 4a8:	6573552f 	ldrbvs	r5, [r3, #-1327]!	; 0xfffffad1
 4ac:	692f7372 	stmdbvs	pc!, {r1, r4, r5, r6, r8, r9, ip, sp, lr}	; <UNPREDICTABLE>
 4b0:	78616e6f 	stmdavc	r1!, {r0, r1, r2, r3, r5, r6, r9, sl, fp, sp, lr}^
 4b4:	432f6169 			; <UNDEFINED> instruction: 0x432f6169
 4b8:	30343153 	eorscc	r3, r4, r3, asr r1
 4bc:	73632f45 	cmnvc	r3, #276	; 0x114
 4c0:	65303431 	ldrvs	r3, [r0, #-1073]!	; 0xfffffbcf
 4c4:	7736322d 	ldrvc	r3, [r6, -sp, lsr #4]!
 4c8:	6c2f6e69 	stcvs	14, cr6, [pc], #-420	; 32c <__code_start__-0x7cd4>
 4cc:	69706269 	ldmdbvs	r0!, {r0, r3, r5, r6, r9, sp, lr}^
 4d0:	696e5f00 	stmdbvs	lr!, {r8, r9, sl, fp, ip, lr}^
 4d4:	0073626f 	rsbseq	r6, r3, pc, ror #4
 4d8:	6574615f 	ldrbvs	r6, [r4, #-351]!	; 0xfffffea1
 4dc:	30746978 	rsbscc	r6, r4, r8, ror r9
 4e0:	6c2f2e00 	stcvs	14, cr2, [pc], #-0	; 4e8 <__code_start__-0x7b18>
 4e4:	2f636269 	svccs	0x00636269
 4e8:	736d656d 	cmnvc	sp, #457179136	; 0x1b400000
 4ec:	632e7465 			; <UNDEFINED> instruction: 0x632e7465
 4f0:	73615f00 	cmnvc	r1, #0, 30
 4f4:	6d697463 	cfstrdvs	mvd7, [r9, #-396]!	; 0xfffffe74
 4f8:	75625f65 	strbvc	r5, [r2, #-3941]!	; 0xfffff09b
 4fc:	725f0066 	subsvc	r0, pc, #102, 0	; 0x66
 500:	6c757365 	ldclvs	3, cr7, [r5], #-404	; 0xfffffe6c
 504:	5f5f0074 	svcpl	0x005f0074
 508:	00686377 	rsbeq	r6, r8, r7, ror r3
 50c:	434f4c5f 	movtmi	r4, #64607	; 0xfc5f
 510:	00545f4b 	subseq	r5, r4, fp, asr #30
 514:	746e6977 	strbtvc	r6, [lr], #-2423	; 0xfffff689
 518:	5f00745f 	svcpl	0x0000745f
 51c:	67616c66 	strbvs	r6, [r1, -r6, ror #24]!
 520:	5f003273 	svcpl	0x00003273
 524:	5f6d745f 	svcpl	0x006d745f
 528:	72616579 	rsbvc	r6, r1, #507510784	; 0x1e400000
 52c:	656e5f00 	strbvs	r5, [lr, #-3840]!	; 0xfffff100
 530:	00667478 	rsbeq	r7, r6, r8, ror r4
 534:	6d745f5f 	ldclvs	15, cr5, [r4, #-380]!	; 0xfffffe84
 538:	6e6f6d5f 	mcrvs	13, 3, r6, cr15, cr15, {2}
 53c:	74615f00 	strbtvc	r5, [r1], #-3840	; 0xfffff100
 540:	74697865 	strbtvc	r7, [r9], #-2149	; 0xfffff79b
 544:	735f5f00 	cmpvc	pc, #0, 30
 548:	69646964 	stmdbvs	r4!, {r2, r5, r6, r8, fp, sp, lr}^
 54c:	0074696e 	rsbseq	r6, r4, lr, ror #18
 550:	66666f5f 	uqsaxvs	r6, r6, pc	; <UNPREDICTABLE>
 554:	5f00745f 	svcpl	0x0000745f
 558:	65657266 	strbvs	r7, [r5, #-614]!	; 0xfffffd9a
 55c:	7473696c 	ldrbtvc	r6, [r3], #-2412	; 0xfffff694
 560:	63775f00 	cmnvs	r7, #0, 30
 564:	626d6f74 	rsbvs	r6, sp, #116, 30	; 0x1d0
 568:	6174735f 	cmnvs	r4, pc, asr r3
 56c:	5f006574 	svcpl	0x00006574
 570:	0077656e 	rsbseq	r6, r7, lr, ror #10
 574:	655f685f 	ldrbvs	r6, [pc, #-2143]	; fffffd1d <__bss_end__+0xffff6855>
 578:	6f6e7272 	svcvs	0x006e7272
 57c:	745f5f00 	ldrbvc	r5, [pc], #-3840	; 584 <__code_start__-0x7a7c>
 580:	64795f6d 	ldrbtvs	r5, [r9], #-3949	; 0xfffff093
 584:	5f007961 	svcpl	0x00007961
 588:	7562735f 	strbvc	r7, [r2, #-863]!	; 0xfffffca1
 58c:	695f0066 	ldmdbvs	pc, {r1, r2, r5, r6}^	; <UNPREDICTABLE>
 590:	0073626f 	rsbseq	r6, r3, pc, ror #4
 594:	49465f5f 	stmdbmi	r6, {r0, r1, r2, r3, r4, r6, r8, r9, sl, fp, ip, lr}^
 598:	5f00454c 	svcpl	0x0000454c
 59c:	7473626d 	ldrbtvc	r6, [r3], #-621	; 0xfffffd93
 5a0:	5f657461 	svcpl	0x00657461
 5a4:	5f5f0074 	svcpl	0x005f0074
 5a8:	4c494673 	mcrrmi	6, 7, r4, r9, cr3
 5ac:	6d5f0045 	ldclvs	0, cr0, [pc, #-276]	; 4a0 <__code_start__-0x7b60>
 5b0:	61747362 	cmnvs	r4, r2, ror #6
 5b4:	5f006574 	svcpl	0x00006574
 5b8:	646e6172 	strbtvs	r6, [lr], #-370	; 0xfffffe8e
 5bc:	78656e5f 	stmdavc	r5!, {r0, r1, r2, r3, r4, r6, r9, sl, fp, sp, lr}^
 5c0:	6d5f0074 	ldclvs	0, cr0, [pc, #-464]	; 3f8 <__code_start__-0x7c08>
 5c4:	6e656c62 	cdpvs	12, 6, cr6, cr5, cr2, {3}
 5c8:	6174735f 	cmnvs	r4, pc, asr r3
 5cc:	5f006574 	svcpl	0x00006574
 5d0:	00636e69 	rsbeq	r6, r3, r9, ror #28
 5d4:	646e695f 	strbtvs	r6, [lr], #-2399	; 0xfffff6a1
 5d8:	6f6c5f00 	svcvs	0x006c5f00
 5dc:	656c6163 	strbvs	r6, [ip, #-355]!	; 0xfffffe9d
 5e0:	635f5f00 	cmpvs	pc, #0, 30
 5e4:	6e61656c 	cdpvs	5, 6, cr6, cr1, cr12, {3}
 5e8:	5f007075 	svcpl	0x00007075
 5ec:	70736e75 	rsbsvc	r6, r3, r5, ror lr
 5f0:	66696365 	strbtvs	r6, [r9], -r5, ror #6
 5f4:	5f646569 	svcpl	0x00646569
 5f8:	61636f6c 	cmnvs	r3, ip, ror #30
 5fc:	695f656c 	ldmdbvs	pc, {r2, r3, r5, r6, r8, sl, sp, lr}^	; <UNPREDICTABLE>
 600:	006f666e 	rsbeq	r6, pc, lr, ror #12
 604:	78616d5f 	stmdavc	r1!, {r0, r1, r2, r3, r4, r6, r8, sl, fp, sp, lr}^
 608:	00736477 	rsbseq	r6, r3, r7, ror r4
 60c:	6565725f 	strbvs	r7, [r5, #-607]!	; 0xfffffda1
 610:	5f00746e 	svcpl	0x0000746e
 614:	64656573 	strbtvs	r6, [r5], #-1395	; 0xfffffa8d
 618:	635f5f00 	cmpvs	pc, #0, 30
 61c:	746e756f 	strbtvc	r7, [lr], #-1391	; 0xfffffa91
 620:	6c5f5f00 	mrrcvs	15, 0, r5, pc, cr0	; <UNPREDICTABLE>
 624:	006b636f 	rsbeq	r6, fp, pc, ror #6
 628:	6565735f 	strbvs	r7, [r5, #-863]!	; 0xfffffca1
 62c:	665f006b 	ldrbvs	r0, [pc], -fp, rrx
 630:	5f736f70 	svcpl	0x00736f70
 634:	70720074 	rsbsvc	r0, r2, r4, ror r0
 638:	75705f69 	ldrbvc	r5, [r0, #-3945]!	; 0xfffff097
 63c:	61686374 	smcvs	34356	; 0x8634
 640:	00745f72 	rsbseq	r5, r4, r2, ror pc
 644:	6d745f5f 	ldclvs	15, cr5, [r4, #-380]!	; 0xfffffe84
 648:	6e696d5f 	mcrvs	13, 3, r6, cr9, cr15, {2}
 64c:	756d5f00 	strbvc	r5, [sp, #-3840]!	; 0xfffff100
 650:	5f00746c 	svcpl	0x0000746c
 654:	74727473 	ldrbtvc	r7, [r2], #-1139	; 0xfffffb8d
 658:	6c5f6b6f 	mrrcvs	11, 6, r6, pc, cr15	; <UNPREDICTABLE>
 65c:	00747361 	rsbseq	r7, r4, r1, ror #6
 660:	61765f5f 	cmnvs	r6, pc, asr pc
 664:	0065756c 	rsbeq	r7, r5, ip, ror #10
 668:	746e665f 	strbtvc	r6, [lr], #-1631	; 0xfffff9a1
 66c:	73657079 	cmnvc	r5, #121, 0	; 0x79
 670:	64615f00 	strbtvs	r5, [r1], #-3840	; 0xfffff100
 674:	5f5f0064 	svcpl	0x005f0064
 678:	6e6f4c55 	mcrvs	12, 3, r4, cr15, cr5, {2}
 67c:	675f0067 	ldrbvs	r0, [pc, -r7, rrx]
 680:	61647465 	cmnvs	r4, r5, ror #8
 684:	655f6574 	ldrbvs	r6, [pc, #-1396]	; 118 <__code_start__-0x7ee8>
 688:	5f007272 	svcpl	0x00007272
 68c:	626f6c67 	rsbvs	r6, pc, #26368	; 0x6700
 690:	695f6c61 	ldmdbvs	pc, {r0, r5, r6, sl, fp, sp, lr}^	; <UNPREDICTABLE>
 694:	7275706d 	rsbsvc	r7, r5, #109, 0	; 0x6d
 698:	74705f65 	ldrbtvc	r5, [r0], #-3941	; 0xfffff09b
 69c:	755f0072 	ldrbvc	r0, [pc, #-114]	; 632 <__code_start__-0x79ce>
 6a0:	6573756e 	ldrbvs	r7, [r3, #-1390]!	; 0xfffffa92
 6a4:	61725f64 	cmnvs	r2, r4, ror #30
 6a8:	5f00646e 	svcpl	0x0000646e
 6ac:	00736477 	rsbseq	r6, r3, r7, ror r4
 6b0:	6d745f5f 	ldclvs	15, cr5, [r4, #-380]!	; 0xfffffe84
 6b4:	6164775f 	cmnvs	r4, pc, asr r7
 6b8:	675f0079 			; <UNDEFINED> instruction: 0x675f0079
 6bc:	0065756c 	rsbeq	r7, r5, ip, ror #10
 6c0:	616d6e5f 	cmnvs	sp, pc, asr lr
 6c4:	636f6c6c 	cmnvs	pc, #108, 24	; 0x6c00
 6c8:	366c5f00 	strbtcc	r5, [ip], -r0, lsl #30
 6cc:	625f6134 	subsvs	r6, pc, #13
 6d0:	5f006675 	svcpl	0x00006675
 6d4:	5f676973 	svcpl	0x00676973
 6d8:	636e7566 	cmnvs	lr, #427819008	; 0x19800000
 6dc:	626e5f00 	rsbvs	r5, lr, #0, 30
 6e0:	5f006675 	svcpl	0x00006675
 6e4:	73756e75 	cmnvc	r5, #1872	; 0x750
 6e8:	5f006465 	svcpl	0x00006465
 6ec:	5f6d745f 	svcpl	0x006d745f
 6f0:	73647369 	cmnvc	r4, #-1543503871	; 0xa4000001
 6f4:	6c5f0074 	mrrcvs	0, 7, r0, pc, cr4	; <UNPREDICTABLE>
 6f8:	6c61636f 	stclvs	3, cr6, [r1], #-444	; 0xfffffe44
 6fc:	656d6974 	strbvs	r6, [sp, #-2420]!	; 0xfffff68c
 700:	6675625f 			; <UNDEFINED> instruction: 0x6675625f
 704:	6c635f00 	stclvs	15, cr5, [r3], #-0
 708:	0065736f 	rsbeq	r7, r5, pc, ror #6
 70c:	3834725f 	ldmdacc	r4!, {r0, r1, r2, r3, r4, r6, r9, ip, sp, lr}
 710:	626d5f00 	rsbvs	r5, sp, #0, 30
 714:	63776f74 	cmnvs	r7, #116, 30	; 0x1d0
 718:	6174735f 	cmnvs	r4, pc, asr r3
 71c:	5f006574 	svcpl	0x00006574
 720:	00733570 	rsbseq	r3, r3, r0, ror r5
 724:	6d745f5f 	ldclvs	15, cr5, [r4, #-380]!	; 0xfffffe84
 728:	61646d5f 	cmnvs	r4, pc, asr sp
 72c:	5f5f0079 	svcpl	0x005f0079
 730:	6c5f6176 	ldfvse	f6, [pc], {118}	; 0x76
 734:	00747369 	rsbseq	r7, r4, r9, ror #6
 738:	6e675f5f 	mcrvs	15, 3, r5, cr7, cr15, {2}
 73c:	765f6375 			; <UNDEFINED> instruction: 0x765f6375
 740:	696c5f61 	stmdbvs	ip!, {r0, r5, r6, r8, r9, sl, fp, ip, lr}^
 744:	2e007473 	mcrcs	4, 0, r7, cr0, cr3, {3}
 748:	62696c2f 	rsbvs	r6, r9, #12032	; 0x2f00
 74c:	72702f63 	rsbsvc	r2, r0, #396	; 0x18c
 750:	6b746e69 	blvs	1d1c0fc <__bss_end__+0x1d12c34>
 754:	7600632e 	strvc	r6, [r0], -lr, lsr #6
 758:	6e697270 	mcrvs	2, 3, r7, cr9, cr0, {3}
 75c:	5f006b74 	svcpl	0x00006b74
 760:	0070615f 	rsbseq	r6, r0, pc, asr r1
 764:	74696d65 	strbtvc	r6, [r9], #-3429	; 0xfffff29b
 768:	6c61765f 	stclvs	6, cr7, [r1], #-380	; 0xfffffe84
 76c:	6c2f2e00 	stcvs	14, cr2, [pc], #-0	; 774 <__code_start__-0x788c>
 770:	2f636269 	svccs	0x00636269
 774:	63747570 	cmnvs	r4, #112, 10	; 0x1c000000
 778:	2e726168 	rpwcssz	f6, f2, #0.0
 77c:	70720063 	rsbsvc	r0, r2, r3, rrx
 780:	75705f69 	ldrbvc	r5, [r0, #-3945]!	; 0xfffff097
 784:	61686374 	smcvs	34356	; 0x8634
 788:	65735f72 	ldrbvs	r5, [r3, #-3954]!	; 0xfffff08e
 78c:	61750074 	cmnvs	r5, r4, ror r0
 790:	705f7472 	subsvc	r7, pc, r2, ror r4	; <UNPREDICTABLE>
 794:	00387475 	eorseq	r7, r8, r5, ror r4
 798:	63747570 	cmnvs	r4, #112, 10	; 0x1c000000
 79c:	66656400 	strbtvs	r6, [r5], -r0, lsl #8
 7a0:	746c7561 	strbtvc	r7, [ip], #-1377	; 0xfffffa9f
 7a4:	7475705f 	ldrbtvc	r7, [r5], #-95	; 0xffffffa1
 7a8:	72616863 	rsbvc	r6, r1, #6488064	; 0x630000
 7ac:	732f2e00 			; <UNDEFINED> instruction: 0x732f2e00
 7b0:	66666174 			; <UNDEFINED> instruction: 0x66666174
 7b4:	6372732d 	cmnvs	r2, #-1275068416	; 0xb4000000
 7b8:	656c632f 	strbvs	r6, [ip, #-815]!	; 0xfffffcd1
 7bc:	722d6e61 	eorvc	r6, sp, #1552	; 0x610
 7c0:	6f6f6265 	svcvs	0x006f6265
 7c4:	00632e74 	rsbeq	r2, r3, r4, ror lr
 7c8:	74726175 	ldrbtvc	r6, [r2], #-373	; 0xfffffe8b
 7cc:	756c665f 	strbvc	r6, [ip, #-1631]!	; 0xfffff9a1
 7d0:	745f6873 	ldrbvc	r6, [pc], #-2163	; 7d8 <__code_start__-0x7828>
 7d4:	75700078 	ldrbvc	r0, [r0, #-120]!	; 0xffffff88
 7d8:	64006b74 	strvs	r6, [r0], #-2932	; 0xfffff48c
 7dc:	79616c65 	stmdbvc	r1!, {r0, r2, r5, r6, sl, fp, sp, lr}^
 7e0:	00736d5f 	rsbseq	r6, r3, pc, asr sp
 7e4:	5f697072 	svcpl	0x00697072
 7e8:	6f626572 	svcvs	0x00626572
 7ec:	6e00746f 	cdpvs	4, 0, cr7, cr0, cr15, {3}
 7f0:	616d746f 	cmnvs	sp, pc, ror #8
 7f4:	75006e69 	strvc	r6, [r0, #-3689]	; 0xfffff197
 7f8:	5f747261 	svcpl	0x00747261
 7fc:	74696e69 	strbtvc	r6, [r9], #-3689	; 0xfffff197
 800:	73635f00 	cmnvc	r3, #0, 30
 804:	74726174 	ldrbtvc	r6, [r2], #-372	; 0xfffffe8c
 808:	63796300 	cmnvs	r9, #0, 6
 80c:	635f656c 	cmpvs	pc, #108, 10	; 0x1b000000
 810:	695f746e 	ldmdbvs	pc, {r1, r2, r3, r5, r6, sl, ip, sp, lr}^	; <UNPREDICTABLE>
 814:	0074696e 	rsbseq	r6, r4, lr, ror #18
 818:	5f737362 	svcpl	0x00737362
 81c:	00646e65 	rsbeq	r6, r4, r5, ror #28
 820:	73625f5f 	cmnvc	r2, #380	; 0x17c
 824:	74735f73 	ldrbtvc	r5, [r3], #-3955	; 0xfffff08d
 828:	5f747261 	svcpl	0x00747261
 82c:	5f5f005f 	svcpl	0x005f005f
 830:	5f737362 	svcpl	0x00737362
 834:	5f646e65 	svcpl	0x00646e65
 838:	5f5f005f 	svcpl	0x005f005f
 83c:	65646f63 	strbvs	r6, [r4, #-3939]!	; 0xfffff09d
 840:	646e655f 	strbtvs	r6, [lr], #-1375	; 0xfffffaa1
 844:	2e005f5f 	mcrcs	15, 0, r5, cr0, cr15, {2}
 848:	6174732f 	cmnvs	r4, pc, lsr #6
 84c:	732d6666 			; <UNDEFINED> instruction: 0x732d6666
 850:	632f6372 			; <UNDEFINED> instruction: 0x632f6372
 854:	72617473 	rsbvc	r7, r1, #1929379840	; 0x73000000
 858:	00632e74 	rsbeq	r2, r3, r4, ror lr
 85c:	65685f5f 	strbvs	r5, [r8, #-3935]!	; 0xfffff0a1
 860:	735f7061 	cmpvc	pc, #97, 0	; 0x61
 864:	74726174 	ldrbtvc	r6, [r2], #-372	; 0xfffffe8c
 868:	5f005f5f 	svcpl	0x00005f5f
 86c:	6f72705f 	svcvs	0x0072705f
 870:	6e655f67 	cdpvs	15, 6, cr5, cr5, cr7, {3}
 874:	005f5f64 	subseq	r5, pc, r4, ror #30
 878:	61645f5f 	cmnvs	r4, pc, asr pc
 87c:	735f6174 	cmpvc	pc, #29
 880:	74726174 	ldrbtvc	r6, [r2], #-372	; 0xfffffe8c
 884:	5f005f5f 	svcpl	0x00005f5f
 888:	7461645f 	strbtvc	r6, [r1], #-1119	; 0xfffffba1
 88c:	6e655f61 	cdpvs	15, 6, cr5, cr5, cr1, {3}
 890:	005f5f64 	subseq	r5, pc, r4, ror #30
 894:	746e6975 	strbtvc	r6, [lr], #-2421	; 0xfffff68b
 898:	00745f38 	rsbseq	r5, r4, r8, lsr pc
 89c:	6f635f5f 	svcvs	0x00635f5f
 8a0:	735f6564 	cmpvc	pc, #100, 10	; 0x19000000
 8a4:	74726174 	ldrbtvc	r6, [r2], #-372	; 0xfffffe8c
 8a8:	50005f5f 	andpl	r5, r0, pc, asr pc
 8ac:	53525f4d 	cmppl	r2, #308	; 0x134
 8b0:	50004354 	andpl	r4, r0, r4, asr r3
 8b4:	32335455 	eorscc	r5, r3, #1426063360	; 0x55000000
 8b8:	5f4d5000 	svcpl	0x004d5000
 8bc:	43545352 	cmpmi	r4, #1207959553	; 0x48000001
 8c0:	4352575f 	cmpmi	r2, #24903680	; 0x17c0000
 8c4:	465f4746 	ldrbmi	r4, [pc], -r6, asr #14
 8c8:	5f4c4c55 	svcpl	0x004c4c55
 8cc:	45534552 	ldrbmi	r4, [r3, #-1362]	; 0xfffffaae
 8d0:	4d500054 	ldclmi	0, cr0, [r0, #-336]	; 0xfffffeb0
 8d4:	4f44575f 	svcmi	0x0044575f
 8d8:	2f2e0047 	svccs	0x002e0047
 8dc:	66617473 			; <UNDEFINED> instruction: 0x66617473
 8e0:	72732d66 	rsbsvc	r2, r3, #6528	; 0x1980
 8e4:	65722f63 	ldrbvs	r2, [r2, #-3939]!	; 0xfffff09d
 8e8:	746f6f62 	strbtvc	r6, [pc], #-3938	; 8f0 <__code_start__-0x7710>
 8ec:	5000632e 	andpl	r6, r0, lr, lsr #6
 8f0:	41505f4d 	cmpmi	r0, sp, asr #30
 8f4:	4f575353 	svcmi	0x00575353
 8f8:	74004452 	strvc	r4, [r0], #-1106	; 0xfffffbae
 8fc:	72656d69 	rsbvc	r6, r5, #6720	; 0x1a40
 900:	7465675f 	strbtvc	r6, [r5], #-1887	; 0xfffff8a1
 904:	6573755f 	ldrbvs	r7, [r3, #-1375]!	; 0xfffffaa1
 908:	65640063 	strbvs	r0, [r4, #-99]!	; 0xffffff9d
 90c:	5f79616c 	svcpl	0x0079616c
 910:	00636573 	rsbeq	r6, r3, r3, ror r5
 914:	74732f2e 	ldrbtvc	r2, [r3], #-3886	; 0xfffff0d2
 918:	2d666661 	stclcs	6, cr6, [r6, #-388]!	; 0xfffffe7c
 91c:	2f637273 	svccs	0x00637273
 920:	656d6974 	strbvs	r6, [sp, #-2420]!	; 0xfffff68c
 924:	00632e72 	rsbeq	r2, r3, r2, ror lr
 928:	5f766564 	svcpl	0x00766564
 92c:	72726162 	rsbsvc	r6, r2, #-2147483624	; 0x80000018
 930:	00726569 	rsbseq	r6, r2, r9, ror #10
 934:	33544547 	cmpcc	r4, #297795584	; 0x11c00000
 938:	69740032 	ldmdbvs	r4!, {r1, r4, r5}^
 93c:	5f72656d 	svcpl	0x0072656d
 940:	5f746567 	svcpl	0x00746567
 944:	63657375 	cmnvs	r5, #-738197503	; 0xd4000001
 948:	7761725f 			; <UNDEFINED> instruction: 0x7761725f
 94c:	6c656400 	cfstrdvs	mvd6, [r5], #-0
 950:	755f7961 	ldrbvc	r7, [pc, #-2401]	; fffffff7 <__bss_end__+0xffff6b2f>
 954:	50470073 	subpl	r0, r7, r3, ror r0
 958:	465f4f49 	ldrbmi	r4, [pc], -r9, asr #30
 95c:	5f434e55 	svcpl	0x00434e55
 960:	55504e49 	ldrbpl	r4, [r0, #-3657]	; 0xfffff1b7
 964:	73750054 	cmnvc	r5, #84, 0	; 0x54
 968:	705f6365 	subsvc	r6, pc, r5, ror #6
 96c:	625f7265 	subsvs	r7, pc, #1342177286	; 0x50000006
 970:	47007469 	strmi	r7, [r0, -r9, ror #8]
 974:	5f4f4950 	svcpl	0x004f4950
 978:	434e5546 	movtmi	r5, #58694	; 0xe546
 97c:	544c415f 	strbpl	r4, [ip], #-351	; 0xfffffea1
 980:	70670031 	rsbvc	r0, r7, r1, lsr r0
 984:	735f6f69 	cmpvc	pc, #420	; 0x1a4
 988:	665f7465 	ldrbvs	r7, [pc], -r5, ror #8
 98c:	74636e75 	strbtvc	r6, [r3], #-3701	; 0xfffff18b
 990:	006e6f69 	rsbeq	r6, lr, r9, ror #30
 994:	74726175 	ldrbtvc	r6, [r2], #-373	; 0xfffffe8b
 998:	7465675f 	strbtvc	r6, [r5], #-1887	; 0xfffff8a1
 99c:	70720038 	rsbsvc	r0, r2, r8, lsr r0
 9a0:	61775f69 	cmnvs	r7, r9, ror #30
 9a4:	73007469 	movwvc	r7, #1129	; 0x469
 9a8:	61755f77 	cmnvs	r5, r7, ror pc
 9ac:	75007472 	strvc	r7, [r0, #-1138]	; 0xfffffb8e
 9b0:	5f747261 	svcpl	0x00747261
 9b4:	5f6e6163 	svcpl	0x006e6163
 9b8:	38747570 	ldmdacc	r4!, {r4, r5, r6, r8, sl, ip, sp, lr}^
 9bc:	74616400 	strbtvc	r6, [r1], #-1024	; 0xfffffc00
 9c0:	65725f61 	ldrbvs	r5, [r2, #-3937]!	; 0xfffff09f
 9c4:	00796461 	rsbseq	r6, r9, r1, ror #8
 9c8:	74726175 	ldrbtvc	r6, [r2], #-373	; 0xfffffe8b
 9cc:	7465675f 	strbtvc	r6, [r5], #-1887	; 0xfffff8a1
 9d0:	73615f38 	cmnvc	r1, #56, 30	; 0xe0
 9d4:	00636e79 	rsbeq	r6, r3, r9, ror lr
 9d8:	755f7773 	ldrbvc	r7, [pc, #-1907]	; 26d <__code_start__-0x7d93>
 9dc:	5f747261 	svcpl	0x00747261
 9e0:	61620074 	smcvs	8196	; 0x2004
 9e4:	75006475 	strvc	r6, [r0, #-1141]	; 0xfffffb8b
 9e8:	5f747261 	svcpl	0x00747261
 9ec:	695f7874 	ldmdbvs	pc, {r2, r4, r5, r6, fp, ip, sp, lr}^	; <UNPREDICTABLE>
 9f0:	6d655f73 	stclvs	15, cr5, [r5, #-460]!	; 0xfffffe34
 9f4:	00797470 	rsbseq	r7, r9, r0, ror r4
 9f8:	64616572 	strbtvs	r6, [r1], #-1394	; 0xfffffa8e
 9fc:	6c61765f 	stclvs	6, cr7, [r1], #-380	; 0xfffffe84
 a00:	63006575 	movwvs	r6, #1397	; 0x575
 a04:	655f7275 	ldrbvs	r7, [pc, #-629]	; 797 <__code_start__-0x7869>
 a08:	6c62616e 	stfvse	f6, [r2], #-440	; 0xfffffe48
 a0c:	72730065 	rsbsvc	r0, r3, #101, 0	; 0x65
 a10:	61752f63 	cmnvs	r5, r3, ror #30
 a14:	632e7472 			; <UNDEFINED> instruction: 0x632e7472
 a18:	49504700 	ldmdbmi	r0, {r8, r9, sl, lr}^
 a1c:	55465f4f 	strbpl	r5, [r6, #-3919]	; 0xfffff0b1
 a20:	4f5f434e 	svcmi	0x005f434e
 a24:	55505455 	ldrbpl	r5, [r0, #-1109]	; 0xfffffbab
 a28:	50470054 	subpl	r0, r7, r4, asr r0
 a2c:	465f4f49 	ldrbmi	r4, [pc], -r9, asr #30
 a30:	5f434e55 	svcpl	0x00434e55
 a34:	32544c41 	subscc	r4, r4, #16640	; 0x4100
 a38:	72617500 	rsbvc	r7, r1, #0, 10
 a3c:	61685f74 	smcvs	34292	; 0x85f4
 a40:	61645f73 	smcvs	17907	; 0x45f3
 a44:	47006174 	smlsdxmi	r0, r4, r1, r6
 a48:	5f4f4950 	svcpl	0x004f4950
 a4c:	434e5546 	movtmi	r5, #58694	; 0xe546
 a50:	544c415f 	strbpl	r4, [ip], #-351	; 0xfffffea1
 a54:	50470030 	subpl	r0, r7, r0, lsr r0
 a58:	465f4f49 	ldrbmi	r4, [pc], -r9, asr #30
 a5c:	5f434e55 	svcpl	0x00434e55
 a60:	33544c41 	cmpcc	r4, #16640	; 0x4100
 a64:	49504700 	ldmdbmi	r0, {r8, r9, sl, lr}^
 a68:	55465f4f 	strbpl	r5, [r6, #-3919]	; 0xfffff0b1
 a6c:	415f434e 	cmpmi	pc, lr, asr #6
 a70:	0034544c 	eorseq	r5, r4, ip, asr #8
 a74:	4f495047 	svcmi	0x00495047
 a78:	4e55465f 	mrcmi	6, 2, r4, cr5, cr15, {2}
 a7c:	4c415f43 	mcrrmi	15, 4, r5, r1, cr3
 a80:	75003554 	strvc	r3, [r0, #-1364]	; 0xfffffaac
 a84:	5f747261 	svcpl	0x00747261
 a88:	61736964 	cmnvs	r3, r4, ror #18
 a8c:	00656c62 	rsbeq	r6, r5, r2, ror #24
 a90:	6c637963 			; <UNDEFINED> instruction: 0x6c637963
 a94:	65705f65 	ldrbvs	r5, [r0, #-3941]!	; 0xfffff09b
 a98:	69625f72 	stmdbvs	r2!, {r1, r4, r5, r6, r8, r9, sl, fp, ip, lr}^
 a9c:	70670074 	rsbvc	r0, r7, r4, ror r0
 aa0:	635f6f69 	cmpvs	pc, #420	; 0x1a4
 aa4:	7261656c 	rsbvc	r6, r1, #108, 10	; 0x1b000000
 aa8:	49504700 	ldmdbmi	r0, {r8, r9, sl, lr}^
 aac:	41425f4f 	cmpmi	r2, pc, asr #30
 ab0:	67004553 	smlsdvs	r0, r3, r5, r4
 ab4:	5f6f6970 	svcpl	0x006f6970
 ab8:	00746573 	rsbseq	r6, r4, r3, ror r5
 abc:	6f697067 	svcvs	0x00697067
 ac0:	7465735f 	strbtvc	r7, [r5], #-863	; 0xfffffca1
 ac4:	66666f5f 	uqsaxvs	r6, r6, pc	; <UNPREDICTABLE>
 ac8:	49504700 	ldmdbmi	r0, {r8, r9, sl, lr}^
 acc:	414d5f4f 	cmpmi	sp, pc, asr #30
 ad0:	49505f58 	ldmdbmi	r0, {r3, r4, r6, r8, r9, sl, fp, ip, lr}^
 ad4:	6873004e 	ldmdavs	r3!, {r1, r2, r3, r6}^
 ad8:	00746669 	rsbseq	r6, r4, r9, ror #12
 adc:	6b73616d 	blvs	1cd9098 <__bss_end__+0x1ccfbd0>
 ae0:	69706700 	ldmdbvs	r0!, {r8, r9, sl, sp, lr}^
 ae4:	65725f6f 	ldrbvs	r5, [r2, #-3951]!	; 0xfffff091
 ae8:	67006461 	strvs	r6, [r0, -r1, ror #8]
 aec:	5f6f6970 	svcpl	0x006f6970
 af0:	5f746573 	svcpl	0x00746573
 af4:	7074756f 	rsbsvc	r7, r4, pc, ror #10
 af8:	67007475 	smlsdxvs	r0, r5, r4, r7
 afc:	5f6f6970 	svcpl	0x006f6970
 b00:	74697277 	strbtvc	r7, [r9], #-631	; 0xfffffd89
 b04:	70670065 	rsbvc	r0, r7, r5, rrx
 b08:	735f6f69 	cmpvc	pc, #420	; 0x1a4
 b0c:	00307465 	eorseq	r7, r0, r5, ror #8
 b10:	6f697067 	svcvs	0x00697067
 b14:	76656c5f 			; <UNDEFINED> instruction: 0x76656c5f
 b18:	70670030 	rsbvc	r0, r7, r0, lsr r0
 b1c:	735f6f69 	cmpvc	pc, #420	; 0x1a4
 b20:	695f7465 	ldmdbvs	pc, {r0, r2, r5, r6, sl, ip, sp, lr}^	; <UNPREDICTABLE>
 b24:	7475706e 	ldrbtvc	r7, [r5], #-110	; 0xffffff92
 b28:	69706700 	ldmdbvs	r0!, {r8, r9, sl, sp, lr}^
 b2c:	73665f6f 	cmnvc	r6, #444	; 0x1bc
 b30:	67006c65 	strvs	r6, [r0, -r5, ror #24]
 b34:	5f6f6970 	svcpl	0x006f6970
 b38:	696e6170 	stmdbvs	lr!, {r4, r5, r6, r8, sp, lr}^
 b3c:	70670063 	rsbvc	r0, r7, r3, rrx
 b40:	735f6f69 	cmpvc	pc, #420	; 0x1a4
 b44:	6f5f7465 	svcvs	0x005f7465
 b48:	7067006e 	rsbvc	r0, r7, lr, rrx
 b4c:	6c5f6f69 	mrrcvs	15, 6, r6, pc, cr9	; <UNPREDICTABLE>
 b50:	6c657665 	stclvs	6, cr7, [r5], #-404	; 0xfffffe6c
 b54:	69706700 	ldmdbvs	r0!, {r8, r9, sl, sp, lr}^
 b58:	75665f6f 	strbvc	r5, [r6, #-3951]!	; 0xfffff091
 b5c:	745f636e 	ldrbvc	r6, [pc], #-878	; b64 <__code_start__-0x749c>
 b60:	63727300 	cmnvs	r2, #0, 6
 b64:	6970672f 	ldmdbvs	r0!, {r0, r1, r2, r3, r5, r8, r9, sl, sp, lr}^
 b68:	00632e6f 	rsbeq	r2, r3, pc, ror #28
 b6c:	6f697067 	svcvs	0x00697067
 b70:	726c635f 	rsbvc	r6, ip, #2080374785	; 0x7c000001
 b74:	2f2e0030 	svccs	0x002e0030
 b78:	6362696c 	cmnvs	r2, #108, 18	; 0x1b0000
 b7c:	7475702f 	ldrbtvc	r7, [r5], #-47	; 0xffffffd1
 b80:	00632e6b 	rsbeq	r2, r3, fp, ror #28
 b84:	74732f2e 	ldrbtvc	r2, [r3], #-3886	; 0xfffff0d2
 b88:	2d666661 	stclcs	6, cr6, [r6, #-388]!	; 0xfffffe7c
 b8c:	2f637273 	svccs	0x00637273
 b90:	2d697072 	stclcs	0, cr7, [r9, #-456]!	; 0xfffffe38
 b94:	74696177 	strbtvc	r6, [r9], #-375	; 0xfffffe89
 b98:	2f00632e 	svccs	0x0000632e
 b9c:	72657355 	rsbvc	r7, r5, #1409286145	; 0x54000001
 ba0:	6f692f73 	svcvs	0x00692f73
 ba4:	6978616e 	ldmdbvs	r8!, {r1, r2, r3, r5, r6, r8, sp, lr}^
 ba8:	73632f61 	cmnvc	r3, #388	; 0x184
 bac:	65303431 	ldrvs	r3, [r0, #-1073]!	; 0xfffffbcf
 bb0:	3173632f 	cmncc	r3, pc, lsr #6
 bb4:	2d653034 	stclcs	0, cr3, [r5, #-208]!	; 0xffffff30
 bb8:	69773632 	ldmdbvs	r7!, {r1, r4, r5, r9, sl, ip, sp}^
 bbc:	696c2f6e 	stmdbvs	ip!, {r1, r2, r3, r5, r6, r8, r9, sl, fp, sp}^
 bc0:	00697062 	rsbeq	r7, r9, r2, rrx

Disassembly of section .debug_frame:

00000000 <.debug_frame>:
   0:	0000000c 	andeq	r0, r0, ip
   4:	ffffffff 			; <UNDEFINED> instruction: 0xffffffff
   8:	7c020001 	stcvc	0, cr0, [r2], {1}
   c:	000d0c0e 	andeq	r0, sp, lr, lsl #24
  10:	0000000c 	andeq	r0, r0, ip
  14:	00000000 	andeq	r0, r0, r0
  18:	000082e8 	andeq	r8, r0, r8, ror #5
  1c:	00000010 	andeq	r0, r0, r0, lsl r0
  20:	0000000c 	andeq	r0, r0, ip
  24:	00000000 	andeq	r0, r0, r0
  28:	000082f8 	strdeq	r8, [r0], -r8	; <UNPREDICTABLE>
  2c:	00000010 	andeq	r0, r0, r0, lsl r0
  30:	0000000c 	andeq	r0, r0, ip
  34:	00000000 	andeq	r0, r0, r0
  38:	00008308 	andeq	r8, r0, r8, lsl #6
  3c:	00000010 	andeq	r0, r0, r0, lsl r0
  40:	00000020 	andeq	r0, r0, r0, lsr #32
  44:	00000000 	andeq	r0, r0, r0
  48:	00008318 	andeq	r8, r0, r8, lsl r3
  4c:	00000128 	andeq	r0, r0, r8, lsr #2
  50:	840c0e42 	strhi	r0, [ip], #-3650	; 0xfffff1be
  54:	8e028503 	cfsh32hi	mvfx8, mvfx2, #3
  58:	180e4201 	stmdane	lr, {r0, r9, lr}
  5c:	0c0e0a6e 			; <UNDEFINED> instruction: 0x0c0e0a6e
  60:	00000b42 	andeq	r0, r0, r2, asr #22
  64:	0000001c 	andeq	r0, r0, ip, lsl r0
  68:	00000000 	andeq	r0, r0, r0
  6c:	00008440 	andeq	r8, r0, r0, asr #8
  70:	000000ec 	andeq	r0, r0, ip, ror #1
  74:	8e040e42 	cdphi	14, 0, cr0, cr4, cr2, {2}
  78:	100e4201 	andne	r4, lr, r1, lsl #4
  7c:	040e0a62 	streq	r0, [lr], #-2658	; 0xfffff59e
  80:	00000b42 	andeq	r0, r0, r2, asr #22
  84:	00000020 	andeq	r0, r0, r0, lsr #32
  88:	00000000 	andeq	r0, r0, r0
  8c:	0000852c 	andeq	r8, r0, ip, lsr #10
  90:	00000064 	andeq	r0, r0, r4, rrx
  94:	840c0e42 	strhi	r0, [ip], #-3650	; 0xfffff1be
  98:	8e028503 	cfsh32hi	mvfx8, mvfx2, #3
  9c:	180e4201 	stmdane	lr, {r0, r9, lr}
  a0:	0c0e0a54 			; <UNDEFINED> instruction: 0x0c0e0a54
  a4:	00000b42 	andeq	r0, r0, r2, asr #22
  a8:	0000001c 	andeq	r0, r0, ip, lsl r0
  ac:	00000000 	andeq	r0, r0, r0
  b0:	00008590 	muleq	r0, r0, r5
  b4:	00000110 	andeq	r0, r0, r0, lsl r1
  b8:	8e040e42 	cdphi	14, 0, cr0, cr4, cr2, {2}
  bc:	100e4201 	andne	r4, lr, r1, lsl #4
  c0:	040e0a6c 	streq	r0, [lr], #-2668	; 0xfffff594
  c4:	00000b42 	andeq	r0, r0, r2, asr #22
  c8:	0000000c 	andeq	r0, r0, ip
  cc:	00000000 	andeq	r0, r0, r0
  d0:	000086a0 	andeq	r8, r0, r0, lsr #13
  d4:	00000014 	andeq	r0, r0, r4, lsl r0
  d8:	0000000c 	andeq	r0, r0, ip
  dc:	ffffffff 			; <UNDEFINED> instruction: 0xffffffff
  e0:	7c020001 	stcvc	0, cr0, [r2], {1}
  e4:	000d0c0e 	andeq	r0, sp, lr, lsl #24
  e8:	00000018 	andeq	r0, r0, r8, lsl r0
  ec:	000000d8 	ldrdeq	r0, [r0], -r8
  f0:	000086b4 			; <UNDEFINED> instruction: 0x000086b4
  f4:	000000a0 	andeq	r0, r0, r0, lsr #1
  f8:	84080e7e 	strhi	r0, [r8], #-3710	; 0xfffff182
  fc:	50018502 	andpl	r8, r1, r2, lsl #10
 100:	000ec4c5 	andeq	ip, lr, r5, asr #9
 104:	0000000c 	andeq	r0, r0, ip
 108:	ffffffff 			; <UNDEFINED> instruction: 0xffffffff
 10c:	7c020001 	stcvc	0, cr0, [r2], {1}
 110:	000d0c0e 	andeq	r0, sp, lr, lsl #24
 114:	00000030 	andeq	r0, r0, r0, lsr r0
 118:	00000104 	andeq	r0, r0, r4, lsl #2
 11c:	00008754 	andeq	r8, r0, r4, asr r7
 120:	0000002c 	andeq	r0, r0, ip, lsr #32
 124:	80100e42 	andshi	r0, r0, r2, asr #28
 128:	82038104 	andhi	r8, r3, #1
 12c:	42018302 	andmi	r8, r1, #134217728	; 0x8000000
 130:	058e140e 	streq	r1, [lr, #1038]	; 0x40e
 134:	4a200e42 	bmi	803a44 <__bss_end__+0x7fa57c>
 138:	ce42140e 	cdpgt	4, 4, cr1, cr2, cr14, {0}
 13c:	c342100e 	movtgt	r1, #8206	; 0x200e
 140:	0ec0c1c2 	acseqdm	f4, f2
 144:	00000000 	andeq	r0, r0, r0
 148:	0000001c 	andeq	r0, r0, ip, lsl r0
 14c:	00000104 	andeq	r0, r0, r4, lsl #2
 150:	00008780 	andeq	r8, r0, r0, lsl #15
 154:	00000110 	andeq	r0, r0, r0, lsl r1
 158:	84080e42 	strhi	r0, [r8], #-3650	; 0xfffff1be
 15c:	42018e02 	andmi	r8, r1, #2, 28
 160:	7202380e 	andvc	r3, r2, #917504	; 0xe0000
 164:	0000080e 	andeq	r0, r0, lr, lsl #16
 168:	00000020 	andeq	r0, r0, r0, lsr #32
 16c:	00000104 	andeq	r0, r0, r4, lsl #2
 170:	00008890 	muleq	r0, r0, r8
 174:	000002e0 	andeq	r0, r0, r0, ror #5
 178:	840c0e42 	strhi	r0, [ip], #-3650	; 0xfffff1be
 17c:	8e028503 	cfsh32hi	mvfx8, mvfx2, #3
 180:	200e4201 	andcs	r4, lr, r1, lsl #4
 184:	0e016003 	cdpeq	0, 0, cr6, cr1, cr3, {0}
 188:	0000000c 	andeq	r0, r0, ip
 18c:	0000000c 	andeq	r0, r0, ip
 190:	ffffffff 			; <UNDEFINED> instruction: 0xffffffff
 194:	7c020001 	stcvc	0, cr0, [r2], {1}
 198:	000d0c0e 	andeq	r0, sp, lr, lsl #24
 19c:	00000014 	andeq	r0, r0, r4, lsl r0
 1a0:	0000018c 	andeq	r0, r0, ip, lsl #3
 1a4:	00008b70 	andeq	r8, r0, r0, ror fp
 1a8:	00000018 	andeq	r0, r0, r8, lsl r0
 1ac:	84080e42 	strhi	r0, [r8], #-3650	; 0xfffff1be
 1b0:	00018e02 	andeq	r8, r1, r2, lsl #28
 1b4:	0000000c 	andeq	r0, r0, ip
 1b8:	0000018c 	andeq	r0, r0, ip, lsl #3
 1bc:	00008b88 	andeq	r8, r0, r8, lsl #23
 1c0:	00000018 	andeq	r0, r0, r8, lsl r0
 1c4:	0000000c 	andeq	r0, r0, ip
 1c8:	ffffffff 			; <UNDEFINED> instruction: 0xffffffff
 1cc:	7c020001 	stcvc	0, cr0, [r2], {1}
 1d0:	000d0c0e 	andeq	r0, sp, lr, lsl #24
 1d4:	00000014 	andeq	r0, r0, r4, lsl r0
 1d8:	000001c4 	andeq	r0, r0, r4, asr #3
 1dc:	00008ba0 	andeq	r8, r0, r0, lsr #23
 1e0:	00000020 	andeq	r0, r0, r0, lsr #32
 1e4:	84080e42 	strhi	r0, [r8], #-3650	; 0xfffff1be
 1e8:	00018e02 	andeq	r8, r1, r2, lsl #28
 1ec:	0000000c 	andeq	r0, r0, ip
 1f0:	ffffffff 			; <UNDEFINED> instruction: 0xffffffff
 1f4:	7c020001 	stcvc	0, cr0, [r2], {1}
 1f8:	000d0c0e 	andeq	r0, sp, lr, lsl #24
 1fc:	0000000c 	andeq	r0, r0, ip
 200:	000001ec 	andeq	r0, r0, ip, ror #3
 204:	00008bc0 	andeq	r8, r0, r0, asr #23
 208:	0000000c 	andeq	r0, r0, ip
 20c:	00000014 	andeq	r0, r0, r4, lsl r0
 210:	000001ec 	andeq	r0, r0, ip, ror #3
 214:	00008bcc 	andeq	r8, r0, ip, asr #23
 218:	00000038 	andeq	r0, r0, r8, lsr r0
 21c:	84080e42 	strhi	r0, [r8], #-3650	; 0xfffff1be
 220:	00018e02 	andeq	r8, r1, r2, lsl #28
 224:	0000000c 	andeq	r0, r0, ip
 228:	ffffffff 			; <UNDEFINED> instruction: 0xffffffff
 22c:	7c020001 	stcvc	0, cr0, [r2], {1}
 230:	000d0c0e 	andeq	r0, sp, lr, lsl #24
 234:	00000014 	andeq	r0, r0, r4, lsl r0
 238:	00000224 	andeq	r0, r0, r4, lsr #4
 23c:	00008c04 	andeq	r8, r0, r4, lsl #24
 240:	0000003c 	andeq	r0, r0, ip, lsr r0
 244:	84080e42 	strhi	r0, [r8], #-3650	; 0xfffff1be
 248:	00018e02 	andeq	r8, r1, r2, lsl #28
 24c:	0000000c 	andeq	r0, r0, ip
 250:	ffffffff 			; <UNDEFINED> instruction: 0xffffffff
 254:	7c020001 	stcvc	0, cr0, [r2], {1}
 258:	000d0c0e 	andeq	r0, sp, lr, lsl #24
 25c:	00000014 	andeq	r0, r0, r4, lsl r0
 260:	0000024c 	andeq	r0, r0, ip, asr #4
 264:	00008c40 	andeq	r8, r0, r0, asr #24
 268:	00000014 	andeq	r0, r0, r4, lsl r0
 26c:	84080e42 	strhi	r0, [r8], #-3650	; 0xfffff1be
 270:	00018e02 	andeq	r8, r1, r2, lsl #28
 274:	00000014 	andeq	r0, r0, r4, lsl r0
 278:	0000024c 	andeq	r0, r0, ip, asr #4
 27c:	00008c54 	andeq	r8, r0, r4, asr ip
 280:	0000001c 	andeq	r0, r0, ip, lsl r0
 284:	84080e42 	strhi	r0, [r8], #-3650	; 0xfffff1be
 288:	00018e02 	andeq	r8, r1, r2, lsl #28
 28c:	00000018 	andeq	r0, r0, r8, lsl r0
 290:	0000024c 	andeq	r0, r0, ip, asr #4
 294:	00008c70 	andeq	r8, r0, r0, ror ip
 298:	00000024 	andeq	r0, r0, r4, lsr #32
 29c:	84100e42 	ldrhi	r0, [r0], #-3650	; 0xfffff1be
 2a0:	86038504 	strhi	r8, [r3], -r4, lsl #10
 2a4:	00018e02 	andeq	r8, r1, r2, lsl #28
 2a8:	00000014 	andeq	r0, r0, r4, lsl r0
 2ac:	0000024c 	andeq	r0, r0, ip, asr #4
 2b0:	00008c94 	muleq	r0, r4, ip
 2b4:	00000018 	andeq	r0, r0, r8, lsl r0
 2b8:	84080e42 	strhi	r0, [r8], #-3650	; 0xfffff1be
 2bc:	00018e02 	andeq	r8, r1, r2, lsl #28
 2c0:	00000014 	andeq	r0, r0, r4, lsl r0
 2c4:	0000024c 	andeq	r0, r0, ip, asr #4
 2c8:	00008cac 	andeq	r8, r0, ip, lsr #25
 2cc:	00000018 	andeq	r0, r0, r8, lsl r0
 2d0:	84080e42 	strhi	r0, [r8], #-3650	; 0xfffff1be
 2d4:	00018e02 	andeq	r8, r1, r2, lsl #28
 2d8:	0000000c 	andeq	r0, r0, ip
 2dc:	ffffffff 			; <UNDEFINED> instruction: 0xffffffff
 2e0:	7c020001 	stcvc	0, cr0, [r2], {1}
 2e4:	000d0c0e 	andeq	r0, sp, lr, lsl #24
 2e8:	00000014 	andeq	r0, r0, r4, lsl r0
 2ec:	000002d8 	ldrdeq	r0, [r0], -r8
 2f0:	00008cc4 	andeq	r8, r0, r4, asr #25
 2f4:	000000bc 	strheq	r0, [r0], -ip
 2f8:	84080e42 	strhi	r0, [r8], #-3650	; 0xfffff1be
 2fc:	00018e02 	andeq	r8, r1, r2, lsl #28
 300:	00000014 	andeq	r0, r0, r4, lsl r0
 304:	000002d8 	ldrdeq	r0, [r0], -r8
 308:	00008d80 	andeq	r8, r0, r0, lsl #27
 30c:	00000028 	andeq	r0, r0, r8, lsr #32
 310:	84080e42 	strhi	r0, [r8], #-3650	; 0xfffff1be
 314:	00018e02 	andeq	r8, r1, r2, lsl #28
 318:	00000014 	andeq	r0, r0, r4, lsl r0
 31c:	000002d8 	ldrdeq	r0, [r0], -r8
 320:	00008da8 	andeq	r8, r0, r8, lsr #27
 324:	00000034 	andeq	r0, r0, r4, lsr r0
 328:	84080e42 	strhi	r0, [r8], #-3650	; 0xfffff1be
 32c:	00018e02 	andeq	r8, r1, r2, lsl #28
 330:	00000014 	andeq	r0, r0, r4, lsl r0
 334:	000002d8 	ldrdeq	r0, [r0], -r8
 338:	00008ddc 	ldrdeq	r8, [r0], -ip
 33c:	00000018 	andeq	r0, r0, r8, lsl r0
 340:	84080e42 	strhi	r0, [r8], #-3650	; 0xfffff1be
 344:	00018e02 	andeq	r8, r1, r2, lsl #28
 348:	00000014 	andeq	r0, r0, r4, lsl r0
 34c:	000002d8 	ldrdeq	r0, [r0], -r8
 350:	00008df4 	strdeq	r8, [r0], -r4
 354:	00000030 	andeq	r0, r0, r0, lsr r0
 358:	84080e42 	strhi	r0, [r8], #-3650	; 0xfffff1be
 35c:	00018e02 	andeq	r8, r1, r2, lsl #28
 360:	00000014 	andeq	r0, r0, r4, lsl r0
 364:	000002d8 	ldrdeq	r0, [r0], -r8
 368:	00008e24 	andeq	r8, r0, r4, lsr #28
 36c:	00000020 	andeq	r0, r0, r0, lsr #32
 370:	84080e42 	strhi	r0, [r8], #-3650	; 0xfffff1be
 374:	00018e02 	andeq	r8, r1, r2, lsl #28
 378:	00000014 	andeq	r0, r0, r4, lsl r0
 37c:	000002d8 	ldrdeq	r0, [r0], -r8
 380:	00008e44 	andeq	r8, r0, r4, asr #28
 384:	0000003c 	andeq	r0, r0, ip, lsr r0
 388:	84080e42 	strhi	r0, [r8], #-3650	; 0xfffff1be
 38c:	00018e02 	andeq	r8, r1, r2, lsl #28
 390:	00000014 	andeq	r0, r0, r4, lsl r0
 394:	000002d8 	ldrdeq	r0, [r0], -r8
 398:	00008e80 	andeq	r8, r0, r0, lsl #29
 39c:	00000018 	andeq	r0, r0, r8, lsl r0
 3a0:	84080e42 	strhi	r0, [r8], #-3650	; 0xfffff1be
 3a4:	00018e02 	andeq	r8, r1, r2, lsl #28
 3a8:	00000014 	andeq	r0, r0, r4, lsl r0
 3ac:	000002d8 	ldrdeq	r0, [r0], -r8
 3b0:	00008e98 	muleq	r0, r8, lr
 3b4:	00000044 	andeq	r0, r0, r4, asr #32
 3b8:	84080e42 	strhi	r0, [r8], #-3650	; 0xfffff1be
 3bc:	00018e02 	andeq	r8, r1, r2, lsl #28
 3c0:	0000000c 	andeq	r0, r0, ip
 3c4:	ffffffff 			; <UNDEFINED> instruction: 0xffffffff
 3c8:	7c020001 	stcvc	0, cr0, [r2], {1}
 3cc:	000d0c0e 	andeq	r0, sp, lr, lsl #24
 3d0:	00000018 	andeq	r0, r0, r8, lsl r0
 3d4:	000003c0 	andeq	r0, r0, r0, asr #7
 3d8:	00008edc 	ldrdeq	r8, [r0], -ip
 3dc:	00000008 	andeq	r0, r0, r8
 3e0:	80100e42 	andshi	r0, r0, r2, asr #28
 3e4:	82038104 	andhi	r8, r3, #1
 3e8:	00018302 	andeq	r8, r1, r2, lsl #6
 3ec:	00000014 	andeq	r0, r0, r4, lsl r0
 3f0:	000003c0 	andeq	r0, r0, r0, asr #7
 3f4:	00008ee4 	andeq	r8, r0, r4, ror #29
 3f8:	00000040 	andeq	r0, r0, r0, asr #32
 3fc:	84080e42 	strhi	r0, [r8], #-3650	; 0xfffff1be
 400:	00018e02 	andeq	r8, r1, r2, lsl #28
 404:	00000014 	andeq	r0, r0, r4, lsl r0
 408:	000003c0 	andeq	r0, r0, r0, asr #7
 40c:	00008f24 	andeq	r8, r0, r4, lsr #30
 410:	00000040 	andeq	r0, r0, r0, asr #32
 414:	84080e42 	strhi	r0, [r8], #-3650	; 0xfffff1be
 418:	00018e02 	andeq	r8, r1, r2, lsl #28
 41c:	00000014 	andeq	r0, r0, r4, lsl r0
 420:	000003c0 	andeq	r0, r0, r0, asr #7
 424:	00008f64 	andeq	r8, r0, r4, ror #30
 428:	0000001c 	andeq	r0, r0, ip, lsl r0
 42c:	84080e42 	strhi	r0, [r8], #-3650	; 0xfffff1be
 430:	00018e02 	andeq	r8, r1, r2, lsl #28
 434:	00000014 	andeq	r0, r0, r4, lsl r0
 438:	000003c0 	andeq	r0, r0, r0, asr #7
 43c:	00008f80 	andeq	r8, r0, r0, lsl #31
 440:	00000048 	andeq	r0, r0, r8, asr #32
 444:	84080e42 	strhi	r0, [r8], #-3650	; 0xfffff1be
 448:	00018e02 	andeq	r8, r1, r2, lsl #28
 44c:	0000001c 	andeq	r0, r0, ip, lsl r0
 450:	000003c0 	andeq	r0, r0, r0, asr #7
 454:	00008fc8 	andeq	r8, r0, r8, asr #31
 458:	00000080 	andeq	r0, r0, r0, lsl #1
 45c:	84180e42 	ldrhi	r0, [r8], #-3650	; 0xfffff1be
 460:	86058506 	strhi	r8, [r5], -r6, lsl #10
 464:	88038704 	stmdahi	r3, {r2, r8, r9, sl, pc}
 468:	00018e02 	andeq	r8, r1, r2, lsl #28
 46c:	00000014 	andeq	r0, r0, r4, lsl r0
 470:	000003c0 	andeq	r0, r0, r0, asr #7
 474:	00009048 	andeq	r9, r0, r8, asr #32
 478:	00000010 	andeq	r0, r0, r0, lsl r0
 47c:	84080e42 	strhi	r0, [r8], #-3650	; 0xfffff1be
 480:	00018e02 	andeq	r8, r1, r2, lsl #28
 484:	00000014 	andeq	r0, r0, r4, lsl r0
 488:	000003c0 	andeq	r0, r0, r0, asr #7
 48c:	00009058 	andeq	r9, r0, r8, asr r0
 490:	00000010 	andeq	r0, r0, r0, lsl r0
 494:	84080e42 	strhi	r0, [r8], #-3650	; 0xfffff1be
 498:	00018e02 	andeq	r8, r1, r2, lsl #28
 49c:	0000000c 	andeq	r0, r0, ip
 4a0:	ffffffff 			; <UNDEFINED> instruction: 0xffffffff
 4a4:	7c020001 	stcvc	0, cr0, [r2], {1}
 4a8:	000d0c0e 	andeq	r0, sp, lr, lsl #24
 4ac:	00000014 	andeq	r0, r0, r4, lsl r0
 4b0:	0000049c 	muleq	r0, ip, r4
 4b4:	00009068 	andeq	r9, r0, r8, rrx
 4b8:	00000034 	andeq	r0, r0, r4, lsr r0
 4bc:	84080e42 	strhi	r0, [r8], #-3650	; 0xfffff1be
 4c0:	00018e02 	andeq	r8, r1, r2, lsl #28
 4c4:	0000000c 	andeq	r0, r0, ip
 4c8:	ffffffff 			; <UNDEFINED> instruction: 0xffffffff
 4cc:	7c020001 	stcvc	0, cr0, [r2], {1}
 4d0:	000d0c0e 	andeq	r0, sp, lr, lsl #24
 4d4:	0000000c 	andeq	r0, r0, ip
 4d8:	000004c4 	andeq	r0, r0, r4, asr #9
 4dc:	000090b4 	strheq	r9, [r0], -r4
 4e0:	00000004 	andeq	r0, r0, r4
