
test-set-diff-sizes.elf:     file format elf32-littlearm


Disassembly of section .text:

00008000 <__code_start__>:
    8000:	e3a00013 	mov	r0, #19, 0
    8004:	e3800080 	orr	r0, r0, #128, 0	; 0x80
    8008:	e129f000 	msr	CPSR_fc, r0
    800c:	e3a01000 	mov	r1, #0, 0
    8010:	ee071f95 	mcr	15, 0, r1, cr7, cr5, {4}
    8014:	e3a0d302 	mov	sp, #134217728	; 0x8000000
    8018:	e3a0b000 	mov	fp, #0, 0
    801c:	eb0005fd 	bl	9818 <_cstart>
    8020:	eb00060a 	bl	9850 <rpi_reboot>

00008024 <PUT32>:
    8024:	e5801000 	str	r1, [r0]
    8028:	e12fff1e 	bx	lr

0000802c <GET32>:
    802c:	e5900000 	ldr	r0, [r0]
    8030:	e12fff1e 	bx	lr

00008034 <BRANCHTO>:
    8034:	e12fff10 	bx	r0

00008038 <compare_world>:
    8038:	e92d41f0 	push	{r4, r5, r6, r7, r8, lr}
    803c:	e24dd018 	sub	sp, sp, #24, 0
    8040:	e5903008 	ldr	r3, [r0, #8]
    8044:	e3530000 	cmp	r3, #0, 0
    8048:	0a00004f 	beq	818c <compare_world+0x154>
    804c:	e1a08000 	mov	r8, r0
    8050:	e1a04001 	mov	r4, r1
    8054:	e3a05000 	mov	r5, #0, 0
    8058:	e1a06005 	mov	r6, r5
    805c:	ea000012 	b	80ac <compare_world+0x74>
    8060:	e59f4138 	ldr	r4, [pc, #312]	; 81a0 <compare_world+0x168>
    8064:	e1a02006 	mov	r2, r6
    8068:	e1a01004 	mov	r1, r4
    806c:	e59f0130 	ldr	r0, [pc, #304]	; 81a4 <compare_world+0x16c>
    8070:	eb0004ca 	bl	93a0 <printk>
    8074:	e59f312c 	ldr	r3, [pc, #300]	; 81a8 <compare_world+0x170>
    8078:	e58d3000 	str	r3, [sp]
    807c:	e3a0300b 	mov	r3, #11, 0
    8080:	e1a02004 	mov	r2, r4
    8084:	e59f1120 	ldr	r1, [pc, #288]	; 81ac <compare_world+0x174>
    8088:	e59f0120 	ldr	r0, [pc, #288]	; 81b0 <compare_world+0x178>
    808c:	eb0004c3 	bl	93a0 <printk>
    8090:	eb0005d5 	bl	97ec <clean_reboot>
    8094:	e2866001 	add	r6, r6, #1, 0
    8098:	e284400a 	add	r4, r4, #10, 0
    809c:	e285500a 	add	r5, r5, #10, 0
    80a0:	e5983008 	ldr	r3, [r8, #8]
    80a4:	e1530006 	cmp	r3, r6
    80a8:	9a000037 	bls	818c <compare_world+0x154>
    80ac:	e1a07004 	mov	r7, r4
    80b0:	e5d42008 	ldrb	r2, [r4, #8]
    80b4:	e5983004 	ldr	r3, [r8, #4]
    80b8:	e0833005 	add	r3, r3, r5
    80bc:	e5d31008 	ldrb	r1, [r3, #8]
    80c0:	e1510002 	cmp	r1, r2
    80c4:	1affffe5 	bne	8060 <compare_world+0x28>
    80c8:	e3520000 	cmp	r2, #0, 0
    80cc:	0afffff0 	beq	8094 <compare_world+0x5c>
    80d0:	e5d41000 	ldrb	r1, [r4]
    80d4:	e5d32000 	ldrb	r2, [r3]
    80d8:	e1510002 	cmp	r1, r2
    80dc:	1a00000a 	bne	810c <compare_world+0xd4>
    80e0:	e1d320b2 	ldrh	r2, [r3, #2]
    80e4:	e1d3c0b4 	ldrh	ip, [r3, #4]
    80e8:	e1d410b2 	ldrh	r1, [r4, #2]
    80ec:	e1d400b4 	ldrh	r0, [r4, #4]
    80f0:	e182280c 	orr	r2, r2, ip, lsl #16
    80f4:	e1d330b6 	ldrh	r3, [r3, #6]
    80f8:	e1810800 	orr	r0, r1, r0, lsl #16
    80fc:	e1d410b6 	ldrh	r1, [r4, #6]
    8100:	eb0001c5 	bl	881c <block_pos_equal>
    8104:	e3500000 	cmp	r0, #0, 0
    8108:	1affffe1 	bne	8094 <compare_world+0x5c>
    810c:	e59f408c 	ldr	r4, [pc, #140]	; 81a0 <compare_world+0x168>
    8110:	e1a02006 	mov	r2, r6
    8114:	e1a01004 	mov	r1, r4
    8118:	e59f0094 	ldr	r0, [pc, #148]	; 81b4 <compare_world+0x17c>
    811c:	eb00049f 	bl	93a0 <printk>
    8120:	e5982004 	ldr	r2, [r8, #4]
    8124:	e0823005 	add	r3, r2, r5
    8128:	e1d310f6 	ldrsh	r1, [r3, #6]
    812c:	e58d1014 	str	r1, [sp, #20]
    8130:	e1d310f4 	ldrsh	r1, [r3, #4]
    8134:	e58d1010 	str	r1, [sp, #16]
    8138:	e1d330f2 	ldrsh	r3, [r3, #2]
    813c:	e58d300c 	str	r3, [sp, #12]
    8140:	e7d23005 	ldrb	r3, [r2, r5]
    8144:	e58d3008 	str	r3, [sp, #8]
    8148:	e1d730f6 	ldrsh	r3, [r7, #6]
    814c:	e58d3004 	str	r3, [sp, #4]
    8150:	e1d730f4 	ldrsh	r3, [r7, #4]
    8154:	e58d3000 	str	r3, [sp]
    8158:	e1d730f2 	ldrsh	r3, [r7, #2]
    815c:	e5d72000 	ldrb	r2, [r7]
    8160:	e1a01004 	mov	r1, r4
    8164:	e59f004c 	ldr	r0, [pc, #76]	; 81b8 <compare_world+0x180>
    8168:	eb00048c 	bl	93a0 <printk>
    816c:	e59f3034 	ldr	r3, [pc, #52]	; 81a8 <compare_world+0x170>
    8170:	e58d3000 	str	r3, [sp]
    8174:	e3a03012 	mov	r3, #18, 0
    8178:	e1a02004 	mov	r2, r4
    817c:	e59f1028 	ldr	r1, [pc, #40]	; 81ac <compare_world+0x174>
    8180:	e59f0028 	ldr	r0, [pc, #40]	; 81b0 <compare_world+0x178>
    8184:	eb000485 	bl	93a0 <printk>
    8188:	eb000597 	bl	97ec <clean_reboot>
    818c:	e59f100c 	ldr	r1, [pc, #12]	; 81a0 <compare_world+0x168>
    8190:	e59f0024 	ldr	r0, [pc, #36]	; 81bc <compare_world+0x184>
    8194:	eb000481 	bl	93a0 <printk>
    8198:	e28dd018 	add	sp, sp, #24, 0
    819c:	e8bd81f0 	pop	{r4, r5, r6, r7, r8, pc}
    81a0:	00009e84 	andeq	r9, r0, r4, lsl #29
    81a4:	00009d08 	andeq	r9, r0, r8, lsl #26
    81a8:	00009d78 	andeq	r9, r0, r8, ror sp
    81ac:	00009d30 	andeq	r9, r0, r0, lsr sp
    81b0:	00009d48 	andeq	r9, r0, r8, asr #26
    81b4:	00009d80 	andeq	r9, r0, r0, lsl #27
    81b8:	00009da0 	andeq	r9, r0, r0, lsr #27
    81bc:	00009dec 	andeq	r9, r0, ip, ror #27

000081c0 <fill_table>:
    81c0:	e92d4ff0 	push	{r4, r5, r6, r7, r8, r9, sl, fp, lr}
    81c4:	e24dd014 	sub	sp, sp, #20, 0
    81c8:	e5903000 	ldr	r3, [r0]
    81cc:	e1d3b0f4 	ldrsh	fp, [r3, #4]
    81d0:	e1d320fa 	ldrsh	r2, [r3, #10]
    81d4:	e15b0002 	cmp	fp, r2
    81d8:	aa00004b 	bge	830c <fill_table+0x14c>
    81dc:	e1a05000 	mov	r5, r0
    81e0:	e1a06001 	mov	r6, r1
    81e4:	e59fa13c 	ldr	sl, [pc, #316]	; 8328 <fill_table+0x168>
    81e8:	ea00003e 	b	82e8 <fill_table+0x128>
    81ec:	e0800100 	add	r0, r0, r0, lsl #2
    81f0:	e0863080 	add	r3, r6, r0, lsl #1
    81f4:	e7c62080 	strb	r2, [r6, r0, lsl #1]
    81f8:	e1c390b2 	strh	r9, [r3, #2]
    81fc:	e1c380b4 	strh	r8, [r3, #4]
    8200:	e1c370b6 	strh	r7, [r3, #6]
    8204:	e3a02001 	mov	r2, #1, 0
    8208:	e5c32008 	strb	r2, [r3, #8]
    820c:	e59a3000 	ldr	r3, [sl]
    8210:	e0833002 	add	r3, r3, r2
    8214:	e58a3000 	str	r3, [sl]
    8218:	e2844002 	add	r4, r4, #2, 0
    821c:	e5953000 	ldr	r3, [r5]
    8220:	e1d330fe 	ldrsh	r3, [r3, #14]
    8224:	e1530004 	cmp	r3, r4
    8228:	da00001a 	ble	8298 <fill_table+0xd8>
    822c:	e6bf7074 	sxth	r7, r4
    8230:	e1cd90b8 	strh	r9, [sp, #8]
    8234:	e1cd80ba 	strh	r8, [sp, #10]
    8238:	e1cd70bc 	strh	r7, [sp, #12]
    823c:	e28d3008 	add	r3, sp, #8, 0
    8240:	e893000c 	ldm	r3, {r2, r3}
    8244:	e5951008 	ldr	r1, [r5, #8]
    8248:	e1a00006 	mov	r0, r6
    824c:	eb000251 	bl	8b98 <table_empty_index>
    8250:	e5952000 	ldr	r2, [r5]
    8254:	e1d230f4 	ldrsh	r3, [r2, #4]
    8258:	e04b3003 	sub	r3, fp, r3
    825c:	e3130003 	tst	r3, #3, 0
    8260:	13a02003 	movne	r2, #3, 0
    8264:	1affffe0 	bne	81ec <fill_table+0x2c>
    8268:	e1d230f6 	ldrsh	r3, [r2, #6]
    826c:	e59d1004 	ldr	r1, [sp, #4]
    8270:	e0413003 	sub	r3, r1, r3
    8274:	e3130003 	tst	r3, #3, 0
    8278:	13a02003 	movne	r2, #3, 0
    827c:	1affffda 	bne	81ec <fill_table+0x2c>
    8280:	e1d230f8 	ldrsh	r3, [r2, #8]
    8284:	e0443003 	sub	r3, r4, r3
    8288:	e3130003 	tst	r3, #3, 0
    828c:	13a02003 	movne	r2, #3, 0
    8290:	03a02002 	moveq	r2, #2, 0
    8294:	eaffffd4 	b	81ec <fill_table+0x2c>
    8298:	e59d3004 	ldr	r3, [sp, #4]
    829c:	e2833002 	add	r3, r3, #2, 0
    82a0:	e1a01003 	mov	r1, r3
    82a4:	e58d3004 	str	r3, [sp, #4]
    82a8:	e5953000 	ldr	r3, [r5]
    82ac:	e1d320fc 	ldrsh	r2, [r3, #12]
    82b0:	e1520001 	cmp	r2, r1
    82b4:	da000006 	ble	82d4 <fill_table+0x114>
    82b8:	e1d340f8 	ldrsh	r4, [r3, #8]
    82bc:	e5953000 	ldr	r3, [r5]
    82c0:	e1d330fe 	ldrsh	r3, [r3, #14]
    82c4:	e1540003 	cmp	r4, r3
    82c8:	aafffff2 	bge	8298 <fill_table+0xd8>
    82cc:	e1dd80f4 	ldrsh	r8, [sp, #4]
    82d0:	eaffffd5 	b	822c <fill_table+0x6c>
    82d4:	e28bb002 	add	fp, fp, #2, 0
    82d8:	e5953000 	ldr	r3, [r5]
    82dc:	e1d320fa 	ldrsh	r2, [r3, #10]
    82e0:	e152000b 	cmp	r2, fp
    82e4:	da000008 	ble	830c <fill_table+0x14c>
    82e8:	e1d330f6 	ldrsh	r3, [r3, #6]
    82ec:	e1a01003 	mov	r1, r3
    82f0:	e58d3004 	str	r3, [sp, #4]
    82f4:	e5953000 	ldr	r3, [r5]
    82f8:	e1d320fc 	ldrsh	r2, [r3, #12]
    82fc:	e1510002 	cmp	r1, r2
    8300:	aafffff3 	bge	82d4 <fill_table+0x114>
    8304:	e6bf907b 	sxth	r9, fp
    8308:	eaffffea 	b	82b8 <fill_table+0xf8>
    830c:	e59f3014 	ldr	r3, [pc, #20]	; 8328 <fill_table+0x168>
    8310:	e5932000 	ldr	r2, [r3]
    8314:	e59f1010 	ldr	r1, [pc, #16]	; 832c <fill_table+0x16c>
    8318:	e59f0010 	ldr	r0, [pc, #16]	; 8330 <fill_table+0x170>
    831c:	eb00041f 	bl	93a0 <printk>
    8320:	e28dd014 	add	sp, sp, #20, 0
    8324:	e8bd8ff0 	pop	{r4, r5, r6, r7, r8, r9, sl, fp, pc}
    8328:	0000a39c 	muleq	r0, ip, r3
    832c:	00009e94 	muleq	r0, r4, lr
    8330:	00009e10 	andeq	r9, r0, r0, lsl lr

00008334 <edit_world>:
    8334:	e92d43f0 	push	{r4, r5, r6, r7, r8, r9, lr}
    8338:	e24dd00c 	sub	sp, sp, #12, 0
    833c:	e5903000 	ldr	r3, [r0]
    8340:	e1d380f4 	ldrsh	r8, [r3, #4]
    8344:	e1d320fa 	ldrsh	r2, [r3, #10]
    8348:	e1580002 	cmp	r8, r2
    834c:	aa00004a 	bge	847c <edit_world+0x148>
    8350:	e1a04000 	mov	r4, r0
    8354:	e1a0600d 	mov	r6, sp
    8358:	e3a09003 	mov	r9, #3, 0
    835c:	e1d370f6 	ldrsh	r7, [r3, #6]
    8360:	e5943000 	ldr	r3, [r4]
    8364:	e1d320fc 	ldrsh	r2, [r3, #12]
    8368:	e1570002 	cmp	r7, r2
    836c:	aa000015 	bge	83c8 <edit_world+0x94>
    8370:	e1d350f8 	ldrsh	r5, [r3, #8]
    8374:	e5943000 	ldr	r3, [r4]
    8378:	e1d330fe 	ldrsh	r3, [r3, #14]
    837c:	e1550003 	cmp	r5, r3
    8380:	aa00000b 	bge	83b4 <edit_world+0x80>
    8384:	e1cd80b0 	strh	r8, [sp]
    8388:	e1cd70b2 	strh	r7, [sp, #2]
    838c:	e1cd50b4 	strh	r5, [sp, #4]
    8390:	e1a03009 	mov	r3, r9
    8394:	e8960006 	ldm	r6, {r1, r2}
    8398:	e1a00004 	mov	r0, r4
    839c:	eb000157 	bl	8900 <world_set_block>
    83a0:	e2855002 	add	r5, r5, #2, 0
    83a4:	e5943000 	ldr	r3, [r4]
    83a8:	e1d330fe 	ldrsh	r3, [r3, #14]
    83ac:	e1530005 	cmp	r3, r5
    83b0:	cafffff3 	bgt	8384 <edit_world+0x50>
    83b4:	e2877002 	add	r7, r7, #2, 0
    83b8:	e5943000 	ldr	r3, [r4]
    83bc:	e1d320fc 	ldrsh	r2, [r3, #12]
    83c0:	e1520007 	cmp	r2, r7
    83c4:	caffffe9 	bgt	8370 <edit_world+0x3c>
    83c8:	e2888002 	add	r8, r8, #2, 0
    83cc:	e5943000 	ldr	r3, [r4]
    83d0:	e1d320fa 	ldrsh	r2, [r3, #10]
    83d4:	e1520008 	cmp	r2, r8
    83d8:	caffffdf 	bgt	835c <edit_world+0x28>
    83dc:	e1d380f4 	ldrsh	r8, [r3, #4]
    83e0:	e1520008 	cmp	r2, r8
    83e4:	da000024 	ble	847c <edit_world+0x148>
    83e8:	e1a0600d 	mov	r6, sp
    83ec:	e3a09002 	mov	r9, #2, 0
    83f0:	ea00001b 	b	8464 <edit_world+0x130>
    83f4:	e2877004 	add	r7, r7, #4, 0
    83f8:	e5943000 	ldr	r3, [r4]
    83fc:	e1d320fc 	ldrsh	r2, [r3, #12]
    8400:	e1520007 	cmp	r2, r7
    8404:	da000011 	ble	8450 <edit_world+0x11c>
    8408:	e1d350f8 	ldrsh	r5, [r3, #8]
    840c:	e5943000 	ldr	r3, [r4]
    8410:	e1d330fe 	ldrsh	r3, [r3, #14]
    8414:	e1550003 	cmp	r5, r3
    8418:	aafffff5 	bge	83f4 <edit_world+0xc0>
    841c:	e1cd80b0 	strh	r8, [sp]
    8420:	e1cd70b2 	strh	r7, [sp, #2]
    8424:	e1cd50b4 	strh	r5, [sp, #4]
    8428:	e1a03009 	mov	r3, r9
    842c:	e8960006 	ldm	r6, {r1, r2}
    8430:	e1a00004 	mov	r0, r4
    8434:	eb000131 	bl	8900 <world_set_block>
    8438:	e2855004 	add	r5, r5, #4, 0
    843c:	e5943000 	ldr	r3, [r4]
    8440:	e1d330fe 	ldrsh	r3, [r3, #14]
    8444:	e1530005 	cmp	r3, r5
    8448:	cafffff3 	bgt	841c <edit_world+0xe8>
    844c:	eaffffe8 	b	83f4 <edit_world+0xc0>
    8450:	e2888004 	add	r8, r8, #4, 0
    8454:	e5943000 	ldr	r3, [r4]
    8458:	e1d320fa 	ldrsh	r2, [r3, #10]
    845c:	e1520008 	cmp	r2, r8
    8460:	da000005 	ble	847c <edit_world+0x148>
    8464:	e1d370f6 	ldrsh	r7, [r3, #6]
    8468:	e5943000 	ldr	r3, [r4]
    846c:	e1d320fc 	ldrsh	r2, [r3, #12]
    8470:	e1570002 	cmp	r7, r2
    8474:	baffffe3 	blt	8408 <edit_world+0xd4>
    8478:	eafffff4 	b	8450 <edit_world+0x11c>
    847c:	e28dd00c 	add	sp, sp, #12, 0
    8480:	e8bd83f0 	pop	{r4, r5, r6, r7, r8, r9, pc}

00008484 <create_world>:
    8484:	e24dd008 	sub	sp, sp, #8, 0
    8488:	e92d4070 	push	{r4, r5, r6, lr}
    848c:	e24dd030 	sub	sp, sp, #48, 0	; 0x30
    8490:	e28dc008 	add	ip, sp, #8, 0
    8494:	e88c0006 	stm	ip, {r1, r2}
    8498:	e58d3044 	str	r3, [sp, #68]	; 0x44
    849c:	e59d504c 	ldr	r5, [sp, #76]	; 0x4c
    84a0:	e3a03000 	mov	r3, #0, 0
    84a4:	e58d3020 	str	r3, [sp, #32]
    84a8:	e58d3024 	str	r3, [sp, #36]	; 0x24
    84ac:	e58d0010 	str	r0, [sp, #16]
    84b0:	e89c0003 	ldm	ip, {r0, r1}
    84b4:	e58d0014 	str	r0, [sp, #20]
    84b8:	e1cd11b8 	strh	r1, [sp, #24]
    84bc:	e3a02006 	mov	r2, #6, 0
    84c0:	e28d1044 	add	r1, sp, #68, 0	; 0x44
    84c4:	e28d001a 	add	r0, sp, #26, 0
    84c8:	eb000361 	bl	9254 <memcpy>
    84cc:	e58d5028 	str	r5, [sp, #40]	; 0x28
    84d0:	e59d3050 	ldr	r3, [sp, #80]	; 0x50
    84d4:	e58d302c 	str	r3, [sp, #44]	; 0x2c
    84d8:	e28d0010 	add	r0, sp, #16, 0
    84dc:	eb0000a9 	bl	8788 <world_create>
    84e0:	e2504000 	subs	r4, r0, #0, 0
    84e4:	0a000019 	beq	8550 <create_world+0xcc>
    84e8:	e0855105 	add	r5, r5, r5, lsl #2
    84ec:	e1a00085 	lsl	r0, r5, #1
    84f0:	eb0002d7 	bl	9054 <kmalloc>
    84f4:	e1a05000 	mov	r5, r0
    84f8:	e1a01000 	mov	r1, r0
    84fc:	e1a00004 	mov	r0, r4
    8500:	ebffff2e 	bl	81c0 <fill_table>
    8504:	e1a00004 	mov	r0, r4
    8508:	ebffff89 	bl	8334 <edit_world>
    850c:	e59f6074 	ldr	r6, [pc, #116]	; 8588 <create_world+0x104>
    8510:	e594300c 	ldr	r3, [r4, #12]
    8514:	e5962000 	ldr	r2, [r6]
    8518:	e59f106c 	ldr	r1, [pc, #108]	; 858c <create_world+0x108>
    851c:	e59f006c 	ldr	r0, [pc, #108]	; 8590 <create_world+0x10c>
    8520:	eb00039e 	bl	93a0 <printk>
    8524:	e594200c 	ldr	r2, [r4, #12]
    8528:	e5963000 	ldr	r3, [r6]
    852c:	e1520003 	cmp	r2, r3
    8530:	1a00000c 	bne	8568 <create_world+0xe4>
    8534:	e1a01005 	mov	r1, r5
    8538:	e1a00004 	mov	r0, r4
    853c:	ebfffebd 	bl	8038 <compare_world>
    8540:	e28dd030 	add	sp, sp, #48, 0	; 0x30
    8544:	e8bd4070 	pop	{r4, r5, r6, lr}
    8548:	e28dd008 	add	sp, sp, #8, 0
    854c:	e12fff1e 	bx	lr
    8550:	e3a03050 	mov	r3, #80, 0	; 0x50
    8554:	e59f2030 	ldr	r2, [pc, #48]	; 858c <create_world+0x108>
    8558:	e59f1034 	ldr	r1, [pc, #52]	; 8594 <create_world+0x110>
    855c:	e59f0034 	ldr	r0, [pc, #52]	; 8598 <create_world+0x114>
    8560:	eb00038e 	bl	93a0 <printk>
    8564:	eb0004a0 	bl	97ec <clean_reboot>
    8568:	e59f302c 	ldr	r3, [pc, #44]	; 859c <create_world+0x118>
    856c:	e58d3000 	str	r3, [sp]
    8570:	e3a03057 	mov	r3, #87, 0	; 0x57
    8574:	e59f2010 	ldr	r2, [pc, #16]	; 858c <create_world+0x108>
    8578:	e59f1014 	ldr	r1, [pc, #20]	; 8594 <create_world+0x110>
    857c:	e59f001c 	ldr	r0, [pc, #28]	; 85a0 <create_world+0x11c>
    8580:	eb000386 	bl	93a0 <printk>
    8584:	eb000498 	bl	97ec <clean_reboot>
    8588:	0000a39c 	muleq	r0, ip, r3
    858c:	00009ea0 	andeq	r9, r0, r0, lsr #29
    8590:	00009e4c 	andeq	r9, r0, ip, asr #28
    8594:	00009d30 	andeq	r9, r0, r0, lsr sp
    8598:	00009e24 	andeq	r9, r0, r4, lsr #28
    859c:	00009e6c 	andeq	r9, r0, ip, ror #28
    85a0:	00009d48 	andeq	r9, r0, r8, asr #26

000085a4 <notmain>:
    85a4:	e92d4070 	push	{r4, r5, r6, lr}
    85a8:	e24dd040 	sub	sp, sp, #64, 0	; 0x40
    85ac:	e3a04000 	mov	r4, #0, 0
    85b0:	e1cd41b0 	strh	r4, [sp, #16]
    85b4:	e1cd41b2 	strh	r4, [sp, #18]
    85b8:	e1cd41b4 	strh	r4, [sp, #20]
    85bc:	e3a05005 	mov	r5, #5, 0
    85c0:	e1cd51b8 	strh	r5, [sp, #24]
    85c4:	e1cd51ba 	strh	r5, [sp, #26]
    85c8:	e3a03080 	mov	r3, #128, 0	; 0x80
    85cc:	e58d3008 	str	r3, [sp, #8]
    85d0:	e58d3004 	str	r3, [sp, #4]
    85d4:	e1cd50b0 	strh	r5, [sp]
    85d8:	e59d3018 	ldr	r3, [sp, #24]
    85dc:	e59d2014 	ldr	r2, [sp, #20]
    85e0:	e59d1010 	ldr	r1, [sp, #16]
    85e4:	e1a00004 	mov	r0, r4
    85e8:	ebffffa5 	bl	8484 <create_world>
    85ec:	e59f608c 	ldr	r6, [pc, #140]	; 8680 <notmain+0xdc>
    85f0:	e5864000 	str	r4, [r6]
    85f4:	e3e03004 	mvn	r3, #4, 0
    85f8:	e1cd32b0 	strh	r3, [sp, #32]
    85fc:	e1cd32b2 	strh	r3, [sp, #34]	; 0x22
    8600:	e1cd32b4 	strh	r3, [sp, #36]	; 0x24
    8604:	e1cd52b8 	strh	r5, [sp, #40]	; 0x28
    8608:	e1cd52ba 	strh	r5, [sp, #42]	; 0x2a
    860c:	e3a03b01 	mov	r3, #1024	; 0x400
    8610:	e58d3008 	str	r3, [sp, #8]
    8614:	e58d3004 	str	r3, [sp, #4]
    8618:	e1cd50b0 	strh	r5, [sp]
    861c:	e59d3028 	ldr	r3, [sp, #40]	; 0x28
    8620:	e59d2024 	ldr	r2, [sp, #36]	; 0x24
    8624:	e59d1020 	ldr	r1, [sp, #32]
    8628:	e1a00004 	mov	r0, r4
    862c:	ebffff94 	bl	8484 <create_world>
    8630:	e5864000 	str	r4, [r6]
    8634:	e3e03009 	mvn	r3, #9, 0
    8638:	e1cd33b0 	strh	r3, [sp, #48]	; 0x30
    863c:	e1cd33b2 	strh	r3, [sp, #50]	; 0x32
    8640:	e1cd33b4 	strh	r3, [sp, #52]	; 0x34
    8644:	e3a0300a 	mov	r3, #10, 0
    8648:	e1cd33b8 	strh	r3, [sp, #56]	; 0x38
    864c:	e1cd33ba 	strh	r3, [sp, #58]	; 0x3a
    8650:	e3a02a02 	mov	r2, #8192	; 0x2000
    8654:	e58d2008 	str	r2, [sp, #8]
    8658:	e58d2004 	str	r2, [sp, #4]
    865c:	e1cd30b0 	strh	r3, [sp]
    8660:	e59d3038 	ldr	r3, [sp, #56]	; 0x38
    8664:	e59d2034 	ldr	r2, [sp, #52]	; 0x34
    8668:	e59d1030 	ldr	r1, [sp, #48]	; 0x30
    866c:	e1a00004 	mov	r0, r4
    8670:	ebffff83 	bl	8484 <create_world>
    8674:	e5864000 	str	r4, [r6]
    8678:	e28dd040 	add	sp, sp, #64, 0	; 0x40
    867c:	e8bd8070 	pop	{r4, r5, r6, pc}
    8680:	0000a39c 	muleq	r0, ip, r3

00008684 <world_make_key>:
    8684:	e24dd008 	sub	sp, sp, #8, 0
    8688:	e28d3008 	add	r3, sp, #8, 0
    868c:	e9030003 	stmdb	r3, {r0, r1}
    8690:	e1dd30b0 	ldrh	r3, [sp]
    8694:	e1a00b03 	lsl	r0, r3, #22
    8698:	e1a00b20 	lsr	r0, r0, #22
    869c:	e1dd30b2 	ldrh	r3, [sp, #2]
    86a0:	e1a03b03 	lsl	r3, r3, #22
    86a4:	e1a03b23 	lsr	r3, r3, #22
    86a8:	e1a03503 	lsl	r3, r3, #10
    86ac:	e1833a00 	orr	r3, r3, r0, lsl #20
    86b0:	e1dd00b4 	ldrh	r0, [sp, #4]
    86b4:	e1a00b00 	lsl	r0, r0, #22
    86b8:	e1a00b20 	lsr	r0, r0, #22
    86bc:	e1830000 	orr	r0, r3, r0
    86c0:	e28dd008 	add	sp, sp, #8, 0
    86c4:	e12fff1e 	bx	lr

000086c8 <world_read_key>:
    86c8:	e92d4010 	push	{r4, lr}
    86cc:	e1a03b01 	lsl	r3, r1, #22
    86d0:	e1a03b23 	lsr	r3, r3, #22
    86d4:	e1a0e521 	lsr	lr, r1, #10
    86d8:	e1a02b0e 	lsl	r2, lr, #22
    86dc:	e1a02b22 	lsr	r2, r2, #22
    86e0:	e1a04a21 	lsr	r4, r1, #20
    86e4:	e1a0cb04 	lsl	ip, r4, #22
    86e8:	e1a0cb2c 	lsr	ip, ip, #22
    86ec:	e3140c02 	tst	r4, #512	; 0x200
    86f0:	11e0cb0c 	mvnne	ip, ip, lsl #22
    86f4:	11e0cb2c 	mvnne	ip, ip, lsr #22
    86f8:	06bfc07c 	sxtheq	ip, ip
    86fc:	e31e0c02 	tst	lr, #512	; 0x200
    8700:	11e02b02 	mvnne	r2, r2, lsl #22
    8704:	11e02b22 	mvnne	r2, r2, lsr #22
    8708:	06bf2072 	sxtheq	r2, r2
    870c:	e3110c02 	tst	r1, #512	; 0x200
    8710:	11e03b03 	mvnne	r3, r3, lsl #22
    8714:	11e03b23 	mvnne	r3, r3, lsr #22
    8718:	06bf3073 	sxtheq	r3, r3
    871c:	e1c0c0b0 	strh	ip, [r0]
    8720:	e1c020b2 	strh	r2, [r0, #2]
    8724:	e1c030b4 	strh	r3, [r0, #4]
    8728:	e8bd8010 	pop	{r4, pc}

0000872c <world_pos_is_valid>:
    872c:	e24dd008 	sub	sp, sp, #8, 0
    8730:	e28d3008 	add	r3, sp, #8, 0
    8734:	e9030003 	stmdb	r3, {r0, r1}
    8738:	e1dd30b0 	ldrh	r3, [sp]
    873c:	e2833c02 	add	r3, r3, #512	; 0x200
    8740:	e6ff3073 	uxth	r3, r3
    8744:	e59f0038 	ldr	r0, [pc, #56]	; 8784 <world_pos_is_valid+0x58>
    8748:	e1dd20b2 	ldrh	r2, [sp, #2]
    874c:	e2822c02 	add	r2, r2, #512	; 0x200
    8750:	e6ff2072 	uxth	r2, r2
    8754:	e1530000 	cmp	r3, r0
    8758:	91520000 	cmpls	r2, r0
    875c:	93a03001 	movls	r3, #1, 0
    8760:	83a03000 	movhi	r3, #0, 0
    8764:	e1dd20b4 	ldrh	r2, [sp, #4]
    8768:	e2822c02 	add	r2, r2, #512	; 0x200
    876c:	e6ff2072 	uxth	r2, r2
    8770:	e1520000 	cmp	r2, r0
    8774:	83a00000 	movhi	r0, #0, 0
    8778:	92030001 	andls	r0, r3, #1, 0
    877c:	e28dd008 	add	sp, sp, #8, 0
    8780:	e12fff1e 	bx	lr
    8784:	000003ff 	strdeq	r0, [r0], -pc	; <UNPREDICTABLE>

00008788 <world_create>:
    8788:	e92d4070 	push	{r4, r5, r6, lr}
    878c:	e1a05000 	mov	r5, r0
    8790:	e3a00020 	mov	r0, #32, 0
    8794:	eb00022e 	bl	9054 <kmalloc>
    8798:	e2504000 	subs	r4, r0, #0, 0
    879c:	0a00001c 	beq	8814 <world_create+0x8c>
    87a0:	e5845000 	str	r5, [r4]
    87a4:	e5950018 	ldr	r0, [r5, #24]
    87a8:	e0800100 	add	r0, r0, r0, lsl #2
    87ac:	e1a00080 	lsl	r0, r0, #1
    87b0:	eb000227 	bl	9054 <kmalloc>
    87b4:	e5840004 	str	r0, [r4, #4]
    87b8:	e3500000 	cmp	r0, #0, 0
    87bc:	01a04000 	moveq	r4, r0
    87c0:	0a000013 	beq	8814 <world_create+0x8c>
    87c4:	e5953018 	ldr	r3, [r5, #24]
    87c8:	e5843008 	str	r3, [r4, #8]
    87cc:	e3a03000 	mov	r3, #0, 0
    87d0:	e584300c 	str	r3, [r4, #12]
    87d4:	e595201c 	ldr	r2, [r5, #28]
    87d8:	e5842014 	str	r2, [r4, #20]
    87dc:	e5843018 	str	r3, [r4, #24]
    87e0:	e595001c 	ldr	r0, [r5, #28]
    87e4:	e0800100 	add	r0, r0, r0, lsl #2
    87e8:	e1a00080 	lsl	r0, r0, #1
    87ec:	eb000218 	bl	9054 <kmalloc>
    87f0:	e5840010 	str	r0, [r4, #16]
    87f4:	e595001c 	ldr	r0, [r5, #28]
    87f8:	e1a00100 	lsl	r0, r0, #2
    87fc:	eb000214 	bl	9054 <kmalloc>
    8800:	e584001c 	str	r0, [r4, #28]
    8804:	e5943010 	ldr	r3, [r4, #16]
    8808:	e3500000 	cmp	r0, #0, 0
    880c:	13530000 	cmpne	r3, #0, 0
    8810:	03a04000 	moveq	r4, #0, 0
    8814:	e1a00004 	mov	r0, r4
    8818:	e8bd8070 	pop	{r4, r5, r6, pc}

0000881c <block_pos_equal>:
    881c:	e24dd010 	sub	sp, sp, #16, 0
    8820:	e28dc010 	add	ip, sp, #16, 0
    8824:	e90c0003 	stmdb	ip, {r0, r1}
    8828:	e1a0100d 	mov	r1, sp
    882c:	e881000c 	stm	r1, {r2, r3}
    8830:	e1dd20f8 	ldrsh	r2, [sp, #8]
    8834:	e1dd30f0 	ldrsh	r3, [sp]
    8838:	e1520003 	cmp	r2, r3
    883c:	13a00000 	movne	r0, #0, 0
    8840:	0a000001 	beq	884c <block_pos_equal+0x30>
    8844:	e28dd010 	add	sp, sp, #16, 0
    8848:	e12fff1e 	bx	lr
    884c:	e1dd20fa 	ldrsh	r2, [sp, #10]
    8850:	e1dd30f2 	ldrsh	r3, [sp, #2]
    8854:	e1520003 	cmp	r2, r3
    8858:	13a00000 	movne	r0, #0, 0
    885c:	1afffff8 	bne	8844 <block_pos_equal+0x28>
    8860:	e1dd00fc 	ldrsh	r0, [sp, #12]
    8864:	e1dd30f4 	ldrsh	r3, [sp, #4]
    8868:	e1500003 	cmp	r0, r3
    886c:	13a00000 	movne	r0, #0, 0
    8870:	03a00001 	moveq	r0, #1, 0
    8874:	eafffff2 	b	8844 <block_pos_equal+0x28>

00008878 <world_get_block>:
    8878:	e92d4010 	push	{r4, lr}
    887c:	e24dd010 	sub	sp, sp, #16, 0
    8880:	e1a04000 	mov	r4, r0
    8884:	e28d3008 	add	r3, sp, #8, 0
    8888:	e8830006 	stm	r3, {r1, r2}
    888c:	e8930003 	ldm	r3, {r0, r1}
    8890:	ebffffa5 	bl	872c <world_pos_is_valid>
    8894:	e3500000 	cmp	r0, #0, 0
    8898:	0a000008 	beq	88c0 <world_get_block+0x48>
    889c:	e28d3010 	add	r3, sp, #16, 0
    88a0:	e9130006 	ldmdb	r3, {r1, r2}
    88a4:	e2840004 	add	r0, r4, #4, 0
    88a8:	eb0000d6 	bl	8c08 <table_get_entry>
    88ac:	e3500000 	cmp	r0, #0, 0
    88b0:	0a00000b 	beq	88e4 <world_get_block+0x6c>
    88b4:	e5d00000 	ldrb	r0, [r0]
    88b8:	e28dd010 	add	sp, sp, #16, 0
    88bc:	e8bd8010 	pop	{r4, pc}
    88c0:	e1dd30fc 	ldrsh	r3, [sp, #12]
    88c4:	e58d3000 	str	r3, [sp]
    88c8:	e1dd30fa 	ldrsh	r3, [sp, #10]
    88cc:	e1dd20f8 	ldrsh	r2, [sp, #8]
    88d0:	e59f1020 	ldr	r1, [pc, #32]	; 88f8 <world_get_block+0x80>
    88d4:	e59f0020 	ldr	r0, [pc, #32]	; 88fc <world_get_block+0x84>
    88d8:	eb0002b0 	bl	93a0 <printk>
    88dc:	e3a00000 	mov	r0, #0, 0
    88e0:	eafffff4 	b	88b8 <world_get_block+0x40>
    88e4:	e28d3010 	add	r3, sp, #16, 0
    88e8:	e9130006 	ldmdb	r3, {r1, r2}
    88ec:	e1a00004 	mov	r0, r4
    88f0:	eb000086 	bl	8b10 <world_base_block>
    88f4:	eaffffef 	b	88b8 <world_get_block+0x40>
    88f8:	00009f70 	andeq	r9, r0, r0, ror pc
    88fc:	00009eb0 			; <UNDEFINED> instruction: 0x00009eb0

00008900 <world_set_block>:
    8900:	e92d47f0 	push	{r4, r5, r6, r7, r8, r9, sl, lr}
    8904:	e24dd020 	sub	sp, sp, #32, 0
    8908:	e1a05000 	mov	r5, r0
    890c:	e28d0008 	add	r0, sp, #8, 0
    8910:	e8800006 	stm	r0, {r1, r2}
    8914:	e1a06003 	mov	r6, r3
    8918:	e1dd90f8 	ldrsh	r9, [sp, #8]
    891c:	e1dd80fa 	ldrsh	r8, [sp, #10]
    8920:	e1dd70fc 	ldrsh	r7, [sp, #12]
    8924:	e8900003 	ldm	r0, {r0, r1}
    8928:	ebffff7f 	bl	872c <world_pos_is_valid>
    892c:	e2504000 	subs	r4, r0, #0, 0
    8930:	0a00001c 	beq	89a8 <world_set_block+0xa8>
    8934:	e285a004 	add	sl, r5, #4, 0
    8938:	e59d200c 	ldr	r2, [sp, #12]
    893c:	e59d1008 	ldr	r1, [sp, #8]
    8940:	e1a0000a 	mov	r0, sl
    8944:	eb0000af 	bl	8c08 <table_get_entry>
    8948:	e2504000 	subs	r4, r0, #0, 0
    894c:	0a00001c 	beq	89c4 <world_set_block+0xc4>
    8950:	e58d7000 	str	r7, [sp]
    8954:	e1a03008 	mov	r3, r8
    8958:	e1a02009 	mov	r2, r9
    895c:	e59f109c 	ldr	r1, [pc, #156]	; 8a00 <world_set_block+0x100>
    8960:	e59f009c 	ldr	r0, [pc, #156]	; 8a04 <world_set_block+0x104>
    8964:	eb00028d 	bl	93a0 <printk>
    8968:	e5c46000 	strb	r6, [r4]
    896c:	e5cd6014 	strb	r6, [sp, #20]
    8970:	e1cd91b6 	strh	r9, [sp, #22]
    8974:	e1cd81b8 	strh	r8, [sp, #24]
    8978:	e1cd71ba 	strh	r7, [sp, #26]
    897c:	e3a03001 	mov	r3, #1, 0
    8980:	e5cd301c 	strb	r3, [sp, #28]
    8984:	e28d3020 	add	r3, sp, #32, 0
    8988:	e913000e 	ldmdb	r3, {r1, r2, r3}
    898c:	e2850010 	add	r0, r5, #16, 0
    8990:	eb0000e7 	bl	8d34 <pending_add>
    8994:	e2504000 	subs	r4, r0, #0, 0
    8998:	0a000014 	beq	89f0 <world_set_block+0xf0>
    899c:	e1a00004 	mov	r0, r4
    89a0:	e28dd020 	add	sp, sp, #32, 0
    89a4:	e8bd87f0 	pop	{r4, r5, r6, r7, r8, r9, sl, pc}
    89a8:	e58d7000 	str	r7, [sp]
    89ac:	e1a03008 	mov	r3, r8
    89b0:	e1a02009 	mov	r2, r9
    89b4:	e59f1044 	ldr	r1, [pc, #68]	; 8a00 <world_set_block+0x100>
    89b8:	e59f0048 	ldr	r0, [pc, #72]	; 8a08 <world_set_block+0x108>
    89bc:	eb000277 	bl	93a0 <printk>
    89c0:	eafffff5 	b	899c <world_set_block+0x9c>
    89c4:	e59d300c 	ldr	r3, [sp, #12]
    89c8:	e59d2008 	ldr	r2, [sp, #8]
    89cc:	e1a01006 	mov	r1, r6
    89d0:	e1a0000a 	mov	r0, sl
    89d4:	eb0000b6 	bl	8cb4 <table_set_entry>
    89d8:	e2504000 	subs	r4, r0, #0, 0
    89dc:	1affffe2 	bne	896c <world_set_block+0x6c>
    89e0:	e59f1018 	ldr	r1, [pc, #24]	; 8a00 <world_set_block+0x100>
    89e4:	e59f0020 	ldr	r0, [pc, #32]	; 8a0c <world_set_block+0x10c>
    89e8:	eb00026c 	bl	93a0 <printk>
    89ec:	eaffffea 	b	899c <world_set_block+0x9c>
    89f0:	e59f1008 	ldr	r1, [pc, #8]	; 8a00 <world_set_block+0x100>
    89f4:	e59f0014 	ldr	r0, [pc, #20]	; 8a10 <world_set_block+0x110>
    89f8:	eb000268 	bl	93a0 <printk>
    89fc:	eaffffe6 	b	899c <world_set_block+0x9c>
    8a00:	00009f80 	andeq	r9, r0, r0, lsl #31
    8a04:	00009f04 	andeq	r9, r0, r4, lsl #30
    8a08:	00009eb0 			; <UNDEFINED> instruction: 0x00009eb0
    8a0c:	00009ed8 	ldrdeq	r9, [r0], -r8
    8a10:	00009f40 	andeq	r9, r0, r0, asr #30

00008a14 <flat_world>:
    8a14:	e24dd008 	sub	sp, sp, #8, 0
    8a18:	e28d3008 	add	r3, sp, #8, 0
    8a1c:	e9030003 	stmdb	r3, {r0, r1}
    8a20:	e1dd30f2 	ldrsh	r3, [sp, #2]
    8a24:	e373003c 	cmn	r3, #60, 0	; 0x3c
    8a28:	0a00000c 	beq	8a60 <flat_world+0x4c>
    8a2c:	e6ff3073 	uxth	r3, r3
    8a30:	e283203e 	add	r2, r3, #62, 0	; 0x3e
    8a34:	e6ff2072 	uxth	r2, r2
    8a38:	e3520001 	cmp	r2, #1, 0
    8a3c:	93a00002 	movls	r0, #2, 0
    8a40:	9a000004 	bls	8a58 <flat_world+0x44>
    8a44:	e2833040 	add	r3, r3, #64, 0	; 0x40
    8a48:	e6ff0073 	uxth	r0, r3
    8a4c:	e3500001 	cmp	r0, #1, 0
    8a50:	83a00000 	movhi	r0, #0, 0
    8a54:	93a00001 	movls	r0, #1, 0
    8a58:	e28dd008 	add	sp, sp, #8, 0
    8a5c:	e12fff1e 	bx	lr
    8a60:	e3a00003 	mov	r0, #3, 0
    8a64:	eafffffb 	b	8a58 <flat_world+0x44>

00008a68 <make_flat_with_mtns>:
    8a68:	e52de004 	push	{lr}		; (str lr, [sp, #-4]!)
    8a6c:	e24dd00c 	sub	sp, sp, #12, 0
    8a70:	e28d3008 	add	r3, sp, #8, 0
    8a74:	e9030006 	stmdb	r3, {r1, r2}
    8a78:	e1dd20b0 	ldrh	r2, [sp]
    8a7c:	e59f3080 	ldr	r3, [pc, #128]	; 8b04 <make_flat_with_mtns+0x9c>
    8a80:	e0030293 	mul	r3, r3, r2
    8a84:	e1dd10b4 	ldrh	r1, [sp, #4]
    8a88:	e59f2078 	ldr	r2, [pc, #120]	; 8b08 <make_flat_with_mtns+0xa0>
    8a8c:	e0020192 	mul	r2, r2, r1
    8a90:	e0233002 	eor	r3, r3, r2
    8a94:	e0200003 	eor	r0, r0, r3
    8a98:	e02036a0 	eor	r3, r0, r0, lsr #13
    8a9c:	e59f0068 	ldr	r0, [pc, #104]	; 8b0c <make_flat_with_mtns+0xa4>
    8aa0:	e0000390 	mul	r0, r0, r3
    8aa4:	e0200820 	eor	r0, r0, r0, lsr #16
    8aa8:	e310000e 	tst	r0, #14, 0
    8aac:	1a00000f 	bne	8af0 <make_flat_with_mtns+0x88>
    8ab0:	e1a00220 	lsr	r0, r0, #4
    8ab4:	e2100007 	ands	r0, r0, #7, 0
    8ab8:	0a00000c 	beq	8af0 <make_flat_with_mtns+0x88>
    8abc:	e1dd30f2 	ldrsh	r3, [sp, #2]
    8ac0:	e240003c 	sub	r0, r0, #60, 0	; 0x3c
    8ac4:	e1530000 	cmp	r3, r0
    8ac8:	c3a00000 	movgt	r0, #0, 0
    8acc:	ca00000a 	bgt	8afc <make_flat_with_mtns+0x94>
    8ad0:	e1530000 	cmp	r3, r0
    8ad4:	1373003b 	cmnne	r3, #59, 0	; 0x3b
    8ad8:	a3a00004 	movge	r0, #4, 0
    8adc:	aa000006 	bge	8afc <make_flat_with_mtns+0x94>
    8ae0:	e28d3008 	add	r3, sp, #8, 0
    8ae4:	e9130003 	ldmdb	r3, {r0, r1}
    8ae8:	ebffffc9 	bl	8a14 <flat_world>
    8aec:	ea000002 	b	8afc <make_flat_with_mtns+0x94>
    8af0:	e28d3008 	add	r3, sp, #8, 0
    8af4:	e9130003 	ldmdb	r3, {r0, r1}
    8af8:	ebffffc5 	bl	8a14 <flat_world>
    8afc:	e28dd00c 	add	sp, sp, #12, 0
    8b00:	e49df004 	pop	{pc}		; (ldr pc, [sp], #4)
    8b04:	165667b1 			; <UNDEFINED> instruction: 0x165667b1
    8b08:	27d4eb2f 	ldrbcs	lr, [r4, pc, lsr #22]
    8b0c:	4bf19f61 	blmi	ffc70898 <__bss_end__+0xffc664f0>

00008b10 <world_base_block>:
    8b10:	e52de004 	push	{lr}		; (str lr, [sp, #-4]!)
    8b14:	e24dd00c 	sub	sp, sp, #12, 0
    8b18:	e28d3008 	add	r3, sp, #8, 0
    8b1c:	e9030006 	stmdb	r3, {r1, r2}
    8b20:	e5903000 	ldr	r3, [r0]
    8b24:	e5930000 	ldr	r0, [r3]
    8b28:	e3500000 	cmp	r0, #0, 0
    8b2c:	1a000004 	bne	8b44 <world_base_block+0x34>
    8b30:	e28d3008 	add	r3, sp, #8, 0
    8b34:	e9130003 	ldmdb	r3, {r0, r1}
    8b38:	ebffffb5 	bl	8a14 <flat_world>
    8b3c:	e28dd00c 	add	sp, sp, #12, 0
    8b40:	e49df004 	pop	{pc}		; (ldr pc, [sp], #4)
    8b44:	e28d3008 	add	r3, sp, #8, 0
    8b48:	e9130006 	ldmdb	r3, {r1, r2}
    8b4c:	ebffffc5 	bl	8a68 <make_flat_with_mtns>
    8b50:	eafffff9 	b	8b3c <world_base_block+0x2c>

00008b54 <table_hash_index>:
    8b54:	e92d4010 	push	{r4, lr}
    8b58:	e24dd008 	sub	sp, sp, #8, 0
    8b5c:	e1a0300d 	mov	r3, sp
    8b60:	e8830003 	stm	r3, {r0, r1}
    8b64:	e1a04002 	mov	r4, r2
    8b68:	e8930003 	ldm	r3, {r0, r1}
    8b6c:	ebfffec4 	bl	8684 <world_make_key>
    8b70:	e2642000 	rsb	r2, r4, #0, 0
    8b74:	e0044002 	and	r4, r4, r2
    8b78:	e16f4f14 	clz	r4, r4
    8b7c:	e59f3010 	ldr	r3, [pc, #16]	; 8b94 <table_hash_index+0x40>
    8b80:	e0000093 	mul	r0, r3, r0
    8b84:	e2844001 	add	r4, r4, #1, 0
    8b88:	e1a00430 	lsr	r0, r0, r4
    8b8c:	e28dd008 	add	sp, sp, #8, 0
    8b90:	e8bd8010 	pop	{r4, pc}
    8b94:	9e3779b1 			; <UNDEFINED> instruction: 0x9e3779b1

00008b98 <table_empty_index>:
    8b98:	e92d4030 	push	{r4, r5, lr}
    8b9c:	e24dd00c 	sub	sp, sp, #12, 0
    8ba0:	e1a04000 	mov	r4, r0
    8ba4:	e1a05001 	mov	r5, r1
    8ba8:	e1a0100d 	mov	r1, sp
    8bac:	e881000c 	stm	r1, {r2, r3}
    8bb0:	e1a02005 	mov	r2, r5
    8bb4:	e8910003 	ldm	r1, {r0, r1}
    8bb8:	ebffffe5 	bl	8b54 <table_hash_index>
    8bbc:	e3550000 	cmp	r5, #0, 0
    8bc0:	0a00000e 	beq	8c00 <table_empty_index+0x68>
    8bc4:	e1a03000 	mov	r3, r0
    8bc8:	e0852000 	add	r2, r5, r0
    8bcc:	e2451001 	sub	r1, r5, #1, 0
    8bd0:	e0010003 	and	r0, r1, r3
    8bd4:	e080c100 	add	ip, r0, r0, lsl #2
    8bd8:	e084c08c 	add	ip, r4, ip, lsl #1
    8bdc:	e5dcc008 	ldrb	ip, [ip, #8]
    8be0:	e35c0000 	cmp	ip, #0, 0
    8be4:	0a000003 	beq	8bf8 <table_empty_index+0x60>
    8be8:	e2833001 	add	r3, r3, #1, 0
    8bec:	e1530002 	cmp	r3, r2
    8bf0:	1afffff6 	bne	8bd0 <table_empty_index+0x38>
    8bf4:	e3e00000 	mvn	r0, #0, 0
    8bf8:	e28dd00c 	add	sp, sp, #12, 0
    8bfc:	e8bd8030 	pop	{r4, r5, pc}
    8c00:	e3e00000 	mvn	r0, #0, 0
    8c04:	eafffffb 	b	8bf8 <table_empty_index+0x60>

00008c08 <table_get_entry>:
    8c08:	e92d43f0 	push	{r4, r5, r6, r7, r8, r9, lr}
    8c0c:	e24dd00c 	sub	sp, sp, #12, 0
    8c10:	e1a07000 	mov	r7, r0
    8c14:	e1a0300d 	mov	r3, sp
    8c18:	e8830006 	stm	r3, {r1, r2}
    8c1c:	e5902004 	ldr	r2, [r0, #4]
    8c20:	e8930003 	ldm	r3, {r0, r1}
    8c24:	ebffffca 	bl	8b54 <table_hash_index>
    8c28:	e5979000 	ldr	r9, [r7]
    8c2c:	e5974004 	ldr	r4, [r7, #4]
    8c30:	e3540000 	cmp	r4, #0, 0
    8c34:	0a000018 	beq	8c9c <table_get_entry+0x94>
    8c38:	e1a08000 	mov	r8, r0
    8c3c:	e3a05000 	mov	r5, #0, 0
    8c40:	e1a0600d 	mov	r6, sp
    8c44:	e2444001 	sub	r4, r4, #1, 0
    8c48:	e0853008 	add	r3, r5, r8
    8c4c:	e0044003 	and	r4, r4, r3
    8c50:	e0844104 	add	r4, r4, r4, lsl #2
    8c54:	e0894084 	add	r4, r9, r4, lsl #1
    8c58:	e5d43008 	ldrb	r3, [r4, #8]
    8c5c:	e3530000 	cmp	r3, #0, 0
    8c60:	0a00000f 	beq	8ca4 <table_get_entry+0x9c>
    8c64:	e1d410b2 	ldrh	r1, [r4, #2]
    8c68:	e1d400b4 	ldrh	r0, [r4, #4]
    8c6c:	e896000c 	ldm	r6, {r2, r3}
    8c70:	e1810800 	orr	r0, r1, r0, lsl #16
    8c74:	e1d410b6 	ldrh	r1, [r4, #6]
    8c78:	ebfffee7 	bl	881c <block_pos_equal>
    8c7c:	e3500000 	cmp	r0, #0, 0
    8c80:	1a000008 	bne	8ca8 <table_get_entry+0xa0>
    8c84:	e2855001 	add	r5, r5, #1, 0
    8c88:	e5974004 	ldr	r4, [r7, #4]
    8c8c:	e1540005 	cmp	r4, r5
    8c90:	8affffeb 	bhi	8c44 <table_get_entry+0x3c>
    8c94:	e3a04000 	mov	r4, #0, 0
    8c98:	ea000002 	b	8ca8 <table_get_entry+0xa0>
    8c9c:	e3a04000 	mov	r4, #0, 0
    8ca0:	ea000000 	b	8ca8 <table_get_entry+0xa0>
    8ca4:	e3a04000 	mov	r4, #0, 0
    8ca8:	e1a00004 	mov	r0, r4
    8cac:	e28dd00c 	add	sp, sp, #12, 0
    8cb0:	e8bd83f0 	pop	{r4, r5, r6, r7, r8, r9, pc}

00008cb4 <table_set_entry>:
    8cb4:	e92d40f0 	push	{r4, r5, r6, r7, lr}
    8cb8:	e24dd01c 	sub	sp, sp, #28, 0
    8cbc:	e1a04000 	mov	r4, r0
    8cc0:	e1a06001 	mov	r6, r1
    8cc4:	e1a0500d 	mov	r5, sp
    8cc8:	e885000c 	stm	r5, {r2, r3}
    8ccc:	e3a02006 	mov	r2, #6, 0
    8cd0:	e1a01005 	mov	r1, r5
    8cd4:	e28d000e 	add	r0, sp, #14, 0
    8cd8:	eb00015d 	bl	9254 <memcpy>
    8cdc:	e5947000 	ldr	r7, [r4]
    8ce0:	e895000c 	ldm	r5, {r2, r3}
    8ce4:	e5941004 	ldr	r1, [r4, #4]
    8ce8:	e1a00007 	mov	r0, r7
    8cec:	ebffffa9 	bl	8b98 <table_empty_index>
    8cf0:	e3700001 	cmn	r0, #1, 0
    8cf4:	03a00000 	moveq	r0, #0, 0
    8cf8:	0a00000b 	beq	8d2c <table_set_entry+0x78>
    8cfc:	e5cd600c 	strb	r6, [sp, #12]
    8d00:	e3a05001 	mov	r5, #1, 0
    8d04:	e5cd5014 	strb	r5, [sp, #20]
    8d08:	e0800100 	add	r0, r0, r0, lsl #2
    8d0c:	e3a0200a 	mov	r2, #10, 0
    8d10:	e28d100c 	add	r1, sp, #12, 0
    8d14:	e0870510 	add	r0, r7, r0, lsl r5
    8d18:	eb00014d 	bl	9254 <memcpy>
    8d1c:	e5943008 	ldr	r3, [r4, #8]
    8d20:	e0833005 	add	r3, r3, r5
    8d24:	e5843008 	str	r3, [r4, #8]
    8d28:	e1a00005 	mov	r0, r5
    8d2c:	e28dd01c 	add	sp, sp, #28, 0
    8d30:	e8bd80f0 	pop	{r4, r5, r6, r7, pc}

00008d34 <pending_add>:
    8d34:	e92d4010 	push	{r4, lr}
    8d38:	e24dd010 	sub	sp, sp, #16, 0
    8d3c:	e1a04000 	mov	r4, r0
    8d40:	e28d0010 	add	r0, sp, #16, 0
    8d44:	e900000e 	stmdb	r0, {r1, r2, r3}
    8d48:	e5941004 	ldr	r1, [r4, #4]
    8d4c:	e5943008 	ldr	r3, [r4, #8]
    8d50:	e1530001 	cmp	r3, r1
    8d54:	03a00000 	moveq	r0, #0, 0
    8d58:	0a000012 	beq	8da8 <pending_add+0x74>
    8d5c:	e1dd30b6 	ldrh	r3, [sp, #6]
    8d60:	e1dd20b8 	ldrh	r2, [sp, #8]
    8d64:	e1832802 	orr	r2, r3, r2, lsl #16
    8d68:	e1dd30ba 	ldrh	r3, [sp, #10]
    8d6c:	e5940000 	ldr	r0, [r4]
    8d70:	ebffff88 	bl	8b98 <table_empty_index>
    8d74:	e5942008 	ldr	r2, [r4, #8]
    8d78:	e594300c 	ldr	r3, [r4, #12]
    8d7c:	e7830102 	str	r0, [r3, r2, lsl #2]
    8d80:	e5943000 	ldr	r3, [r4]
    8d84:	e0800100 	add	r0, r0, r0, lsl #2
    8d88:	e3a0200a 	mov	r2, #10, 0
    8d8c:	e28d1004 	add	r1, sp, #4, 0
    8d90:	e0830080 	add	r0, r3, r0, lsl #1
    8d94:	eb00012e 	bl	9254 <memcpy>
    8d98:	e5943008 	ldr	r3, [r4, #8]
    8d9c:	e2833001 	add	r3, r3, #1, 0
    8da0:	e5843008 	str	r3, [r4, #8]
    8da4:	e3a00001 	mov	r0, #1, 0
    8da8:	e28dd010 	add	sp, sp, #16, 0
    8dac:	e8bd8010 	pop	{r4, pc}

00008db0 <pending_flush>:
    8db0:	e92d4070 	push	{r4, r5, r6, lr}
    8db4:	e1a04000 	mov	r4, r0
    8db8:	e5902008 	ldr	r2, [r0, #8]
    8dbc:	e3520000 	cmp	r2, #0, 0
    8dc0:	0a000003 	beq	8dd4 <pending_flush+0x24>
    8dc4:	e3a03000 	mov	r3, #0, 0
    8dc8:	e2833001 	add	r3, r3, #1, 0
    8dcc:	e1530002 	cmp	r3, r2
    8dd0:	1afffffc 	bne	8dc8 <pending_flush+0x18>
    8dd4:	e3a05000 	mov	r5, #0, 0
    8dd8:	e5845008 	str	r5, [r4, #8]
    8ddc:	e5942004 	ldr	r2, [r4, #4]
    8de0:	e0822102 	add	r2, r2, r2, lsl #2
    8de4:	e1a02082 	lsl	r2, r2, #1
    8de8:	e1a01005 	mov	r1, r5
    8dec:	e5940000 	ldr	r0, [r4]
    8df0:	eb000142 	bl	9300 <memset>
    8df4:	e5942004 	ldr	r2, [r4, #4]
    8df8:	e1a02102 	lsl	r2, r2, #2
    8dfc:	e1a01005 	mov	r1, r5
    8e00:	e594000c 	ldr	r0, [r4, #12]
    8e04:	eb00013d 	bl	9300 <memset>
    8e08:	e3a00001 	mov	r0, #1, 0
    8e0c:	e8bd8070 	pop	{r4, r5, r6, pc}

00008e10 <kmalloc_heap_end>:
    8e10:	e59f3004 	ldr	r3, [pc, #4]	; 8e1c <kmalloc_heap_end+0xc>
    8e14:	e5930000 	ldr	r0, [r3]
    8e18:	e12fff1e 	bx	lr
    8e1c:	0000a38c 	andeq	sl, r0, ip, lsl #7

00008e20 <kmalloc_heap_start>:
    8e20:	e59f3004 	ldr	r3, [pc, #4]	; 8e2c <kmalloc_heap_start+0xc>
    8e24:	e5930004 	ldr	r0, [r3, #4]
    8e28:	e12fff1e 	bx	lr
    8e2c:	0000a38c 	andeq	sl, r0, ip, lsl #7

00008e30 <kmalloc_heap_ptr>:
    8e30:	e59f3004 	ldr	r3, [pc, #4]	; 8e3c <kmalloc_heap_ptr+0xc>
    8e34:	e5930008 	ldr	r0, [r3, #8]
    8e38:	e12fff1e 	bx	lr
    8e3c:	0000a38c 	andeq	sl, r0, ip, lsl #7

00008e40 <kmalloc_init_set_start>:
    8e40:	e92d4030 	push	{r4, r5, lr}
    8e44:	e24dd00c 	sub	sp, sp, #12, 0
    8e48:	e1a05001 	mov	r5, r1
    8e4c:	e3510201 	cmp	r1, #268435456	; 0x10000000
    8e50:	8a000014 	bhi	8ea8 <kmalloc_init_set_start+0x68>
    8e54:	e1a04000 	mov	r4, r0
    8e58:	eb00026b 	bl	980c <program_end>
    8e5c:	e1540000 	cmp	r4, r0
    8e60:	3a000017 	bcc	8ec4 <kmalloc_init_set_start+0x84>
    8e64:	e3550000 	cmp	r5, #0, 0
    8e68:	0a00001b 	beq	8edc <kmalloc_init_set_start+0x9c>
    8e6c:	e59f30d0 	ldr	r3, [pc, #208]	; 8f44 <kmalloc_init_set_start+0x104>
    8e70:	e5933004 	ldr	r3, [r3, #4]
    8e74:	e1530004 	cmp	r3, r4
    8e78:	8a00001f 	bhi	8efc <kmalloc_init_set_start+0xbc>
    8e7c:	e59f30c0 	ldr	r3, [pc, #192]	; 8f44 <kmalloc_init_set_start+0x104>
    8e80:	e5933008 	ldr	r3, [r3, #8]
    8e84:	e1530004 	cmp	r3, r4
    8e88:	8a000023 	bhi	8f1c <kmalloc_init_set_start+0xdc>
    8e8c:	e59f30b0 	ldr	r3, [pc, #176]	; 8f44 <kmalloc_init_set_start+0x104>
    8e90:	e5834008 	str	r4, [r3, #8]
    8e94:	e5834004 	str	r4, [r3, #4]
    8e98:	e0844005 	add	r4, r4, r5
    8e9c:	e5834000 	str	r4, [r3]
    8ea0:	e28dd00c 	add	sp, sp, #12, 0
    8ea4:	e8bd8030 	pop	{r4, r5, pc}
    8ea8:	e58d1000 	str	r1, [sp]
    8eac:	e3a0303c 	mov	r3, #60, 0	; 0x3c
    8eb0:	e59f2090 	ldr	r2, [pc, #144]	; 8f48 <kmalloc_init_set_start+0x108>
    8eb4:	e59f1090 	ldr	r1, [pc, #144]	; 8f4c <kmalloc_init_set_start+0x10c>
    8eb8:	e59f0090 	ldr	r0, [pc, #144]	; 8f50 <kmalloc_init_set_start+0x110>
    8ebc:	eb000137 	bl	93a0 <printk>
    8ec0:	eb000249 	bl	97ec <clean_reboot>
    8ec4:	e3a03040 	mov	r3, #64, 0	; 0x40
    8ec8:	e59f2078 	ldr	r2, [pc, #120]	; 8f48 <kmalloc_init_set_start+0x108>
    8ecc:	e59f1078 	ldr	r1, [pc, #120]	; 8f4c <kmalloc_init_set_start+0x10c>
    8ed0:	e59f007c 	ldr	r0, [pc, #124]	; 8f54 <kmalloc_init_set_start+0x114>
    8ed4:	eb000131 	bl	93a0 <printk>
    8ed8:	eb000243 	bl	97ec <clean_reboot>
    8edc:	e59f3074 	ldr	r3, [pc, #116]	; 8f58 <kmalloc_init_set_start+0x118>
    8ee0:	e58d3000 	str	r3, [sp]
    8ee4:	e3a03042 	mov	r3, #66, 0	; 0x42
    8ee8:	e59f2058 	ldr	r2, [pc, #88]	; 8f48 <kmalloc_init_set_start+0x108>
    8eec:	e59f1058 	ldr	r1, [pc, #88]	; 8f4c <kmalloc_init_set_start+0x10c>
    8ef0:	e59f0064 	ldr	r0, [pc, #100]	; 8f5c <kmalloc_init_set_start+0x11c>
    8ef4:	eb000129 	bl	93a0 <printk>
    8ef8:	eb00023b 	bl	97ec <clean_reboot>
    8efc:	e58d4004 	str	r4, [sp, #4]
    8f00:	e58d3000 	str	r3, [sp]
    8f04:	e3a03044 	mov	r3, #68, 0	; 0x44
    8f08:	e59f2038 	ldr	r2, [pc, #56]	; 8f48 <kmalloc_init_set_start+0x108>
    8f0c:	e59f1038 	ldr	r1, [pc, #56]	; 8f4c <kmalloc_init_set_start+0x10c>
    8f10:	e59f0048 	ldr	r0, [pc, #72]	; 8f60 <kmalloc_init_set_start+0x120>
    8f14:	eb000121 	bl	93a0 <printk>
    8f18:	eb000233 	bl	97ec <clean_reboot>
    8f1c:	e59f3020 	ldr	r3, [pc, #32]	; 8f44 <kmalloc_init_set_start+0x104>
    8f20:	e5933000 	ldr	r3, [r3]
    8f24:	e58d3004 	str	r3, [sp, #4]
    8f28:	e58d4000 	str	r4, [sp]
    8f2c:	e3a03048 	mov	r3, #72, 0	; 0x48
    8f30:	e59f2010 	ldr	r2, [pc, #16]	; 8f48 <kmalloc_init_set_start+0x108>
    8f34:	e59f1010 	ldr	r1, [pc, #16]	; 8f4c <kmalloc_init_set_start+0x10c>
    8f38:	e59f0024 	ldr	r0, [pc, #36]	; 8f64 <kmalloc_init_set_start+0x124>
    8f3c:	eb000117 	bl	93a0 <printk>
    8f40:	eb000229 	bl	97ec <clean_reboot>
    8f44:	0000a38c 	andeq	sl, r0, ip, lsl #7
    8f48:	0000a1f0 	strdeq	sl, [r0], -r0
    8f4c:	00009f90 	muleq	r0, r0, pc	; <UNPREDICTABLE>
    8f50:	00009fa0 	andeq	r9, r0, r0, lsr #31
    8f54:	00009fd0 	ldrdeq	r9, [r0], -r0
    8f58:	00009ff8 	strdeq	r9, [r0], -r8
    8f5c:	00009d48 	andeq	r9, r0, r8, asr #26
    8f60:	0000a004 	andeq	sl, r0, r4
    8f64:	0000a06c 	andeq	sl, r0, ip, rrx

00008f68 <kmalloc_notzero>:
    8f68:	e52de004 	push	{lr}		; (str lr, [sp, #-4]!)
    8f6c:	e24dd00c 	sub	sp, sp, #12, 0
    8f70:	e3500000 	cmp	r0, #0, 0
    8f74:	0a00000f 	beq	8fb8 <kmalloc_notzero+0x50>
    8f78:	e2800007 	add	r0, r0, #7, 0
    8f7c:	e3c03007 	bic	r3, r0, #7, 0
    8f80:	e59f20ac 	ldr	r2, [pc, #172]	; 9034 <kmalloc_notzero+0xcc>
    8f84:	e5920008 	ldr	r0, [r2, #8]
    8f88:	e3100007 	tst	r0, #7, 0
    8f8c:	1a000011 	bne	8fd8 <kmalloc_notzero+0x70>
    8f90:	e3500000 	cmp	r0, #0, 0
    8f94:	0a000017 	beq	8ff8 <kmalloc_notzero+0x90>
    8f98:	e0802003 	add	r2, r0, r3
    8f9c:	e59f1090 	ldr	r1, [pc, #144]	; 9034 <kmalloc_notzero+0xcc>
    8fa0:	e5812008 	str	r2, [r1, #8]
    8fa4:	e5911000 	ldr	r1, [r1]
    8fa8:	e1520001 	cmp	r2, r1
    8fac:	8a000017 	bhi	9010 <kmalloc_notzero+0xa8>
    8fb0:	e28dd00c 	add	sp, sp, #12, 0
    8fb4:	e49df004 	pop	{pc}		; (ldr pc, [sp], #4)
    8fb8:	e59f3078 	ldr	r3, [pc, #120]	; 9038 <kmalloc_notzero+0xd0>
    8fbc:	e58d3000 	str	r3, [sp]
    8fc0:	e3a03051 	mov	r3, #81, 0	; 0x51
    8fc4:	e59f2070 	ldr	r2, [pc, #112]	; 903c <kmalloc_notzero+0xd4>
    8fc8:	e59f1070 	ldr	r1, [pc, #112]	; 9040 <kmalloc_notzero+0xd8>
    8fcc:	e59f0070 	ldr	r0, [pc, #112]	; 9044 <kmalloc_notzero+0xdc>
    8fd0:	eb0000f2 	bl	93a0 <printk>
    8fd4:	eb000204 	bl	97ec <clean_reboot>
    8fd8:	e59f3068 	ldr	r3, [pc, #104]	; 9048 <kmalloc_notzero+0xe0>
    8fdc:	e58d3000 	str	r3, [sp]
    8fe0:	e3a03054 	mov	r3, #84, 0	; 0x54
    8fe4:	e59f2050 	ldr	r2, [pc, #80]	; 903c <kmalloc_notzero+0xd4>
    8fe8:	e59f1050 	ldr	r1, [pc, #80]	; 9040 <kmalloc_notzero+0xd8>
    8fec:	e59f0050 	ldr	r0, [pc, #80]	; 9044 <kmalloc_notzero+0xdc>
    8ff0:	eb0000ea 	bl	93a0 <printk>
    8ff4:	eb0001fc 	bl	97ec <clean_reboot>
    8ff8:	e3a03058 	mov	r3, #88, 0	; 0x58
    8ffc:	e59f2038 	ldr	r2, [pc, #56]	; 903c <kmalloc_notzero+0xd4>
    9000:	e59f1038 	ldr	r1, [pc, #56]	; 9040 <kmalloc_notzero+0xd8>
    9004:	e59f0040 	ldr	r0, [pc, #64]	; 904c <kmalloc_notzero+0xe4>
    9008:	eb0000e4 	bl	93a0 <printk>
    900c:	eb0001f6 	bl	97ec <clean_reboot>
    9010:	e0422001 	sub	r2, r2, r1
    9014:	e58d2004 	str	r2, [sp, #4]
    9018:	e58d3000 	str	r3, [sp]
    901c:	e3a0305c 	mov	r3, #92, 0	; 0x5c
    9020:	e59f2014 	ldr	r2, [pc, #20]	; 903c <kmalloc_notzero+0xd4>
    9024:	e59f1014 	ldr	r1, [pc, #20]	; 9040 <kmalloc_notzero+0xd8>
    9028:	e59f0020 	ldr	r0, [pc, #32]	; 9050 <kmalloc_notzero+0xe8>
    902c:	eb0000db 	bl	93a0 <printk>
    9030:	eb0001ed 	bl	97ec <clean_reboot>
    9034:	0000a38c 	andeq	sl, r0, ip, lsl #7
    9038:	00009ffc 	strdeq	r9, [r0], -ip
    903c:	0000a208 	andeq	sl, r0, r8, lsl #4
    9040:	00009f90 	muleq	r0, r0, pc	; <UNPREDICTABLE>
    9044:	00009d48 	andeq	r9, r0, r8, asr #26
    9048:	0000a0b0 	strheq	sl, [r0], -r0
    904c:	0000a0c8 	andeq	sl, r0, r8, asr #1
    9050:	0000a0f4 	strdeq	sl, [r0], -r4

00009054 <kmalloc>:
    9054:	e92d4030 	push	{r4, r5, lr}
    9058:	e24dd00c 	sub	sp, sp, #12, 0
    905c:	e2504000 	subs	r4, r0, #0, 0
    9060:	0a000008 	beq	9088 <kmalloc+0x34>
    9064:	e1a00004 	mov	r0, r4
    9068:	ebffffbe 	bl	8f68 <kmalloc_notzero>
    906c:	e1a05000 	mov	r5, r0
    9070:	e1a02004 	mov	r2, r4
    9074:	e3a01000 	mov	r1, #0, 0
    9078:	eb0000a0 	bl	9300 <memset>
    907c:	e1a00005 	mov	r0, r5
    9080:	e28dd00c 	add	sp, sp, #12, 0
    9084:	e8bd8030 	pop	{r4, r5, pc}
    9088:	e59f3018 	ldr	r3, [pc, #24]	; 90a8 <kmalloc+0x54>
    908c:	e58d3000 	str	r3, [sp]
    9090:	e3a03064 	mov	r3, #100, 0	; 0x64
    9094:	e59f2010 	ldr	r2, [pc, #16]	; 90ac <kmalloc+0x58>
    9098:	e59f1010 	ldr	r1, [pc, #16]	; 90b0 <kmalloc+0x5c>
    909c:	e59f0010 	ldr	r0, [pc, #16]	; 90b4 <kmalloc+0x60>
    90a0:	eb0000be 	bl	93a0 <printk>
    90a4:	eb0001d0 	bl	97ec <clean_reboot>
    90a8:	00009ffc 	strdeq	r9, [r0], -ip
    90ac:	0000a218 	andeq	sl, r0, r8, lsl r2
    90b0:	00009f90 	muleq	r0, r0, pc	; <UNPREDICTABLE>
    90b4:	00009d48 	andeq	r9, r0, r8, asr #26

000090b8 <kmalloc_aligned>:
    90b8:	e52de004 	push	{lr}		; (str lr, [sp, #-4]!)
    90bc:	e24dd00c 	sub	sp, sp, #12, 0
    90c0:	e3500000 	cmp	r0, #0, 0
    90c4:	0a000014 	beq	911c <kmalloc_aligned+0x64>
    90c8:	e2613000 	rsb	r3, r1, #0, 0
    90cc:	e1d13003 	bics	r3, r1, r3
    90d0:	1a000019 	bne	913c <kmalloc_aligned+0x84>
    90d4:	e3510008 	cmp	r1, #8, 0
    90d8:	33a01008 	movcc	r1, #8, 0
    90dc:	e59f30b8 	ldr	r3, [pc, #184]	; 919c <kmalloc_aligned+0xe4>
    90e0:	e5932008 	ldr	r2, [r3, #8]
    90e4:	e2613000 	rsb	r3, r1, #0, 0
    90e8:	e1d1c003 	bics	ip, r1, r3
    90ec:	1a00001a 	bne	915c <kmalloc_aligned+0xa4>
    90f0:	e0822001 	add	r2, r2, r1
    90f4:	e2422001 	sub	r2, r2, #1, 0
    90f8:	e0033002 	and	r3, r3, r2
    90fc:	e2411001 	sub	r1, r1, #1, 0
    9100:	e1110003 	tst	r1, r3
    9104:	1a00001c 	bne	917c <kmalloc_aligned+0xc4>
    9108:	e59f208c 	ldr	r2, [pc, #140]	; 919c <kmalloc_aligned+0xe4>
    910c:	e5823008 	str	r3, [r2, #8]
    9110:	ebffffcf 	bl	9054 <kmalloc>
    9114:	e28dd00c 	add	sp, sp, #12, 0
    9118:	e49df004 	pop	{pc}		; (ldr pc, [sp], #4)
    911c:	e59f307c 	ldr	r3, [pc, #124]	; 91a0 <kmalloc_aligned+0xe8>
    9120:	e58d3000 	str	r3, [sp]
    9124:	e3a0306e 	mov	r3, #110, 0	; 0x6e
    9128:	e59f2074 	ldr	r2, [pc, #116]	; 91a4 <kmalloc_aligned+0xec>
    912c:	e59f1074 	ldr	r1, [pc, #116]	; 91a8 <kmalloc_aligned+0xf0>
    9130:	e59f0074 	ldr	r0, [pc, #116]	; 91ac <kmalloc_aligned+0xf4>
    9134:	eb000099 	bl	93a0 <printk>
    9138:	eb0001ab 	bl	97ec <clean_reboot>
    913c:	e59f306c 	ldr	r3, [pc, #108]	; 91b0 <kmalloc_aligned+0xf8>
    9140:	e58d3000 	str	r3, [sp]
    9144:	e3a0306f 	mov	r3, #111, 0	; 0x6f
    9148:	e59f2054 	ldr	r2, [pc, #84]	; 91a4 <kmalloc_aligned+0xec>
    914c:	e59f1054 	ldr	r1, [pc, #84]	; 91a8 <kmalloc_aligned+0xf0>
    9150:	e59f005c 	ldr	r0, [pc, #92]	; 91b4 <kmalloc_aligned+0xfc>
    9154:	eb000091 	bl	93a0 <printk>
    9158:	eb0001a3 	bl	97ec <clean_reboot>
    915c:	e59f3054 	ldr	r3, [pc, #84]	; 91b8 <kmalloc_aligned+0x100>
    9160:	e58d3000 	str	r3, [sp]
    9164:	e3a03011 	mov	r3, #17, 0
    9168:	e59f204c 	ldr	r2, [pc, #76]	; 91bc <kmalloc_aligned+0x104>
    916c:	e59f1034 	ldr	r1, [pc, #52]	; 91a8 <kmalloc_aligned+0xf0>
    9170:	e59f0034 	ldr	r0, [pc, #52]	; 91ac <kmalloc_aligned+0xf4>
    9174:	eb000089 	bl	93a0 <printk>
    9178:	eb00019b 	bl	97ec <clean_reboot>
    917c:	e59f303c 	ldr	r3, [pc, #60]	; 91c0 <kmalloc_aligned+0x108>
    9180:	e58d3000 	str	r3, [sp]
    9184:	e3a03076 	mov	r3, #118, 0	; 0x76
    9188:	e59f2014 	ldr	r2, [pc, #20]	; 91a4 <kmalloc_aligned+0xec>
    918c:	e59f1014 	ldr	r1, [pc, #20]	; 91a8 <kmalloc_aligned+0xf0>
    9190:	e59f002c 	ldr	r0, [pc, #44]	; 91c4 <kmalloc_aligned+0x10c>
    9194:	eb000081 	bl	93a0 <printk>
    9198:	eb000193 	bl	97ec <clean_reboot>
    919c:	0000a38c 	andeq	sl, r0, ip, lsl #7
    91a0:	00009ffc 	strdeq	r9, [r0], -ip
    91a4:	0000a220 	andeq	sl, r0, r0, lsr #4
    91a8:	00009f90 	muleq	r0, r0, pc	; <UNPREDICTABLE>
    91ac:	00009d48 	andeq	r9, r0, r8, asr #26
    91b0:	0000a17c 	andeq	sl, r0, ip, ror r1
    91b4:	0000a13c 	andeq	sl, r0, ip, lsr r1
    91b8:	0000a190 	muleq	r0, r0, r1
    91bc:	0000a230 	andeq	sl, r0, r0, lsr r2
    91c0:	0000a1d4 	ldrdeq	sl, [r0], -r4
    91c4:	0000a19c 	muleq	r0, ip, r1

000091c8 <kfree_all>:
    91c8:	e59f3008 	ldr	r3, [pc, #8]	; 91d8 <kfree_all+0x10>
    91cc:	e5932004 	ldr	r2, [r3, #4]
    91d0:	e5832008 	str	r2, [r3, #8]
    91d4:	e12fff1e 	bx	lr
    91d8:	0000a38c 	andeq	sl, r0, ip, lsl #7

000091dc <memcpy256>:
    91dc:	e92d40f0 	push	{r4, r5, r6, r7, lr}
    91e0:	e24dd00c 	sub	sp, sp, #12, 0
    91e4:	e212401f 	ands	r4, r2, #31, 0
    91e8:	01a06000 	moveq	r6, r0
    91ec:	01a07001 	moveq	r7, r1
    91f0:	01a052a2 	lsreq	r5, r2, #5
    91f4:	0a00000f 	beq	9238 <memcpy256+0x5c>
    91f8:	e3a03020 	mov	r3, #32, 0
    91fc:	e58d3004 	str	r3, [sp, #4]
    9200:	e58d2000 	str	r2, [sp]
    9204:	e3a0300f 	mov	r3, #15, 0
    9208:	e59f2038 	ldr	r2, [pc, #56]	; 9248 <memcpy256+0x6c>
    920c:	e59f1038 	ldr	r1, [pc, #56]	; 924c <memcpy256+0x70>
    9210:	e59f0038 	ldr	r0, [pc, #56]	; 9250 <memcpy256+0x74>
    9214:	eb000061 	bl	93a0 <printk>
    9218:	eb000173 	bl	97ec <clean_reboot>
    921c:	e086c284 	add	ip, r6, r4, lsl #5
    9220:	e087e284 	add	lr, r7, r4, lsl #5
    9224:	e8be000f 	ldm	lr!, {r0, r1, r2, r3}
    9228:	e8ac000f 	stmia	ip!, {r0, r1, r2, r3}
    922c:	e89e000f 	ldm	lr, {r0, r1, r2, r3}
    9230:	e88c000f 	stm	ip, {r0, r1, r2, r3}
    9234:	e2844001 	add	r4, r4, #1, 0
    9238:	e1540005 	cmp	r4, r5
    923c:	3afffff6 	bcc	921c <memcpy256+0x40>
    9240:	e28dd00c 	add	sp, sp, #12, 0
    9244:	e8bd80f0 	pop	{r4, r5, r6, r7, pc}
    9248:	0000a284 	andeq	sl, r0, r4, lsl #5
    924c:	0000a238 	andeq	sl, r0, r8, lsr r2
    9250:	0000a248 	andeq	sl, r0, r8, asr #4

00009254 <memcpy>:
    9254:	e3100007 	tst	r0, #7, 0
    9258:	1a00000f 	bne	929c <memcpy+0x48>
    925c:	e3110007 	tst	r1, #7, 0
    9260:	1a00000d 	bne	929c <memcpy+0x48>
    9264:	e2123007 	ands	r3, r2, #7, 0
    9268:	1a00000b 	bne	929c <memcpy+0x48>
    926c:	e1a021a2 	lsr	r2, r2, #3
    9270:	e1530002 	cmp	r3, r2
    9274:	212fff1e 	bxcs	lr
    9278:	e92d0030 	push	{r4, r5}
    927c:	e1a0c183 	lsl	ip, r3, #3
    9280:	e18140dc 	ldrd	r4, [r1, ip]
    9284:	e18040fc 	strd	r4, [r0, ip]
    9288:	e2833001 	add	r3, r3, #1, 0
    928c:	e1530002 	cmp	r3, r2
    9290:	3afffff9 	bcc	927c <memcpy+0x28>
    9294:	e8bd0030 	pop	{r4, r5}
    9298:	e12fff1e 	bx	lr
    929c:	e2103003 	ands	r3, r0, #3, 0
    92a0:	1a000011 	bne	92ec <memcpy+0x98>
    92a4:	e211c003 	ands	ip, r1, #3, 0
    92a8:	1a00000c 	bne	92e0 <memcpy+0x8c>
    92ac:	e2123003 	ands	r3, r2, #3, 0
    92b0:	1a00000f 	bne	92f4 <memcpy+0xa0>
    92b4:	e1a02122 	lsr	r2, r2, #2
    92b8:	ea000002 	b	92c8 <memcpy+0x74>
    92bc:	e791c103 	ldr	ip, [r1, r3, lsl #2]
    92c0:	e780c103 	str	ip, [r0, r3, lsl #2]
    92c4:	e2833001 	add	r3, r3, #1, 0
    92c8:	e1530002 	cmp	r3, r2
    92cc:	3afffffa 	bcc	92bc <memcpy+0x68>
    92d0:	e12fff1e 	bx	lr
    92d4:	e7d1c003 	ldrb	ip, [r1, r3]
    92d8:	e7c0c003 	strb	ip, [r0, r3]
    92dc:	e2833001 	add	r3, r3, #1, 0
    92e0:	e1530002 	cmp	r3, r2
    92e4:	3afffffa 	bcc	92d4 <memcpy+0x80>
    92e8:	e12fff1e 	bx	lr
    92ec:	e3a03000 	mov	r3, #0, 0
    92f0:	eafffffa 	b	92e0 <memcpy+0x8c>
    92f4:	e1a0300c 	mov	r3, ip
    92f8:	eafffff8 	b	92e0 <memcpy+0x8c>

000092fc <memcpy_end>:
    92fc:	e12fff1e 	bx	lr

00009300 <memset>:
    9300:	e3520000 	cmp	r2, #0, 0
    9304:	012fff1e 	bxeq	lr
    9308:	e3510000 	cmp	r1, #0, 0
    930c:	1a000007 	bne	9330 <memset+0x30>
    9310:	e3100007 	tst	r0, #7, 0
    9314:	1a000001 	bne	9320 <memset+0x20>
    9318:	e3120007 	tst	r2, #7, 0
    931c:	0a000011 	beq	9368 <memset+0x68>
    9320:	e3100003 	tst	r0, #3, 0
    9324:	1a000001 	bne	9330 <memset+0x30>
    9328:	e3120003 	tst	r2, #3, 0
    932c:	0a000001 	beq	9338 <memset+0x38>
    9330:	e0802002 	add	r2, r0, r2
    9334:	ea000008 	b	935c <memset+0x5c>
    9338:	e1a02122 	lsr	r2, r2, #2
    933c:	ea000001 	b	9348 <memset+0x48>
    9340:	e4801004 	str	r1, [r0], #4
    9344:	e1a02003 	mov	r2, r3
    9348:	e2423001 	sub	r3, r2, #1, 0
    934c:	e3520000 	cmp	r2, #0, 0
    9350:	1afffffa 	bne	9340 <memset+0x40>
    9354:	e12fff1e 	bx	lr
    9358:	e4c01001 	strb	r1, [r0], #1
    935c:	e1500002 	cmp	r0, r2
    9360:	3afffffc 	bcc	9358 <memset+0x58>
    9364:	e12fff1e 	bx	lr
    9368:	e1a021a2 	lsr	r2, r2, #3
    936c:	e2423001 	sub	r3, r2, #1, 0
    9370:	e3520000 	cmp	r2, #0, 0
    9374:	012fff1e 	bxeq	lr
    9378:	e92d0030 	push	{r4, r5}
    937c:	e1a04001 	mov	r4, r1
    9380:	e1a05fc1 	asr	r5, r1, #31
    9384:	e0c040f8 	strd	r4, [r0], #8
    9388:	e1a02003 	mov	r2, r3
    938c:	e2433001 	sub	r3, r3, #1, 0
    9390:	e3520000 	cmp	r2, #0, 0
    9394:	1afffff8 	bne	937c <memset+0x7c>
    9398:	e8bd0030 	pop	{r4, r5}
    939c:	e12fff1e 	bx	lr

000093a0 <printk>:
    93a0:	e92d000f 	push	{r0, r1, r2, r3}
    93a4:	e52de004 	push	{lr}		; (str lr, [sp, #-4]!)
    93a8:	e24dd00c 	sub	sp, sp, #12, 0
    93ac:	e28d1014 	add	r1, sp, #20, 0
    93b0:	e58d1004 	str	r1, [sp, #4]
    93b4:	e59d0010 	ldr	r0, [sp, #16]
    93b8:	eb000047 	bl	94dc <vprintk>
    93bc:	e28dd00c 	add	sp, sp, #12, 0
    93c0:	e49de004 	pop	{lr}		; (ldr lr, [sp], #4)
    93c4:	e28dd010 	add	sp, sp, #16, 0
    93c8:	e12fff1e 	bx	lr

000093cc <emit_val>:
    93cc:	e92d4010 	push	{r4, lr}
    93d0:	e24dd030 	sub	sp, sp, #48, 0	; 0x30
    93d4:	e350000a 	cmp	r0, #10, 0
    93d8:	0a000014 	beq	9430 <emit_val+0x64>
    93dc:	e3500010 	cmp	r0, #16, 0
    93e0:	0a000022 	beq	9470 <emit_val+0xa4>
    93e4:	e3500002 	cmp	r0, #2, 0
    93e8:	0a000006 	beq	9408 <emit_val+0x3c>
    93ec:	e58d0000 	str	r0, [sp]
    93f0:	e3a0301b 	mov	r3, #27, 0
    93f4:	e59f20c0 	ldr	r2, [pc, #192]	; 94bc <emit_val+0xf0>
    93f8:	e59f10c0 	ldr	r1, [pc, #192]	; 94c0 <emit_val+0xf4>
    93fc:	e59f00c0 	ldr	r0, [pc, #192]	; 94c4 <emit_val+0xf8>
    9400:	ebffffe6 	bl	93a0 <printk>
    9404:	eb0000f8 	bl	97ec <clean_reboot>
    9408:	e28d400c 	add	r4, sp, #12, 0
    940c:	e2012001 	and	r2, r1, #1, 0
    9410:	e59f00b0 	ldr	r0, [pc, #176]	; 94c8 <emit_val+0xfc>
    9414:	e7d02002 	ldrb	r2, [r0, r2]
    9418:	e5c42000 	strb	r2, [r4]
    941c:	e2844001 	add	r4, r4, #1, 0
    9420:	e3510001 	cmp	r1, #1, 0
    9424:	e1a010a1 	lsr	r1, r1, #1
    9428:	8afffff7 	bhi	940c <emit_val+0x40>
    942c:	ea00001d 	b	94a8 <emit_val+0xdc>
    9430:	e28d400c 	add	r4, sp, #12, 0
    9434:	e59f3090 	ldr	r3, [pc, #144]	; 94cc <emit_val+0x100>
    9438:	e0832193 	umull	r2, r3, r3, r1
    943c:	e1a031a3 	lsr	r3, r3, #3
    9440:	e1a00003 	mov	r0, r3
    9444:	e0833103 	add	r3, r3, r3, lsl #2
    9448:	e0413083 	sub	r3, r1, r3, lsl #1
    944c:	e59fc07c 	ldr	ip, [pc, #124]	; 94d0 <emit_val+0x104>
    9450:	e7dcc003 	ldrb	ip, [ip, r3]
    9454:	e5c4c000 	strb	ip, [r4]
    9458:	e2844001 	add	r4, r4, #1, 0
    945c:	e1a03001 	mov	r3, r1
    9460:	e1a01000 	mov	r1, r0
    9464:	e3530009 	cmp	r3, #9, 0
    9468:	8afffff1 	bhi	9434 <emit_val+0x68>
    946c:	ea00000d 	b	94a8 <emit_val+0xdc>
    9470:	e28d400c 	add	r4, sp, #12, 0
    9474:	e201200f 	and	r2, r1, #15, 0
    9478:	e59f0054 	ldr	r0, [pc, #84]	; 94d4 <emit_val+0x108>
    947c:	e7d02002 	ldrb	r2, [r0, r2]
    9480:	e5c42000 	strb	r2, [r4]
    9484:	e2844001 	add	r4, r4, #1, 0
    9488:	e351000f 	cmp	r1, #15, 0
    948c:	e1a01221 	lsr	r1, r1, #4
    9490:	8afffff7 	bhi	9474 <emit_val+0xa8>
    9494:	ea000003 	b	94a8 <emit_val+0xdc>
    9498:	e59f3038 	ldr	r3, [pc, #56]	; 94d8 <emit_val+0x10c>
    949c:	e5933000 	ldr	r3, [r3]
    94a0:	e5740001 	ldrb	r0, [r4, #-1]!
    94a4:	e12fff33 	blx	r3
    94a8:	e28d300c 	add	r3, sp, #12, 0
    94ac:	e1540003 	cmp	r4, r3
    94b0:	8afffff8 	bhi	9498 <emit_val+0xcc>
    94b4:	e28dd030 	add	sp, sp, #48, 0	; 0x30
    94b8:	e8bd8010 	pop	{r4, pc}
    94bc:	0000a348 	andeq	sl, r0, r8, asr #6
    94c0:	0000a290 	muleq	r0, r0, r2
    94c4:	0000a2a0 	andeq	sl, r0, r0, lsr #5
    94c8:	0000a2c4 	andeq	sl, r0, r4, asr #5
    94cc:	cccccccd 	stclgt	12, cr12, [ip], {205}	; 0xcd
    94d0:	0000a2c8 	andeq	sl, r0, r8, asr #5
    94d4:	0000a2d4 	ldrdeq	sl, [r0], -r4
    94d8:	0000a398 	muleq	r0, r8, r3

000094dc <vprintk>:
    94dc:	e92d4030 	push	{r4, r5, lr}
    94e0:	e24dd014 	sub	sp, sp, #20, 0
    94e4:	e1a04000 	mov	r4, r0
    94e8:	e58d100c 	str	r1, [sp, #12]
    94ec:	ea000003 	b	9500 <vprintk+0x24>
    94f0:	e59f32b0 	ldr	r3, [pc, #688]	; 97a8 <vprintk+0x2cc>
    94f4:	e5933000 	ldr	r3, [r3]
    94f8:	e12fff33 	blx	r3
    94fc:	e2844001 	add	r4, r4, #1, 0
    9500:	e5d40000 	ldrb	r0, [r4]
    9504:	e3500000 	cmp	r0, #0, 0
    9508:	0a0000a4 	beq	97a0 <vprintk+0x2c4>
    950c:	e3500025 	cmp	r0, #37, 0	; 0x25
    9510:	1afffff6 	bne	94f0 <vprintk+0x14>
    9514:	e2845001 	add	r5, r4, #1, 0
    9518:	e5d42001 	ldrb	r2, [r4, #1]
    951c:	e2423058 	sub	r3, r2, #88, 0	; 0x58
    9520:	e3530020 	cmp	r3, #32, 0
    9524:	979ff103 	ldrls	pc, [pc, r3, lsl #2]
    9528:	ea000095 	b	9784 <vprintk+0x2a8>
    952c:	000096e8 	andeq	r9, r0, r8, ror #13
    9530:	00009784 	andeq	r9, r0, r4, lsl #15
    9534:	00009784 	andeq	r9, r0, r4, lsl #15
    9538:	00009784 	andeq	r9, r0, r4, lsl #15
    953c:	00009784 	andeq	r9, r0, r4, lsl #15
    9540:	00009784 	andeq	r9, r0, r4, lsl #15
    9544:	00009784 	andeq	r9, r0, r4, lsl #15
    9548:	00009784 	andeq	r9, r0, r4, lsl #15
    954c:	00009784 	andeq	r9, r0, r4, lsl #15
    9550:	00009784 	andeq	r9, r0, r4, lsl #15
    9554:	000095b0 			; <UNDEFINED> instruction: 0x000095b0
    9558:	000095f0 	strdeq	r9, [r0], -r0
    955c:	00009708 	andeq	r9, r0, r8, lsl #14
    9560:	00009784 	andeq	r9, r0, r4, lsl #15
    9564:	00009784 	andeq	r9, r0, r4, lsl #15
    9568:	00009784 	andeq	r9, r0, r4, lsl #15
    956c:	00009784 	andeq	r9, r0, r4, lsl #15
    9570:	00009784 	andeq	r9, r0, r4, lsl #15
    9574:	00009784 	andeq	r9, r0, r4, lsl #15
    9578:	00009784 	andeq	r9, r0, r4, lsl #15
    957c:	00009614 	andeq	r9, r0, r4, lsl r6
    9580:	00009784 	andeq	r9, r0, r4, lsl #15
    9584:	00009784 	andeq	r9, r0, r4, lsl #15
    9588:	00009784 	andeq	r9, r0, r4, lsl #15
    958c:	000096cc 	andeq	r9, r0, ip, asr #13
    9590:	00009784 	andeq	r9, r0, r4, lsl #15
    9594:	00009784 	andeq	r9, r0, r4, lsl #15
    9598:	0000974c 	andeq	r9, r0, ip, asr #14
    959c:	00009784 	andeq	r9, r0, r4, lsl #15
    95a0:	000095d0 	ldrdeq	r9, [r0], -r0
    95a4:	00009784 	andeq	r9, r0, r4, lsl #15
    95a8:	00009784 	andeq	r9, r0, r4, lsl #15
    95ac:	000096cc 	andeq	r9, r0, ip, asr #13
    95b0:	e59d300c 	ldr	r3, [sp, #12]
    95b4:	e2832004 	add	r2, r3, #4, 0
    95b8:	e58d200c 	str	r2, [sp, #12]
    95bc:	e5931000 	ldr	r1, [r3]
    95c0:	e3a00002 	mov	r0, #2, 0
    95c4:	ebffff80 	bl	93cc <emit_val>
    95c8:	e1a04005 	mov	r4, r5
    95cc:	eaffffca 	b	94fc <vprintk+0x20>
    95d0:	e59d300c 	ldr	r3, [sp, #12]
    95d4:	e2832004 	add	r2, r3, #4, 0
    95d8:	e58d200c 	str	r2, [sp, #12]
    95dc:	e5931000 	ldr	r1, [r3]
    95e0:	e3a0000a 	mov	r0, #10, 0
    95e4:	ebffff78 	bl	93cc <emit_val>
    95e8:	e1a04005 	mov	r4, r5
    95ec:	eaffffc2 	b	94fc <vprintk+0x20>
    95f0:	e59f31b0 	ldr	r3, [pc, #432]	; 97a8 <vprintk+0x2cc>
    95f4:	e5932000 	ldr	r2, [r3]
    95f8:	e59d300c 	ldr	r3, [sp, #12]
    95fc:	e2831004 	add	r1, r3, #4, 0
    9600:	e58d100c 	str	r1, [sp, #12]
    9604:	e5930000 	ldr	r0, [r3]
    9608:	e12fff32 	blx	r2
    960c:	e1a04005 	mov	r4, r5
    9610:	eaffffb9 	b	94fc <vprintk+0x20>
    9614:	e2842002 	add	r2, r4, #2, 0
    9618:	e5d43002 	ldrb	r3, [r4, #2]
    961c:	e353006c 	cmp	r3, #108, 0	; 0x6c
    9620:	1a000018 	bne	9688 <vprintk+0x1ac>
    9624:	e2845003 	add	r5, r4, #3, 0
    9628:	e5d43003 	ldrb	r3, [r4, #3]
    962c:	e3530078 	cmp	r3, #120, 0	; 0x78
    9630:	1a00001b 	bne	96a4 <vprintk+0x1c8>
    9634:	e59f416c 	ldr	r4, [pc, #364]	; 97a8 <vprintk+0x2cc>
    9638:	e5943000 	ldr	r3, [r4]
    963c:	e3a00030 	mov	r0, #48, 0	; 0x30
    9640:	e12fff33 	blx	r3
    9644:	e5943000 	ldr	r3, [r4]
    9648:	e3a00078 	mov	r0, #120, 0	; 0x78
    964c:	e12fff33 	blx	r3
    9650:	e59d300c 	ldr	r3, [sp, #12]
    9654:	e2833007 	add	r3, r3, #7, 0
    9658:	e3c33007 	bic	r3, r3, #7, 0
    965c:	e2832008 	add	r2, r3, #8, 0
    9660:	e58d200c 	str	r2, [sp, #12]
    9664:	e5934000 	ldr	r4, [r3]
    9668:	e5931004 	ldr	r1, [r3, #4]
    966c:	e3510000 	cmp	r1, #0, 0
    9670:	1a000012 	bne	96c0 <vprintk+0x1e4>
    9674:	e1a01004 	mov	r1, r4
    9678:	e3a00010 	mov	r0, #16, 0
    967c:	ebffff52 	bl	93cc <emit_val>
    9680:	e1a04005 	mov	r4, r5
    9684:	eaffff9c 	b	94fc <vprintk+0x20>
    9688:	e58d2000 	str	r2, [sp]
    968c:	e3a0303b 	mov	r3, #59, 0	; 0x3b
    9690:	e59f2114 	ldr	r2, [pc, #276]	; 97ac <vprintk+0x2d0>
    9694:	e59f1114 	ldr	r1, [pc, #276]	; 97b0 <vprintk+0x2d4>
    9698:	e59f0114 	ldr	r0, [pc, #276]	; 97b4 <vprintk+0x2d8>
    969c:	ebffff3f 	bl	93a0 <printk>
    96a0:	eb000051 	bl	97ec <clean_reboot>
    96a4:	e58d5000 	str	r5, [sp]
    96a8:	e3a0303e 	mov	r3, #62, 0	; 0x3e
    96ac:	e59f20f8 	ldr	r2, [pc, #248]	; 97ac <vprintk+0x2d0>
    96b0:	e59f10f8 	ldr	r1, [pc, #248]	; 97b0 <vprintk+0x2d4>
    96b4:	e59f00f8 	ldr	r0, [pc, #248]	; 97b4 <vprintk+0x2d8>
    96b8:	ebffff38 	bl	93a0 <printk>
    96bc:	eb00004a 	bl	97ec <clean_reboot>
    96c0:	e3a00010 	mov	r0, #16, 0
    96c4:	ebffff40 	bl	93cc <emit_val>
    96c8:	eaffffe9 	b	9674 <vprintk+0x198>
    96cc:	e59f40d4 	ldr	r4, [pc, #212]	; 97a8 <vprintk+0x2cc>
    96d0:	e5943000 	ldr	r3, [r4]
    96d4:	e3a00030 	mov	r0, #48, 0	; 0x30
    96d8:	e12fff33 	blx	r3
    96dc:	e5943000 	ldr	r3, [r4]
    96e0:	e3a00078 	mov	r0, #120, 0	; 0x78
    96e4:	e12fff33 	blx	r3
    96e8:	e59d300c 	ldr	r3, [sp, #12]
    96ec:	e2832004 	add	r2, r3, #4, 0
    96f0:	e58d200c 	str	r2, [sp, #12]
    96f4:	e5931000 	ldr	r1, [r3]
    96f8:	e3a00010 	mov	r0, #16, 0
    96fc:	ebffff32 	bl	93cc <emit_val>
    9700:	e1a04005 	mov	r4, r5
    9704:	eaffff7c 	b	94fc <vprintk+0x20>
    9708:	e59d300c 	ldr	r3, [sp, #12]
    970c:	e2832004 	add	r2, r3, #4, 0
    9710:	e58d200c 	str	r2, [sp, #12]
    9714:	e5934000 	ldr	r4, [r3]
    9718:	e3540000 	cmp	r4, #0, 0
    971c:	ba000004 	blt	9734 <vprintk+0x258>
    9720:	e1a01004 	mov	r1, r4
    9724:	e3a0000a 	mov	r0, #10, 0
    9728:	ebffff27 	bl	93cc <emit_val>
    972c:	e1a04005 	mov	r4, r5
    9730:	eaffff71 	b	94fc <vprintk+0x20>
    9734:	e59f306c 	ldr	r3, [pc, #108]	; 97a8 <vprintk+0x2cc>
    9738:	e5933000 	ldr	r3, [r3]
    973c:	e3a0002d 	mov	r0, #45, 0	; 0x2d
    9740:	e12fff33 	blx	r3
    9744:	e2644000 	rsb	r4, r4, #0, 0
    9748:	eafffff4 	b	9720 <vprintk+0x244>
    974c:	e59d300c 	ldr	r3, [sp, #12]
    9750:	e2832004 	add	r2, r3, #4, 0
    9754:	e58d200c 	str	r2, [sp, #12]
    9758:	e5934000 	ldr	r4, [r3]
    975c:	e5d40000 	ldrb	r0, [r4]
    9760:	e3500000 	cmp	r0, #0, 0
    9764:	0a000004 	beq	977c <vprintk+0x2a0>
    9768:	e59f3038 	ldr	r3, [pc, #56]	; 97a8 <vprintk+0x2cc>
    976c:	e5933000 	ldr	r3, [r3]
    9770:	e12fff33 	blx	r3
    9774:	e2844001 	add	r4, r4, #1, 0
    9778:	eafffff7 	b	975c <vprintk+0x280>
    977c:	e1a04005 	mov	r4, r5
    9780:	eaffff5d 	b	94fc <vprintk+0x20>
    9784:	e58d2000 	str	r2, [sp]
    9788:	e3a03063 	mov	r3, #99, 0	; 0x63
    978c:	e59f2018 	ldr	r2, [pc, #24]	; 97ac <vprintk+0x2d0>
    9790:	e59f1018 	ldr	r1, [pc, #24]	; 97b0 <vprintk+0x2d4>
    9794:	e59f001c 	ldr	r0, [pc, #28]	; 97b8 <vprintk+0x2dc>
    9798:	ebffff00 	bl	93a0 <printk>
    979c:	eb000012 	bl	97ec <clean_reboot>
    97a0:	e28dd014 	add	sp, sp, #20, 0
    97a4:	e8bd8030 	pop	{r4, r5, pc}
    97a8:	0000a398 	muleq	r0, r8, r3
    97ac:	0000a354 	andeq	sl, r0, r4, asr r3
    97b0:	0000a290 	muleq	r0, r0, r2
    97b4:	0000a2e8 	andeq	sl, r0, r8, ror #5
    97b8:	0000a320 	andeq	sl, r0, r0, lsr #6

000097bc <default_putchar>:
    97bc:	e92d4010 	push	{r4, lr}
    97c0:	e1a04000 	mov	r4, r0
    97c4:	e6ef0070 	uxtb	r0, r0
    97c8:	eb000089 	bl	99f4 <uart_put8>
    97cc:	e1a00004 	mov	r0, r4
    97d0:	e8bd8010 	pop	{r4, pc}

000097d4 <rpi_putchar_set>:
    97d4:	e59f300c 	ldr	r3, [pc, #12]	; 97e8 <rpi_putchar_set+0x14>
    97d8:	e5932000 	ldr	r2, [r3]
    97dc:	e5830000 	str	r0, [r3]
    97e0:	e1a00002 	mov	r0, r2
    97e4:	e12fff1e 	bx	lr
    97e8:	0000a398 	muleq	r0, r8, r3

000097ec <clean_reboot>:
    97ec:	e92d4010 	push	{r4, lr}
    97f0:	e59f0010 	ldr	r0, [pc, #16]	; 9808 <clean_reboot+0x1c>
    97f4:	eb00012e 	bl	9cb4 <putk>
    97f8:	eb0000b3 	bl	9acc <uart_flush_tx>
    97fc:	e3a0000a 	mov	r0, #10, 0
    9800:	eb000036 	bl	98e0 <delay_ms>
    9804:	eb000011 	bl	9850 <rpi_reboot>
    9808:	0000a35c 	andeq	sl, r0, ip, asr r3

0000980c <program_end>:
    980c:	e59f0000 	ldr	r0, [pc]	; 9814 <program_end+0x8>
    9810:	e12fff1e 	bx	lr
    9814:	0000a3a8 	andeq	sl, r0, r8, lsr #7

00009818 <_cstart>:
    9818:	e92d4010 	push	{r4, lr}
    981c:	e59f3024 	ldr	r3, [pc, #36]	; 9848 <_cstart+0x30>
    9820:	e59f2024 	ldr	r2, [pc, #36]	; 984c <_cstart+0x34>
    9824:	e1530002 	cmp	r3, r2
    9828:	33a02000 	movcc	r2, #0, 0
    982c:	34c32001 	strbcc	r2, [r3], #1
    9830:	3afffffa 	bcc	9820 <_cstart+0x8>
    9834:	eb000035 	bl	9910 <uart_init>
    9838:	e3a03001 	mov	r3, #1, 0
    983c:	ee0f3f1c 	mcr	15, 0, r3, cr15, cr12, {0}
    9840:	ebfffb57 	bl	85a4 <notmain>
    9844:	ebffffe8 	bl	97ec <clean_reboot>
    9848:	0000a39c 	muleq	r0, ip, r3
    984c:	0000a3a8 	andeq	sl, r0, r8, lsr #7

00009850 <rpi_reboot>:
    9850:	e92d4010 	push	{r4, lr}
    9854:	eb00009c 	bl	9acc <uart_flush_tx>
    9858:	e3a0000a 	mov	r0, #10, 0
    985c:	eb00001f 	bl	98e0 <delay_ms>
    9860:	e59f1014 	ldr	r1, [pc, #20]	; 987c <rpi_reboot+0x2c>
    9864:	e59f0014 	ldr	r0, [pc, #20]	; 9880 <rpi_reboot+0x30>
    9868:	ebfff9ed 	bl	8024 <PUT32>
    986c:	e59f1010 	ldr	r1, [pc, #16]	; 9884 <rpi_reboot+0x34>
    9870:	e59f0010 	ldr	r0, [pc, #16]	; 9888 <rpi_reboot+0x38>
    9874:	ebfff9ea 	bl	8024 <PUT32>
    9878:	eafffffe 	b	9878 <rpi_reboot+0x28>
    987c:	5a000001 	bpl	9888 <rpi_reboot+0x38>
    9880:	20100024 	andscs	r0, r0, r4, lsr #32
    9884:	5a000020 	bpl	990c <delay_sec+0x14>
    9888:	2010001c 	andscs	r0, r0, ip, lsl r0

0000988c <timer_get_usec_raw>:
    988c:	e92d4010 	push	{r4, lr}
    9890:	e59f0004 	ldr	r0, [pc, #4]	; 989c <timer_get_usec_raw+0x10>
    9894:	ebfff9e4 	bl	802c <GET32>
    9898:	e8bd8010 	pop	{r4, pc}
    989c:	20003004 	andcs	r3, r0, r4

000098a0 <timer_get_usec>:
    98a0:	e92d4010 	push	{r4, lr}
    98a4:	eb00010f 	bl	9ce8 <dev_barrier>
    98a8:	ebfffff7 	bl	988c <timer_get_usec_raw>
    98ac:	e1a04000 	mov	r4, r0
    98b0:	eb00010c 	bl	9ce8 <dev_barrier>
    98b4:	e1a00004 	mov	r0, r4
    98b8:	e8bd8010 	pop	{r4, pc}

000098bc <delay_us>:
    98bc:	e92d4070 	push	{r4, r5, r6, lr}
    98c0:	e1a05000 	mov	r5, r0
    98c4:	ebfffff5 	bl	98a0 <timer_get_usec>
    98c8:	e1a04000 	mov	r4, r0
    98cc:	ebfffff3 	bl	98a0 <timer_get_usec>
    98d0:	e0400004 	sub	r0, r0, r4
    98d4:	e1500005 	cmp	r0, r5
    98d8:	3afffffb 	bcc	98cc <delay_us+0x10>
    98dc:	e8bd8070 	pop	{r4, r5, r6, pc}

000098e0 <delay_ms>:
    98e0:	e92d4010 	push	{r4, lr}
    98e4:	e0603280 	rsb	r3, r0, r0, lsl #5
    98e8:	e0800103 	add	r0, r0, r3, lsl #2
    98ec:	e1a00180 	lsl	r0, r0, #3
    98f0:	ebfffff1 	bl	98bc <delay_us>
    98f4:	e8bd8010 	pop	{r4, pc}

000098f8 <delay_sec>:
    98f8:	e92d4010 	push	{r4, lr}
    98fc:	e0603280 	rsb	r3, r0, r0, lsl #5
    9900:	e0800103 	add	r0, r0, r3, lsl #2
    9904:	e1a00180 	lsl	r0, r0, #3
    9908:	ebfffff4 	bl	98e0 <delay_ms>
    990c:	e8bd8010 	pop	{r4, pc}

00009910 <uart_init>:
    9910:	e92d4010 	push	{r4, lr}
    9914:	eb0000f3 	bl	9ce8 <dev_barrier>
    9918:	e3a01002 	mov	r1, #2, 0
    991c:	e3a0000e 	mov	r0, #14, 0
    9920:	eb0000bb 	bl	9c14 <gpio_set_function>
    9924:	e3a01002 	mov	r1, #2, 0
    9928:	e3a0000f 	mov	r0, #15, 0
    992c:	eb0000b8 	bl	9c14 <gpio_set_function>
    9930:	eb0000ec 	bl	9ce8 <dev_barrier>
    9934:	e59f4074 	ldr	r4, [pc, #116]	; 99b0 <uart_init+0xa0>
    9938:	e1a00004 	mov	r0, r4
    993c:	ebfff9ba 	bl	802c <GET32>
    9940:	e3801001 	orr	r1, r0, #1, 0
    9944:	e1a00004 	mov	r0, r4
    9948:	ebfff9b5 	bl	8024 <PUT32>
    994c:	eb0000e5 	bl	9ce8 <dev_barrier>
    9950:	e284405c 	add	r4, r4, #92, 0	; 0x5c
    9954:	e3a01000 	mov	r1, #0, 0
    9958:	e1a00004 	mov	r0, r4
    995c:	ebfff9b0 	bl	8024 <PUT32>
    9960:	e3a01000 	mov	r1, #0, 0
    9964:	e59f0048 	ldr	r0, [pc, #72]	; 99b4 <uart_init+0xa4>
    9968:	ebfff9ad 	bl	8024 <PUT32>
    996c:	e3a01006 	mov	r1, #6, 0
    9970:	e59f0040 	ldr	r0, [pc, #64]	; 99b8 <uart_init+0xa8>
    9974:	ebfff9aa 	bl	8024 <PUT32>
    9978:	e3a01003 	mov	r1, #3, 0
    997c:	e59f0038 	ldr	r0, [pc, #56]	; 99bc <uart_init+0xac>
    9980:	ebfff9a7 	bl	8024 <PUT32>
    9984:	e3a01000 	mov	r1, #0, 0
    9988:	e59f0030 	ldr	r0, [pc, #48]	; 99c0 <uart_init+0xb0>
    998c:	ebfff9a4 	bl	8024 <PUT32>
    9990:	e59f102c 	ldr	r1, [pc, #44]	; 99c4 <uart_init+0xb4>
    9994:	e59f002c 	ldr	r0, [pc, #44]	; 99c8 <uart_init+0xb8>
    9998:	ebfff9a1 	bl	8024 <PUT32>
    999c:	e3a01003 	mov	r1, #3, 0
    99a0:	e1a00004 	mov	r0, r4
    99a4:	ebfff99e 	bl	8024 <PUT32>
    99a8:	eb0000ce 	bl	9ce8 <dev_barrier>
    99ac:	e8bd8010 	pop	{r4, pc}
    99b0:	20215004 	eorcs	r5, r1, r4
    99b4:	20215044 	eorcs	r5, r1, r4, asr #32
    99b8:	20215048 	eorcs	r5, r1, r8, asr #32
    99bc:	2021504c 	eorcs	r5, r1, ip, asr #32
    99c0:	20215050 	eorcs	r5, r1, r0, asr r0
    99c4:	0000010e 	andeq	r0, r0, lr, lsl #2
    99c8:	20215068 	eorcs	r5, r1, r8, rrx

000099cc <uart_can_put8>:
    99cc:	e92d4010 	push	{r4, lr}
    99d0:	e59f0018 	ldr	r0, [pc, #24]	; 99f0 <uart_can_put8+0x24>
    99d4:	ebfff994 	bl	802c <GET32>
    99d8:	e3100020 	tst	r0, #32, 0
    99dc:	1a000001 	bne	99e8 <uart_can_put8+0x1c>
    99e0:	e3a00000 	mov	r0, #0, 0
    99e4:	e8bd8010 	pop	{r4, pc}
    99e8:	e3a00001 	mov	r0, #1, 0
    99ec:	e8bd8010 	pop	{r4, pc}
    99f0:	20215054 	eorcs	r5, r1, r4, asr r0

000099f4 <uart_put8>:
    99f4:	e92d4010 	push	{r4, lr}
    99f8:	e1a04000 	mov	r4, r0
    99fc:	eb0000b9 	bl	9ce8 <dev_barrier>
    9a00:	ebfffff1 	bl	99cc <uart_can_put8>
    9a04:	e3500000 	cmp	r0, #0, 0
    9a08:	0afffffc 	beq	9a00 <uart_put8+0xc>
    9a0c:	e1a01004 	mov	r1, r4
    9a10:	e59f000c 	ldr	r0, [pc, #12]	; 9a24 <uart_put8+0x30>
    9a14:	ebfff982 	bl	8024 <PUT32>
    9a18:	eb0000b2 	bl	9ce8 <dev_barrier>
    9a1c:	e3a00001 	mov	r0, #1, 0
    9a20:	e8bd8010 	pop	{r4, pc}
    9a24:	20215040 	eorcs	r5, r1, r0, asr #32

00009a28 <uart_has_data>:
    9a28:	e92d4010 	push	{r4, lr}
    9a2c:	e59f0008 	ldr	r0, [pc, #8]	; 9a3c <uart_has_data+0x14>
    9a30:	ebfff97d 	bl	802c <GET32>
    9a34:	e2000001 	and	r0, r0, #1, 0
    9a38:	e8bd8010 	pop	{r4, pc}
    9a3c:	20215054 	eorcs	r5, r1, r4, asr r0

00009a40 <uart_get8>:
    9a40:	e92d4010 	push	{r4, lr}
    9a44:	eb0000a7 	bl	9ce8 <dev_barrier>
    9a48:	ebfffff6 	bl	9a28 <uart_has_data>
    9a4c:	e3500000 	cmp	r0, #0, 0
    9a50:	0afffffc 	beq	9a48 <uart_get8+0x8>
    9a54:	e59f0010 	ldr	r0, [pc, #16]	; 9a6c <uart_get8+0x2c>
    9a58:	ebfff973 	bl	802c <GET32>
    9a5c:	e1a04000 	mov	r4, r0
    9a60:	eb0000a0 	bl	9ce8 <dev_barrier>
    9a64:	e6ef0074 	uxtb	r0, r4
    9a68:	e8bd8010 	pop	{r4, pc}
    9a6c:	20215040 	eorcs	r5, r1, r0, asr #32

00009a70 <uart_get8_async>:
    9a70:	e92d4010 	push	{r4, lr}
    9a74:	ebffffeb 	bl	9a28 <uart_has_data>
    9a78:	e3500000 	cmp	r0, #0, 0
    9a7c:	0a000001 	beq	9a88 <uart_get8_async+0x18>
    9a80:	ebffffee 	bl	9a40 <uart_get8>
    9a84:	e8bd8010 	pop	{r4, pc}
    9a88:	e3e00000 	mvn	r0, #0, 0
    9a8c:	e8bd8010 	pop	{r4, pc}

00009a90 <uart_tx_is_empty>:
    9a90:	e92d4010 	push	{r4, lr}
    9a94:	eb000093 	bl	9ce8 <dev_barrier>
    9a98:	e59f0028 	ldr	r0, [pc, #40]	; 9ac8 <uart_tx_is_empty+0x38>
    9a9c:	ebfff962 	bl	802c <GET32>
    9aa0:	e1a002a0 	lsr	r0, r0, #5
    9aa4:	e2000003 	and	r0, r0, #3, 0
    9aa8:	e3500003 	cmp	r0, #3, 0
    9aac:	0a000002 	beq	9abc <uart_tx_is_empty+0x2c>
    9ab0:	eb00008c 	bl	9ce8 <dev_barrier>
    9ab4:	e3a00000 	mov	r0, #0, 0
    9ab8:	e8bd8010 	pop	{r4, pc}
    9abc:	eb000089 	bl	9ce8 <dev_barrier>
    9ac0:	e3a00001 	mov	r0, #1, 0
    9ac4:	e8bd8010 	pop	{r4, pc}
    9ac8:	20215054 	eorcs	r5, r1, r4, asr r0

00009acc <uart_flush_tx>:
    9acc:	e92d4010 	push	{r4, lr}
    9ad0:	ebffffee 	bl	9a90 <uart_tx_is_empty>
    9ad4:	e3500000 	cmp	r0, #0, 0
    9ad8:	18bd8010 	popne	{r4, pc}
    9adc:	eb000087 	bl	9d00 <rpi_wait>
    9ae0:	eafffffa 	b	9ad0 <uart_flush_tx+0x4>

00009ae4 <uart_disable>:
    9ae4:	e92d4010 	push	{r4, lr}
    9ae8:	eb00007e 	bl	9ce8 <dev_barrier>
    9aec:	ebfffff6 	bl	9acc <uart_flush_tx>
    9af0:	e3a01000 	mov	r1, #0, 0
    9af4:	e59f0024 	ldr	r0, [pc, #36]	; 9b20 <uart_disable+0x3c>
    9af8:	ebfff949 	bl	8024 <PUT32>
    9afc:	eb000079 	bl	9ce8 <dev_barrier>
    9b00:	e59f401c 	ldr	r4, [pc, #28]	; 9b24 <uart_disable+0x40>
    9b04:	e1a00004 	mov	r0, r4
    9b08:	ebfff947 	bl	802c <GET32>
    9b0c:	e3c01001 	bic	r1, r0, #1, 0
    9b10:	e1a00004 	mov	r0, r4
    9b14:	ebfff942 	bl	8024 <PUT32>
    9b18:	eb000072 	bl	9ce8 <dev_barrier>
    9b1c:	e8bd8010 	pop	{r4, pc}
    9b20:	20215060 	eorcs	r5, r1, r0, rrx
    9b24:	20215004 	eorcs	r5, r1, r4

00009b28 <gpio_panic>:
    9b28:	e92d000f 	push	{r0, r1, r2, r3}
    9b2c:	eafffffe 	b	9b2c <gpio_panic+0x4>

00009b30 <gpio_set_on>:
    9b30:	e92d4010 	push	{r4, lr}
    9b34:	e3500035 	cmp	r0, #53, 0	; 0x35
    9b38:	8a000007 	bhi	9b5c <gpio_set_on+0x2c>
    9b3c:	e59f3024 	ldr	r3, [pc, #36]	; 9b68 <gpio_set_on+0x38>
    9b40:	e08332a0 	add	r3, r3, r0, lsr #5
    9b44:	e200101f 	and	r1, r0, #31, 0
    9b48:	e3a02001 	mov	r2, #1, 0
    9b4c:	e1a01112 	lsl	r1, r2, r1
    9b50:	e1a00103 	lsl	r0, r3, #2
    9b54:	ebfff932 	bl	8024 <PUT32>
    9b58:	e8bd8010 	pop	{r4, pc}
    9b5c:	e1a01000 	mov	r1, r0
    9b60:	e59f0004 	ldr	r0, [pc, #4]	; 9b6c <gpio_set_on+0x3c>
    9b64:	ebffffef 	bl	9b28 <gpio_panic>
    9b68:	08080007 	stmdaeq	r8, {r0, r1, r2}
    9b6c:	0000a368 	andeq	sl, r0, r8, ror #6

00009b70 <gpio_set_off>:
    9b70:	e92d4010 	push	{r4, lr}
    9b74:	e3500035 	cmp	r0, #53, 0	; 0x35
    9b78:	8a000007 	bhi	9b9c <gpio_set_off+0x2c>
    9b7c:	e59f3024 	ldr	r3, [pc, #36]	; 9ba8 <gpio_set_off+0x38>
    9b80:	e08332a0 	add	r3, r3, r0, lsr #5
    9b84:	e200101f 	and	r1, r0, #31, 0
    9b88:	e3a02001 	mov	r2, #1, 0
    9b8c:	e1a01112 	lsl	r1, r2, r1
    9b90:	e1a00103 	lsl	r0, r3, #2
    9b94:	ebfff922 	bl	8024 <PUT32>
    9b98:	e8bd8010 	pop	{r4, pc}
    9b9c:	e1a01000 	mov	r1, r0
    9ba0:	e59f0004 	ldr	r0, [pc, #4]	; 9bac <gpio_set_off+0x3c>
    9ba4:	ebffffdf 	bl	9b28 <gpio_panic>
    9ba8:	0808000a 	stmdaeq	r8, {r1, r3}
    9bac:	0000a368 	andeq	sl, r0, r8, ror #6

00009bb0 <gpio_write>:
    9bb0:	e92d4010 	push	{r4, lr}
    9bb4:	e3510000 	cmp	r1, #0, 0
    9bb8:	0a000001 	beq	9bc4 <gpio_write+0x14>
    9bbc:	ebffffdb 	bl	9b30 <gpio_set_on>
    9bc0:	e8bd8010 	pop	{r4, pc}
    9bc4:	ebffffe9 	bl	9b70 <gpio_set_off>
    9bc8:	e8bd8010 	pop	{r4, pc}

00009bcc <gpio_read>:
    9bcc:	e92d4010 	push	{r4, lr}
    9bd0:	e1a04000 	mov	r4, r0
    9bd4:	e3500035 	cmp	r0, #53, 0	; 0x35
    9bd8:	8a000008 	bhi	9c00 <gpio_read+0x34>
    9bdc:	e59f0028 	ldr	r0, [pc, #40]	; 9c0c <gpio_read+0x40>
    9be0:	e08002a4 	add	r0, r0, r4, lsr #5
    9be4:	e1a00100 	lsl	r0, r0, #2
    9be8:	ebfff90f 	bl	802c <GET32>
    9bec:	e204301f 	and	r3, r4, #31, 0
    9bf0:	e3a02001 	mov	r2, #1, 0
    9bf4:	e0000412 	and	r0, r0, r2, lsl r4
    9bf8:	e1a00330 	lsr	r0, r0, r3
    9bfc:	e8bd8010 	pop	{r4, pc}
    9c00:	e1a01000 	mov	r1, r0
    9c04:	e59f0004 	ldr	r0, [pc, #4]	; 9c10 <gpio_read+0x44>
    9c08:	ebffffc6 	bl	9b28 <gpio_panic>
    9c0c:	0808000d 	stmdaeq	r8, {r0, r2, r3}
    9c10:	0000a368 	andeq	sl, r0, r8, ror #6

00009c14 <gpio_set_function>:
    9c14:	e92d41f0 	push	{r4, r5, r6, r7, r8, lr}
    9c18:	e1a04000 	mov	r4, r0
    9c1c:	e3500035 	cmp	r0, #53, 0	; 0x35
    9c20:	8a000013 	bhi	9c74 <gpio_set_function+0x60>
    9c24:	e1a06001 	mov	r6, r1
    9c28:	e3d13007 	bics	r3, r1, #7, 0
    9c2c:	1a000013 	bne	9c80 <gpio_set_function+0x6c>
    9c30:	e59f5050 	ldr	r5, [pc, #80]	; 9c88 <gpio_set_function+0x74>
    9c34:	e0853095 	umull	r3, r5, r5, r0
    9c38:	e1a051a5 	lsr	r5, r5, #3
    9c3c:	e2857302 	add	r7, r5, #134217728	; 0x8000000
    9c40:	e2877702 	add	r7, r7, #524288	; 0x80000
    9c44:	e1a07107 	lsl	r7, r7, #2
    9c48:	e1a00007 	mov	r0, r7
    9c4c:	ebfff8f6 	bl	802c <GET32>
    9c50:	e0855105 	add	r5, r5, r5, lsl #2
    9c54:	e0444085 	sub	r4, r4, r5, lsl #1
    9c58:	e0844084 	add	r4, r4, r4, lsl #1
    9c5c:	e3a01007 	mov	r1, #7, 0
    9c60:	e1c01411 	bic	r1, r0, r1, lsl r4
    9c64:	e1811416 	orr	r1, r1, r6, lsl r4
    9c68:	e1a00007 	mov	r0, r7
    9c6c:	ebfff8ec 	bl	8024 <PUT32>
    9c70:	e8bd81f0 	pop	{r4, r5, r6, r7, r8, pc}
    9c74:	e1a01000 	mov	r1, r0
    9c78:	e59f000c 	ldr	r0, [pc, #12]	; 9c8c <gpio_set_function+0x78>
    9c7c:	ebffffa9 	bl	9b28 <gpio_panic>
    9c80:	e59f0008 	ldr	r0, [pc, #8]	; 9c90 <gpio_set_function+0x7c>
    9c84:	ebffffa7 	bl	9b28 <gpio_panic>
    9c88:	cccccccd 	stclgt	12, cr12, [ip], {205}	; 0xcd
    9c8c:	0000a368 	andeq	sl, r0, r8, ror #6
    9c90:	0000a378 	andeq	sl, r0, r8, ror r3

00009c94 <gpio_set_input>:
    9c94:	e92d4010 	push	{r4, lr}
    9c98:	e3a01000 	mov	r1, #0, 0
    9c9c:	ebffffdc 	bl	9c14 <gpio_set_function>
    9ca0:	e8bd8010 	pop	{r4, pc}

00009ca4 <gpio_set_output>:
    9ca4:	e92d4010 	push	{r4, lr}
    9ca8:	e3a01001 	mov	r1, #1, 0
    9cac:	ebffffd8 	bl	9c14 <gpio_set_function>
    9cb0:	e8bd8010 	pop	{r4, pc}

00009cb4 <putk>:
    9cb4:	e92d4010 	push	{r4, lr}
    9cb8:	e1a04000 	mov	r4, r0
    9cbc:	e5d40000 	ldrb	r0, [r4]
    9cc0:	e3500000 	cmp	r0, #0, 0
    9cc4:	0a000004 	beq	9cdc <putk+0x28>
    9cc8:	e59f3014 	ldr	r3, [pc, #20]	; 9ce4 <putk+0x30>
    9ccc:	e5933000 	ldr	r3, [r3]
    9cd0:	e12fff33 	blx	r3
    9cd4:	e2844001 	add	r4, r4, #1, 0
    9cd8:	eafffff7 	b	9cbc <putk+0x8>
    9cdc:	e3a00001 	mov	r0, #1, 0
    9ce0:	e8bd8010 	pop	{r4, pc}
    9ce4:	0000a398 	muleq	r0, r8, r3

00009ce8 <dev_barrier>:
    9ce8:	ea000002 	b	9cf8 <dsb>

00009cec <dmb>:
    9cec:	e3a00000 	mov	r0, #0, 0
    9cf0:	ee070fba 	mcr	15, 0, r0, cr7, cr10, {5}
    9cf4:	e12fff1e 	bx	lr

00009cf8 <dsb>:
    9cf8:	ee070f9a 	mcr	15, 0, r0, cr7, cr10, {4}
    9cfc:	e12fff1e 	bx	lr

00009d00 <rpi_wait>:
    9d00:	e12fff1e 	bx	lr

00009d04 <__code_end__>:
    9d04:	00000000 	andeq	r0, r0, r0

Disassembly of section .rodata:

00009d08 <__FUNCTION__.4398-0x17c>:
    9d08:	43415254 	movtmi	r5, #4692	; 0x1254
    9d0c:	73253a45 			; <UNDEFINED> instruction: 0x73253a45
    9d10:	6c75463a 	ldclvs	6, cr4, [r5], #-232	; 0xffffff18
    9d14:	73656e6c 	cmnvc	r5, #108, 28	; 0x6c0
    9d18:	69642073 	stmdbvs	r4!, {r0, r1, r4, r5, r6, sp}^
    9d1c:	72656666 	rsbvc	r6, r5, #106954752	; 0x6600000
    9d20:	74612073 	strbtvc	r2, [r1], #-115	; 0xffffff8d
    9d24:	646e6920 	strbtvs	r6, [lr], #-2336	; 0xfffff6e0
    9d28:	25207865 	strcs	r7, [r0, #-2149]!	; 0xfffff79b
    9d2c:	00000a64 	andeq	r0, r0, r4, ror #20
    9d30:	74736574 	ldrbtvc	r6, [r3], #-1396	; 0xfffffa8c
    9d34:	7465732d 	strbtvc	r7, [r5], #-813	; 0xfffffcd3
    9d38:	6669642d 	strbtvs	r6, [r9], -sp, lsr #8
    9d3c:	69732d66 	ldmdbvs	r3!, {r1, r2, r5, r6, r8, sl, fp, sp}^
    9d40:	2e73657a 	mrccs	5, 3, r6, cr3, cr10, {3}
    9d44:	00000063 	andeq	r0, r0, r3, rrx
    9d48:	253a7325 	ldrcs	r7, [sl, #-805]!	; 0xfffffcdb
    9d4c:	64253a73 	strtvs	r3, [r5], #-2675	; 0xfffff58d
    9d50:	4245443a 	submi	r4, r5, #973078528	; 0x3a000000
    9d54:	453a4755 	ldrmi	r4, [sl, #-1877]!	; 0xfffff8ab
    9d58:	524f5252 	subpl	r5, pc, #536870917	; 0x20000005
    9d5c:	7341203a 	movtvc	r2, #4154	; 0x103a
    9d60:	74726573 	ldrbtvc	r6, [r2], #-1395	; 0xfffffa8d
    9d64:	206e6f69 	rsbcs	r6, lr, r9, ror #30
    9d68:	60732560 	rsbsvs	r2, r3, r0, ror #10
    9d6c:	69616620 	stmdbvs	r1!, {r5, r9, sl, sp, lr}^
    9d70:	2e64656c 	cdpcs	5, 6, cr6, cr4, cr12, {3}
    9d74:	0000000a 	andeq	r0, r0, sl
    9d78:	736c6166 	cmnvc	ip, #-2147483623	; 0x80000019
    9d7c:	00000065 	andeq	r0, r0, r5, rrx
    9d80:	43415254 	movtmi	r5, #4692	; 0x1254
    9d84:	73253a45 			; <UNDEFINED> instruction: 0x73253a45
    9d88:	6669443a 			; <UNDEFINED> instruction: 0x6669443a
    9d8c:	73726566 	cmnvc	r2, #427819008	; 0x19800000
    9d90:	20746120 	rsbscs	r6, r4, r0, lsr #2
    9d94:	65646e69 	strbvs	r6, [r4, #-3689]!	; 0xfffff197
    9d98:	64252078 	strtvs	r2, [r5], #-120	; 0xffffff88
    9d9c:	0000000a 	andeq	r0, r0, sl
    9da0:	43415254 	movtmi	r5, #4692	; 0x1254
    9da4:	73253a45 			; <UNDEFINED> instruction: 0x73253a45
    9da8:	7078453a 	rsbsvc	r4, r8, sl, lsr r5
    9dac:	65746365 	ldrbvs	r6, [r4, #-869]!	; 0xfffffc9b
    9db0:	62203a64 	eorvs	r3, r0, #100, 20	; 0x64000
    9db4:	6b636f6c 	blvs	18e5b6c <__bss_end__+0x18db7c4>
    9db8:	2c642520 	cfstr64cs	mvdx2, [r4], #-128	; 0xffffff80
    9dbc:	736f7020 	cmnvc	pc, #32, 0
    9dc0:	2c642520 	cfstr64cs	mvdx2, [r4], #-128	; 0xffffff80
    9dc4:	2c642520 	cfstr64cs	mvdx2, [r4], #-128	; 0xffffff80
    9dc8:	2c642520 	cfstr64cs	mvdx2, [r4], #-128	; 0xffffff80
    9dcc:	746f4720 	strbtvc	r4, [pc], #-1824	; 9dd4 <__code_end__+0xd0>
    9dd0:	6c62203a 	stclvs	0, cr2, [r2], #-232	; 0xffffff18
    9dd4:	206b636f 	rsbcs	r6, fp, pc, ror #6
    9dd8:	202c6425 	eorcs	r6, ip, r5, lsr #8
    9ddc:	20736f70 	rsbscs	r6, r3, r0, ror pc
    9de0:	202c6425 	eorcs	r6, ip, r5, lsr #8
    9de4:	202c6425 	eorcs	r6, ip, r5, lsr #8
    9de8:	000a6425 	andeq	r6, sl, r5, lsr #8
    9dec:	43415254 	movtmi	r5, #4692	; 0x1254
    9df0:	73253a45 			; <UNDEFINED> instruction: 0x73253a45
    9df4:	6d6f433a 	stclvs	3, cr4, [pc, #-232]!	; 9d14 <__code_end__+0x10>
    9df8:	69726170 	ldmdbvs	r2!, {r4, r5, r6, r8, sp, lr}^
    9dfc:	206e6f73 	rsbcs	r6, lr, r3, ror pc
    9e00:	74736574 	ldrbtvc	r6, [r3], #-1396	; 0xfffffa8c
    9e04:	73617020 	cmnvc	r1, #32, 0
    9e08:	0a646573 	beq	19233dc <__bss_end__+0x1919034>
    9e0c:	00000000 	andeq	r0, r0, r0
    9e10:	43415254 	movtmi	r5, #4692	; 0x1254
    9e14:	73253a45 			; <UNDEFINED> instruction: 0x73253a45
    9e18:	756f433a 	strbvc	r4, [pc, #-826]!	; 9ae6 <uart_disable+0x2>
    9e1c:	203a746e 	eorscs	r7, sl, lr, ror #8
    9e20:	000a6425 	andeq	r6, sl, r5, lsr #8
    9e24:	494e4150 	stmdbmi	lr, {r4, r6, r8, lr}^
    9e28:	73253a43 			; <UNDEFINED> instruction: 0x73253a43
    9e2c:	3a73253a 	bcc	1cd331c <__bss_end__+0x1cc8f74>
    9e30:	463a6425 	ldrtmi	r6, [sl], -r5, lsr #8
    9e34:	656c6961 	strbvs	r6, [ip, #-2401]!	; 0xfffff69f
    9e38:	6f742064 	svcvs	0x00742064
    9e3c:	65726320 	ldrbvs	r6, [r2, #-800]!	; 0xfffffce0
    9e40:	20657461 	rsbcs	r7, r5, r1, ror #8
    9e44:	6c726f77 	ldclvs	15, cr6, [r2], #-476	; 0xfffffe24
    9e48:	00000a64 	andeq	r0, r0, r4, ror #20
    9e4c:	43415254 	movtmi	r5, #4692	; 0x1254
    9e50:	73253a45 			; <UNDEFINED> instruction: 0x73253a45
    9e54:	756f433a 	strbvc	r4, [pc, #-826]!	; 9b22 <uart_disable+0x3e>
    9e58:	203a746e 	eorscs	r7, sl, lr, ror #8
    9e5c:	202c6425 	eorcs	r6, ip, r5, lsr #8
    9e60:	657a6953 	ldrbvs	r6, [sl, #-2387]!	; 0xfffff6ad
    9e64:	6425203a 	strtvs	r2, [r5], #-58	; 0xffffffc6
    9e68:	0000000a 	andeq	r0, r0, sl
    9e6c:	6e756f63 	cdpvs	15, 7, cr6, cr5, cr3, {3}
    9e70:	3d3d2074 	ldccc	0, cr2, [sp, #-464]!	; 0xfffffe30
    9e74:	3e2d7720 	cdpcc	7, 2, cr7, cr13, cr0, {1}
    9e78:	74696465 	strbtvc	r6, [r9], #-1125	; 0xfffffb9b
    9e7c:	69732e73 	ldmdbvs	r3!, {r0, r1, r4, r5, r6, r9, sl, fp, sp}^
    9e80:	0000657a 	andeq	r6, r0, sl, ror r5

00009e84 <__FUNCTION__.4398>:
    9e84:	706d6f63 	rsbvc	r6, sp, r3, ror #30
    9e88:	5f657261 	svcpl	0x00657261
    9e8c:	6c726f77 	ldclvs	15, cr6, [r2], #-476	; 0xfffffe24
    9e90:	00000064 	andeq	r0, r0, r4, rrx

00009e94 <__FUNCTION__.4423>:
    9e94:	6c6c6966 			; <UNDEFINED> instruction: 0x6c6c6966
    9e98:	6261745f 	rsbvs	r7, r1, #1593835520	; 0x5f000000
    9e9c:	0000656c 	andeq	r6, r0, ip, ror #10

00009ea0 <__FUNCTION__.4462>:
    9ea0:	61657263 	cmnvs	r5, r3, ror #4
    9ea4:	775f6574 			; <UNDEFINED> instruction: 0x775f6574
    9ea8:	646c726f 	strbtvs	r7, [ip], #-623	; 0xfffffd91
    9eac:	00000000 	andeq	r0, r0, r0
    9eb0:	43415254 	movtmi	r5, #4692	; 0x1254
    9eb4:	73253a45 			; <UNDEFINED> instruction: 0x73253a45
    9eb8:	766e493a 			; <UNDEFINED> instruction: 0x766e493a
    9ebc:	64696c61 	strbtvs	r6, [r9], #-3169	; 0xfffff39f
    9ec0:	736f7020 	cmnvc	pc, #32, 0
    9ec4:	6f697469 	svcvs	0x00697469
    9ec8:	6425206e 	strtvs	r2, [r5], #-110	; 0xffffff92
    9ecc:	6425202c 	strtvs	r2, [r5], #-44	; 0xffffffd4
    9ed0:	6425202c 	strtvs	r2, [r5], #-44	; 0xffffffd4
    9ed4:	0000000a 	andeq	r0, r0, sl
    9ed8:	43415254 	movtmi	r5, #4692	; 0x1254
    9edc:	73253a45 			; <UNDEFINED> instruction: 0x73253a45
    9ee0:	6961463a 	stmdbvs	r1!, {r1, r3, r4, r5, r9, sl, lr}^
    9ee4:	2064656c 	rsbcs	r6, r4, ip, ror #10
    9ee8:	73206f74 			; <UNDEFINED> instruction: 0x73206f74
    9eec:	62207465 	eorvs	r7, r0, #1694498816	; 0x65000000
    9ef0:	6b636f6c 	blvs	18e5ca8 <__bss_end__+0x18db900>
    9ef4:	206e6920 	rsbcs	r6, lr, r0, lsr #18
    9ef8:	74696465 	strbtvc	r6, [r9], #-1125	; 0xfffffb9b
    9efc:	61742073 	cmnvs	r4, r3, ror r0
    9f00:	00656c62 	rsbeq	r6, r5, r2, ror #24
    9f04:	43415254 	movtmi	r5, #4692	; 0x1254
    9f08:	73253a45 			; <UNDEFINED> instruction: 0x73253a45
    9f0c:	6470553a 	ldrbtvs	r5, [r0], #-1338	; 0xfffffac6
    9f10:	6e697461 	cdpvs	4, 6, cr7, cr9, cr1, {3}
    9f14:	78652067 	stmdavc	r5!, {r0, r1, r2, r5, r6, sp}^
    9f18:	69747369 	ldmdbvs	r4!, {r0, r3, r5, r6, r8, r9, ip, sp, lr}^
    9f1c:	6520676e 	strvs	r6, [r0, #-1902]!	; 0xfffff892
    9f20:	7972746e 	ldmdbvc	r2!, {r1, r2, r3, r5, r6, sl, ip, sp, lr}^
    9f24:	726f6620 	rsbvc	r6, pc, #32, 12	; 0x2000000
    9f28:	6f6c6220 	svcvs	0x006c6220
    9f2c:	61206b63 			; <UNDEFINED> instruction: 0x61206b63
    9f30:	64252074 	strtvs	r2, [r5], #-116	; 0xffffff8c
    9f34:	6425202c 	strtvs	r2, [r5], #-44	; 0xffffffd4
    9f38:	6425202c 	strtvs	r2, [r5], #-44	; 0xffffffd4
    9f3c:	0000000a 	andeq	r0, r0, sl
    9f40:	43415254 	movtmi	r5, #4692	; 0x1254
    9f44:	73253a45 			; <UNDEFINED> instruction: 0x73253a45
    9f48:	6961463a 	stmdbvs	r1!, {r1, r3, r4, r5, r9, sl, lr}^
    9f4c:	2064656c 	rsbcs	r6, r4, ip, ror #10
    9f50:	61206f74 			; <UNDEFINED> instruction: 0x61206f74
    9f54:	65206464 	strvs	r6, [r0, #-1124]!	; 0xfffffb9c
    9f58:	7972746e 	ldmdbvc	r2!, {r1, r2, r3, r5, r6, sl, ip, sp, lr}^
    9f5c:	206f7420 	rsbcs	r7, pc, r0, lsr #8
    9f60:	646e6570 	strbtvs	r6, [lr], #-1392	; 0xfffffa90
    9f64:	20676e69 	rsbcs	r6, r7, r9, ror #28
    9f68:	6c626174 	stfvse	f6, [r2], #-464	; 0xfffffe30
    9f6c:	00000065 	andeq	r0, r0, r5, rrx

00009f70 <__FUNCTION__.4430>:
    9f70:	6c726f77 	ldclvs	15, cr6, [r2], #-476	; 0xfffffe24
    9f74:	65675f64 	strbvs	r5, [r7, #-3940]!	; 0xfffff09c
    9f78:	6c625f74 	stclvs	15, cr5, [r2], #-464	; 0xfffffe30
    9f7c:	006b636f 	rsbeq	r6, fp, pc, ror #6

00009f80 <__FUNCTION__.4437>:
    9f80:	6c726f77 	ldclvs	15, cr6, [r2], #-476	; 0xfffffe24
    9f84:	65735f64 	ldrbvs	r5, [r3, #-3940]!	; 0xfffff09c
    9f88:	6c625f74 	stclvs	15, cr5, [r2], #-464	; 0xfffffe30
    9f8c:	006b636f 	rsbeq	r6, fp, pc, ror #6
    9f90:	66617473 			; <UNDEFINED> instruction: 0x66617473
    9f94:	6d6b2d66 	stclvs	13, cr2, [fp, #-408]!	; 0xfffffe68
    9f98:	6f6c6c61 	svcvs	0x006c6c61
    9f9c:	00632e63 	rsbeq	r2, r3, r3, ror #28
    9fa0:	494e4150 	stmdbmi	lr, {r4, r6, r8, lr}^
    9fa4:	73253a43 			; <UNDEFINED> instruction: 0x73253a43
    9fa8:	3a73253a 	bcc	1cd3498 <__bss_end__+0x1cc90f0>
    9fac:	613a6425 	teqvs	sl, r5, lsr #8
    9fb0:	636f6c6c 	cmnvs	pc, #108, 24	; 0x6c00
    9fb4:	6e697461 	cdpvs	4, 6, cr7, cr9, cr1, {3}
    9fb8:	6f742067 	svcvs	0x00742067
    9fbc:	616d206f 	cmnvs	sp, pc, rrx
    9fc0:	6220796e 	eorvs	r7, r0, #1802240	; 0x1b8000
    9fc4:	73657479 	cmnvc	r5, #2030043136	; 0x79000000
    9fc8:	6425203a 	strtvs	r2, [r5], #-58	; 0xffffffc6
    9fcc:	00000a0a 	andeq	r0, r0, sl, lsl #20
    9fd0:	494e4150 	stmdbmi	lr, {r4, r6, r8, lr}^
    9fd4:	73253a43 			; <UNDEFINED> instruction: 0x73253a43
    9fd8:	3a73253a 	bcc	1cd34c8 <__bss_end__+0x1cc9120>
    9fdc:	613a6425 	teqvs	sl, r5, lsr #8
    9fe0:	65726464 	ldrbvs	r6, [r2, #-1124]!	; 0xfffffb9c
    9fe4:	69207373 	stmdbvs	r0!, {r0, r1, r4, r5, r6, r8, r9, ip, sp, lr}
    9fe8:	6f742073 	svcvs	0x00742073
    9fec:	6d73206f 	ldclvs	0, cr2, [r3, #-444]!	; 0xfffffe44
    9ff0:	0a6c6c61 	beq	1b2517c <__bss_end__+0x1b1add4>
    9ff4:	0000000a 	andeq	r0, r0, sl
    9ff8:	5f78616d 	svcpl	0x0078616d
    9ffc:	7479626e 	ldrbtvc	r6, [r9], #-622	; 0xfffffd92
    a000:	00007365 	andeq	r7, r0, r5, ror #6
    a004:	494e4150 	stmdbmi	lr, {r4, r6, r8, lr}^
    a008:	73253a43 			; <UNDEFINED> instruction: 0x73253a43
    a00c:	3a73253a 	bcc	1cd34fc <__bss_end__+0x1cc9154>
    a010:	643a6425 	ldrtvs	r6, [sl], #-1061	; 0xfffffbdb
    a014:	65676e61 	strbvs	r6, [r7, #-3681]!	; 0xfffff19f
    a018:	73756f72 	cmnvc	r5, #456	; 0x1c8
    a01c:	7263203a 	rsbvc	r2, r3, #58, 0	; 0x3a
    a020:	69746165 	ldmdbvs	r4!, {r0, r2, r5, r6, r8, sp, lr}^
    a024:	6820676e 	stmdavs	r0!, {r1, r2, r3, r5, r6, r8, r9, sl, sp, lr}
    a028:	20706165 	rsbscs	r6, r0, r5, ror #2
    a02c:	74616874 	strbtvc	r6, [r1], #-2164	; 0xfffff78c
    a030:	756f6320 	strbvc	r6, [pc, #-800]!	; 9d18 <__code_end__+0x14>
    a034:	6f20646c 	svcvs	0x0020646c
    a038:	77726576 			; <UNDEFINED> instruction: 0x77726576
    a03c:	65746972 	ldrbvs	r6, [r4, #-2418]!	; 0xfffff68e
    a040:	65727020 	ldrbvs	r7, [r2, #-32]!	; 0xffffffe0
    a044:	6978652d 	ldmdbvs	r8!, {r0, r2, r3, r5, r8, sl, sp, lr}^
    a048:	6e697473 	mcrvs	4, 3, r7, cr9, cr3, {3}
    a04c:	68203a67 	stmdavs	r0!, {r0, r1, r2, r5, r6, r9, fp, ip, sp}
    a050:	5f706165 	svcpl	0x00706165
    a054:	72617473 	rsbvc	r7, r1, #1929379840	; 0x73000000
    a058:	78253d74 	stmdavc	r5!, {r2, r4, r5, r6, r8, sl, fp, ip, sp}
    a05c:	656e202c 	strbvs	r2, [lr, #-44]!	; 0xffffffd4
    a060:	65682077 	strbvs	r2, [r8, #-119]!	; 0xffffff89
    a064:	253d7061 	ldrcs	r7, [sp, #-97]!	; 0xffffff9f
    a068:	000a0a78 	andeq	r0, sl, r8, ror sl
    a06c:	494e4150 	stmdbmi	lr, {r4, r6, r8, lr}^
    a070:	73253a43 			; <UNDEFINED> instruction: 0x73253a43
    a074:	3a73253a 	bcc	1cd3564 <__bss_end__+0x1cc91bc>
    a078:	733a6425 	teqvc	sl, #620756992	; 0x25000000
    a07c:	69747465 	ldmdbvs	r4!, {r0, r2, r5, r6, sl, ip, sp, lr}^
    a080:	6820676e 	stmdavs	r0!, {r1, r2, r3, r5, r6, r8, r9, sl, sp, lr}
    a084:	20706165 	rsbscs	r6, r0, r5, ror #2
    a088:	25206f74 	strcs	r6, [r0, #-3956]!	; 0xfffff08c
    a08c:	77203a70 			; <UNDEFINED> instruction: 0x77203a70
    a090:	206c6c69 	rsbcs	r6, ip, r9, ror #24
    a094:	20746968 	rsbscs	r6, r4, r8, ror #18
    a098:	20656874 	rsbcs	r6, r5, r4, ror r8
    a09c:	20646c6f 	rsbcs	r6, r4, pc, ror #24
    a0a0:	70616568 	rsbvc	r6, r1, r8, ror #10
    a0a4:	20746120 	rsbscs	r6, r4, r0, lsr #2
    a0a8:	0a0a7025 	beq	2a6144 <__bss_end__+0x29bd9c>
    a0ac:	00000000 	andeq	r0, r0, r0
    a0b0:	736e7528 	cmnvc	lr, #40, 10	; 0xa000000
    a0b4:	656e6769 	strbvs	r6, [lr, #-1897]!	; 0xfffff897
    a0b8:	65682964 	strbvs	r2, [r8, #-2404]!	; 0xfffff69c
    a0bc:	38257061 	stmdacc	r5!, {r0, r5, r6, ip, sp, lr}
    a0c0:	203d3d20 	eorscs	r3, sp, r0, lsr #26
    a0c4:	00000030 	andeq	r0, r0, r0, lsr r0
    a0c8:	494e4150 	stmdbmi	lr, {r4, r6, r8, lr}^
    a0cc:	73253a43 			; <UNDEFINED> instruction: 0x73253a43
    a0d0:	3a73253a 	bcc	1cd35c0 <__bss_end__+0x1cc9218>
    a0d4:	643a6425 	ldrtvs	r6, [sl], #-1061	; 0xfffffbdb
    a0d8:	6e206469 	cdpvs	4, 2, cr6, cr0, cr9, {3}
    a0dc:	6920746f 	stmdbvs	r0!, {r0, r1, r2, r3, r5, r6, sl, ip, sp, lr}
    a0e0:	6974696e 	ldmdbvs	r4!, {r1, r2, r3, r5, r6, r8, fp, sp, lr}^
    a0e4:	7a696c61 	bvc	1a65270 <__bss_end__+0x1a5aec8>
    a0e8:	6d6b2065 	stclvs	0, cr2, [fp, #-404]!	; 0xfffffe6c
    a0ec:	6f6c6c61 	svcvs	0x006c6c61
    a0f0:	000a0a63 	andeq	r0, sl, r3, ror #20
    a0f4:	494e4150 	stmdbmi	lr, {r4, r6, r8, lr}^
    a0f8:	73253a43 			; <UNDEFINED> instruction: 0x73253a43
    a0fc:	3a73253a 	bcc	1cd35ec <__bss_end__+0x1cc9244>
    a100:	253a6425 	ldrcs	r6, [sl, #-1061]!	; 0xfffffbdb
    a104:	626e2064 	rsbvs	r2, lr, #100, 0	; 0x64
    a108:	20657479 	rsbcs	r7, r5, r9, ror r4
    a10c:	6f6c6c61 	svcvs	0x006c6c61
    a110:	69746163 	ldmdbvs	r4!, {r0, r1, r5, r6, r8, sp, lr}^
    a114:	65206e6f 	strvs	r6, [r0, #-3695]!	; 0xfffff191
    a118:	65656378 	strbvs	r6, [r5, #-888]!	; 0xfffffc88
    a11c:	20646564 	rsbcs	r6, r4, r4, ror #10
    a120:	657a6973 	ldrbvs	r6, [sl, #-2419]!	; 0xfffff68d
    a124:	20666f20 	rsbcs	r6, r6, r0, lsr #30
    a128:	70616568 	rsbvc	r6, r1, r8, ror #10
    a12c:	20796220 	rsbscs	r6, r9, r0, lsr #4
    a130:	6e207525 	cfsh64vs	mvdx7, mvdx0, #21
    a134:	65747962 	ldrbvs	r7, [r4, #-2402]!	; 0xfffff69e
    a138:	000a0a73 	andeq	r0, sl, r3, ror sl
    a13c:	253a7325 	ldrcs	r7, [sl, #-805]!	; 0xfffffcdb
    a140:	64253a73 	strtvs	r3, [r5], #-2675	; 0xfffff58d
    a144:	4245443a 	submi	r4, r5, #973078528	; 0x3a000000
    a148:	453a4755 	ldrmi	r4, [sl, #-1877]!	; 0xfffff8ab
    a14c:	524f5252 	subpl	r5, pc, #536870917	; 0x20000005
    a150:	6544203a 	strbvs	r2, [r4, #-58]	; 0xffffffc6
    a154:	646e616d 	strbtvs	r6, [lr], #-365	; 0xfffffe93
    a158:	73256020 			; <UNDEFINED> instruction: 0x73256020
    a15c:	61662060 	cmnvs	r6, r0, rrx
    a160:	64656c69 	strbtvs	r6, [r5], #-3177	; 0xfffff397
    a164:	7373613a 	cmnvc	r3, #-2147483634	; 0x8000000e
    a168:	6e696d75 	mcrvs	13, 3, r6, cr9, cr5, {3}
    a16c:	6f702067 	svcvs	0x00702067
    a170:	20726577 	rsbscs	r6, r2, r7, ror r5
    a174:	7420666f 	strtvc	r6, [r0], #-1647	; 0xfffff991
    a178:	000a6f77 	andeq	r6, sl, r7, ror pc
    a17c:	705f7369 	subsvc	r7, pc, r9, ror #6
    a180:	2832776f 	ldmdacs	r2!, {r0, r1, r2, r3, r5, r6, r8, r9, sl, ip, sp, lr}
    a184:	67696c61 	strbvs	r6, [r9, -r1, ror #24]!
    a188:	6e656d6e 	cdpvs	13, 6, cr6, cr5, cr14, {3}
    a18c:	00002974 	andeq	r2, r0, r4, ror r9
    a190:	705f7369 	subsvc	r7, pc, r9, ror #6
    a194:	2832776f 	ldmdacs	r2!, {r0, r1, r2, r3, r5, r6, r8, r9, sl, ip, sp, lr}
    a198:	0000296e 	andeq	r2, r0, lr, ror #18
    a19c:	253a7325 	ldrcs	r7, [sl, #-805]!	; 0xfffffcdb
    a1a0:	64253a73 	strtvs	r3, [r5], #-2675	; 0xfffff58d
    a1a4:	4245443a 	submi	r4, r5, #973078528	; 0x3a000000
    a1a8:	453a4755 	ldrmi	r4, [sl, #-1877]!	; 0xfffff8ab
    a1ac:	524f5252 	subpl	r5, pc, #536870917	; 0x20000005
    a1b0:	6544203a 	strbvs	r2, [r4, #-58]	; 0xffffffc6
    a1b4:	646e616d 	strbtvs	r6, [lr], #-365	; 0xfffffe93
    a1b8:	73256020 			; <UNDEFINED> instruction: 0x73256020
    a1bc:	61662060 	cmnvs	r6, r0, rrx
    a1c0:	64656c69 	strbtvs	r6, [r5], #-3177	; 0xfffff397
    a1c4:	706d693a 	rsbvc	r6, sp, sl, lsr r9
    a1c8:	6973736f 	ldmdbvs	r3!, {r0, r1, r2, r3, r5, r6, r8, r9, ip, sp, lr}^
    a1cc:	0a656c62 	beq	196535c <__bss_end__+0x195afb4>
    a1d0:	00000000 	andeq	r0, r0, r0
    a1d4:	615f7369 	cmpvs	pc, r9, ror #6
    a1d8:	6e67696c 	vnmulvs.f16	s13, s14, s25	; <UNPREDICTABLE>
    a1dc:	68286465 	stmdavs	r8!, {r0, r2, r5, r6, sl, sp, lr}
    a1e0:	6c61202c 	stclvs	0, cr2, [r1], #-176	; 0xffffff50
    a1e4:	6d6e6769 	stclvs	7, cr6, [lr, #-420]!	; 0xfffffe5c
    a1e8:	29746e65 	ldmdbcs	r4!, {r0, r2, r5, r6, r9, sl, fp, sp, lr}^
    a1ec:	00000000 	andeq	r0, r0, r0

0000a1f0 <__FUNCTION__.4>:
    a1f0:	6c616d6b 	stclvs	13, cr6, [r1], #-428	; 0xfffffe54
    a1f4:	5f636f6c 	svcpl	0x00636f6c
    a1f8:	74696e69 	strbtvc	r6, [r9], #-3689	; 0xfffff197
    a1fc:	7465735f 	strbtvc	r7, [r5], #-863	; 0xfffffca1
    a200:	6174735f 	cmnvs	r4, pc, asr r3
    a204:	00007472 	andeq	r7, r0, r2, ror r4

0000a208 <__FUNCTION__.3>:
    a208:	6c616d6b 	stclvs	13, cr6, [r1], #-428	; 0xfffffe54
    a20c:	5f636f6c 	svcpl	0x00636f6c
    a210:	7a746f6e 	bvc	1d25fd0 <__bss_end__+0x1d1bc28>
    a214:	006f7265 	rsbeq	r7, pc, r5, ror #4

0000a218 <__FUNCTION__.1>:
    a218:	6c616d6b 	stclvs	13, cr6, [r1], #-428	; 0xfffffe54
    a21c:	00636f6c 	rsbeq	r6, r3, ip, ror #30

0000a220 <__FUNCTION__.0>:
    a220:	6c616d6b 	stclvs	13, cr6, [r1], #-428	; 0xfffffe54
    a224:	5f636f6c 	svcpl	0x00636f6c
    a228:	67696c61 	strbvs	r6, [r9, -r1, ror #24]!
    a22c:	0064656e 	rsbeq	r6, r4, lr, ror #10

0000a230 <__FUNCTION__.2>:
    a230:	6e756f72 	mrcvs	15, 3, r6, cr5, cr2, {3}
    a234:	00707564 	rsbseq	r7, r0, r4, ror #10
    a238:	696c2f2e 	stmdbvs	ip!, {r1, r2, r3, r5, r8, r9, sl, fp, sp}^
    a23c:	6d2f6362 	stcvs	3, cr6, [pc, #-392]!	; a0bc <__FUNCTION__.4437+0x13c>
    a240:	70636d65 	rsbvc	r6, r3, r5, ror #26
    a244:	00632e79 	rsbeq	r2, r3, r9, ror lr
    a248:	494e4150 	stmdbmi	lr, {r4, r6, r8, lr}^
    a24c:	73253a43 			; <UNDEFINED> instruction: 0x73253a43
    a250:	3a73253a 	bcc	1cd3740 <__bss_end__+0x1cc9398>
    a254:	753a6425 	ldrvc	r6, [sl, #-1061]!	; 0xfffffbdb
    a258:	696c616e 	stmdbvs	ip!, {r1, r2, r3, r5, r6, r8, sp, lr}^
    a25c:	64656e67 	strbtvs	r6, [r5], #-3687	; 0xfffff199
    a260:	79626e20 	stmdbvc	r2!, {r5, r9, sl, fp, sp, lr}^
    a264:	3d736574 	cfldr64cc	mvdx6, [r3, #-464]!	; 0xfffffe30
    a268:	6e206425 	cdpvs	4, 2, cr6, cr0, cr5, {1}
    a26c:	6420746f 	strtvs	r7, [r0], #-1135	; 0xfffffb91
    a270:	73697669 	cmnvc	r9, #110100480	; 0x6900000
    a274:	656c6269 	strbvs	r6, [ip, #-617]!	; 0xfffffd97
    a278:	20796220 	rsbscs	r6, r9, r0, lsr #4
    a27c:	0a0a6425 	beq	2a3318 <__bss_end__+0x298f70>
    a280:	00000000 	andeq	r0, r0, r0

0000a284 <__FUNCTION__.4303>:
    a284:	636d656d 	cmnvs	sp, #457179136	; 0x1b400000
    a288:	35327970 	ldrcc	r7, [r2, #-2416]!	; 0xfffff690
    a28c:	00000036 	andeq	r0, r0, r6, lsr r0
    a290:	696c2f2e 	stmdbvs	ip!, {r1, r2, r3, r5, r8, r9, sl, fp, sp}^
    a294:	702f6362 	eorvc	r6, pc, r2, ror #6
    a298:	746e6972 	strbtvc	r6, [lr], #-2418	; 0xfffff68e
    a29c:	00632e6b 	rsbeq	r2, r3, fp, ror #28
    a2a0:	494e4150 	stmdbmi	lr, {r4, r6, r8, lr}^
    a2a4:	73253a43 			; <UNDEFINED> instruction: 0x73253a43
    a2a8:	3a73253a 	bcc	1cd3798 <__bss_end__+0x1cc93f0>
    a2ac:	693a6425 	ldmdbvs	sl!, {r0, r2, r5, sl, sp, lr}
    a2b0:	6c61766e 	stclvs	6, cr7, [r1], #-440	; 0xfffffe48
    a2b4:	62206469 	eorvs	r6, r0, #1761607680	; 0x69000000
    a2b8:	3d657361 	stclcc	3, cr7, [r5, #-388]!	; 0xfffffe7c
    a2bc:	0a0a6425 	beq	2a3358 <__bss_end__+0x298fb0>
    a2c0:	00000000 	andeq	r0, r0, r0
    a2c4:	00003130 	andeq	r3, r0, r0, lsr r1
    a2c8:	33323130 	teqcc	r2, #12
    a2cc:	37363534 			; <UNDEFINED> instruction: 0x37363534
    a2d0:	00003938 	andeq	r3, r0, r8, lsr r9
    a2d4:	33323130 	teqcc	r2, #12
    a2d8:	37363534 			; <UNDEFINED> instruction: 0x37363534
    a2dc:	62613938 	rsbvs	r3, r1, #56, 18	; 0xe0000
    a2e0:	66656463 	strbtvs	r6, [r5], -r3, ror #8
    a2e4:	00000000 	andeq	r0, r0, r0
    a2e8:	494e4150 	stmdbmi	lr, {r4, r6, r8, lr}^
    a2ec:	73253a43 			; <UNDEFINED> instruction: 0x73253a43
    a2f0:	3a73253a 	bcc	1cd37e0 <__bss_end__+0x1cc9438>
    a2f4:	6f3a6425 	svcvs	0x003a6425
    a2f8:	20796c6e 	rsbscs	r6, r9, lr, ror #24
    a2fc:	646e6168 	strbtvs	r6, [lr], #-360	; 0xfffffe98
    a300:	676e696c 	strbvs	r6, [lr, -ip, ror #18]!
    a304:	786c6c20 	stmdavc	ip!, {r5, sl, fp, sp, lr}^
    a308:	726f6620 	rsbvc	r6, pc, #32, 12	; 0x2000000
    a30c:	2c74616d 	ldfcse	f6, [r4], #-436	; 0xfffffe4c
    a310:	76616820 	strbtvc	r6, [r1], -r0, lsr #16
    a314:	3c203a65 			; <UNDEFINED> instruction: 0x3c203a65
    a318:	0a3e7325 	beq	fa6fb4 <__bss_end__+0xf9cc0c>
    a31c:	0000000a 	andeq	r0, r0, sl
    a320:	494e4150 	stmdbmi	lr, {r4, r6, r8, lr}^
    a324:	73253a43 			; <UNDEFINED> instruction: 0x73253a43
    a328:	3a73253a 	bcc	1cd3818 <__bss_end__+0x1cc9470>
    a32c:	623a6425 	eorsvs	r6, sl, #620756992	; 0x25000000
    a330:	7375676f 	cmnvc	r5, #29097984	; 0x1bc0000
    a334:	65646920 	strbvs	r6, [r4, #-2336]!	; 0xfffff6e0
    a338:	6669746e 	strbtvs	r7, [r9], -lr, ror #8
    a33c:	3a726569 	bcc	1ca38e8 <__bss_end__+0x1c99540>
    a340:	63253c20 			; <UNDEFINED> instruction: 0x63253c20
    a344:	000a0a3e 	andeq	r0, sl, lr, lsr sl

0000a348 <__FUNCTION__.4311>:
    a348:	74696d65 	strbtvc	r6, [r9], #-3429	; 0xfffff29b
    a34c:	6c61765f 	stclvs	6, cr7, [r1], #-380	; 0xfffffe84
    a350:	00000000 	andeq	r0, r0, r0

0000a354 <__FUNCTION__.4327>:
    a354:	69727076 	ldmdbvs	r2!, {r1, r2, r4, r5, r6, ip, sp, lr}^
    a358:	006b746e 	rsbeq	r7, fp, lr, ror #8
    a35c:	454e4f44 	strbmi	r4, [lr, #-3908]	; 0xfffff0bc
    a360:	0a212121 	beq	8527ec <__bss_end__+0x848444>
    a364:	00000000 	andeq	r0, r0, r0
    a368:	656c6c69 	strbvs	r6, [ip, #-3177]!	; 0xfffff397
    a36c:	206c6167 	rsbcs	r6, ip, r7, ror #2
    a370:	3d6e6970 			; <UNDEFINED> instruction: 0x3d6e6970
    a374:	000a6425 	andeq	r6, sl, r5, lsr #8
    a378:	656c6c69 	strbvs	r6, [ip, #-3177]!	; 0xfffff397
    a37c:	206c6167 	rsbcs	r6, ip, r7, ror #2
    a380:	636e7566 	cmnvs	lr, #427819008	; 0x19800000
    a384:	0a78253d 	beq	1e13880 <__bss_end__+0x1e094d8>
	...

Disassembly of section .data:

0000a38c <__data_start__>:
    a38c:	00200000 	eoreq	r0, r0, r0

0000a390 <heap_start>:
    a390:	00100000 	andseq	r0, r0, r0

0000a394 <heap>:
    a394:	00100000 	andseq	r0, r0, r0

0000a398 <rpi_putchar>:
    a398:	000097bc 			; <UNDEFINED> instruction: 0x000097bc

Disassembly of section .bss:

0000a39c <count>:
    a39c:	00000000 	andeq	r0, r0, r0

0000a3a0 <interval_ms>:
	...

Disassembly of section .ARM.attributes:

00000000 <.ARM.attributes>:
   0:	00002841 	andeq	r2, r0, r1, asr #16
   4:	61656100 	cmnvs	r5, r0, lsl #2
   8:	01006962 	tsteq	r0, r2, ror #18
   c:	0000001e 	andeq	r0, r0, lr, lsl r0
  10:	4b5a3605 	blmi	168d82c <__bss_end__+0x1683484>
  14:	08070600 	stmdaeq	r7, {r9, sl}
  18:	12010901 	andne	r0, r1, #16384	; 0x4000
  1c:	15011404 	strne	r1, [r1, #-1028]	; 0xfffffbfc
  20:	18031701 	stmdane	r3, {r0, r8, r9, sl, ip}
  24:	44011a01 	strmi	r1, [r1], #-2561	; 0xfffff5ff
  28:	Address 0x0000000000000028 is out of bounds.


Disassembly of section .comment:

00000000 <.comment>:
   0:	3a434347 	bcc	10d0d24 <__bss_end__+0x10c697c>
   4:	4e472820 	cdpmi	8, 4, cr2, cr7, cr0, {1}
   8:	6f542055 	svcvs	0x00542055
   c:	20736c6f 	rsbscs	r6, r3, pc, ror #24
  10:	20726f66 	rsbscs	r6, r2, r6, ror #30
  14:	206d7241 	rsbcs	r7, sp, r1, asr #4
  18:	65626d45 	strbvs	r6, [r2, #-3397]!	; 0xfffff2bb
  1c:	64656464 	strbtvs	r6, [r5], #-1124	; 0xfffffb9c
  20:	6f725020 	svcvs	0x00725020
  24:	73736563 	cmnvc	r3, #415236096	; 0x18c00000
  28:	2073726f 	rsbscs	r7, r3, pc, ror #4
  2c:	30322d39 	eorscc	r2, r2, r9, lsr sp
  30:	712d3931 			; <UNDEFINED> instruction: 0x712d3931
  34:	616d2d34 	cmnvs	sp, r4, lsr sp
  38:	29726f6a 	ldmdbcs	r2!, {r1, r3, r5, r6, r8, r9, sl, fp, sp, lr}^
  3c:	322e3920 	eorcc	r3, lr, #32, 18	; 0x80000
  40:	3220312e 	eorcc	r3, r0, #-2147483637	; 0x8000000b
  44:	31393130 	teqcc	r9, r0, lsr r1
  48:	20353230 	eorscs	r3, r5, r0, lsr r2
  4c:	6c657228 	sfmvs	f7, 2, [r5], #-160	; 0xffffff60
  50:	65736165 	ldrbvs	r6, [r3, #-357]!	; 0xfffffe9b
  54:	415b2029 	cmpmi	fp, r9, lsr #32
  58:	612f4d52 			; <UNDEFINED> instruction: 0x612f4d52
  5c:	392d6d72 	pushcc	{r1, r4, r5, r6, r8, sl, fp, sp, lr}
  60:	6172622d 	cmnvs	r2, sp, lsr #4
  64:	2068636e 	rsbcs	r6, r8, lr, ror #6
  68:	69766572 	ldmdbvs	r6!, {r1, r4, r5, r6, r8, sl, sp, lr}^
  6c:	6e6f6973 			; <UNDEFINED> instruction: 0x6e6f6973
  70:	37373220 	ldrcc	r3, [r7, -r0, lsr #4]!
  74:	5d393935 			; <UNDEFINED> instruction: 0x5d393935
  78:	43434700 	movtmi	r4, #14080	; 0x3700
  7c:	3128203a 			; <UNDEFINED> instruction: 0x3128203a
  80:	30313a35 	eorscc	r3, r1, r5, lsr sl
  84:	322d332e 	eorcc	r3, sp, #-1207959552	; 0xb8000000
  88:	2e313230 	mrccs	2, 1, r3, cr1, cr0, {1}
  8c:	342d3730 	strtcc	r3, [sp], #-1840	; 0xfffff8d0
  90:	30312029 	eorscc	r2, r1, r9, lsr #32
  94:	312e332e 			; <UNDEFINED> instruction: 0x312e332e
  98:	32303220 	eorscc	r3, r0, #32, 4
  9c:	32363031 	eorscc	r3, r6, #49, 0	; 0x31
  a0:	72282031 	eorvc	r2, r8, #49, 0	; 0x31
  a4:	61656c65 	cmnvs	r5, r5, ror #24
  a8:	00296573 	eoreq	r6, r9, r3, ror r5

Disassembly of section .debug_info:

00000000 <.debug_info>:
       0:	000008a9 	andeq	r0, r0, r9, lsr #17
       4:	00000004 	andeq	r0, r0, r4
       8:	01040000 	mrseq	r0, (UNDEF: 4)
       c:	000000bd 	strheq	r0, [r0], -sp
      10:	00004a0c 	andeq	r4, r0, ip, lsl #20
      14:	00017000 	andeq	r7, r1, r0
      18:	008e1000 	addeq	r1, lr, r0
      1c:	0003cc00 	andeq	ip, r3, r0, lsl #24
      20:	00000000 	andeq	r0, r0, r0
      24:	05040200 	streq	r0, [r4, #-512]	; 0xfffffe00
      28:	00746e69 	rsbseq	r6, r4, r9, ror #28
      2c:	ae070403 	cdpge	4, 0, cr0, cr7, cr3, {0}
      30:	03000001 	movweq	r0, #1
      34:	005c0601 	subseq	r0, ip, r1, lsl #12
      38:	02030000 	andeq	r0, r3, #0, 0
      3c:	0001fe05 	andeq	pc, r1, r5, lsl #28
      40:	05040300 	streq	r0, [r4, #-768]	; 0xfffffd00
      44:	000001ed 	andeq	r0, r0, sp, ror #3
      48:	e8050803 	stmda	r5, {r0, r1, fp}
      4c:	03000001 	movweq	r0, #1
      50:	005a0801 	subseq	r0, sl, r1, lsl #16
      54:	02030000 	andeq	r0, r3, #0, 0
      58:	00001c07 	andeq	r1, r0, r7, lsl #24
      5c:	021b0400 	andseq	r0, fp, #0, 8
      60:	34040000 	strcc	r0, [r4], #-0
      64:	00006e19 	andeq	r6, r0, r9, lsl lr
      68:	005d0500 	subseq	r0, sp, r0, lsl #10
      6c:	04030000 	streq	r0, [r3], #-0
      70:	0001a907 	andeq	sl, r1, r7, lsl #18
      74:	07080300 	streq	r0, [r8, -r0, lsl #6]
      78:	000001a4 	andeq	r0, r0, r4, lsr #3
      7c:	01030406 	tsteq	r3, r6, lsl #8
      80:	00006308 	andeq	r6, r0, r8, lsl #6
      84:	007e0500 	rsbseq	r0, lr, r0, lsl #10
      88:	08030000 	stmdaeq	r3, {}	; <UNPREDICTABLE>
      8c:	0000a904 	andeq	sl, r0, r4, lsl #18
      90:	04070700 	streq	r0, [r7], #-1792	; 0xfffff900
      94:	0000002c 	andeq	r0, r0, ip, lsr #32
      98:	a9061f01 	stmdbge	r6, {r0, r8, r9, sl, fp, ip}
      9c:	08000000 	stmdaeq	r0, {}	; <UNPREDICTABLE>
      a0:	000001d1 	ldrdeq	r0, [r0], -r1
      a4:	00100000 	andseq	r0, r0, r0
      a8:	01bb0900 			; <UNDEFINED> instruction: 0x01bb0900
      ac:	26010000 	strcs	r0, [r1], -r0
      b0:	00007c0e 	andeq	r7, r0, lr, lsl #24
      b4:	94030500 	strls	r0, [r3], #-1280	; 0xfffffb00
      b8:	090000a3 	stmdbeq	r0, {r0, r1, r5, r7}
      bc:	00000210 	andeq	r0, r0, r0, lsl r2
      c0:	7c0e2701 	stcvc	7, cr2, [lr], {1}
      c4:	05000000 	streq	r0, [r0, #-0]
      c8:	00a39003 	adceq	r9, r3, r3
      cc:	00410900 	subeq	r0, r1, r0, lsl #18
      d0:	29010000 	stmdbcs	r1, {}	; <UNPREDICTABLE>
      d4:	00007c0e 	andeq	r7, r0, lr, lsl #24
      d8:	8c030500 	cfstr32hi	mvfx0, [r3], {-0}
      dc:	0a0000a3 	beq	370 <__code_start__-0x7c90>
      e0:	0000002f 	andeq	r0, r0, pc, lsr #32
      e4:	c8067d01 	stmdagt	r6, {r0, r8, sl, fp, ip, sp, lr}
      e8:	14000091 	strne	r0, [r0], #-145	; 0xffffff6f
      ec:	01000000 	mrseq	r0, (UNDEF: 0)
      f0:	00000b9c 	muleq	r0, ip, fp
      f4:	6d010000 	stcvs	0, cr0, [r1, #-0]
      f8:	00007c07 	andeq	r7, r0, r7, lsl #24
      fc:	0090b800 	addseq	fp, r0, r0, lsl #16
     100:	00011000 	andeq	r1, r1, r0
     104:	5d9c0100 	ldfpls	f0, [ip]
     108:	0c000003 	stceq	0, cr0, [r0], {3}
     10c:	00000079 	andeq	r0, r0, r9, ror r0
     110:	2c206d01 	stccs	13, cr6, [r0], #-4
     114:	14000000 	strne	r0, [r0], #-0
     118:	00000000 	andeq	r0, r0, r0
     11c:	0c000000 	stceq	0, cr0, [r0], {-0}
     120:	00000080 	andeq	r0, r0, r0, lsl #1
     124:	2c316d01 	ldccs	13, cr6, [r1], #-4
     128:	ad000000 	stcge	0, cr0, [r0, #-0]
     12c:	99000000 	stmdbls	r0, {}	; <UNPREDICTABLE>
     130:	0d000000 	stceq	0, cr0, [r0, #-0]
     134:	000000b0 	strheq	r0, [r0], -r0	; <UNPREDICTABLE>
     138:	0000036d 	andeq	r0, r0, sp, ror #6
     13c:	a2200305 	eorge	r0, r0, #335544320	; 0x14000000
     140:	680e0000 	stmdavs	lr, {}	; <UNPREDICTABLE>
     144:	0e740100 	rpweqs	f0, f4, f0
     148:	0000002c 	andeq	r0, r0, ip, lsr #32
     14c:	00000167 	andeq	r0, r0, r7, ror #2
     150:	00000157 	andeq	r0, r0, r7, asr r1
     154:	0008130f 	andeq	r1, r8, pc, lsl #6
     158:	0090c800 	addseq	ip, r0, r0, lsl #16
     15c:	90c80300 	sbcls	r0, r8, r0, lsl #6
     160:	00040000 	andeq	r0, r4, r0
     164:	6f010000 	svcvs	0x00010000
     168:	00017b05 	andeq	r7, r1, r5, lsl #22
     16c:	08241000 	stmdaeq	r4!, {ip}
     170:	02220000 	eoreq	r0, r2, #0, 0
     174:	02200000 	eoreq	r0, r0, #0, 0
     178:	0f000000 	svceq	0x00000000
     17c:	00000855 	andeq	r0, r0, r5, asr r8
     180:	000090d4 	ldrdeq	r9, [r0], -r4
     184:	0090d402 	addseq	sp, r0, r2, lsl #8
     188:	00000800 	andeq	r0, r0, r0, lsl #16
     18c:	11700100 	cmnne	r0, r0, lsl #2
     190:	000001af 	andeq	r0, r0, pc, lsr #3
     194:	00087010 	andeq	r7, r8, r0, lsl r0
     198:	00023700 	andeq	r3, r2, r0, lsl #14
     19c:	00023500 	andeq	r3, r2, r0, lsl #10
     1a0:	08661000 	stmdaeq	r6!, {ip}^
     1a4:	024d0000 	subeq	r0, sp, #0, 0
     1a8:	024b0000 	subeq	r0, fp, #0, 0
     1ac:	11000000 	mrsne	r0, (UNDEF: 0)
     1b0:	000007de 	ldrdeq	r0, [r0], -lr
     1b4:	000090e4 	andeq	r9, r0, r4, ror #1
     1b8:	00001801 	andeq	r1, r0, r1, lsl #16
     1bc:	09750100 	ldmdbeq	r5!, {r8}^
     1c0:	0000024d 	andeq	r0, r0, sp, asr #4
     1c4:	0007f910 	andeq	pc, r7, r0, lsl r9	; <UNPREDICTABLE>
     1c8:	00026600 	andeq	r6, r2, r0, lsl #12
     1cc:	00026000 	andeq	r6, r2, r0
     1d0:	07ef1000 	strbeq	r1, [pc, r0]!
     1d4:	02ad0000 	adceq	r0, sp, #0, 0
     1d8:	02a50000 	adceq	r0, r5, #0, 0
     1dc:	18120000 	ldmdane	r2, {}	; <UNPREDICTABLE>
     1e0:	0f000000 	svceq	0x00000000
     1e4:	00000813 	andeq	r0, r0, r3, lsl r8
     1e8:	000090e4 	andeq	r9, r0, r4, ror #1
     1ec:	0090e404 	addseq	lr, r0, r4, lsl #8
     1f0:	00000400 	andeq	r0, r0, r0, lsl #8
     1f4:	05110100 	ldreq	r0, [r1, #-256]	; 0xffffff00
     1f8:	0000020a 	andeq	r0, r0, sl, lsl #4
     1fc:	00082410 	andeq	r2, r8, r0, lsl r4
     200:	0002eb00 	andeq	lr, r2, r0, lsl #22
     204:	0002e900 	andeq	lr, r2, r0, lsl #18
     208:	78130000 	ldmdavc	r3, {}	; <UNPREDICTABLE>
     20c:	7b000091 	blvc	458 <__code_start__-0x7ba8>
     210:	42000008 	andmi	r0, r0, #8, 0
     214:	14000002 	strne	r0, [r0], #-2
     218:	03055001 	movweq	r5, #20481	; 0x5001
     21c:	00009d48 	andeq	r9, r0, r8, asr #26
     220:	05510114 	ldrbeq	r0, [r1, #-276]	; 0xfffffeec
     224:	009f9003 	addseq	r9, pc, r3
     228:	52011400 	andpl	r1, r1, #0, 8
     22c:	a2300305 	eorsge	r0, r0, #335544320	; 0x14000000
     230:	01140000 	tsteq	r4, r0
     234:	14410153 	strbne	r0, [r1], #-339	; 0xfffffead
     238:	05007d02 	streq	r7, [r0, #-3330]	; 0xfffff2fe
     23c:	00a19003 	adceq	r9, r1, r3
     240:	7c150000 	ldcvc	0, cr0, [r5], {-0}
     244:	87000091 			; <UNDEFINED> instruction: 0x87000091
     248:	00000008 	andeq	r0, r0, r8
     24c:	082f0f00 	stmdaeq	pc!, {r8, r9, sl, fp}	; <UNPREDICTABLE>
     250:	90fc0000 	rscsls	r0, ip, r0
     254:	fc030000 	stc2	0, cr0, [r3], {-0}
     258:	04000090 	streq	r0, [r0], #-144	; 0xffffff70
     25c:	01000000 	mrseq	r0, (UNDEF: 0)
     260:	02810576 	addeq	r0, r1, #494927872	; 0x1d800000
     264:	4a100000 	bmi	40026c <__bss_end__+0x3f5ec4>
     268:	00000008 	andeq	r0, r0, r8
     26c:	fe000003 	cdp2	0, 0, cr0, cr0, cr3, {0}
     270:	10000002 	andne	r0, r0, r2
     274:	00000840 	andeq	r0, r0, r0, asr #16
     278:	00000315 	andeq	r0, r0, r5, lsl r3
     27c:	00000313 	andeq	r0, r0, r3, lsl r3
     280:	91141300 	tstls	r4, r0, lsl #6
     284:	03720000 	cmneq	r2, #0, 0
     288:	02960000 	addseq	r0, r6, #0, 0
     28c:	01140000 	tsteq	r4, r0
     290:	01f30350 	mvnseq	r0, r0, asr r3
     294:	38130050 	ldmdacc	r3, {r4, r6}
     298:	7b000091 	blvc	4e4 <__code_start__-0x7b1c>
     29c:	cf000008 	svcgt	0x00000008
     2a0:	14000002 	strne	r0, [r0], #-2
     2a4:	03055001 	movweq	r5, #20481	; 0x5001
     2a8:	00009d48 	andeq	r9, r0, r8, asr #26
     2ac:	05510114 	ldrbeq	r0, [r1, #-276]	; 0xfffffeec
     2b0:	009f9003 	addseq	r9, pc, r3
     2b4:	52011400 	andpl	r1, r1, #0, 8
     2b8:	a2200305 	eorge	r0, r0, #335544320	; 0x14000000
     2bc:	01140000 	tsteq	r4, r0
     2c0:	6e080253 	mcrvs	2, 0, r0, cr8, cr3, {2}
     2c4:	007d0214 	rsbseq	r0, sp, r4, lsl r2
     2c8:	9ffc0305 	svcls	0x00fc0305
     2cc:	15000000 	strne	r0, [r0, #-0]
     2d0:	0000913c 	andeq	r9, r0, ip, lsr r1
     2d4:	00000887 	andeq	r0, r0, r7, lsl #17
     2d8:	00915813 	addseq	r5, r1, r3, lsl r8
     2dc:	00087b00 	andeq	r7, r8, r0, lsl #22
     2e0:	00031100 	andeq	r1, r3, r0, lsl #2
     2e4:	50011400 	andpl	r1, r1, r0, lsl #8
     2e8:	a13c0305 	teqge	ip, r5, lsl #6
     2ec:	01140000 	tsteq	r4, r0
     2f0:	90030551 	andls	r0, r3, r1, asr r5
     2f4:	1400009f 	strne	r0, [r0], #-159	; 0xffffff61
     2f8:	03055201 	movweq	r5, #20993	; 0x5201
     2fc:	0000a220 	andeq	sl, r0, r0, lsr #4
     300:	02530114 	subseq	r0, r3, #5
     304:	02146f08 	andseq	r6, r4, #8, 30
     308:	0305007d 	movweq	r0, #20605	; 0x507d
     30c:	0000a17c 	andeq	sl, r0, ip, ror r1
     310:	915c1500 	cmpls	ip, r0, lsl #10
     314:	08870000 	stmeq	r7, {}	; <UNPREDICTABLE>
     318:	98130000 	ldmdals	r3, {}	; <UNPREDICTABLE>
     31c:	7b000091 	blvc	568 <__code_start__-0x7a98>
     320:	53000008 	movwpl	r0, #8
     324:	14000003 	strne	r0, [r0], #-3
     328:	03055001 	movweq	r5, #20481	; 0x5001
     32c:	0000a19c 	muleq	r0, ip, r1
     330:	05510114 	ldrbeq	r0, [r1, #-276]	; 0xfffffeec
     334:	009f9003 	addseq	r9, pc, r3
     338:	52011400 	andpl	r1, r1, #0, 8
     33c:	a2200305 	eorge	r0, r0, #335544320	; 0x14000000
     340:	01140000 	tsteq	r4, r0
     344:	76080253 			; <UNDEFINED> instruction: 0x76080253
     348:	007d0214 	rsbseq	r0, sp, r4, lsl r2
     34c:	a1d40305 	bicsge	r0, r4, r5, lsl #6
     350:	15000000 	strne	r0, [r0, #-0]
     354:	0000919c 	muleq	r0, ip, r1
     358:	00000887 	andeq	r0, r0, r7, lsl #17
     35c:	00851600 	addeq	r1, r5, r0, lsl #12
     360:	036d0000 	cmneq	sp, #0, 0
     364:	2c170000 	ldccs	0, cr0, [r7], {-0}
     368:	0f000000 	svceq	0x00000000
     36c:	035d0500 	cmpeq	sp, #0, 10
     370:	8a0b0000 	bhi	2c0378 <__bss_end__+0x2b5fd0>
     374:	01000000 	mrseq	r0, (UNDEF: 0)
     378:	007c0762 	rsbseq	r0, ip, r2, ror #14
     37c:	90540000 	subsls	r0, r4, r0
     380:	00640000 	rsbeq	r0, r4, r0
     384:	9c010000 	stcls	0, cr0, [r1], {-0}
     388:	00000439 	andeq	r0, r0, r9, lsr r4
     38c:	0000790c 	andeq	r7, r0, ip, lsl #18
     390:	18620100 	stmdane	r2!, {r8}^
     394:	0000002c 	andeq	r0, r0, ip, lsr #32
     398:	00000330 	andeq	r0, r0, r0, lsr r3
     39c:	00000328 	andeq	r0, r0, r8, lsr #6
     3a0:	0000b00d 	andeq	fp, r0, sp
     3a4:	00044900 	andeq	r4, r4, r0, lsl #18
     3a8:	18030500 	stmdane	r3, {r8, sl}
     3ac:	180000a2 	stmdane	r0, {r1, r5, r7}
     3b0:	00000247 	andeq	r0, r0, r7, asr #4
     3b4:	7c0b6501 	cfstr32vc	mvfx6, [fp], {1}
     3b8:	68000000 	stmdavs	r0, {}	; <UNPREDICTABLE>
     3bc:	64000003 	strvs	r0, [r0], #-3
     3c0:	13000003 	movwne	r0, #3
     3c4:	0000906c 	andeq	r9, r0, ip, rrx
     3c8:	0000044e 	andeq	r0, r0, lr, asr #8
     3cc:	000003d7 	ldrdeq	r0, [r0], -r7
     3d0:	02500114 	subseq	r0, r0, #5
     3d4:	13000074 	movwne	r0, #116	; 0x74
     3d8:	0000907c 	andeq	r9, r0, ip, ror r0
     3dc:	00000893 	muleq	r0, r3, r8
     3e0:	000003f6 	strdeq	r0, [r0], -r6
     3e4:	02500114 	subseq	r0, r0, #5
     3e8:	01140075 	tsteq	r4, r5, ror r0
     3ec:	14300151 	ldrtne	r0, [r0], #-337	; 0xfffffeaf
     3f0:	74025201 	strvc	r5, [r2], #-513	; 0xfffffdff
     3f4:	a4130000 	ldrge	r0, [r3], #-0
     3f8:	7b000090 	blvc	640 <__code_start__-0x79c0>
     3fc:	2f000008 	svccs	0x00000008
     400:	14000004 	strne	r0, [r0], #-4
     404:	03055001 	movweq	r5, #20481	; 0x5001
     408:	00009d48 	andeq	r9, r0, r8, asr #26
     40c:	05510114 	ldrbeq	r0, [r1, #-276]	; 0xfffffeec
     410:	009f9003 	addseq	r9, pc, r3
     414:	52011400 	andpl	r1, r1, #0, 8
     418:	a2180305 	andsge	r0, r8, #335544320	; 0x14000000
     41c:	01140000 	tsteq	r4, r0
     420:	64080253 	strvs	r0, [r8], #-595	; 0xfffffdad
     424:	007d0214 	rsbseq	r0, sp, r4, lsl r2
     428:	9ffc0305 	svcls	0x00fc0305
     42c:	15000000 	strne	r0, [r0, #-0]
     430:	000090a8 	andeq	r9, r0, r8, lsr #1
     434:	00000887 	andeq	r0, r0, r7, lsl #17
     438:	00851600 	addeq	r1, r5, r0, lsl #12
     43c:	04490000 	strbeq	r0, [r9], #-0
     440:	2c170000 	ldccs	0, cr0, [r7], {-0}
     444:	07000000 	streq	r0, [r0, -r0]
     448:	04390500 	ldrteq	r0, [r9], #-1280	; 0xfffffb00
     44c:	d80b0000 	stmdale	fp, {}	; <UNPREDICTABLE>
     450:	01000001 	tsteq	r0, r1
     454:	007c0750 	rsbseq	r0, ip, r0, asr r7
     458:	8f680000 	svchi	0x00680000
     45c:	00ec0000 	rsceq	r0, ip, r0
     460:	9c010000 	stcls	0, cr0, [r1], {-0}
     464:	000005d6 	ldrdeq	r0, [r0], -r6
     468:	0000790c 	andeq	r7, r0, ip, lsl #18
     46c:	20500100 	subscs	r0, r0, r0, lsl #2
     470:	0000002c 	andeq	r0, r0, ip, lsr #32
     474:	0000039e 	muleq	r0, lr, r3
     478:	00000386 	andeq	r0, r0, r6, lsl #7
     47c:	0000b00d 	andeq	fp, r0, sp
     480:	00036d00 	andeq	r6, r3, r0, lsl #26
     484:	08030500 	stmdaeq	r3, {r8, sl}
     488:	180000a2 	stmdane	r0, {r1, r5, r7}
     48c:	00000247 	andeq	r0, r0, r7, asr #4
     490:	7c0b5601 	stcvc	6, cr5, [fp], {1}
     494:	52000000 	andpl	r0, r0, #0, 0
     498:	48000004 	stmdami	r0, {r2}
     49c:	11000004 	tstne	r0, r4
     4a0:	000007de 	ldrdeq	r0, [r0], -lr
     4a4:	00008f78 	andeq	r8, r0, r8, ror pc
     4a8:	00000002 	andeq	r0, r0, r2
     4ac:	0e520100 	rdfeqs	f0, f2, f0
     4b0:	000004d4 	ldrdeq	r0, [r0], -r4
     4b4:	0007f910 	andeq	pc, r7, r0, lsl r9	; <UNPREDICTABLE>
     4b8:	00049b00 	andeq	r9, r4, r0, lsl #22
     4bc:	00049900 	andeq	r9, r4, r0, lsl #18
     4c0:	07ef1000 	strbeq	r1, [pc, r0]!
     4c4:	04b30000 	ldrteq	r0, [r3], #0
     4c8:	04af0000 	strteq	r0, [pc], #0	; 4d0 <__code_start__-0x7b30>
     4cc:	00190000 	andseq	r0, r9, r0
     4d0:	00000000 	andeq	r0, r0, r0
     4d4:	008fd413 	addeq	sp, pc, r3, lsl r4	; <UNPREDICTABLE>
     4d8:	00087b00 	andeq	r7, r8, r0, lsl #22
     4dc:	00050d00 	andeq	r0, r5, r0, lsl #26
     4e0:	50011400 	andpl	r1, r1, r0, lsl #8
     4e4:	9d480305 	stclls	3, cr0, [r8, #-20]	; 0xffffffec
     4e8:	01140000 	tsteq	r4, r0
     4ec:	90030551 	andls	r0, r3, r1, asr r5
     4f0:	1400009f 	strne	r0, [r0], #-159	; 0xffffff61
     4f4:	03055201 	movweq	r5, #20993	; 0x5201
     4f8:	0000a208 	andeq	sl, r0, r8, lsl #4
     4fc:	02530114 	subseq	r0, r3, #5
     500:	02145108 	andseq	r5, r4, #2
     504:	0305007d 	movweq	r0, #20605	; 0x507d
     508:	00009ffc 	strdeq	r9, [r0], -ip
     50c:	8fd81500 	svchi	0x00d81500
     510:	08870000 	stmeq	r7, {}	; <UNPREDICTABLE>
     514:	f4130000 			; <UNDEFINED> instruction: 0xf4130000
     518:	7b00008f 	blvc	75c <__code_start__-0x78a4>
     51c:	4f000008 	svcmi	0x00000008
     520:	14000005 	strne	r0, [r0], #-5
     524:	03055001 	movweq	r5, #20481	; 0x5001
     528:	00009d48 	andeq	r9, r0, r8, asr #26
     52c:	05510114 	ldrbeq	r0, [r1, #-276]	; 0xfffffeec
     530:	009f9003 	addseq	r9, pc, r3
     534:	52011400 	andpl	r1, r1, #0, 8
     538:	a2080305 	andge	r0, r8, #335544320	; 0x14000000
     53c:	01140000 	tsteq	r4, r0
     540:	54080253 	strpl	r0, [r8], #-595	; 0xfffffdad
     544:	007d0214 	rsbseq	r0, sp, r4, lsl r2
     548:	a0b00305 	adcsge	r0, r0, r5, lsl #6
     54c:	15000000 	strne	r0, [r0, #-0]
     550:	00008ff8 	strdeq	r8, [r0], -r8	; <UNPREDICTABLE>
     554:	00000887 	andeq	r0, r0, r7, lsl #17
     558:	00900c13 	addseq	r0, r0, r3, lsl ip
     55c:	00087b00 	andeq	r7, r8, r0, lsl #22
     560:	00058700 	andeq	r8, r5, r0, lsl #14
     564:	50011400 	andpl	r1, r1, r0, lsl #8
     568:	a0c80305 	sbcge	r0, r8, r5, lsl #6
     56c:	01140000 	tsteq	r4, r0
     570:	90030551 	andls	r0, r3, r1, asr r5
     574:	1400009f 	strne	r0, [r0], #-159	; 0xffffff61
     578:	03055201 	movweq	r5, #20993	; 0x5201
     57c:	0000a208 	andeq	sl, r0, r8, lsl #4
     580:	02530114 	subseq	r0, r3, #5
     584:	15005808 	strne	r5, [r0, #-2056]	; 0xfffff7f8
     588:	00009010 	andeq	r9, r0, r0, lsl r0
     58c:	00000887 	andeq	r0, r0, r7, lsl #17
     590:	00903013 	addseq	r3, r0, r3, lsl r0
     594:	00087b00 	andeq	r7, r8, r0, lsl #22
     598:	0005cc00 	andeq	ip, r5, r0, lsl #24
     59c:	50011400 	andpl	r1, r1, r0, lsl #8
     5a0:	a0f40305 	rscsge	r0, r4, r5, lsl #6
     5a4:	01140000 	tsteq	r4, r0
     5a8:	90030551 	andls	r0, r3, r1, asr r5
     5ac:	1400009f 	strne	r0, [r0], #-159	; 0xffffff61
     5b0:	03055201 	movweq	r5, #20993	; 0x5201
     5b4:	0000a208 	andeq	sl, r0, r8, lsl #4
     5b8:	02530114 	subseq	r0, r3, #5
     5bc:	02145c08 	andseq	r5, r4, #8, 24	; 0x800
     5c0:	f308007d 	vqadd.u8	q0, q4, <illegal reg q14.5>
     5c4:	07235001 	streq	r5, [r3, -r1]!
     5c8:	001af809 	andseq	pc, sl, r9, lsl #16
     5cc:	00903415 	addseq	r3, r0, r5, lsl r4
     5d0:	00088700 	andeq	r8, r8, r0, lsl #14
     5d4:	2f1a0000 	svccs	0x001a0000
     5d8:	01000002 	tsteq	r0, r2
     5dc:	8e400639 	mcrhi	6, 2, r0, cr0, cr9, {1}
     5e0:	01280000 			; <UNDEFINED> instruction: 0x01280000
     5e4:	9c010000 	stcls	0, cr0, [r1], {-0}
     5e8:	00000787 	andeq	r0, r0, r7, lsl #15
     5ec:	0002460c 	andeq	r4, r2, ip, lsl #12
     5f0:	23390100 	teqcs	r9, #0
     5f4:	0000007c 	andeq	r0, r0, ip, ror r0
     5f8:	000004df 	ldrdeq	r0, [r0], -pc	; <UNPREDICTABLE>
     5fc:	000004d3 	ldrdeq	r0, [r0], -r3
     600:	0000750c 	andeq	r7, r0, ip, lsl #10
     604:	33390100 	teqcc	r9, #0
     608:	0000002c 	andeq	r0, r0, ip, lsr #32
     60c:	00000538 	andeq	r0, r0, r8, lsr r5
     610:	00000530 	andeq	r0, r0, r0, lsr r5
     614:	00424d1b 	subeq	r4, r2, fp, lsl sp
     618:	69143a01 	ldmdbvs	r4, {r0, r9, fp, ip, sp}
     61c:	00000000 	andeq	r0, r0, r0
     620:	0d001000 	stceq	0, cr1, [r0, #-0]
     624:	000000b0 	strheq	r0, [r0], -r0	; <UNPREDICTABLE>
     628:	00000797 	muleq	r0, r7, r7
     62c:	a1f00305 	mvnsge	r0, r5, lsl #6
     630:	47180000 	ldrmi	r0, [r8, -r0]
     634:	01000002 	tsteq	r0, r2
     638:	007c0b3e 	rsbseq	r0, ip, lr, lsr fp
     63c:	05740000 	ldrbeq	r0, [r4, #-0]!
     640:	056c0000 	strbeq	r0, [ip, #-0]!
     644:	5c150000 	ldcpl	0, cr0, [r5], {-0}
     648:	9f00008e 	svcls	0x0000008e
     64c:	13000008 	movwne	r0, #8
     650:	00008ec0 	andeq	r8, r0, r0, asr #29
     654:	0000087b 	andeq	r0, r0, fp, ror r8
     658:	00000685 	andeq	r0, r0, r5, lsl #13
     65c:	05500114 	ldrbeq	r0, [r0, #-276]	; 0xfffffeec
     660:	009fa003 	addseq	sl, pc, r3
     664:	51011400 	tstpl	r1, r0, lsl #8
     668:	9f900305 	svcls	0x00900305
     66c:	01140000 	tsteq	r4, r0
     670:	f0030552 			; <UNDEFINED> instruction: 0xf0030552
     674:	140000a1 	strne	r0, [r0], #-161	; 0xffffff5f
     678:	08025301 	stmdaeq	r2, {r0, r8, r9, ip, lr}
     67c:	7d02143c 	cfstrsvc	mvf1, [r2, #-240]	; 0xffffff10
     680:	00750200 	rsbseq	r0, r5, r0, lsl #4
     684:	8ec41500 	cdphi	5, 12, cr1, cr4, cr0, {0}
     688:	08870000 	stmeq	r7, {}	; <UNPREDICTABLE>
     68c:	d8130000 	ldmdale	r3, {}	; <UNPREDICTABLE>
     690:	7b00008e 	blvc	8d0 <__code_start__-0x7730>
     694:	bd000008 	stclt	0, cr0, [r0, #-32]	; 0xffffffe0
     698:	14000006 	strne	r0, [r0], #-6
     69c:	03055001 	movweq	r5, #20481	; 0x5001
     6a0:	00009fd0 	ldrdeq	r9, [r0], -r0
     6a4:	05510114 	ldrbeq	r0, [r1, #-276]	; 0xfffffeec
     6a8:	009f9003 	addseq	r9, pc, r3
     6ac:	52011400 	andpl	r1, r1, #0, 8
     6b0:	a1f00305 	mvnsge	r0, r5, lsl #6
     6b4:	01140000 	tsteq	r4, r0
     6b8:	40080253 	andmi	r0, r8, r3, asr r2
     6bc:	8edc1500 	cdphi	5, 13, cr1, cr12, cr0, {0}
     6c0:	08870000 	stmeq	r7, {}	; <UNPREDICTABLE>
     6c4:	f8130000 			; <UNDEFINED> instruction: 0xf8130000
     6c8:	7b00008e 	blvc	908 <__code_start__-0x76f8>
     6cc:	ff000008 			; <UNDEFINED> instruction: 0xff000008
     6d0:	14000006 	strne	r0, [r0], #-6
     6d4:	03055001 	movweq	r5, #20481	; 0x5001
     6d8:	00009d48 	andeq	r9, r0, r8, asr #26
     6dc:	05510114 	ldrbeq	r0, [r1, #-276]	; 0xfffffeec
     6e0:	009f9003 	addseq	r9, pc, r3
     6e4:	52011400 	andpl	r1, r1, #0, 8
     6e8:	a1f00305 	mvnsge	r0, r5, lsl #6
     6ec:	01140000 	tsteq	r4, r0
     6f0:	42080253 	andmi	r0, r8, #805306373	; 0x30000005
     6f4:	007d0214 	rsbseq	r0, sp, r4, lsl r2
     6f8:	9ff80305 	svcls	0x00f80305
     6fc:	15000000 	strne	r0, [r0, #-0]
     700:	00008efc 	strdeq	r8, [r0], -ip
     704:	00000887 	andeq	r0, r0, r7, lsl #17
     708:	008f1813 	addeq	r1, pc, r3, lsl r8	; <UNPREDICTABLE>
     70c:	00087b00 	andeq	r7, r8, r0, lsl #22
     710:	00073e00 	andeq	r3, r7, r0, lsl #28
     714:	50011400 	andpl	r1, r1, r0, lsl #8
     718:	a0040305 	andge	r0, r4, r5, lsl #6
     71c:	01140000 	tsteq	r4, r0
     720:	90030551 	andls	r0, r3, r1, asr r5
     724:	1400009f 	strne	r0, [r0], #-159	; 0xffffff61
     728:	03055201 	movweq	r5, #20993	; 0x5201
     72c:	0000a1f0 	strdeq	sl, [r0], -r0
     730:	02530114 	subseq	r0, r3, #5
     734:	02144408 	andseq	r4, r4, #8, 8	; 0x8000000
     738:	7402047d 	strvc	r0, [r2], #-1149	; 0xfffffb83
     73c:	1c150000 	ldcne	0, cr0, [r5], {-0}
     740:	8700008f 	strhi	r0, [r0, -pc, lsl #1]
     744:	13000008 	movwne	r0, #8
     748:	00008f40 	andeq	r8, r0, r0, asr #30
     74c:	0000087b 	andeq	r0, r0, fp, ror r8
     750:	0000077d 	andeq	r0, r0, sp, ror r7
     754:	05500114 	ldrbeq	r0, [r0, #-276]	; 0xfffffeec
     758:	00a06c03 	adceq	r6, r0, r3, lsl #24
     75c:	51011400 	tstpl	r1, r0, lsl #8
     760:	9f900305 	svcls	0x00900305
     764:	01140000 	tsteq	r4, r0
     768:	f0030552 			; <UNDEFINED> instruction: 0xf0030552
     76c:	140000a1 	strne	r0, [r0], #-161	; 0xffffff5f
     770:	08025301 	stmdaeq	r2, {r0, r8, r9, ip, lr}
     774:	7d021448 	cfstrsvc	mvf1, [r2, #-288]	; 0xfffffee0
     778:	00740200 	rsbseq	r0, r4, r0, lsl #4
     77c:	8f441500 	svchi	0x00441500
     780:	08870000 	stmeq	r7, {}	; <UNPREDICTABLE>
     784:	16000000 	strne	r0, [r0], -r0
     788:	00000085 	andeq	r0, r0, r5, lsl #1
     78c:	00000797 	muleq	r0, r7, r7
     790:	00002c17 	andeq	r2, r0, r7, lsl ip
     794:	05001600 	streq	r1, [r0, #-1536]	; 0xfffffa00
     798:	00000787 	andeq	r0, r0, r7, lsl #15
     79c:	0001c01c 	andeq	ip, r1, ip, lsl r0
     7a0:	07360100 	ldreq	r0, [r6, -r0, lsl #2]!
     7a4:	0000007c 	andeq	r0, r0, ip, ror r0
     7a8:	00008e30 	andeq	r8, r0, r0, lsr lr
     7ac:	00000010 	andeq	r0, r0, r0, lsl r0
     7b0:	081c9c01 	ldmdaeq	ip, {r0, sl, fp, ip, pc}
     7b4:	01000002 	tsteq	r0, r2
     7b8:	007c0735 	rsbseq	r0, ip, r5, lsr r7
     7bc:	8e200000 	cdphi	0, 2, cr0, cr0, cr0, {0}
     7c0:	00100000 	andseq	r0, r0, r0
     7c4:	9c010000 	stcls	0, cr0, [r1], {-0}
     7c8:	0000391c 	andeq	r3, r0, ip, lsl r9
     7cc:	07340100 	ldreq	r0, [r4, -r0, lsl #2]!
     7d0:	0000007c 	andeq	r0, r0, ip, ror r0
     7d4:	00008e10 	andeq	r8, r0, r0, lsl lr
     7d8:	00000010 	andeq	r0, r0, r0, lsl r0
     7dc:	a11d9c01 	tstge	sp, r1, lsl #24
     7e0:	01000000 	mrseq	r0, (UNDEF: 0)
     7e4:	002c1810 	eoreq	r1, ip, r0, lsl r8
     7e8:	13030000 	movwne	r0, #12288	; 0x3000
     7ec:	1e000008 	cdpne	0, 0, cr0, cr0, cr8, {0}
     7f0:	10010078 	andne	r0, r1, r8, ror r0
     7f4:	00002c29 	andeq	r2, r0, r9, lsr #24
     7f8:	006e1e00 	rsbeq	r1, lr, r0, lsl #28
     7fc:	2c351001 	ldccs	0, cr1, [r5], #-4
     800:	0d000000 	stceq	0, cr0, [r0, #-0]
     804:	000000b0 	strheq	r0, [r0], -r0	; <UNPREDICTABLE>
     808:	00000449 	andeq	r0, r0, r9, asr #8
     80c:	a2300305 	eorsge	r0, r0, #335544320	; 0x14000000
     810:	1d000000 	stcne	0, cr0, [r0, #-0]
     814:	00000092 	muleq	r0, r2, r0
     818:	2c180d01 	ldccs	13, cr0, [r8], {1}
     81c:	03000000 	movweq	r0, #0
     820:	0000082f 	andeq	r0, r0, pc, lsr #16
     824:	0100781e 	tsteq	r0, lr, lsl r8
     828:	002c290d 	eoreq	r2, ip, sp, lsl #18
     82c:	1d000000 	stcne	0, cr0, [r0, #-0]
     830:	00000224 	andeq	r0, r0, r4, lsr #4
     834:	2c180701 	ldccs	7, cr0, [r8], {1}
     838:	03000000 	movweq	r0, #0
     83c:	00000855 	andeq	r0, r0, r5, asr r8
     840:	0100781e 	tsteq	r0, lr, lsl r8
     844:	002c2c07 	eoreq	r2, ip, r7, lsl #24
     848:	6e1e0000 	cdpvs	0, 1, cr0, cr14, cr0, {0}
     84c:	38070100 	stmdacc	r7, {r8}
     850:	0000002c 	andeq	r0, r0, ip, lsr #32
     854:	01f61d00 	mvnseq	r1, r0, lsl #26
     858:	04010000 	streq	r0, [r1], #-0
     85c:	00005d18 	andeq	r5, r0, r8, lsl sp
     860:	087b0300 	ldmdaeq	fp!, {r8, r9}^
     864:	781e0000 	ldmdavc	lr, {}	; <UNPREDICTABLE>
     868:	29040100 	stmdbcs	r4, {r8}
     86c:	0000005d 	andeq	r0, r0, sp, asr r0
     870:	0100791e 	tsteq	r0, lr, lsl r9
     874:	005d3504 	subseq	r3, sp, r4, lsl #10
     878:	1f000000 	svcne	0x00000000
     87c:	00000784 	andeq	r0, r0, r4, lsl #15
     880:	00000784 	andeq	r0, r0, r4, lsl #15
     884:	1f053102 	svcne	0x00053102
     888:	00000068 	andeq	r0, r0, r8, rrx
     88c:	00000068 	andeq	r0, r0, r8, rrx
     890:	1f067f02 	svcne	0x00067f02
     894:	0000009a 	muleq	r0, sl, r0
     898:	0000009a 	muleq	r0, sl, r0
     89c:	20092103 	andcs	r2, r9, r3, lsl #2
     8a0:	00000010 	andeq	r0, r0, r0, lsl r0
     8a4:	00000010 	andeq	r0, r0, r0, lsl r0
     8a8:	07012102 	streq	r2, [r1, -r2, lsl #2]
     8ac:	000c2d00 	andeq	r2, ip, r0, lsl #26
     8b0:	06000400 	streq	r0, [r0], -r0, lsl #8
     8b4:	04000002 	streq	r0, [r0], #-2
     8b8:	00035a01 	andeq	r5, r3, r1, lsl #20
     8bc:	033a0c00 	teqeq	sl, #0, 24
     8c0:	04c10000 	strbeq	r0, [r1], #0
     8c4:	91dc0000 	bicsls	r0, ip, r0
     8c8:	01240000 			; <UNDEFINED> instruction: 0x01240000
     8cc:	037a0000 	cmneq	sl, #0, 0
     8d0:	04020000 	streq	r0, [r2], #-0
     8d4:	746e6905 	strbtvc	r6, [lr], #-2309	; 0xfffff6fb
     8d8:	02680300 	rsbeq	r0, r8, #0, 6
     8dc:	d1020000 	mrsle	r0, (UNDEF: 2)
     8e0:	00003817 	andeq	r3, r0, r7, lsl r8
     8e4:	07040400 	streq	r0, [r4, -r0, lsl #8]
     8e8:	000001ae 	andeq	r0, r0, lr, lsr #3
     8ec:	5c060104 	stfpls	f0, [r6], {4}
     8f0:	04000000 	streq	r0, [r0], #-0
     8f4:	01fe0502 	mvnseq	r0, r2, lsl #10
     8f8:	04040000 	streq	r0, [r4], #-0
     8fc:	0001ed05 	andeq	lr, r1, r5, lsl #26
     900:	05080400 	streq	r0, [r8, #-1024]	; 0xfffffc00
     904:	000001e8 	andeq	r0, r0, r8, ror #3
     908:	5a080104 	bpl	200d20 <__bss_end__+0x1f6978>
     90c:	05000000 	streq	r0, [r0, #-0]
     910:	0000005b 	andeq	r0, r0, fp, asr r0
     914:	1c070204 	sfmne	f0, 4, [r7], {4}
     918:	03000000 	movweq	r0, #0
     91c:	0000021b 	andeq	r0, r0, fp, lsl r2
     920:	7f193403 	svcvc	0x00193403
     924:	05000000 	streq	r0, [r0, #-0]
     928:	0000006e 	andeq	r0, r0, lr, rrx
     92c:	a9070404 	stmdbge	r7, {r2, sl}
     930:	03000001 	movweq	r0, #1
     934:	00000282 	andeq	r0, r0, r2, lsl #5
     938:	97193703 	ldrls	r3, [r9, -r3, lsl #14]
     93c:	05000000 	streq	r0, [r0, #-0]
     940:	00000086 	andeq	r0, r0, r6, lsl #1
     944:	a4070804 	strge	r0, [r7], #-2052	; 0xfffff7fc
     948:	06000001 	streq	r0, [r0], -r1
     94c:	05280304 	streq	r0, [r8, #-772]!	; 0xfffffcfc
     950:	22040000 	andcs	r0, r4, #0, 0
     954:	0000ac19 	andeq	sl, r0, r9, lsl ip
     958:	b2040700 	andlt	r0, r4, #0, 14
     95c:	08000000 	stmdaeq	r0, {}	; <UNPREDICTABLE>
     960:	0000063d 	andeq	r0, r0, sp, lsr r6
     964:	00056c03 	andeq	r6, r5, r3, lsl #24
     968:	0e2c0500 	cfsh64eq	mvdx0, mvdx12, #0
     96c:	0000004d 	andeq	r0, r0, sp, asr #32
     970:	00064a03 	andeq	r4, r6, r3, lsl #20
     974:	0e720500 	cdpeq	5, 7, cr0, cr2, cr0, {0}
     978:	0000004d 	andeq	r0, r0, sp, asr #32
     97c:	00053009 	andeq	r3, r5, r9
     980:	015e0200 	cmpeq	lr, r0, lsl #4
     984:	00003817 	andeq	r3, r0, r7, lsl r8
     988:	05040a00 	streq	r0, [r4, #-2560]	; 0xfffff600
     98c:	00fe03a6 	rscseq	r0, lr, r6, lsr #7
     990:	1b0b0000 	blne	2c0998 <__bss_end__+0x2b65f0>
     994:	05000005 	streq	r0, [r0, #-5]
     998:	00cf0ca8 	sbceq	r0, pc, r8, lsr #25
     99c:	a40b0000 	strge	r0, [fp], #-0
     9a0:	05000004 	streq	r0, [r0, #-4]
     9a4:	00fe13a9 	rscseq	r1, lr, r9, lsr #7
     9a8:	0c000000 	stceq	0, cr0, [r0], {-0}
     9ac:	0000005b 	andeq	r0, r0, fp, asr r0
     9b0:	0000010e 	andeq	r0, r0, lr, lsl #2
     9b4:	0000380d 	andeq	r3, r0, sp, lsl #16
     9b8:	0e000300 	cdpeq	3, 0, cr0, cr0, cr0, {0}
     9bc:	09a30508 	stmibeq	r3!, {r3, r8, sl}
     9c0:	00000132 	andeq	r0, r0, r2, lsr r1
     9c4:	0006350f 	andeq	r3, r6, pc, lsl #10
     9c8:	07a50500 	streq	r0, [r5, r0, lsl #10]!
     9cc:	00000025 	andeq	r0, r0, r5, lsr #32
     9d0:	067c0f00 	ldrbteq	r0, [ip], -r0, lsl #30
     9d4:	aa050000 	bge	1409dc <__bss_end__+0x136634>
     9d8:	0000dc05 	andeq	sp, r0, r5, lsl #24
     9dc:	03000400 	movweq	r0, #1024	; 0x400
     9e0:	000005b7 			; <UNDEFINED> instruction: 0x000005b7
     9e4:	0e03ab05 	vmlaeq.f64	d10, d3, d5
     9e8:	03000001 	movweq	r0, #1
     9ec:	00000461 	andeq	r0, r0, r1, ror #8
     9f0:	a01baf05 	andsge	sl, fp, r5, lsl #30
     9f4:	07000000 	streq	r0, [r0, -r0]
     9f8:	00015004 	andeq	r5, r1, r4
     9fc:	08010400 	stmdaeq	r1, {sl}
     a00:	00000063 	andeq	r0, r0, r3, rrx
     a04:	00015005 	andeq	r5, r1, r5
     a08:	06920300 	ldreq	r0, [r2], r0, lsl #6
     a0c:	16060000 	strne	r0, [r6], -r0
     a10:	00007f19 	andeq	r7, r0, r9, lsl pc
     a14:	04721000 	ldrbteq	r1, [r2], #-0
     a18:	06180000 	ldreq	r0, [r8], -r0
     a1c:	01c2082f 	biceq	r0, r2, pc, lsr #16
     a20:	d80f0000 	stmdale	pc, {}	; <UNPREDICTABLE>
     a24:	06000005 	streq	r0, [r0], -r5
     a28:	01c21331 	biceq	r1, r2, r1, lsr r3
     a2c:	11000000 	mrsne	r0, (UNDEF: 0)
     a30:	06006b5f 			; <UNDEFINED> instruction: 0x06006b5f
     a34:	00250732 	eoreq	r0, r5, r2, lsr r7
     a38:	0f040000 	svceq	0x00040000
     a3c:	00000620 	andeq	r0, r0, r0, lsr #12
     a40:	250b3206 	strcs	r3, [fp, #-518]	; 0xfffffdfa
     a44:	08000000 	stmdaeq	r0, {}	; <UNPREDICTABLE>
     a48:	00045b0f 	andeq	r5, r4, pc, lsl #22
     a4c:	14320600 	ldrtne	r0, [r2], #-1536	; 0xfffffa00
     a50:	00000025 	andeq	r0, r0, r5, lsr #32
     a54:	06c70f0c 	strbeq	r0, [r7], ip, lsl #30
     a58:	32060000 	andcc	r0, r6, #0, 0
     a5c:	0000251b 	andeq	r2, r0, fp, lsl r5
     a60:	5f111000 	svcpl	0x00111000
     a64:	33060078 	movwcc	r0, #24696	; 0x6078
     a68:	0001c80b 	andeq	ip, r1, fp, lsl #16
     a6c:	07001400 	streq	r1, [r0, -r0, lsl #8]
     a70:	00016804 	andeq	r6, r1, r4, lsl #16
     a74:	015c0c00 	cmpeq	ip, r0, lsl #24
     a78:	01d80000 	bicseq	r0, r8, r0
     a7c:	380d0000 	stmdacc	sp, {}	; <UNPREDICTABLE>
     a80:	00000000 	andeq	r0, r0, r0
     a84:	049f1000 	ldreq	r1, [pc], #0	; a8c <__code_start__-0x7574>
     a88:	06240000 	strteq	r0, [r4], -r0
     a8c:	025b0837 	subseq	r0, fp, #3604480	; 0x370000
     a90:	ce0f0000 	cdpgt	0, 0, cr0, cr15, cr0, {0}
     a94:	06000002 	streq	r0, [r0], -r2
     a98:	00250939 	eoreq	r0, r5, r9, lsr r9
     a9c:	0f000000 	svceq	0x00000000
     aa0:	00000660 	andeq	r0, r0, r0, ror #12
     aa4:	25093a06 	strcs	r3, [r9, #-2566]	; 0xfffff5fa
     aa8:	04000000 	streq	r0, [r0], #-0
     aac:	0002e30f 	andeq	lr, r2, pc, lsl #6
     ab0:	093b0600 	ldmdbeq	fp!, {r9, sl}
     ab4:	00000025 	andeq	r0, r0, r5, lsr #32
     ab8:	07400f08 	strbeq	r0, [r0, -r8, lsl #30]
     abc:	3c060000 	stccc	0, cr0, [r6], {-0}
     ac0:	00002509 	andeq	r2, r0, r9, lsl #10
     ac4:	500f0c00 	andpl	r0, pc, r0, lsl #24
     ac8:	06000005 	streq	r0, [r0], -r5
     acc:	0025093d 	eoreq	r0, r5, sp, lsr r9
     ad0:	0f100000 	svceq	0x00100000
     ad4:	0000053f 	andeq	r0, r0, pc, lsr r5
     ad8:	25093e06 	strcs	r3, [r9, #-3590]	; 0xfffff1fa
     adc:	14000000 	strne	r0, [r0], #-0
     ae0:	0006cc0f 	andeq	ip, r6, pc, lsl #24
     ae4:	093f0600 	ldmdbeq	pc!, {r9, sl}	; <UNPREDICTABLE>
     ae8:	00000025 	andeq	r0, r0, r5, lsr #32
     aec:	05990f18 	ldreq	r0, [r9, #3864]	; 0xf18
     af0:	40060000 	andmi	r0, r6, r0
     af4:	00002509 	andeq	r2, r0, r9, lsl #10
     af8:	070f1c00 	streq	r1, [pc, -r0, lsl #24]
     afc:	06000007 	streq	r0, [r0], -r7
     b00:	00250941 	eoreq	r0, r5, r1, asr #18
     b04:	00200000 	eoreq	r0, r0, r0
     b08:	0002f212 	andeq	pc, r2, r2, lsl r2	; <UNPREDICTABLE>
     b0c:	06010800 	streq	r0, [r1], -r0, lsl #16
     b10:	02a0084a 	adceq	r0, r0, #4849664	; 0x4a0000
     b14:	4e0f0000 	cdpmi	0, 0, cr0, cr15, cr0, {0}
     b18:	06000004 	streq	r0, [r0], -r4
     b1c:	02a00a4b 	adceq	r0, r0, #307200	; 0x4b000
     b20:	0f000000 	svceq	0x00000000
     b24:	0000024c 	andeq	r0, r0, ip, asr #4
     b28:	a0094c06 	andge	r4, r9, r6, lsl #24
     b2c:	80000002 	andhi	r0, r0, r2
     b30:	00068413 	andeq	r8, r6, r3, lsl r4
     b34:	0a4e0600 	beq	138233c <__bss_end__+0x1377f94>
     b38:	0000015c 	andeq	r0, r0, ip, asr r1
     b3c:	17130100 	ldrne	r0, [r3, -r0, lsl #2]
     b40:	06000003 	streq	r0, [r0], -r3
     b44:	015c0a51 	cmpeq	ip, r1, asr sl
     b48:	01040000 	mrseq	r0, (UNDEF: 4)
     b4c:	009e0c00 	addseq	r0, lr, r0, lsl #24
     b50:	02b00000 	adcseq	r0, r0, #0, 0
     b54:	380d0000 	stmdacc	sp, {}	; <UNPREDICTABLE>
     b58:	1f000000 	svcne	0x00000000
     b5c:	05591200 	ldrbeq	r1, [r9, #-512]	; 0xfffffe00
     b60:	01900000 	orrseq	r0, r0, r0
     b64:	f3085d06 	vpadd.f32	d5, d8, d6
     b68:	0f000002 	svceq	0x00000002
     b6c:	000005d8 	ldrdeq	r0, [r0], -r8
     b70:	f3125e06 	vcge.f16	d5, d2, d6
     b74:	00000002 	andeq	r0, r0, r2
     b78:	0005f00f 	andeq	pc, r5, pc
     b7c:	065f0600 	ldrbeq	r0, [pc], -r0, lsl #12
     b80:	00000025 	andeq	r0, r0, r5, lsr #32
     b84:	04560f04 	ldrbeq	r0, [r6], #-3844	; 0xfffff0fc
     b88:	61060000 	mrsvs	r0, (UNDEF: 6)
     b8c:	0002f909 	andeq	pc, r2, r9, lsl #18
     b90:	f20f0800 	vadd.i8	d0, d15, d0
     b94:	06000002 	streq	r0, [r0], -r2
     b98:	025b1e62 	subseq	r1, fp, #1568	; 0x620
     b9c:	00880000 	addeq	r0, r8, r0
     ba0:	02b00407 	adcseq	r0, r0, #117440512	; 0x7000000
     ba4:	090c0000 	stmdbeq	ip, {}	; <UNPREDICTABLE>
     ba8:	09000003 	stmdbeq	r0, {r0, r1}
     bac:	0d000003 	stceq	0, cr0, [r0, #-12]
     bb0:	00000038 	andeq	r0, r0, r8, lsr r0
     bb4:	0407001f 	streq	r0, [r7], #-31	; 0xffffffe1
     bb8:	0000030f 	andeq	r0, r0, pc, lsl #6
     bbc:	05a31014 	streq	r1, [r3, #20]!
     bc0:	06080000 	streq	r0, [r8], -r0
     bc4:	03380875 	teqeq	r8, #7667712	; 0x750000
     bc8:	dd0f0000 	stcle	0, cr0, [pc, #-0]	; bd0 <__code_start__-0x7430>
     bcc:	06000002 	streq	r0, [r0], -r2
     bd0:	03381176 	teqeq	r8, #-2147483619	; 0x8000001d
     bd4:	0f000000 	svceq	0x00000000
     bd8:	00000262 	andeq	r0, r0, r2, ror #4
     bdc:	25067706 	strcs	r7, [r6, #-1798]	; 0xfffff8fa
     be0:	04000000 	streq	r0, [r0], #-0
     be4:	5b040700 	blpl	1027ec <__bss_end__+0xf8444>
     be8:	10000000 	andne	r0, r0, r0
     bec:	000005c2 	andeq	r0, r0, r2, asr #11
     bf0:	08b50668 	ldmeq	r5!, {r3, r5, r6, r9, sl}
     bf4:	00000481 	andeq	r0, r0, r1, lsl #9
     bf8:	00705f11 	rsbseq	r5, r0, r1, lsl pc
     bfc:	3812b606 	ldmdacc	r2, {r1, r2, r9, sl, ip, sp, pc}
     c00:	00000003 	andeq	r0, r0, r3
     c04:	00725f11 	rsbseq	r5, r2, r1, lsl pc
     c08:	2507b706 	strcs	fp, [r7, #-1798]	; 0xfffff8fa
     c0c:	04000000 	streq	r0, [r0], #-0
     c10:	00775f11 	rsbseq	r5, r7, r1, lsl pc
     c14:	2507b806 	strcs	fp, [r7, #-2054]	; 0xfffff7fa
     c18:	08000000 	stmdaeq	r0, {}	; <UNPREDICTABLE>
     c1c:	0003100f 	andeq	r1, r3, pc
     c20:	09b90600 	ldmibeq	r9!, {r9, sl}
     c24:	00000046 	andeq	r0, r0, r6, asr #32
     c28:	04bb0f0c 	ldrteq	r0, [fp], #3852	; 0xf0c
     c2c:	ba060000 	blt	180c34 <__bss_end__+0x17688c>
     c30:	00004609 	andeq	r4, r0, r9, lsl #12
     c34:	5f110e00 	svcpl	0x00110e00
     c38:	06006662 	streq	r6, [r0], -r2, ror #12
     c3c:	031011bb 	tsteq	r0, #-1073741778	; 0xc000002e
     c40:	0f100000 	svceq	0x00100000
     c44:	000002ab 	andeq	r0, r0, fp, lsr #5
     c48:	2507bc06 	strcs	fp, [r7, #-3078]	; 0xfffff3fa
     c4c:	18000000 	stmdane	r0, {}	; <UNPREDICTABLE>
     c50:	0003000f 	andeq	r0, r3, pc
     c54:	0ac30600 	beq	ff0c245c <__bss_end__+0xff0b80b4>
     c58:	0000009e 	muleq	r0, lr, r0
     c5c:	0b110f1c 	bleq	4448d4 <__bss_end__+0x43a52c>
     c60:	c5060000 	strgt	r0, [r6, #-0]
     c64:	0005f31d 	andeq	pc, r5, sp, lsl r3	; <UNPREDICTABLE>
     c68:	2b0f2000 	blcs	3c8c70 <__bss_end__+0x3be8c8>
     c6c:	0600000b 	streq	r0, [r0], -fp
     c70:	061d1dc7 	ldreq	r1, [sp], -r7, asr #27
     c74:	0f240000 	svceq	0x00240000
     c78:	00000644 	andeq	r0, r0, r4, asr #12
     c7c:	410dca06 	tstmi	sp, r6, lsl #20
     c80:	28000006 	stmdacs	r0, {r1, r2}
     c84:	0007210f 	andeq	r2, r7, pc, lsl #2
     c88:	09cb0600 	stmibeq	fp, {r9, sl}^
     c8c:	0000065b 	andeq	r0, r0, fp, asr r6
     c90:	755f112c 	ldrbvc	r1, [pc, #-300]	; b6c <__code_start__-0x7494>
     c94:	ce060062 	cdpgt	0, 0, cr0, cr6, cr2, {3}
     c98:	00031011 	andeq	r1, r3, r1, lsl r0
     c9c:	5f113000 	svcpl	0x00113000
     ca0:	06007075 			; <UNDEFINED> instruction: 0x06007075
     ca4:	033812cf 	teqeq	r8, #-268435444	; 0xf000000c
     ca8:	11380000 	teqne	r8, r0
     cac:	0072755f 	rsbseq	r7, r2, pc, asr r5
     cb0:	2507d006 	strcs	sp, [r7, #-6]
     cb4:	3c000000 	stccc	0, cr0, [r0], {-0}
     cb8:	0002d70f 	andeq	sp, r2, pc, lsl #14
     cbc:	11d30600 	bicsne	r0, r3, r0, lsl #12
     cc0:	00000661 	andeq	r0, r0, r1, ror #12
     cc4:	06f90f40 	ldrbteq	r0, [r9], r0, asr #30
     cc8:	d4060000 	strle	r0, [r6], #-0
     ccc:	00067111 	andeq	r7, r6, r1, lsl r1
     cd0:	5f114300 	svcpl	0x00114300
     cd4:	0600626c 	streq	r6, [r0], -ip, ror #4
     cd8:	031011d7 	tsteq	r0, #-1073741771	; 0xc0000035
     cdc:	0f440000 	svceq	0x00440000
     ce0:	00000326 	andeq	r0, r0, r6, lsr #6
     ce4:	2507da06 	strcs	sp, [r7, #-2566]	; 0xfffff5fa
     ce8:	4c000000 	stcmi	0, cr0, [r0], {-0}
     cec:	0003520f 	andeq	r5, r3, pc, lsl #4
     cf0:	0adb0600 	beq	ff6c24f8 <__bss_end__+0xff6b8150>
     cf4:	000000b7 	strheq	r0, [r0], -r7
     cf8:	0a6d0f50 	beq	1b44a40 <__bss_end__+0x1b3a698>
     cfc:	de060000 	cdple	0, 0, cr0, cr6, cr0, {0}
     d00:	00049f12 	andeq	r9, r4, r2, lsl pc
     d04:	3e0f5400 	cfcpyscc	mvf5, mvf15
     d08:	06000006 	streq	r0, [r0], -r6
     d0c:	013e0ce2 	teqeq	lr, r2, ror #25
     d10:	0f580000 	svceq	0x00580000
     d14:	000005ca 	andeq	r0, r0, sl, asr #11
     d18:	320ee406 	andcc	lr, lr, #100663296	; 0x6000000
     d1c:	5c000001 	stcpl	0, cr0, [r0], {1}
     d20:	0005370f 	andeq	r3, r5, pc, lsl #14
     d24:	09e50600 	stmibeq	r5!, {r9, sl}^
     d28:	00000025 	andeq	r0, r0, r5, lsr #32
     d2c:	25150064 	ldrcs	r0, [r5, #-100]	; 0xffffff9c
     d30:	9f000000 	svcls	0x00000000
     d34:	16000004 	strne	r0, [r0], -r4
     d38:	0000049f 	muleq	r0, pc, r4	; <UNPREDICTABLE>
     d3c:	00009e16 	andeq	r9, r0, r6, lsl lr
     d40:	014a1600 	cmpeq	sl, r0, lsl #12
     d44:	25160000 	ldrcs	r0, [r6, #-0]
     d48:	00000000 	andeq	r0, r0, r0
     d4c:	04aa0407 	strteq	r0, [sl], #1031	; 0x407
     d50:	9f050000 	svcls	0x00050000
     d54:	17000004 	strne	r0, [r0, -r4]
     d58:	00000628 	andeq	r0, r0, r8, lsr #12
     d5c:	60060428 	andvs	r0, r6, r8, lsr #8
     d60:	05f30802 	ldrbeq	r0, [r3, #2050]!	; 0x802
     d64:	92180000 	andsls	r0, r8, #0, 0
     d68:	06000005 	streq	r0, [r0], -r5
     d6c:	25070262 	strcs	r0, [r7, #-610]	; 0xfffffd9e
     d70:	00000000 	andeq	r0, r0, r0
     d74:	00031f18 	andeq	r1, r3, r8, lsl pc
     d78:	02670600 	rsbeq	r0, r7, #0, 12
     d7c:	0006cd0b 	andeq	ip, r6, fp, lsl #26
     d80:	ab180400 	blge	601d88 <__bss_end__+0x5f79e0>
     d84:	06000004 	streq	r0, [r0], -r4
     d88:	cd140267 	lfmgt	f0, 4, [r4, #-412]	; 0xfffffe64
     d8c:	08000006 	stmdaeq	r0, {r1, r2}
     d90:	00046a18 	andeq	r6, r4, r8, lsl sl
     d94:	02670600 	rsbeq	r0, r7, #0, 12
     d98:	0006cd1e 	andeq	ip, r6, lr, lsl sp
     d9c:	eb180c00 	bl	603da4 <__bss_end__+0x5f99fc>
     da0:	06000005 	streq	r0, [r0], -r5
     da4:	25080269 	strcs	r0, [r8, #-617]	; 0xfffffd97
     da8:	10000000 	andne	r0, r0, r0
     dac:	00027718 	andeq	r7, r2, r8, lsl r7
     db0:	026a0600 	rsbeq	r0, sl, #0, 12
     db4:	0008cd08 	andeq	ip, r8, r8, lsl #26
     db8:	07181400 	ldreq	r1, [r8, -r0, lsl #8]
     dbc:	06000006 	streq	r0, [r0], -r6
     dc0:	2507026d 	strcs	r0, [r7, #-621]	; 0xfffffd93
     dc4:	30000000 	andcc	r0, r0, r0
     dc8:	0005f518 	andeq	pc, r5, r8, lsl r5	; <UNPREDICTABLE>
     dcc:	026e0600 	rsbeq	r0, lr, #0, 12
     dd0:	0008e216 	andeq	lr, r8, r6, lsl r2
     dd4:	61183400 	tstvs	r8, r0, lsl #8
     dd8:	06000005 	streq	r0, [r0], -r5
     ddc:	25070270 	strcs	r0, [r7, #-624]	; 0xfffffd90
     de0:	38000000 	stmdacc	r0, {}	; <UNPREDICTABLE>
     de4:	0005fd18 	andeq	pc, r5, r8, lsl sp	; <UNPREDICTABLE>
     de8:	02720600 	rsbseq	r0, r2, #0, 12
     dec:	0008f30a 	andeq	pc, r8, sl, lsl #6
     df0:	13183c00 	tstne	r8, #0, 24
     df4:	06000005 	streq	r0, [r0], -r5
     df8:	c2130275 	andsgt	r0, r3, #1342177287	; 0x50000007
     dfc:	40000001 	andmi	r0, r0, r1
     e00:	00048918 	andeq	r8, r4, r8, lsl r9
     e04:	02760600 	rsbseq	r0, r6, #0, 12
     e08:	00002507 	andeq	r2, r0, r7, lsl #10
     e0c:	3b184400 	blcc	611e14 <__bss_end__+0x607a6c>
     e10:	06000007 	streq	r0, [r0], -r7
     e14:	c2130277 	andsgt	r0, r3, #1879048199	; 0x70000007
     e18:	48000001 	stmdami	r0, {r0}
     e1c:	00057318 	andeq	r7, r5, r8, lsl r3
     e20:	02780600 	rsbseq	r0, r8, #0, 12
     e24:	0008f914 	andeq	pc, r8, r4, lsl r9	; <UNPREDICTABLE>
     e28:	b3184c00 	tstlt	r8, #0, 24
     e2c:	06000004 	streq	r0, [r0], -r4
     e30:	2507027b 	strcs	r0, [r7, #-635]	; 0xfffffd85
     e34:	50000000 	andpl	r0, r0, r0
     e38:	00034a18 	andeq	r4, r3, r8, lsl sl
     e3c:	027c0600 	rsbseq	r0, ip, #0, 12
     e40:	00014a09 	andeq	r4, r1, r9, lsl #20
     e44:	8b185400 	blhi	615e4c <__bss_end__+0x60baa4>
     e48:	06000005 	streq	r0, [r0], -r5
     e4c:	a807029f 	stmdage	r7, {r0, r1, r2, r3, r4, r7, r9}
     e50:	58000008 	stmdapl	r0, {r3}
     e54:	00055919 	andeq	r5, r5, r9, lsl r9
     e58:	02a30600 	adceq	r0, r3, #0, 12
     e5c:	0002f313 	andeq	pc, r2, r3, lsl r3	; <UNPREDICTABLE>
     e60:	19014800 	stmdbne	r1, {fp, lr}
     e64:	000004f1 	strdeq	r0, [r0], -r1
     e68:	1202a406 	andne	sl, r2, #100663296	; 0x6000000
     e6c:	000002b0 			; <UNDEFINED> instruction: 0x000002b0
     e70:	ef19014c 	svc	0x0019014c
     e74:	06000006 	streq	r0, [r0], -r6
     e78:	0a0c02a8 	beq	301920 <__bss_end__+0x2f7578>
     e7c:	dc000009 	stcle	0, cr0, [r0], {9}
     e80:	03081902 	movweq	r1, #35074	; 0x8902
     e84:	ad060000 	stcge	0, cr0, [r6, #-0]
     e88:	068e1002 	streq	r1, [lr], r2
     e8c:	02e00000 	rsceq	r0, r0, #0, 0
     e90:	0002ed19 	andeq	lr, r2, r9, lsl sp
     e94:	02af0600 	adceq	r0, pc, #0, 12
     e98:	0009160a 	andeq	r1, r9, sl, lsl #12
     e9c:	0002ec00 	andeq	lr, r2, r0, lsl #24
     ea0:	04810407 	streq	r0, [r1], #1031	; 0x407
     ea4:	25150000 	ldrcs	r0, [r5, #-0]
     ea8:	17000000 	strne	r0, [r0, -r0]
     eac:	16000006 	strne	r0, [r0], -r6
     eb0:	0000049f 	muleq	r0, pc, r4	; <UNPREDICTABLE>
     eb4:	00009e16 	andeq	r9, r0, r6, lsl lr
     eb8:	06171600 	ldreq	r1, [r7], -r0, lsl #12
     ebc:	25160000 	ldrcs	r0, [r6, #-0]
     ec0:	00000000 	andeq	r0, r0, r0
     ec4:	01570407 	cmpeq	r7, r7, lsl #8
     ec8:	04070000 	streq	r0, [r7], #-0
     ecc:	000005f9 	strdeq	r0, [r0], -r9
     ed0:	0000c315 	andeq	ip, r0, r5, lsl r3
     ed4:	00064100 	andeq	r4, r6, r0, lsl #2
     ed8:	049f1600 	ldreq	r1, [pc], #1536	; ee0 <__code_start__-0x7120>
     edc:	9e160000 	cdpls	0, 1, cr0, cr6, cr0, {0}
     ee0:	16000000 	strne	r0, [r0], -r0
     ee4:	000000c3 	andeq	r0, r0, r3, asr #1
     ee8:	00002516 	andeq	r2, r0, r6, lsl r5
     eec:	04070000 	streq	r0, [r7], #-0
     ef0:	00000623 	andeq	r0, r0, r3, lsr #12
     ef4:	00002515 	andeq	r2, r0, r5, lsl r5
     ef8:	00065b00 	andeq	r5, r6, r0, lsl #22
     efc:	049f1600 	ldreq	r1, [pc], #1536	; f04 <__code_start__-0x70fc>
     f00:	9e160000 	cdpls	0, 1, cr0, cr6, cr0, {0}
     f04:	00000000 	andeq	r0, r0, r0
     f08:	06470407 	strbeq	r0, [r7], -r7, lsl #8
     f0c:	5b0c0000 	blpl	300f14 <__bss_end__+0x2f6b6c>
     f10:	71000000 	mrsvc	r0, (UNDEF: 0)
     f14:	0d000006 	stceq	0, cr0, [r0, #-24]	; 0xffffffe8
     f18:	00000038 	andeq	r0, r0, r8, lsr r0
     f1c:	5b0c0002 	blpl	300f2c <__bss_end__+0x2f6b84>
     f20:	81000000 	mrshi	r0, (UNDEF: 0)
     f24:	0d000006 	stceq	0, cr0, [r0, #-24]	; 0xffffffe8
     f28:	00000038 	andeq	r0, r0, r8, lsr r0
     f2c:	b0090000 	andlt	r0, r9, r0
     f30:	06000005 	streq	r0, [r0], -r5
     f34:	3e1a011f 	mrccc	1, 0, r0, cr10, cr15, {0}
     f38:	1a000003 	bne	f4c <__code_start__-0x70b4>
     f3c:	000006d6 	ldrdeq	r0, [r0], -r6
     f40:	0123060c 			; <UNDEFINED> instruction: 0x0123060c
     f44:	0006c708 	andeq	ip, r6, r8, lsl #14
     f48:	05d81800 	ldrbeq	r1, [r8, #2048]	; 0x800
     f4c:	25060000 	strcs	r0, [r6, #-0]
     f50:	06c71101 	strbeq	r1, [r7], r1, lsl #2
     f54:	18000000 	stmdane	r0, {}	; <UNPREDICTABLE>
     f58:	000004ea 	andeq	r0, r0, sl, ror #9
     f5c:	07012606 	streq	r2, [r1, -r6, lsl #12]
     f60:	00000025 	andeq	r0, r0, r5, lsr #32
     f64:	05aa1804 	streq	r1, [sl, #2052]!	; 0x804
     f68:	27060000 	strcs	r0, [r6, -r0]
     f6c:	06cd0b01 	strbeq	r0, [sp], r1, lsl #22
     f70:	00080000 	andeq	r0, r8, r0
     f74:	068e0407 	streq	r0, [lr], r7, lsl #8
     f78:	04070000 	streq	r0, [r7], #-0
     f7c:	00000681 	andeq	r0, r0, r1, lsl #13
     f80:	00026f1a 	andeq	r6, r2, sl, lsl pc
     f84:	3f060e00 	svccc	0x00060e00
     f88:	070c0801 	streq	r0, [ip, -r1, lsl #16]
     f8c:	2f180000 	svccs	0x00180000
     f90:	06000006 	streq	r0, [r0], -r6
     f94:	0c120140 	ldfeqs	f0, [r2], {64}	; 0x40
     f98:	00000007 	andeq	r0, r0, r7
     f9c:	00066918 	andeq	r6, r6, r8, lsl r9
     fa0:	01410600 	cmpeq	r1, r0, lsl #12
     fa4:	00070c12 	andeq	r0, r7, r2, lsl ip
     fa8:	8d180600 	ldchi	6, cr0, [r8, #-0]
     fac:	06000006 	streq	r0, [r0], -r6
     fb0:	67120142 	ldrvs	r0, [r2, -r2, asr #2]
     fb4:	0c000000 	stceq	0, cr0, [r0], {-0}
     fb8:	00670c00 	rsbeq	r0, r7, r0, lsl #24
     fbc:	071c0000 	ldreq	r0, [ip, -r0]
     fc0:	380d0000 	stmdacc	sp, {}	; <UNPREDICTABLE>
     fc4:	02000000 	andeq	r0, r0, #0, 0
     fc8:	06d01b00 	ldrbeq	r1, [r0], r0, lsl #22
     fcc:	31070280 	smlabbcc	r7, r0, r2, r0
     fd0:	18000008 	stmdane	r0, {r3}
     fd4:	000006ba 			; <UNDEFINED> instruction: 0x000006ba
     fd8:	18028206 	stmdane	r2, {r1, r2, r9, pc}
     fdc:	00000038 	andeq	r0, r0, r8, lsr r0
     fe0:	066f1800 	strbteq	r1, [pc], -r0, lsl #16
     fe4:	83060000 	movwhi	r0, #24576	; 0x6000
     fe8:	014a1202 	cmpeq	sl, r2, lsl #4
     fec:	18040000 	stmdane	r4, {}	; <UNPREDICTABLE>
     ff0:	00000506 	andeq	r0, r0, r6, lsl #10
     ff4:	10028406 	andne	r8, r2, r6, lsl #8
     ff8:	00000831 	andeq	r0, r0, r1, lsr r8
     ffc:	07121808 	ldreq	r1, [r2, -r8, lsl #16]
    1000:	85060000 	strhi	r0, [r6, #-0]
    1004:	01d81702 	bicseq	r1, r8, r2, lsl #14
    1008:	18240000 	stmdane	r4!, {}	; <UNPREDICTABLE>
    100c:	0000047a 	andeq	r0, r0, sl, ror r4
    1010:	0f028606 	svceq	0x00028606
    1014:	00000025 	andeq	r0, r0, r5, lsr #32
    1018:	05d31848 	ldrbeq	r1, [r3, #2120]	; 0x848
    101c:	87060000 	strhi	r0, [r6, -r0]
    1020:	00972c02 	addseq	r2, r7, r2, lsl #24
    1024:	18500000 	ldmdane	r0, {}^	; <UNPREDICTABLE>
    1028:	00000728 	andeq	r0, r0, r8, lsr #14
    102c:	1a028806 	bne	a304c <__bss_end__+0x98ca4>
    1030:	000006d3 	ldrdeq	r0, [r0], -r3
    1034:	05de1858 	ldrbeq	r1, [lr, #2136]	; 0x858
    1038:	89060000 	stmdbhi	r6, {}	; <UNPREDICTABLE>
    103c:	01321602 	teqeq	r2, r2, lsl #12
    1040:	18680000 	stmdane	r8!, {}^	; <UNPREDICTABLE>
    1044:	0000072d 	andeq	r0, r0, sp, lsr #14
    1048:	16028a06 	strne	r8, [r2], -r6, lsl #20
    104c:	00000132 	andeq	r0, r0, r2, lsr r1
    1050:	057d1870 	ldrbeq	r1, [sp, #-2160]!	; 0xfffff790
    1054:	8b060000 	blhi	18105c <__bss_end__+0x176cb4>
    1058:	01321602 	teqeq	r2, r2, lsl #12
    105c:	18780000 	ldmdane	r8!, {}^	; <UNPREDICTABLE>
    1060:	000006e5 	andeq	r0, r0, r5, ror #13
    1064:	10028c06 	andne	r8, r2, r6, lsl #24
    1068:	00000841 	andeq	r0, r0, r1, asr #16
    106c:	04fa1880 	ldrbteq	r1, [sl], #2176	; 0x880
    1070:	8d060000 	stchi	0, cr0, [r6, #-0]
    1074:	08511002 	ldmdaeq	r1, {r1, ip}^
    1078:	18880000 	stmne	r8, {}	; <UNPREDICTABLE>
    107c:	0000069a 	muleq	r0, sl, r6
    1080:	0f028e06 	svceq	0x00028e06
    1084:	00000025 	andeq	r0, r0, r5, lsr #32
    1088:	044018a0 	strbeq	r1, [r0], #-2208	; 0xfffff760
    108c:	8f060000 	svchi	0x00060000
    1090:	01321602 	teqeq	r2, r2, lsl #12
    1094:	18a40000 	stmiane	r4!, {}	; <UNPREDICTABLE>
    1098:	000002bf 			; <UNDEFINED> instruction: 0x000002bf
    109c:	16029006 	strne	r9, [r2], -r6
    10a0:	00000132 	andeq	r0, r0, r2, lsr r1
    10a4:	042f18ac 	strteq	r1, [pc], #-2220	; 10ac <__code_start__-0x6f54>
    10a8:	91060000 	mrsls	r0, (UNDEF: 6)
    10ac:	01321602 	teqeq	r2, r2, lsl #12
    10b0:	18b40000 	ldmne	r4!, {}	; <UNPREDICTABLE>
    10b4:	0000028b 	andeq	r0, r0, fp, lsl #5
    10b8:	16029206 	strne	r9, [r2], -r6, lsl #4
    10bc:	00000132 	andeq	r0, r0, r2, lsr r1
    10c0:	029a18bc 	addseq	r1, sl, #188, 16	; 0xbc0000
    10c4:	93060000 	movwls	r0, #24576	; 0x6000
    10c8:	01321602 	teqeq	r2, r2, lsl #12
    10cc:	18c40000 	stmiane	r4, {}^	; <UNPREDICTABLE>
    10d0:	00000590 	muleq	r0, r0, r5
    10d4:	08029406 	stmdaeq	r2, {r1, r2, sl, ip, pc}
    10d8:	00000025 	andeq	r0, r0, r5, lsr #32
    10dc:	500c00cc 	andpl	r0, ip, ip, asr #1
    10e0:	41000001 	tstmi	r0, r1
    10e4:	0d000008 	stceq	0, cr0, [r0, #-32]	; 0xffffffe0
    10e8:	00000038 	andeq	r0, r0, r8, lsr r0
    10ec:	500c0019 	andpl	r0, ip, r9, lsl r0
    10f0:	51000001 	tstpl	r0, r1
    10f4:	0d000008 	stceq	0, cr0, [r0, #-32]	; 0xffffffe0
    10f8:	00000038 	andeq	r0, r0, r8, lsr r0
    10fc:	500c0007 	andpl	r0, ip, r7
    1100:	61000001 	tstvs	r0, r1
    1104:	0d000008 	stceq	0, cr0, [r0, #-32]	; 0xffffffe0
    1108:	00000038 	andeq	r0, r0, r8, lsr r0
    110c:	f01b0017 			; <UNDEFINED> instruction: 0xf01b0017
    1110:	07029906 	streq	r9, [r2, -r6, lsl #18]
    1114:	00000888 	andeq	r0, r0, r8, lsl #17
    1118:	00054918 	andeq	r4, r5, r8, lsl r9
    111c:	029c0600 	addseq	r0, ip, #0, 12
    1120:	0008881b 	andeq	r8, r8, fp, lsl r8
    1124:	dc180000 	ldcle	0, cr0, [r8], {-0}
    1128:	06000006 	streq	r0, [r0], -r6
    112c:	9818029d 	ldmdals	r8, {r0, r2, r3, r4, r7, r9}
    1130:	78000008 	stmdavc	r0, {r3}
    1134:	03380c00 	teqeq	r8, #0, 24
    1138:	08980000 	ldmeq	r8, {}	; <UNPREDICTABLE>
    113c:	380d0000 	stmdacc	sp, {}	; <UNPREDICTABLE>
    1140:	1d000000 	stcne	0, cr0, [r0, #-0]
    1144:	00380c00 	eorseq	r0, r8, r0, lsl #24
    1148:	08a80000 	stmiaeq	r8!, {}	; <UNPREDICTABLE>
    114c:	380d0000 	stmdacc	sp, {}	; <UNPREDICTABLE>
    1150:	1d000000 	stcne	0, cr0, [r0, #-0]
    1154:	06f01c00 	ldrbteq	r1, [r0], r0, lsl #24
    1158:	cd03027e 	sfmgt	f0, 4, [r3, #-504]	; 0xfffffe08
    115c:	1d000008 	stcne	0, cr0, [r0, #-32]	; 0xffffffe0
    1160:	00000628 	andeq	r0, r0, r8, lsr #12
    1164:	0b029506 	bleq	a6584 <__bss_end__+0x9c1dc>
    1168:	0000071c 	andeq	r0, r0, ip, lsl r7
    116c:	0006ff1d 	andeq	pc, r6, sp, lsl pc	; <UNPREDICTABLE>
    1170:	029e0600 	addseq	r0, lr, #0, 12
    1174:	0008610b 	andeq	r6, r8, fp, lsl #2
    1178:	500c0000 	andpl	r0, ip, r0
    117c:	dd000001 	stcle	0, cr0, [r0, #-4]
    1180:	0d000008 	stceq	0, cr0, [r0, #-32]	; 0xffffffe0
    1184:	00000038 	andeq	r0, r0, r8, lsr r0
    1188:	b4080018 	strlt	r0, [r8], #-24	; 0xffffffe8
    118c:	07000002 	streq	r0, [r0, -r2]
    1190:	0008dd04 	andeq	sp, r8, r4, lsl #26
    1194:	08f31e00 	ldmeq	r3!, {r9, sl, fp, ip}^
    1198:	9f160000 	svcls	0x00160000
    119c:	00000004 	andeq	r0, r0, r4
    11a0:	08e80407 	stmiaeq	r8!, {r0, r1, r2, sl}^
    11a4:	04070000 	streq	r0, [r7], #-0
    11a8:	000001c2 	andeq	r0, r0, r2, asr #3
    11ac:	00090a1e 	andeq	r0, r9, lr, lsl sl
    11b0:	00251600 	eoreq	r1, r5, r0, lsl #12
    11b4:	07000000 	streq	r0, [r0, -r0]
    11b8:	00091004 	andeq	r1, r9, r4
    11bc:	ff040700 			; <UNDEFINED> instruction: 0xff040700
    11c0:	0c000008 	stceq	0, cr0, [r0], {8}
    11c4:	00000681 	andeq	r0, r0, r1, lsl #13
    11c8:	00000926 	andeq	r0, r0, r6, lsr #18
    11cc:	0000380d 	andeq	r3, r0, sp, lsl #16
    11d0:	1f000200 	svcne	0x00000200
    11d4:	000006ae 	andeq	r0, r0, lr, lsr #13
    11d8:	17032e06 	strne	r2, [r3, -r6, lsl #28]
    11dc:	0000049f 	muleq	r0, pc, r4	; <UNPREDICTABLE>
    11e0:	0006a71f 	andeq	sl, r6, pc, lsl r7
    11e4:	032f0600 			; <UNDEFINED> instruction: 0x032f0600
    11e8:	0004a51d 	andeq	sl, r4, sp, lsl r5
    11ec:	06520300 	ldrbeq	r0, [r2], -r0, lsl #6
    11f0:	21070000 	mrscs	r0, (UNDEF: 7)
    11f4:	00094c0f 	andeq	r4, r9, pc, lsl #24
    11f8:	52040700 	andpl	r0, r4, #0, 14
    11fc:	15000009 	strne	r0, [r0, #-9]
    1200:	00000025 	andeq	r0, r0, r5, lsr #32
    1204:	00000961 	andeq	r0, r0, r1, ror #18
    1208:	00002516 	andeq	r2, r0, r6, lsl r5
    120c:	93200000 	nopls	{0}	; <UNPREDICTABLE>
    1210:	07000004 	streq	r0, [r0, -r4]
    1214:	09401623 	stmdbeq	r0, {r0, r1, r5, r9, sl, ip}^
    1218:	2f210000 	svccs	0x00210000
    121c:	01000003 	tsteq	r0, r3
    1220:	92fc063a 	rscsls	r0, ip, #60817408	; 0x3a00000
    1224:	00040000 	andeq	r0, r4, r0
    1228:	9c010000 	stcls	0, cr0, [r1], {-0}
    122c:	00052122 	andeq	r2, r5, r2, lsr #2
    1230:	091f0800 	ldmdbeq	pc, {fp}	; <UNPREDICTABLE>
    1234:	0000009e 	muleq	r0, lr, r0
    1238:	00009254 	andeq	r9, r0, r4, asr r2
    123c:	000000a8 	andeq	r0, r0, r8, lsr #1
    1240:	0abc9c01 	beq	fef2824c <__bss_end__+0xfef1dea4>
    1244:	64230000 	strtvs	r0, [r3], #-0
    1248:	01007473 	tsteq	r0, r3, ror r4
    124c:	009e1418 	addseq	r1, lr, r8, lsl r4
    1250:	50010000 	andpl	r0, r1, r0
    1254:	63727323 	cmnvs	r2, #-1946157056	; 0x8c000000
    1258:	25180100 	ldrcs	r0, [r8, #-256]	; 0xffffff00
    125c:	00000abc 			; <UNDEFINED> instruction: 0x00000abc
    1260:	79245101 	stmdbvc	r4!, {r0, r8, ip, lr}
    1264:	01000000 	mrseq	r0, (UNDEF: 0)
    1268:	002c3118 	eoreq	r3, ip, r8, lsl r1
    126c:	05b60000 	ldreq	r0, [r6, #0]!
    1270:	05ac0000 	streq	r0, [ip, #0]!
    1274:	48250000 	stmdami	r5!, {}	; <UNPREDICTABLE>
    1278:	21000000 	mrscs	r0, (UNDEF: 0)
    127c:	2600000a 	strcs	r0, [r0], -sl
    1280:	1b010064 	blne	41418 <__bss_end__+0x37070>
    1284:	000ac313 	andeq	ip, sl, r3, lsl r3
    1288:	0005fd00 	andeq	pc, r5, r0, lsl #26
    128c:	0005fb00 	andeq	pc, r5, r0, lsl #22
    1290:	00732600 	rsbseq	r2, r3, r0, lsl #12
    1294:	c9191c01 	ldmdbgt	r9, {r0, sl, fp, ip}
    1298:	1200000a 	andne	r0, r0, #10, 0
    129c:	10000006 	andne	r0, r0, r6
    12a0:	26000006 	strcs	r0, [r0], -r6
    12a4:	1d01006e 	stcne	0, cr0, [r1, #-440]	; 0xfffffe48
    12a8:	00003812 	andeq	r3, r0, r2, lsl r8
    12ac:	00062700 	andeq	r2, r6, r0, lsl #14
    12b0:	00062500 	andeq	r2, r6, r0, lsl #10
    12b4:	00602700 	rsbeq	r2, r0, r0, lsl #14
    12b8:	69260000 	stmdbvs	r6!, {}	; <UNPREDICTABLE>
    12bc:	161f0100 	ldrne	r0, [pc], -r0, lsl #2
    12c0:	00000038 	andeq	r0, r0, r8, lsr r0
    12c4:	0000063c 	andeq	r0, r0, ip, lsr r6
    12c8:	0000063a 	andeq	r0, r0, sl, lsr r6
    12cc:	b4280000 	strtlt	r0, [r8], #-0
    12d0:	20000092 	mulcs	r0, r2, r0
    12d4:	81000000 	mrshi	r0, (UNDEF: 0)
    12d8:	2600000a 	strcs	r0, [r0], -sl
    12dc:	2801006e 	stmdacs	r1, {r1, r2, r3, r5, r6}
    12e0:	00006e12 	andeq	r6, r0, r2, lsl lr
    12e4:	00065100 	andeq	r5, r6, r0, lsl #2
    12e8:	00064f00 	andeq	r4, r6, r0, lsl #30
    12ec:	00642600 	rsbeq	r2, r4, r0, lsl #12
    12f0:	cf132901 	svcgt	0x00132901
    12f4:	6600000a 	strvs	r0, [r0], -sl
    12f8:	64000006 	strvs	r0, [r0], #-6
    12fc:	26000006 	strcs	r0, [r0], -r6
    1300:	2a010073 	bcs	414d4 <__bss_end__+0x3712c>
    1304:	000ad519 	andeq	sp, sl, r9, lsl r5
    1308:	00067b00 	andeq	r7, r6, r0, lsl #22
    130c:	00067900 	andeq	r7, r6, r0, lsl #18
    1310:	92b82900 	adcsls	r2, r8, #0, 18
    1314:	001c0000 	andseq	r0, ip, r0
    1318:	69260000 	stmdbvs	r6!, {}	; <UNPREDICTABLE>
    131c:	162c0100 	strtne	r0, [ip], -r0, lsl #2
    1320:	0000006e 	andeq	r0, r0, lr, rrx
    1324:	00000692 	muleq	r0, r2, r6
    1328:	0000068e 	andeq	r0, r0, lr, lsl #13
    132c:	d4290000 	strtle	r0, [r9], #-0
    1330:	18000092 	stmdane	r0, {r1, r4, r7}
    1334:	2a000000 	bcs	133c <__code_start__-0x6cc4>
    1338:	31010064 	tstcc	r1, r4, rrx
    133c:	00033818 	andeq	r3, r3, r8, lsl r8
    1340:	00732a00 	rsbseq	r2, r3, r0, lsl #20
    1344:	db1e3201 	blle	78db50 <__bss_end__+0x7837a8>
    1348:	2900000a 	stmdbcs	r0, {r1, r3}
    134c:	000092d4 	ldrdeq	r9, [r0], -r4
    1350:	00000018 	andeq	r0, r0, r8, lsl r0
    1354:	01006926 	tsteq	r0, r6, lsr #18
    1358:	00381633 	eorseq	r1, r8, r3, lsr r6
    135c:	06b30000 	ldrteq	r0, [r3], r0
    1360:	06b10000 	ldrteq	r0, [r1], r0
    1364:	00000000 	andeq	r0, r0, r0
    1368:	c2040700 	andgt	r0, r4, #0, 14
    136c:	2b00000a 	blcs	139c <__code_start__-0x6c64>
    1370:	00860407 	addeq	r0, r6, r7, lsl #8
    1374:	04070000 	streq	r0, [r7], #-0
    1378:	00000092 	muleq	r0, r2, r0
    137c:	006e0407 	rsbeq	r0, lr, r7, lsl #8
    1380:	04070000 	streq	r0, [r7], #-0
    1384:	0000007a 	andeq	r0, r0, sl, ror r0
    1388:	00620407 	rsbeq	r0, r2, r7, lsl #8
    138c:	582c0000 	stmdapl	ip!, {}	; <UNPREDICTABLE>
    1390:	01000002 	tsteq	r0, r2
    1394:	91dc0608 	bicsls	r0, ip, r8, lsl #12
    1398:	00780000 	rsbseq	r0, r8, r0
    139c:	9c010000 	stcls	0, cr0, [r1], {-0}
    13a0:	00000be7 	andeq	r0, r0, r7, ror #23
    13a4:	7473642d 	ldrbtvc	r6, [r3], #-1069	; 0xfffffbd3
    13a8:	16080100 	strne	r0, [r8], -r0, lsl #2
    13ac:	0000009e 	muleq	r0, lr, r0
    13b0:	000006ce 	andeq	r0, r0, lr, asr #13
    13b4:	000006c6 	andeq	r0, r0, r6, asr #13
    13b8:	6372732d 	cmnvs	r2, #-1275068416	; 0xb4000000
    13bc:	27080100 	strcs	r0, [r8, -r0, lsl #2]
    13c0:	00000abc 			; <UNDEFINED> instruction: 0x00000abc
    13c4:	00000710 	andeq	r0, r0, r0, lsl r7
    13c8:	00000708 	andeq	r0, r0, r8, lsl #14
    13cc:	00007924 	andeq	r7, r0, r4, lsr #18
    13d0:	33080100 	movwcc	r0, #33024	; 0x8100
    13d4:	0000002c 	andeq	r0, r0, ip, lsr #32
    13d8:	00000758 	andeq	r0, r0, r8, asr r7
    13dc:	0000074a 	andeq	r0, r0, sl, asr #14
    13e0:	7970632e 	ldmdbvc	r0!, {r1, r2, r3, r5, r8, r9, sp, lr}^
    13e4:	09012000 	stmdbeq	r1, {sp}
    13e8:	000b4c0c 	andeq	r4, fp, ip, lsl #24
    13ec:	00761100 	rsbseq	r1, r6, r0, lsl #2
    13f0:	e7120a01 	ldr	r0, [r2, -r1, lsl #20]
    13f4:	0000000b 	andeq	r0, r0, fp
    13f8:	0b330500 	bleq	cc2800 <__bss_end__+0xcb8458>
    13fc:	64260000 	strtvs	r0, [r6], #-0
    1400:	080b0100 	stmdaeq	fp, {r8}
    1404:	00000bf7 	strdeq	r0, [r0], -r7
    1408:	000007be 			; <UNDEFINED> instruction: 0x000007be
    140c:	000007b6 			; <UNDEFINED> instruction: 0x000007b6
    1410:	01007326 	tsteq	r0, r6, lsr #6
    1414:	0bfd170c 	bleq	fff4704c <__bss_end__+0xfff3cca4>
    1418:	08000000 	stmdaeq	r0, {}	; <UNPREDICTABLE>
    141c:	07f80000 	ldrbeq	r0, [r8, r0]!
    1420:	b02f0000 	eorlt	r0, pc, r0
    1424:	13000000 	movwne	r0, #0
    1428:	0500000c 	streq	r0, [r0, #-12]
    142c:	00a28403 	adceq	r8, r2, r3, lsl #8
    1430:	00302500 	eorseq	r2, r0, r0, lsl #10
    1434:	0ba00000 	bleq	fe80143c <__bss_end__+0xfe7f7094>
    1438:	69260000 	stmdbvs	r6!, {}	; <UNPREDICTABLE>
    143c:	12130100 	andsne	r0, r3, #0
    1440:	00000038 	andeq	r0, r0, r8, lsr r0
    1444:	0000083e 	andeq	r0, r0, lr, lsr r8
    1448:	0000083a 	andeq	r0, r0, sl, lsr r8
    144c:	92183000 	andsls	r3, r8, #0, 0
    1450:	0c180000 	ldceq	0, cr0, [r8], {-0}
    1454:	0bdd0000 	bleq	ff74145c <__bss_end__+0xff7370b4>
    1458:	01310000 	teqeq	r1, r0
    145c:	48030550 	stmdami	r3, {r4, r6, r8, sl}
    1460:	310000a2 	smlatbcc	r0, r2, r0, r0
    1464:	03055101 	movweq	r5, #20737	; 0x5101
    1468:	0000a238 	andeq	sl, r0, r8, lsr r2
    146c:	05520131 	ldrbeq	r0, [r2, #-305]	; 0xfffffecf
    1470:	00a28403 	adceq	r8, r2, r3, lsl #8
    1474:	53013100 	movwpl	r3, #4352	; 0x1100
    1478:	02313f01 	eorseq	r3, r1, #1, 30
    147c:	f303007d 	vqadd.u8	q0, <illegal reg q1.5>, <illegal reg q14.5>
    1480:	02315201 	eorseq	r5, r1, #268435456	; 0x10000000
    1484:	0802047d 	stmdaeq	r2, {r0, r2, r3, r4, r5, r6, sl}
    1488:	1c320020 	ldcne	0, cr0, [r2], #-128	; 0xffffff80
    148c:	24000092 	strcs	r0, [r0], #-146	; 0xffffff6e
    1490:	0000000c 	andeq	r0, r0, ip
    1494:	00006e0c 	andeq	r6, r0, ip, lsl #28
    1498:	000bf700 	andeq	pc, fp, r0, lsl #14
    149c:	00380d00 	eorseq	r0, r8, r0, lsl #26
    14a0:	00070000 	andeq	r0, r7, r0
    14a4:	0b330407 	bleq	cc24c8 <__bss_end__+0xcb8120>
    14a8:	04070000 	streq	r0, [r7], #-0
    14ac:	00000b4c 	andeq	r0, r0, ip, asr #22
    14b0:	0001570c 	andeq	r5, r1, ip, lsl #14
    14b4:	000c1300 	andeq	r1, ip, r0, lsl #6
    14b8:	00380d00 	eorseq	r0, r8, r0, lsl #26
    14bc:	00090000 	andeq	r0, r9, r0
    14c0:	000c0305 	andeq	r0, ip, r5, lsl #6
    14c4:	07843300 	streq	r3, [r4, r0, lsl #6]
    14c8:	07840000 	streq	r0, [r4, r0]
    14cc:	31070000 	mrscc	r0, (UNDEF: 7)
    14d0:	00683305 	rsbeq	r3, r8, r5, lsl #6
    14d4:	00680000 	rsbeq	r0, r8, r0
    14d8:	76070000 	strvc	r0, [r7], -r0
    14dc:	0a100006 	beq	4014fc <__bss_end__+0x3f7154>
    14e0:	00040000 	andeq	r0, r4, r0
    14e4:	000004e9 	andeq	r0, r0, r9, ror #9
    14e8:	035a0104 	cmpeq	sl, #1
    14ec:	4a0c0000 	bmi	3014f4 <__bss_end__+0x2f714c>
    14f0:	c1000007 	tstgt	r0, r7
    14f4:	00000004 	andeq	r0, r0, r4
    14f8:	a0000093 	mulge	r0, r3, r0
    14fc:	9b000000 	blls	1504 <__code_start__-0x6afc>
    1500:	02000006 	andeq	r0, r0, #6, 0
    1504:	6e690504 	cdpvs	5, 6, cr0, cr9, cr4, {0}
    1508:	68030074 	stmdavs	r3, {r2, r4, r5, r6}
    150c:	02000002 	andeq	r0, r0, #2, 0
    1510:	003817d1 	ldrsbteq	r1, [r8], -r1
    1514:	04040000 	streq	r0, [r4], #-0
    1518:	0001ae07 	andeq	sl, r1, r7, lsl #28
    151c:	06010400 	streq	r0, [r1], -r0, lsl #8
    1520:	0000005c 	andeq	r0, r0, ip, asr r0
    1524:	fe050204 	cdp2	2, 0, cr0, cr5, cr4, {0}
    1528:	04000001 	streq	r0, [r0], #-1
    152c:	01ed0504 	mvneq	r0, r4, lsl #10
    1530:	08040000 	stmdaeq	r4, {}	; <UNPREDICTABLE>
    1534:	0001e805 	andeq	lr, r1, r5, lsl #16
    1538:	08010400 	stmdaeq	r1, {sl}
    153c:	0000005a 	andeq	r0, r0, sl, asr r0
    1540:	1c070204 	sfmne	f0, 4, [r7], {4}
    1544:	03000000 	movweq	r0, #0
    1548:	0000021b 	andeq	r0, r0, fp, lsl r2
    154c:	75193403 	ldrvc	r3, [r9, #-1027]	; 0xfffffbfd
    1550:	04000000 	streq	r0, [r0], #-0
    1554:	01a90704 			; <UNDEFINED> instruction: 0x01a90704
    1558:	82030000 	andhi	r0, r3, #0, 0
    155c:	03000002 	movweq	r0, #2
    1560:	00881937 	addeq	r1, r8, r7, lsr r9
    1564:	08040000 	stmdaeq	r4, {}	; <UNPREDICTABLE>
    1568:	0001a407 	andeq	sl, r1, r7, lsl #8
    156c:	03040500 	movweq	r0, #17664	; 0x4500
    1570:	00000528 	andeq	r0, r0, r8, lsr #10
    1574:	9d192204 	lfmls	f2, 4, [r9, #-16]
    1578:	06000000 	streq	r0, [r0], -r0
    157c:	0000a304 	andeq	sl, r0, r4, lsl #6
    1580:	063d0700 	ldrteq	r0, [sp], -r0, lsl #14
    1584:	6c030000 	stcvs	0, cr0, [r3], {-0}
    1588:	05000005 	streq	r0, [r0, #-5]
    158c:	004d0e2c 	subeq	r0, sp, ip, lsr #28
    1590:	4a030000 	bmi	c1598 <__bss_end__+0xb71f0>
    1594:	05000006 	streq	r0, [r0, #-6]
    1598:	004d0e72 	subeq	r0, sp, r2, ror lr
    159c:	30080000 	andcc	r0, r8, r0
    15a0:	02000005 	andeq	r0, r0, #5, 0
    15a4:	3817015e 	ldmdacc	r7, {r1, r2, r3, r4, r6, r8}
    15a8:	09000000 	stmdbeq	r0, {}	; <UNPREDICTABLE>
    15ac:	03a60504 			; <UNDEFINED> instruction: 0x03a60504
    15b0:	000000ef 	andeq	r0, r0, pc, ror #1
    15b4:	00051b0a 	andeq	r1, r5, sl, lsl #22
    15b8:	0ca80500 	cfstr32eq	mvfx0, [r8]
    15bc:	000000c0 	andeq	r0, r0, r0, asr #1
    15c0:	0004a40a 	andeq	sl, r4, sl, lsl #8
    15c4:	13a90500 			; <UNDEFINED> instruction: 0x13a90500
    15c8:	000000ef 	andeq	r0, r0, pc, ror #1
    15cc:	005b0b00 	subseq	r0, fp, r0, lsl #22
    15d0:	00ff0000 	rscseq	r0, pc, r0
    15d4:	380c0000 	stmdacc	ip, {}	; <UNPREDICTABLE>
    15d8:	03000000 	movweq	r0, #0
    15dc:	05080d00 	streq	r0, [r8, #-3328]	; 0xfffff300
    15e0:	012309a3 	smulwbeq	r3, r3, r9
    15e4:	350e0000 	strcc	r0, [lr, #-0]
    15e8:	05000006 	streq	r0, [r0, #-6]
    15ec:	002507a5 	eoreq	r0, r5, r5, lsr #15
    15f0:	0e000000 	cdpeq	0, 0, cr0, cr0, cr0, {0}
    15f4:	0000067c 	andeq	r0, r0, ip, ror r6
    15f8:	cd05aa05 	vstrgt	s20, [r5, #-20]	; 0xffffffec
    15fc:	04000000 	streq	r0, [r0], #-0
    1600:	05b70300 	ldreq	r0, [r7, #768]!	; 0x300
    1604:	ab050000 	blge	14160c <__bss_end__+0x137264>
    1608:	0000ff03 	andeq	pc, r0, r3, lsl #30
    160c:	04610300 	strbteq	r0, [r1], #-768	; 0xfffffd00
    1610:	af050000 	svcge	0x00050000
    1614:	0000911b 	andeq	r9, r0, fp, lsl r1
    1618:	41040600 	tstmi	r4, r0, lsl #12
    161c:	04000001 	streq	r0, [r0], #-1
    1620:	00630801 	rsbeq	r0, r3, r1, lsl #16
    1624:	410f0000 	mrsmi	r0, CPSR
    1628:	03000001 	movweq	r0, #1
    162c:	00000692 	muleq	r0, r2, r6
    1630:	75191606 	ldrvc	r1, [r9, #-1542]	; 0xfffff9fa
    1634:	10000000 	andne	r0, r0, r0
    1638:	00000472 	andeq	r0, r0, r2, ror r4
    163c:	082f0618 	stmdaeq	pc!, {r3, r4, r9, sl}	; <UNPREDICTABLE>
    1640:	000001b3 			; <UNDEFINED> instruction: 0x000001b3
    1644:	0005d80e 	andeq	sp, r5, lr, lsl #16
    1648:	13310600 	teqne	r1, #0, 12
    164c:	000001b3 			; <UNDEFINED> instruction: 0x000001b3
    1650:	6b5f1100 	blvs	17c5a58 <__bss_end__+0x17bb6b0>
    1654:	07320600 	ldreq	r0, [r2, -r0, lsl #12]!
    1658:	00000025 	andeq	r0, r0, r5, lsr #32
    165c:	06200e04 	strteq	r0, [r0], -r4, lsl #28
    1660:	32060000 	andcc	r0, r6, #0, 0
    1664:	0000250b 	andeq	r2, r0, fp, lsl #10
    1668:	5b0e0800 	blpl	383670 <__bss_end__+0x3792c8>
    166c:	06000004 	streq	r0, [r0], -r4
    1670:	00251432 	eoreq	r1, r5, r2, lsr r4
    1674:	0e0c0000 	cdpeq	0, 0, cr0, cr12, cr0, {0}
    1678:	000006c7 	andeq	r0, r0, r7, asr #13
    167c:	251b3206 	ldrcs	r3, [fp, #-518]	; 0xfffffdfa
    1680:	10000000 	andne	r0, r0, r0
    1684:	00785f11 	rsbseq	r5, r8, r1, lsl pc
    1688:	b90b3306 	stmdblt	fp, {r1, r2, r8, r9, ip, sp}
    168c:	14000001 	strne	r0, [r0], #-1
    1690:	59040600 	stmdbpl	r4, {r9, sl}
    1694:	0b000001 	bleq	16a0 <__code_start__-0x6960>
    1698:	0000014d 	andeq	r0, r0, sp, asr #2
    169c:	000001c9 	andeq	r0, r0, r9, asr #3
    16a0:	0000380c 	andeq	r3, r0, ip, lsl #16
    16a4:	10000000 	andne	r0, r0, r0
    16a8:	0000049f 	muleq	r0, pc, r4	; <UNPREDICTABLE>
    16ac:	08370624 	ldmdaeq	r7!, {r2, r5, r9, sl}
    16b0:	0000024c 	andeq	r0, r0, ip, asr #4
    16b4:	0002ce0e 	andeq	ip, r2, lr, lsl #28
    16b8:	09390600 	ldmdbeq	r9!, {r9, sl}
    16bc:	00000025 	andeq	r0, r0, r5, lsr #32
    16c0:	06600e00 	strbteq	r0, [r0], -r0, lsl #28
    16c4:	3a060000 	bcc	1816cc <__bss_end__+0x177324>
    16c8:	00002509 	andeq	r2, r0, r9, lsl #10
    16cc:	e30e0400 	movw	r0, #58368	; 0xe400
    16d0:	06000002 	streq	r0, [r0], -r2
    16d4:	0025093b 	eoreq	r0, r5, fp, lsr r9
    16d8:	0e080000 	cdpeq	0, 0, cr0, cr8, cr0, {0}
    16dc:	00000740 	andeq	r0, r0, r0, asr #14
    16e0:	25093c06 	strcs	r3, [r9, #-3078]	; 0xfffff3fa
    16e4:	0c000000 	stceq	0, cr0, [r0], {-0}
    16e8:	0005500e 	andeq	r5, r5, lr
    16ec:	093d0600 	ldmdbeq	sp!, {r9, sl}
    16f0:	00000025 	andeq	r0, r0, r5, lsr #32
    16f4:	053f0e10 	ldreq	r0, [pc, #-3600]!	; 8ec <__code_start__-0x7714>
    16f8:	3e060000 	cdpcc	0, 0, cr0, cr6, cr0, {0}
    16fc:	00002509 	andeq	r2, r0, r9, lsl #10
    1700:	cc0e1400 	cfstrsgt	mvf1, [lr], {-0}
    1704:	06000006 	streq	r0, [r0], -r6
    1708:	0025093f 	eoreq	r0, r5, pc, lsr r9
    170c:	0e180000 	cdpeq	0, 1, cr0, cr8, cr0, {0}
    1710:	00000599 	muleq	r0, r9, r5
    1714:	25094006 	strcs	r4, [r9, #-6]
    1718:	1c000000 	stcne	0, cr0, [r0], {-0}
    171c:	0007070e 	andeq	r0, r7, lr, lsl #14
    1720:	09410600 	stmdbeq	r1, {r9, sl}^
    1724:	00000025 	andeq	r0, r0, r5, lsr #32
    1728:	f2120020 	vhadd.s16	d0, d2, d16
    172c:	08000002 	stmdaeq	r0, {r1}
    1730:	084a0601 	stmdaeq	sl, {r0, r9, sl}^
    1734:	00000291 	muleq	r0, r1, r2
    1738:	00044e0e 	andeq	r4, r4, lr, lsl #28
    173c:	0a4b0600 	beq	12c2f44 <__bss_end__+0x12b8b9c>
    1740:	00000291 	muleq	r0, r1, r2
    1744:	024c0e00 	subeq	r0, ip, #0, 28
    1748:	4c060000 	stcmi	0, cr0, [r6], {-0}
    174c:	00029109 	andeq	r9, r2, r9, lsl #2
    1750:	84138000 	ldrhi	r8, [r3], #-0
    1754:	06000006 	streq	r0, [r0], -r6
    1758:	014d0a4e 	cmpeq	sp, lr, asr #20
    175c:	01000000 	mrseq	r0, (UNDEF: 0)
    1760:	00031713 	andeq	r1, r3, r3, lsl r7
    1764:	0a510600 	beq	1442f6c <__bss_end__+0x1438bc4>
    1768:	0000014d 	andeq	r0, r0, sp, asr #2
    176c:	0b000104 	bleq	1b84 <__code_start__-0x647c>
    1770:	0000008f 	andeq	r0, r0, pc, lsl #1
    1774:	000002a1 	andeq	r0, r0, r1, lsr #5
    1778:	0000380c 	andeq	r3, r0, ip, lsl #16
    177c:	12001f00 	andne	r1, r0, #0, 30
    1780:	00000559 	andeq	r0, r0, r9, asr r5
    1784:	5d060190 	stfpls	f0, [r6, #-576]	; 0xfffffdc0
    1788:	0002e408 	andeq	lr, r2, r8, lsl #8
    178c:	05d80e00 	ldrbeq	r0, [r8, #3584]	; 0xe00
    1790:	5e060000 	cdppl	0, 0, cr0, cr6, cr0, {0}
    1794:	0002e412 	andeq	lr, r2, r2, lsl r4
    1798:	f00e0000 			; <UNDEFINED> instruction: 0xf00e0000
    179c:	06000005 	streq	r0, [r0], -r5
    17a0:	0025065f 	eoreq	r0, r5, pc, asr r6
    17a4:	0e040000 	cdpeq	0, 0, cr0, cr4, cr0, {0}
    17a8:	00000456 	andeq	r0, r0, r6, asr r4
    17ac:	ea096106 	b	259bcc <__bss_end__+0x24f824>
    17b0:	08000002 	stmdaeq	r0, {r1}
    17b4:	0002f20e 	andeq	pc, r2, lr, lsl #4
    17b8:	1e620600 	cdpne	6, 6, cr0, cr2, cr0, {0}
    17bc:	0000024c 	andeq	r0, r0, ip, asr #4
    17c0:	04060088 	streq	r0, [r6], #-136	; 0xffffff78
    17c4:	000002a1 	andeq	r0, r0, r1, lsr #5
    17c8:	0002fa0b 	andeq	pc, r2, fp, lsl #20
    17cc:	0002fa00 	andeq	pc, r2, r0, lsl #20
    17d0:	00380c00 	eorseq	r0, r8, r0, lsl #24
    17d4:	001f0000 	andseq	r0, pc, r0
    17d8:	03000406 	movweq	r0, #1030	; 0x406
    17dc:	10140000 	andsne	r0, r4, r0
    17e0:	000005a3 	andeq	r0, r0, r3, lsr #11
    17e4:	08750608 	ldmdaeq	r5!, {r3, r9, sl}^
    17e8:	00000329 	andeq	r0, r0, r9, lsr #6
    17ec:	0002dd0e 	andeq	sp, r2, lr, lsl #26
    17f0:	11760600 	cmnne	r6, r0, lsl #12
    17f4:	00000329 	andeq	r0, r0, r9, lsr #6
    17f8:	02620e00 	rsbeq	r0, r2, #0, 28
    17fc:	77060000 	strvc	r0, [r6, -r0]
    1800:	00002506 	andeq	r2, r0, r6, lsl #10
    1804:	06000400 	streq	r0, [r0], -r0, lsl #8
    1808:	00005b04 	andeq	r5, r0, r4, lsl #22
    180c:	05c21000 	strbeq	r1, [r2]
    1810:	06680000 	strbteq	r0, [r8], -r0
    1814:	047208b5 	ldrbteq	r0, [r2], #-2229	; 0xfffff74b
    1818:	5f110000 	svcpl	0x00110000
    181c:	b6060070 			; <UNDEFINED> instruction: 0xb6060070
    1820:	00032912 	andeq	r2, r3, r2, lsl r9
    1824:	5f110000 	svcpl	0x00110000
    1828:	b7060072 	smlsdxlt	r6, r2, r0, r0
    182c:	00002507 	andeq	r2, r0, r7, lsl #10
    1830:	5f110400 	svcpl	0x00110400
    1834:	b8060077 	stmdalt	r6, {r0, r1, r2, r4, r5, r6}
    1838:	00002507 	andeq	r2, r0, r7, lsl #10
    183c:	100e0800 	andne	r0, lr, r0, lsl #16
    1840:	06000003 	streq	r0, [r0], -r3
    1844:	004609b9 	strheq	r0, [r6], #-153	; 0xffffff67
    1848:	0e0c0000 	cdpeq	0, 0, cr0, cr12, cr0, {0}
    184c:	000004bb 			; <UNDEFINED> instruction: 0x000004bb
    1850:	4609ba06 	strmi	fp, [r9], -r6, lsl #20
    1854:	0e000000 	cdpeq	0, 0, cr0, cr0, cr0, {0}
    1858:	66625f11 	uqadd16vs	r5, r2, r1
    185c:	11bb0600 			; <UNDEFINED> instruction: 0x11bb0600
    1860:	00000301 	andeq	r0, r0, r1, lsl #6
    1864:	02ab0e10 	adceq	r0, fp, #16, 28	; 0x100
    1868:	bc060000 	stclt	0, cr0, [r6], {-0}
    186c:	00002507 	andeq	r2, r0, r7, lsl #10
    1870:	000e1800 	andeq	r1, lr, r0, lsl #16
    1874:	06000003 	streq	r0, [r0], -r3
    1878:	008f0ac3 	addeq	r0, pc, r3, asr #21
    187c:	0e1c0000 	cdpeq	0, 1, cr0, cr12, cr0, {0}
    1880:	00000b11 	andeq	r0, r0, r1, lsl fp
    1884:	e41dc506 	ldr	ip, [sp], #-1286	; 0xfffffafa
    1888:	20000005 	andcs	r0, r0, r5
    188c:	000b2b0e 	andeq	r2, fp, lr, lsl #22
    1890:	1dc70600 	stclne	6, cr0, [r7]
    1894:	0000060e 	andeq	r0, r0, lr, lsl #12
    1898:	06440e24 	strbeq	r0, [r4], -r4, lsr #28
    189c:	ca060000 	bgt	1818a4 <__bss_end__+0x1774fc>
    18a0:	0006320d 	andeq	r3, r6, sp, lsl #4
    18a4:	210e2800 	tstcs	lr, r0, lsl #16
    18a8:	06000007 	streq	r0, [r0], -r7
    18ac:	064c09cb 	strbeq	r0, [ip], -fp, asr #19
    18b0:	112c0000 			; <UNDEFINED> instruction: 0x112c0000
    18b4:	0062755f 	rsbeq	r7, r2, pc, asr r5
    18b8:	0111ce06 	tsteq	r1, r6, lsl #28
    18bc:	30000003 	andcc	r0, r0, r3
    18c0:	70755f11 	rsbsvc	r5, r5, r1, lsl pc
    18c4:	12cf0600 	sbcne	r0, pc, #0, 12
    18c8:	00000329 	andeq	r0, r0, r9, lsr #6
    18cc:	755f1138 	ldrbvc	r1, [pc, #-312]	; 179c <__code_start__-0x6864>
    18d0:	d0060072 	andle	r0, r6, r2, ror r0
    18d4:	00002507 	andeq	r2, r0, r7, lsl #10
    18d8:	d70e3c00 	strle	r3, [lr, -r0, lsl #24]
    18dc:	06000002 	streq	r0, [r0], -r2
    18e0:	065211d3 			; <UNDEFINED> instruction: 0x065211d3
    18e4:	0e400000 	cdpeq	0, 4, cr0, cr0, cr0, {0}
    18e8:	000006f9 	strdeq	r0, [r0], -r9
    18ec:	6211d406 	andsvs	sp, r1, #100663296	; 0x6000000
    18f0:	43000006 	movwmi	r0, #6
    18f4:	626c5f11 	rsbvs	r5, ip, #68	; 0x44
    18f8:	11d70600 	bicsne	r0, r7, r0, lsl #12
    18fc:	00000301 	andeq	r0, r0, r1, lsl #6
    1900:	03260e44 			; <UNDEFINED> instruction: 0x03260e44
    1904:	da060000 	ble	18190c <__bss_end__+0x177564>
    1908:	00002507 	andeq	r2, r0, r7, lsl #10
    190c:	520e4c00 	andpl	r4, lr, #0, 24
    1910:	06000003 	streq	r0, [r0], -r3
    1914:	00a80adb 	ldrdeq	r0, [r8], fp	; <UNPREDICTABLE>
    1918:	0e500000 	cdpeq	0, 5, cr0, cr0, cr0, {0}
    191c:	00000a6d 	andeq	r0, r0, sp, ror #20
    1920:	9012de06 	andsls	sp, r2, r6, lsl #28
    1924:	54000004 	strpl	r0, [r0], #-4
    1928:	00063e0e 	andeq	r3, r6, lr, lsl #28
    192c:	0ce20600 	stcleq	6, cr0, [r2]
    1930:	0000012f 	andeq	r0, r0, pc, lsr #2
    1934:	05ca0e58 	strbeq	r0, [sl, #3672]	; 0xe58
    1938:	e4060000 	str	r0, [r6], #-0
    193c:	0001230e 	andeq	r2, r1, lr, lsl #6
    1940:	370e5c00 	strcc	r5, [lr, -r0, lsl #24]
    1944:	06000005 	streq	r0, [r0], -r5
    1948:	002509e5 	eoreq	r0, r5, r5, ror #19
    194c:	00640000 	rsbeq	r0, r4, r0
    1950:	00002515 	andeq	r2, r0, r5, lsl r5
    1954:	00049000 	andeq	r9, r4, r0
    1958:	04901600 	ldreq	r1, [r0], #1536	; 0x600
    195c:	8f160000 	svchi	0x00160000
    1960:	16000000 	strne	r0, [r0], -r0
    1964:	0000013b 	andeq	r0, r0, fp, lsr r1
    1968:	00002516 	andeq	r2, r0, r6, lsl r5
    196c:	04060000 	streq	r0, [r6], #-0
    1970:	0000049b 	muleq	r0, fp, r4
    1974:	0004900f 	andeq	r9, r4, pc
    1978:	06281700 	strteq	r1, [r8], -r0, lsl #14
    197c:	04280000 	strteq	r0, [r8], #-0
    1980:	08026006 	stmdaeq	r2, {r1, r2, sp, lr}
    1984:	000005e4 	andeq	r0, r0, r4, ror #11
    1988:	00059218 	andeq	r9, r5, r8, lsl r2
    198c:	02620600 	rsbeq	r0, r2, #0, 12
    1990:	00002507 	andeq	r2, r0, r7, lsl #10
    1994:	1f180000 	svcne	0x00180000
    1998:	06000003 	streq	r0, [r0], -r3
    199c:	be0b0267 	cdplt	2, 0, cr0, cr11, cr7, {3}
    19a0:	04000006 	streq	r0, [r0], #-6
    19a4:	0004ab18 	andeq	sl, r4, r8, lsl fp
    19a8:	02670600 	rsbeq	r0, r7, #0, 12
    19ac:	0006be14 	andeq	fp, r6, r4, lsl lr
    19b0:	6a180800 	bvs	6039b8 <__bss_end__+0x5f9610>
    19b4:	06000004 	streq	r0, [r0], -r4
    19b8:	be1e0267 	cdplt	2, 1, cr0, cr14, cr7, {3}
    19bc:	0c000006 	stceq	0, cr0, [r0], {6}
    19c0:	0005eb18 	andeq	lr, r5, r8, lsl fp
    19c4:	02690600 	rsbeq	r0, r9, #0, 12
    19c8:	00002508 	andeq	r2, r0, r8, lsl #10
    19cc:	77181000 	ldrvc	r1, [r8, -r0]
    19d0:	06000002 	streq	r0, [r0], -r2
    19d4:	be08026a 	cdplt	2, 0, cr0, cr8, cr10, {3}
    19d8:	14000008 	strne	r0, [r0], #-8
    19dc:	00060718 	andeq	r0, r6, r8, lsl r7
    19e0:	026d0600 	rsbeq	r0, sp, #0, 12
    19e4:	00002507 	andeq	r2, r0, r7, lsl #10
    19e8:	f5183000 			; <UNDEFINED> instruction: 0xf5183000
    19ec:	06000005 	streq	r0, [r0], -r5
    19f0:	d316026e 	tstle	r6, #-536870906	; 0xe0000006
    19f4:	34000008 	strcc	r0, [r0], #-8
    19f8:	00056118 	andeq	r6, r5, r8, lsl r1
    19fc:	02700600 	rsbseq	r0, r0, #0, 12
    1a00:	00002507 	andeq	r2, r0, r7, lsl #10
    1a04:	fd183800 	ldc2	8, cr3, [r8, #-0]
    1a08:	06000005 	streq	r0, [r0], -r5
    1a0c:	e40a0272 	str	r0, [sl], #-626	; 0xfffffd8e
    1a10:	3c000008 	stccc	0, cr0, [r0], {8}
    1a14:	00051318 	andeq	r1, r5, r8, lsl r3
    1a18:	02750600 	rsbseq	r0, r5, #0, 12
    1a1c:	0001b313 	andeq	fp, r1, r3, lsl r3
    1a20:	89184000 	ldmdbhi	r8, {lr}
    1a24:	06000004 	streq	r0, [r0], -r4
    1a28:	25070276 	strcs	r0, [r7, #-630]	; 0xfffffd8a
    1a2c:	44000000 	strmi	r0, [r0], #-0
    1a30:	00073b18 	andeq	r3, r7, r8, lsl fp
    1a34:	02770600 	rsbseq	r0, r7, #0, 12
    1a38:	0001b313 	andeq	fp, r1, r3, lsl r3
    1a3c:	73184800 	tstvc	r8, #0, 16
    1a40:	06000005 	streq	r0, [r0], -r5
    1a44:	ea140278 	b	50242c <__bss_end__+0x4f8084>
    1a48:	4c000008 	stcmi	0, cr0, [r0], {8}
    1a4c:	0004b318 	andeq	fp, r4, r8, lsl r3
    1a50:	027b0600 	rsbseq	r0, fp, #0, 12
    1a54:	00002507 	andeq	r2, r0, r7, lsl #10
    1a58:	4a185000 	bmi	615a60 <__bss_end__+0x60b6b8>
    1a5c:	06000003 	streq	r0, [r0], -r3
    1a60:	3b09027c 	blcc	242458 <__bss_end__+0x2380b0>
    1a64:	54000001 	strpl	r0, [r0], #-1
    1a68:	00058b18 	andeq	r8, r5, r8, lsl fp
    1a6c:	029f0600 	addseq	r0, pc, #0, 12
    1a70:	00089907 	andeq	r9, r8, r7, lsl #18
    1a74:	59195800 	ldmdbpl	r9, {fp, ip, lr}
    1a78:	06000005 	streq	r0, [r0], -r5
    1a7c:	e41302a3 	ldr	r0, [r3], #-675	; 0xfffffd5d
    1a80:	48000002 	stmdami	r0, {r1}
    1a84:	04f11901 	ldrbteq	r1, [r1], #2305	; 0x901
    1a88:	a4060000 	strge	r0, [r6], #-0
    1a8c:	02a11202 	adceq	r1, r1, #536870912	; 0x20000000
    1a90:	014c0000 	mrseq	r0, (UNDEF: 76)
    1a94:	0006ef19 	andeq	lr, r6, r9, lsl pc
    1a98:	02a80600 	adceq	r0, r8, #0, 12
    1a9c:	0008fb0c 	andeq	pc, r8, ip, lsl #22
    1aa0:	1902dc00 	stmdbne	r2, {sl, fp, ip, lr, pc}
    1aa4:	00000308 	andeq	r0, r0, r8, lsl #6
    1aa8:	1002ad06 	andne	sl, r2, r6, lsl #26
    1aac:	0000067f 	andeq	r0, r0, pc, ror r6
    1ab0:	ed1902e0 	lfm	f0, 4, [r9, #-896]	; 0xfffffc80
    1ab4:	06000002 	streq	r0, [r0], -r2
    1ab8:	070a02af 	streq	r0, [sl, -pc, lsr #5]
    1abc:	ec000009 	stc	0, cr0, [r0], {9}
    1ac0:	04060002 	streq	r0, [r6], #-2
    1ac4:	00000472 	andeq	r0, r0, r2, ror r4
    1ac8:	00002515 	andeq	r2, r0, r5, lsl r5
    1acc:	00060800 	andeq	r0, r6, r0, lsl #16
    1ad0:	04901600 	ldreq	r1, [r0], #1536	; 0x600
    1ad4:	8f160000 	svchi	0x00160000
    1ad8:	16000000 	strne	r0, [r0], -r0
    1adc:	00000608 	andeq	r0, r0, r8, lsl #12
    1ae0:	00002516 	andeq	r2, r0, r6, lsl r5
    1ae4:	04060000 	streq	r0, [r6], #-0
    1ae8:	00000148 	andeq	r0, r0, r8, asr #2
    1aec:	05ea0406 	strbeq	r0, [sl, #1030]!	; 0x406
    1af0:	b4150000 	ldrlt	r0, [r5], #-0
    1af4:	32000000 	andcc	r0, r0, #0, 0
    1af8:	16000006 	strne	r0, [r0], -r6
    1afc:	00000490 	muleq	r0, r0, r4
    1b00:	00008f16 	andeq	r8, r0, r6, lsl pc
    1b04:	00b41600 	adcseq	r1, r4, r0, lsl #12
    1b08:	25160000 	ldrcs	r0, [r6, #-0]
    1b0c:	00000000 	andeq	r0, r0, r0
    1b10:	06140406 	ldreq	r0, [r4], -r6, lsl #8
    1b14:	25150000 	ldrcs	r0, [r5, #-0]
    1b18:	4c000000 	stcmi	0, cr0, [r0], {-0}
    1b1c:	16000006 	strne	r0, [r0], -r6
    1b20:	00000490 	muleq	r0, r0, r4
    1b24:	00008f16 	andeq	r8, r0, r6, lsl pc
    1b28:	04060000 	streq	r0, [r6], #-0
    1b2c:	00000638 	andeq	r0, r0, r8, lsr r6
    1b30:	00005b0b 	andeq	r5, r0, fp, lsl #22
    1b34:	00066200 	andeq	r6, r6, r0, lsl #4
    1b38:	00380c00 	eorseq	r0, r8, r0, lsl #24
    1b3c:	00020000 	andeq	r0, r2, r0
    1b40:	00005b0b 	andeq	r5, r0, fp, lsl #22
    1b44:	00067200 	andeq	r7, r6, r0, lsl #4
    1b48:	00380c00 	eorseq	r0, r8, r0, lsl #24
    1b4c:	00000000 	andeq	r0, r0, r0
    1b50:	0005b008 	andeq	fp, r5, r8
    1b54:	011f0600 	tsteq	pc, r0, lsl #12
    1b58:	00032f1a 	andeq	r2, r3, sl, lsl pc
    1b5c:	06d61a00 	ldrbeq	r1, [r6], r0, lsl #20
    1b60:	060c0000 	streq	r0, [ip], -r0
    1b64:	b8080123 	stmdalt	r8, {r0, r1, r5, r8}
    1b68:	18000006 	stmdane	r0, {r1, r2}
    1b6c:	000005d8 	ldrdeq	r0, [r0], -r8
    1b70:	11012506 	tstne	r1, r6, lsl #10
    1b74:	000006b8 			; <UNDEFINED> instruction: 0x000006b8
    1b78:	04ea1800 	strbteq	r1, [sl], #2048	; 0x800
    1b7c:	26060000 	strcs	r0, [r6], -r0
    1b80:	00250701 	eoreq	r0, r5, r1, lsl #14
    1b84:	18040000 	stmdane	r4, {}	; <UNPREDICTABLE>
    1b88:	000005aa 	andeq	r0, r0, sl, lsr #11
    1b8c:	0b012706 	bleq	4b7ac <__bss_end__+0x41404>
    1b90:	000006be 			; <UNDEFINED> instruction: 0x000006be
    1b94:	04060008 	streq	r0, [r6], #-8
    1b98:	0000067f 	andeq	r0, r0, pc, ror r6
    1b9c:	06720406 	ldrbteq	r0, [r2], -r6, lsl #8
    1ba0:	6f1a0000 	svcvs	0x001a0000
    1ba4:	0e000002 	cdpeq	0, 0, cr0, cr0, cr2, {0}
    1ba8:	08013f06 	stmdaeq	r1, {r1, r2, r8, r9, sl, fp, ip, sp}
    1bac:	000006fd 	strdeq	r0, [r0], -sp
    1bb0:	00062f18 	andeq	r2, r6, r8, lsl pc
    1bb4:	01400600 	cmpeq	r0, r0, lsl #12
    1bb8:	0006fd12 	andeq	pc, r6, r2, lsl sp	; <UNPREDICTABLE>
    1bbc:	69180000 	ldmdbvs	r8, {}	; <UNPREDICTABLE>
    1bc0:	06000006 	streq	r0, [r0], -r6
    1bc4:	fd120141 	ldc2	1, cr0, [r2, #-260]	; 0xfffffefc
    1bc8:	06000006 	streq	r0, [r0], -r6
    1bcc:	00068d18 	andeq	r8, r6, r8, lsl sp
    1bd0:	01420600 	cmpeq	r2, r0, lsl #12
    1bd4:	00006212 	andeq	r6, r0, r2, lsl r2
    1bd8:	0b000c00 	bleq	4be0 <__code_start__-0x3420>
    1bdc:	00000062 	andeq	r0, r0, r2, rrx
    1be0:	0000070d 	andeq	r0, r0, sp, lsl #14
    1be4:	0000380c 	andeq	r3, r0, ip, lsl #16
    1be8:	1b000200 	blne	23f0 <__code_start__-0x5c10>
    1bec:	028006d0 	addeq	r0, r0, #208, 12	; 0xd000000
    1bf0:	00082207 	andeq	r2, r8, r7, lsl #4
    1bf4:	06ba1800 	ldrteq	r1, [sl], r0, lsl #16
    1bf8:	82060000 	andhi	r0, r6, #0, 0
    1bfc:	00381802 	eorseq	r1, r8, r2, lsl #16
    1c00:	18000000 	stmdane	r0, {}	; <UNPREDICTABLE>
    1c04:	0000066f 	andeq	r0, r0, pc, ror #12
    1c08:	12028306 	andne	r8, r2, #402653184	; 0x18000000
    1c0c:	0000013b 	andeq	r0, r0, fp, lsr r1
    1c10:	05061804 	streq	r1, [r6, #-2052]	; 0xfffff7fc
    1c14:	84060000 	strhi	r0, [r6], #-0
    1c18:	08221002 	stmdaeq	r2!, {r1, ip}
    1c1c:	18080000 	stmdane	r8, {}	; <UNPREDICTABLE>
    1c20:	00000712 	andeq	r0, r0, r2, lsl r7
    1c24:	17028506 	strne	r8, [r2, -r6, lsl #10]
    1c28:	000001c9 	andeq	r0, r0, r9, asr #3
    1c2c:	047a1824 	ldrbteq	r1, [sl], #-2084	; 0xfffff7dc
    1c30:	86060000 	strhi	r0, [r6], -r0
    1c34:	00250f02 	eoreq	r0, r5, r2, lsl #30
    1c38:	18480000 	stmdane	r8, {}^	; <UNPREDICTABLE>
    1c3c:	000005d3 	ldrdeq	r0, [r0], -r3
    1c40:	2c028706 	stccs	7, cr8, [r2], {6}
    1c44:	00000088 	andeq	r0, r0, r8, lsl #1
    1c48:	07281850 			; <UNDEFINED> instruction: 0x07281850
    1c4c:	88060000 	stmdahi	r6, {}	; <UNPREDICTABLE>
    1c50:	06c41a02 	strbeq	r1, [r4], r2, lsl #20
    1c54:	18580000 	ldmdane	r8, {}^	; <UNPREDICTABLE>
    1c58:	000005de 	ldrdeq	r0, [r0], -lr
    1c5c:	16028906 	strne	r8, [r2], -r6, lsl #18
    1c60:	00000123 	andeq	r0, r0, r3, lsr #2
    1c64:	072d1868 	streq	r1, [sp, -r8, ror #16]!
    1c68:	8a060000 	bhi	181c70 <__bss_end__+0x1778c8>
    1c6c:	01231602 			; <UNDEFINED> instruction: 0x01231602
    1c70:	18700000 	ldmdane	r0!, {}^	; <UNPREDICTABLE>
    1c74:	0000057d 	andeq	r0, r0, sp, ror r5
    1c78:	16028b06 	strne	r8, [r2], -r6, lsl #22
    1c7c:	00000123 	andeq	r0, r0, r3, lsr #2
    1c80:	06e51878 	uxtabeq	r1, r5, r8, ror #16
    1c84:	8c060000 	stchi	0, cr0, [r6], {-0}
    1c88:	08321002 	ldmdaeq	r2!, {r1, ip}
    1c8c:	18800000 	stmne	r0, {}	; <UNPREDICTABLE>
    1c90:	000004fa 	strdeq	r0, [r0], -sl
    1c94:	10028d06 	andne	r8, r2, r6, lsl #26
    1c98:	00000842 	andeq	r0, r0, r2, asr #16
    1c9c:	069a1888 	ldreq	r1, [sl], r8, lsl #17
    1ca0:	8e060000 	cdphi	0, 0, cr0, cr6, cr0, {0}
    1ca4:	00250f02 	eoreq	r0, r5, r2, lsl #30
    1ca8:	18a00000 	stmiane	r0!, {}	; <UNPREDICTABLE>
    1cac:	00000440 	andeq	r0, r0, r0, asr #8
    1cb0:	16028f06 	strne	r8, [r2], -r6, lsl #30
    1cb4:	00000123 	andeq	r0, r0, r3, lsr #2
    1cb8:	02bf18a4 	adcseq	r1, pc, #164, 16	; 0xa40000
    1cbc:	90060000 	andls	r0, r6, r0
    1cc0:	01231602 			; <UNDEFINED> instruction: 0x01231602
    1cc4:	18ac0000 	stmiane	ip!, {}	; <UNPREDICTABLE>
    1cc8:	0000042f 	andeq	r0, r0, pc, lsr #8
    1ccc:	16029106 	strne	r9, [r2], -r6, lsl #2
    1cd0:	00000123 	andeq	r0, r0, r3, lsr #2
    1cd4:	028b18b4 	addeq	r1, fp, #180, 16	; 0xb40000
    1cd8:	92060000 	andls	r0, r6, #0, 0
    1cdc:	01231602 			; <UNDEFINED> instruction: 0x01231602
    1ce0:	18bc0000 	ldmne	ip!, {}	; <UNPREDICTABLE>
    1ce4:	0000029a 	muleq	r0, sl, r2
    1ce8:	16029306 	strne	r9, [r2], -r6, lsl #6
    1cec:	00000123 	andeq	r0, r0, r3, lsr #2
    1cf0:	059018c4 	ldreq	r1, [r0, #2244]	; 0x8c4
    1cf4:	94060000 	strls	r0, [r6], #-0
    1cf8:	00250802 	eoreq	r0, r5, r2, lsl #16
    1cfc:	00cc0000 	sbceq	r0, ip, r0
    1d00:	0001410b 	andeq	r4, r1, fp, lsl #2
    1d04:	00083200 	andeq	r3, r8, r0, lsl #4
    1d08:	00380c00 	eorseq	r0, r8, r0, lsl #24
    1d0c:	00190000 	andseq	r0, r9, r0
    1d10:	0001410b 	andeq	r4, r1, fp, lsl #2
    1d14:	00084200 	andeq	r4, r8, r0, lsl #4
    1d18:	00380c00 	eorseq	r0, r8, r0, lsl #24
    1d1c:	00070000 	andeq	r0, r7, r0
    1d20:	0001410b 	andeq	r4, r1, fp, lsl #2
    1d24:	00085200 	andeq	r5, r8, r0, lsl #4
    1d28:	00380c00 	eorseq	r0, r8, r0, lsl #24
    1d2c:	00170000 	andseq	r0, r7, r0
    1d30:	9906f01b 	stmdbls	r6, {r0, r1, r3, r4, ip, sp, lr, pc}
    1d34:	08790702 	ldmdaeq	r9!, {r1, r8, r9, sl}^
    1d38:	49180000 	ldmdbmi	r8, {}	; <UNPREDICTABLE>
    1d3c:	06000005 	streq	r0, [r0], -r5
    1d40:	791b029c 	ldmdbvc	fp, {r2, r3, r4, r7, r9}
    1d44:	00000008 	andeq	r0, r0, r8
    1d48:	0006dc18 	andeq	sp, r6, r8, lsl ip
    1d4c:	029d0600 	addseq	r0, sp, #0, 12
    1d50:	00088918 	andeq	r8, r8, r8, lsl r9
    1d54:	0b007800 	bleq	1fd5c <__bss_end__+0x159b4>
    1d58:	00000329 	andeq	r0, r0, r9, lsr #6
    1d5c:	00000889 	andeq	r0, r0, r9, lsl #17
    1d60:	0000380c 	andeq	r3, r0, ip, lsl #16
    1d64:	0b001d00 	bleq	916c <kmalloc_aligned+0xb4>
    1d68:	00000038 	andeq	r0, r0, r8, lsr r0
    1d6c:	00000899 	muleq	r0, r9, r8
    1d70:	0000380c 	andeq	r3, r0, ip, lsl #16
    1d74:	1c001d00 	stcne	13, cr1, [r0], {-0}
    1d78:	027e06f0 	rsbseq	r0, lr, #240, 12	; 0xf000000
    1d7c:	0008be03 	andeq	fp, r8, r3, lsl #28
    1d80:	06281d00 	strteq	r1, [r8], -r0, lsl #26
    1d84:	95060000 	strls	r0, [r6, #-0]
    1d88:	070d0b02 	streq	r0, [sp, -r2, lsl #22]
    1d8c:	ff1d0000 			; <UNDEFINED> instruction: 0xff1d0000
    1d90:	06000006 	streq	r0, [r0], -r6
    1d94:	520b029e 	andpl	r0, fp, #-536870903	; 0xe0000009
    1d98:	00000008 	andeq	r0, r0, r8
    1d9c:	0001410b 	andeq	r4, r1, fp, lsl #2
    1da0:	0008ce00 	andeq	ip, r8, r0, lsl #28
    1da4:	00380c00 	eorseq	r0, r8, r0, lsl #24
    1da8:	00180000 	andseq	r0, r8, r0
    1dac:	0002b407 	andeq	fp, r2, r7, lsl #8
    1db0:	ce040600 	cfmadd32gt	mvax0, mvfx0, mvfx4, mvfx0
    1db4:	1e000008 	cdpne	0, 0, cr0, cr0, cr8, {0}
    1db8:	000008e4 	andeq	r0, r0, r4, ror #17
    1dbc:	00049016 	andeq	r9, r4, r6, lsl r0
    1dc0:	04060000 	streq	r0, [r6], #-0
    1dc4:	000008d9 	ldrdeq	r0, [r0], -r9
    1dc8:	01b30406 			; <UNDEFINED> instruction: 0x01b30406
    1dcc:	fb1e0000 	blx	781dd6 <__bss_end__+0x777a2e>
    1dd0:	16000008 	strne	r0, [r0], -r8
    1dd4:	00000025 	andeq	r0, r0, r5, lsr #32
    1dd8:	01040600 	tsteq	r4, r0, lsl #12
    1ddc:	06000009 	streq	r0, [r0], -r9
    1de0:	0008f004 	andeq	pc, r8, r4
    1de4:	06720b00 	ldrbteq	r0, [r2], -r0, lsl #22
    1de8:	09170000 	ldmdbeq	r7, {}	; <UNPREDICTABLE>
    1dec:	380c0000 	stmdacc	ip, {}	; <UNPREDICTABLE>
    1df0:	02000000 	andeq	r0, r0, #0, 0
    1df4:	06ae1f00 	strteq	r1, [lr], r0, lsl #30
    1df8:	2e060000 	cdpcs	0, 0, cr0, cr6, cr0, {0}
    1dfc:	04901703 	ldreq	r1, [r0], #1795	; 0x703
    1e00:	a71f0000 	ldrge	r0, [pc, -r0]
    1e04:	06000006 	streq	r0, [r0], -r6
    1e08:	961d032f 	ldrls	r0, [sp], -pc, lsr #6
    1e0c:	03000004 	movweq	r0, #4
    1e10:	00000652 	andeq	r0, r0, r2, asr r6
    1e14:	3d0f2107 	stfccs	f2, [pc, #-28]	; 1e00 <__code_start__-0x6200>
    1e18:	06000009 	streq	r0, [r0], -r9
    1e1c:	00094304 	andeq	r4, r9, r4, lsl #6
    1e20:	00251500 	eoreq	r1, r5, r0, lsl #10
    1e24:	09520000 	ldmdbeq	r2, {}^	; <UNPREDICTABLE>
    1e28:	25160000 	ldrcs	r0, [r6, #-0]
    1e2c:	00000000 	andeq	r0, r0, r0
    1e30:	00049320 	andeq	r9, r4, r0, lsr #6
    1e34:	16230700 	strtne	r0, [r3], -r0, lsl #14
    1e38:	00000931 	andeq	r0, r0, r1, lsr r9
    1e3c:	00009a21 	andeq	r9, r0, r1, lsr #20
    1e40:	09210800 	stmdbeq	r1!, {fp}
    1e44:	0000008f 	andeq	r0, r0, pc, lsl #1
    1e48:	00009300 	andeq	r9, r0, r0, lsl #6
    1e4c:	000000a0 	andeq	r0, r0, r0, lsr #1
    1e50:	0a079c01 	beq	1e8e5c <__bss_end__+0x1deab4>
    1e54:	64220000 	strtvs	r0, [r2], #-0
    1e58:	01007473 	tsteq	r0, r3, ror r4
    1e5c:	008f1407 	addeq	r1, pc, r7, lsl #8
    1e60:	08650000 	stmdaeq	r5!, {}^	; <UNPREDICTABLE>
    1e64:	085d0000 	ldmdaeq	sp, {}^	; <UNPREDICTABLE>
    1e68:	63230000 			; <UNDEFINED> instruction: 0x63230000
    1e6c:	1d070100 	stfnes	f0, [r7, #-0]
    1e70:	00000025 	andeq	r0, r0, r5, lsr #32
    1e74:	6e225101 	sufvss	f5, f2, f1
    1e78:	27070100 	strcs	r0, [r7, -r0, lsl #2]
    1e7c:	0000002c 	andeq	r0, r0, ip, lsr #32
    1e80:	000008b5 			; <UNDEFINED> instruction: 0x000008b5
    1e84:	0000089f 	muleq	r0, pc, r8	; <UNPREDICTABLE>
    1e88:	01007024 	tsteq	r0, r4, lsr #32
    1e8c:	013b0b1c 	teqeq	fp, ip, lsl fp
    1e90:	09440000 	stmdbeq	r4, {}^	; <UNPREDICTABLE>
    1e94:	093c0000 	ldmdbeq	ip!, {}	; <UNPREDICTABLE>
    1e98:	65240000 	strvs	r0, [r4, #-0]!
    1e9c:	151c0100 	ldrne	r0, [ip, #-256]	; 0xffffff00
    1ea0:	0000013b 	andeq	r0, r0, fp, lsr r1
    1ea4:	0000097e 	andeq	r0, r0, lr, ror r9
    1ea8:	0000097a 	andeq	r0, r0, sl, ror r9
    1eac:	00007825 	andeq	r7, r0, r5, lsr #16
    1eb0:	0009ea00 	andeq	lr, r9, r0, lsl #20
    1eb4:	00702400 	rsbseq	r2, r0, r0, lsl #8
    1eb8:	07170d01 	ldreq	r0, [r7, -r1, lsl #26]
    1ebc:	a200000a 	andge	r0, r0, #10, 0
    1ec0:	9c000009 	stcls	0, cr0, [r0], {9}
    1ec4:	00000009 	andeq	r0, r0, r9
    1ec8:	00933826 	addseq	r3, r3, r6, lsr #16
    1ecc:	00002000 	andeq	r2, r0, r0
    1ed0:	00702400 	rsbseq	r2, r0, r0, lsl #8
    1ed4:	0d171401 	cfldrseq	mvf1, [r7, #-4]
    1ed8:	d300000a 	movwle	r0, #10
    1edc:	cd000009 	stcgt	0, cr0, [r0, #-36]	; 0xffffffdc
    1ee0:	00000009 	andeq	r0, r0, r9
    1ee4:	7c040600 	stcvc	6, cr0, [r4], {-0}
    1ee8:	06000000 	streq	r0, [r0], -r0
    1eec:	00006904 	andeq	r6, r0, r4, lsl #18
    1ef0:	0d160000 	ldceq	0, cr0, [r6, #-0]
    1ef4:	00040000 	andeq	r0, r4, r0
    1ef8:	00000707 	andeq	r0, r0, r7, lsl #14
    1efc:	035a0104 	cmpeq	sl, #1
    1f00:	730c0000 	movwvc	r0, #49152	; 0xc000
    1f04:	c1000007 	tstgt	r0, r7
    1f08:	a0000004 	andge	r0, r0, r4
    1f0c:	1c000093 	stcne	0, cr0, [r0], {147}	; 0x93
    1f10:	df000004 	svcle	0x00000004
    1f14:	02000008 	andeq	r0, r0, #8, 0
    1f18:	6e690504 	cdpvs	5, 6, cr0, cr9, cr4, {0}
    1f1c:	04030074 	streq	r0, [r3], #-116	; 0xffffff8c
    1f20:	0001ae07 	andeq	sl, r1, r7, lsl #28
    1f24:	06010300 	streq	r0, [r1], -r0, lsl #6
    1f28:	0000005c 	andeq	r0, r0, ip, asr r0
    1f2c:	fe050203 	cdp2	2, 0, cr0, cr5, cr3, {0}
    1f30:	03000001 	movweq	r0, #1
    1f34:	01ed0504 	mvneq	r0, r4, lsl #10
    1f38:	08030000 	stmdaeq	r3, {}	; <UNPREDICTABLE>
    1f3c:	0001e805 	andeq	lr, r1, r5, lsl #16
    1f40:	08010300 	stmdaeq	r1, {r8, r9}
    1f44:	0000005a 	andeq	r0, r0, sl, asr r0
    1f48:	1c070203 	sfmne	f0, 4, [r7], {3}
    1f4c:	04000000 	streq	r0, [r0], #-0
    1f50:	0000021b 	andeq	r0, r0, fp, lsl r2
    1f54:	69193402 	ldmdbvs	r9, {r1, sl, ip, sp}
    1f58:	03000000 	movweq	r0, #0
    1f5c:	01a90704 			; <UNDEFINED> instruction: 0x01a90704
    1f60:	82040000 	andhi	r0, r4, #0, 0
    1f64:	02000002 	andeq	r0, r0, #2, 0
    1f68:	007c1937 	rsbseq	r1, ip, r7, lsr r9
    1f6c:	08030000 	stmdaeq	r3, {}	; <UNPREDICTABLE>
    1f70:	0001a407 	andeq	sl, r1, r7, lsl #8
    1f74:	07640400 	strbeq	r0, [r4, -r0, lsl #8]!
    1f78:	28030000 	stmdacs	r3, {}	; <UNPREDICTABLE>
    1f7c:	00008f1b 	andeq	r8, r0, fp, lsl pc
    1f80:	075a0500 	ldrbeq	r0, [sl, -r0, lsl #10]
    1f84:	09040000 	stmdbeq	r4, {}	; <UNPREDICTABLE>
    1f88:	0000a600 	andeq	sl, r0, r0, lsl #12
    1f8c:	078b0600 	streq	r0, [fp, r0, lsl #12]
    1f90:	00a60000 	adceq	r0, r6, r0
    1f94:	00000000 	andeq	r0, r0, r0
    1f98:	5c040407 	cfstrspl	mvf0, [r4], {7}
    1f9c:	03000007 	movweq	r0, #7
    1fa0:	00831863 	addeq	r1, r3, r3, ror #16
    1fa4:	28040000 	stmdacs	r4, {}	; <UNPREDICTABLE>
    1fa8:	04000005 	streq	r0, [r0], #-5
    1fac:	00c01922 	sbceq	r1, r0, r2, lsr #18
    1fb0:	04080000 	streq	r0, [r8], #-0
    1fb4:	000000c6 	andeq	r0, r0, r6, asr #1
    1fb8:	00063d09 	andeq	r3, r6, r9, lsl #26
    1fbc:	056c0400 	strbeq	r0, [ip, #-1024]!	; 0xfffffc00
    1fc0:	2c050000 	stccs	0, cr0, [r5], {-0}
    1fc4:	0000410e 	andeq	r4, r0, lr, lsl #2
    1fc8:	064a0400 	strbeq	r0, [sl], -r0, lsl #8
    1fcc:	72050000 	andvc	r0, r5, #0, 0
    1fd0:	0000410e 	andeq	r4, r0, lr, lsl #2
    1fd4:	05300a00 	ldreq	r0, [r0, #-2560]!	; 0xfffff600
    1fd8:	5e060000 	cdppl	0, 0, cr0, cr6, cr0, {0}
    1fdc:	002c1701 	eoreq	r1, ip, r1, lsl #14
    1fe0:	040b0000 	streq	r0, [fp], #-0
    1fe4:	1203a605 	andne	sl, r3, #5242880	; 0x500000
    1fe8:	0c000001 	stceq	0, cr0, [r0], {1}
    1fec:	0000051b 	andeq	r0, r0, fp, lsl r5
    1ff0:	e30ca805 	movw	sl, #51205	; 0xc805
    1ff4:	0c000000 	stceq	0, cr0, [r0], {-0}
    1ff8:	000004a4 	andeq	r0, r0, r4, lsr #9
    1ffc:	1213a905 	andsne	sl, r3, #81920	; 0x14000
    2000:	00000001 	andeq	r0, r0, r1
    2004:	00004f0d 	andeq	r4, r0, sp, lsl #30
    2008:	00012200 	andeq	r2, r1, r0, lsl #4
    200c:	002c0e00 	eoreq	r0, ip, r0, lsl #28
    2010:	00030000 	andeq	r0, r3, r0
    2014:	a305080f 	movwge	r0, #22543	; 0x580f
    2018:	00014609 	andeq	r4, r1, r9, lsl #12
    201c:	06351000 	ldrteq	r1, [r5], -r0
    2020:	a5050000 	strge	r0, [r5, #-0]
    2024:	00002507 	andeq	r2, r0, r7, lsl #10
    2028:	7c100000 	ldcvc	0, cr0, [r0], {-0}
    202c:	05000006 	streq	r0, [r0, #-6]
    2030:	00f005aa 	rscseq	r0, r0, sl, lsr #11
    2034:	00040000 	andeq	r0, r4, r0
    2038:	0005b704 	andeq	fp, r5, r4, lsl #14
    203c:	03ab0500 			; <UNDEFINED> instruction: 0x03ab0500
    2040:	00000122 	andeq	r0, r0, r2, lsr #2
    2044:	00046104 	andeq	r6, r4, r4, lsl #2
    2048:	1baf0500 	blne	febc3450 <__bss_end__+0xfebb90a8>
    204c:	000000b4 	strheq	r0, [r0], -r4
    2050:	01640408 	cmneq	r4, r8, lsl #8
    2054:	01030000 	mrseq	r0, (UNDEF: 3)
    2058:	00006308 	andeq	r6, r0, r8, lsl #6
    205c:	01641100 	cmneq	r4, r0, lsl #2
    2060:	92040000 	andls	r0, r4, #0, 0
    2064:	07000006 	streq	r0, [r0, -r6]
    2068:	00691916 	rsbeq	r1, r9, r6, lsl r9
    206c:	72120000 	andsvc	r0, r2, #0, 0
    2070:	18000004 	stmdane	r0, {r2}
    2074:	d6082f07 	strle	r2, [r8], -r7, lsl #30
    2078:	10000001 	andne	r0, r0, r1
    207c:	000005d8 	ldrdeq	r0, [r0], -r8
    2080:	d6133107 	ldrle	r3, [r3], -r7, lsl #2
    2084:	00000001 	andeq	r0, r0, r1
    2088:	006b5f13 	rsbeq	r5, fp, r3, lsl pc
    208c:	25073207 	strcs	r3, [r7, #-519]	; 0xfffffdf9
    2090:	04000000 	streq	r0, [r0], #-0
    2094:	00062010 	andeq	r2, r6, r0, lsl r0
    2098:	0b320700 	bleq	c83ca0 <__bss_end__+0xc798f8>
    209c:	00000025 	andeq	r0, r0, r5, lsr #32
    20a0:	045b1008 	ldrbeq	r1, [fp], #-8
    20a4:	32070000 	andcc	r0, r7, #0, 0
    20a8:	00002514 	andeq	r2, r0, r4, lsl r5
    20ac:	c7100c00 	ldrgt	r0, [r0, -r0, lsl #24]
    20b0:	07000006 	streq	r0, [r0, -r6]
    20b4:	00251b32 	eoreq	r1, r5, r2, lsr fp
    20b8:	13100000 	tstne	r0, #0, 0
    20bc:	0700785f 	smlsdeq	r0, pc, r8, r7	; <UNPREDICTABLE>
    20c0:	01dc0b33 	bicseq	r0, ip, r3, lsr fp
    20c4:	00140000 	andseq	r0, r4, r0
    20c8:	017c0408 	cmneq	ip, r8, lsl #8
    20cc:	700d0000 	andvc	r0, sp, r0
    20d0:	ec000001 	stc	0, cr0, [r0], {1}
    20d4:	0e000001 	cdpeq	0, 0, cr0, cr0, cr1, {0}
    20d8:	0000002c 	andeq	r0, r0, ip, lsr #32
    20dc:	9f120000 	svcls	0x00120000
    20e0:	24000004 	strcs	r0, [r0], #-4
    20e4:	6f083707 	svcvs	0x00083707
    20e8:	10000002 	andne	r0, r0, r2
    20ec:	000002ce 	andeq	r0, r0, lr, asr #5
    20f0:	25093907 	strcs	r3, [r9, #-2311]	; 0xfffff6f9
    20f4:	00000000 	andeq	r0, r0, r0
    20f8:	00066010 	andeq	r6, r6, r0, lsl r0
    20fc:	093a0700 	ldmdbeq	sl!, {r8, r9, sl}
    2100:	00000025 	andeq	r0, r0, r5, lsr #32
    2104:	02e31004 	rsceq	r1, r3, #4, 0
    2108:	3b070000 	blcc	1c2110 <__bss_end__+0x1b7d68>
    210c:	00002509 	andeq	r2, r0, r9, lsl #10
    2110:	40100800 	andsmi	r0, r0, r0, lsl #16
    2114:	07000007 	streq	r0, [r0, -r7]
    2118:	0025093c 	eoreq	r0, r5, ip, lsr r9
    211c:	100c0000 	andne	r0, ip, r0
    2120:	00000550 	andeq	r0, r0, r0, asr r5
    2124:	25093d07 	strcs	r3, [r9, #-3335]	; 0xfffff2f9
    2128:	10000000 	andne	r0, r0, r0
    212c:	00053f10 	andeq	r3, r5, r0, lsl pc
    2130:	093e0700 	ldmdbeq	lr!, {r8, r9, sl}
    2134:	00000025 	andeq	r0, r0, r5, lsr #32
    2138:	06cc1014 			; <UNDEFINED> instruction: 0x06cc1014
    213c:	3f070000 	svccc	0x00070000
    2140:	00002509 	andeq	r2, r0, r9, lsl #10
    2144:	99101800 	ldmdbls	r0, {fp, ip}
    2148:	07000005 	streq	r0, [r0, -r5]
    214c:	00250940 	eoreq	r0, r5, r0, asr #18
    2150:	101c0000 	andsne	r0, ip, r0
    2154:	00000707 	andeq	r0, r0, r7, lsl #14
    2158:	25094107 	strcs	r4, [r9, #-263]	; 0xfffffef9
    215c:	20000000 	andcs	r0, r0, r0
    2160:	02f21400 	rscseq	r1, r2, #0, 8
    2164:	01080000 	mrseq	r0, (UNDEF: 8)
    2168:	b4084a07 	strlt	r4, [r8], #-2567	; 0xfffff5f9
    216c:	10000002 	andne	r0, r0, r2
    2170:	0000044e 	andeq	r0, r0, lr, asr #8
    2174:	b40a4b07 	strlt	r4, [sl], #-2823	; 0xfffff4f9
    2178:	00000002 	andeq	r0, r0, r2
    217c:	00024c10 	andeq	r4, r2, r0, lsl ip
    2180:	094c0700 	stmdbeq	ip, {r8, r9, sl}^
    2184:	000002b4 			; <UNDEFINED> instruction: 0x000002b4
    2188:	06841580 	streq	r1, [r4], r0, lsl #11
    218c:	4e070000 	cdpmi	0, 0, cr0, cr7, cr0, {0}
    2190:	0001700a 	andeq	r7, r1, sl
    2194:	15010000 	strne	r0, [r1, #-0]
    2198:	00000317 	andeq	r0, r0, r7, lsl r3
    219c:	700a5107 	andvc	r5, sl, r7, lsl #2
    21a0:	04000001 	streq	r0, [r0], #-1
    21a4:	a60d0001 	strge	r0, [sp], -r1
    21a8:	c4000000 	strgt	r0, [r0], #-0
    21ac:	0e000002 	cdpeq	0, 0, cr0, cr0, cr2, {0}
    21b0:	0000002c 	andeq	r0, r0, ip, lsr #32
    21b4:	5914001f 	ldmdbpl	r4, {r0, r1, r2, r3, r4}
    21b8:	90000005 	andls	r0, r0, r5
    21bc:	085d0701 	ldmdaeq	sp, {r0, r8, r9, sl}^
    21c0:	00000307 	andeq	r0, r0, r7, lsl #6
    21c4:	0005d810 	andeq	sp, r5, r0, lsl r8
    21c8:	125e0700 	subsne	r0, lr, #0, 14
    21cc:	00000307 	andeq	r0, r0, r7, lsl #6
    21d0:	05f01000 	ldrbeq	r1, [r0, #0]!
    21d4:	5f070000 	svcpl	0x00070000
    21d8:	00002506 	andeq	r2, r0, r6, lsl #10
    21dc:	56100400 	ldrpl	r0, [r0], -r0, lsl #8
    21e0:	07000004 	streq	r0, [r0, -r4]
    21e4:	030d0961 	movweq	r0, #55649	; 0xd961
    21e8:	10080000 	andne	r0, r8, r0
    21ec:	000002f2 	strdeq	r0, [r0], -r2
    21f0:	6f1e6207 	svcvs	0x001e6207
    21f4:	88000002 	stmdahi	r0, {r1}
    21f8:	c4040800 	strgt	r0, [r4], #-2048	; 0xfffff800
    21fc:	0d000002 	stceq	0, cr0, [r0, #-8]
    2200:	0000031d 	andeq	r0, r0, sp, lsl r3
    2204:	0000031d 	andeq	r0, r0, sp, lsl r3
    2208:	00002c0e 	andeq	r2, r0, lr, lsl #24
    220c:	08001f00 	stmdaeq	r0, {r8, r9, sl, fp, ip}
    2210:	00032304 	andeq	r2, r3, r4, lsl #6
    2214:	a3121600 	tstge	r2, #0, 12
    2218:	08000005 	stmdaeq	r0, {r0, r2}
    221c:	4c087507 	cfstr32mi	mvfx7, [r8], {7}
    2220:	10000003 	andne	r0, r0, r3
    2224:	000002dd 	ldrdeq	r0, [r0], -sp
    2228:	4c117607 	ldcmi	6, cr7, [r1], {7}
    222c:	00000003 	andeq	r0, r0, r3
    2230:	00026210 	andeq	r6, r2, r0, lsl r2
    2234:	06770700 	ldrbteq	r0, [r7], -r0, lsl #14
    2238:	00000025 	andeq	r0, r0, r5, lsr #32
    223c:	04080004 	streq	r0, [r8], #-4
    2240:	0000004f 	andeq	r0, r0, pc, asr #32
    2244:	0005c212 	andeq	ip, r5, r2, lsl r2
    2248:	b5076800 	strlt	r6, [r7, #-2048]	; 0xfffff800
    224c:	00049508 	andeq	r9, r4, r8, lsl #10
    2250:	705f1300 	subsvc	r1, pc, r0, lsl #6
    2254:	12b60700 	adcsne	r0, r6, #0, 14
    2258:	0000034c 	andeq	r0, r0, ip, asr #6
    225c:	725f1300 	subsvc	r1, pc, #0, 6
    2260:	07b70700 	ldreq	r0, [r7, r0, lsl #14]!
    2264:	00000025 	andeq	r0, r0, r5, lsr #32
    2268:	775f1304 	ldrbvc	r1, [pc, -r4, lsl #6]
    226c:	07b80700 	ldreq	r0, [r8, r0, lsl #14]!
    2270:	00000025 	andeq	r0, r0, r5, lsr #32
    2274:	03101008 	tsteq	r0, #8, 0
    2278:	b9070000 	stmdblt	r7, {}	; <UNPREDICTABLE>
    227c:	00003a09 	andeq	r3, r0, r9, lsl #20
    2280:	bb100c00 	bllt	405288 <__bss_end__+0x3faee0>
    2284:	07000004 	streq	r0, [r0, -r4]
    2288:	003a09ba 	ldrhteq	r0, [sl], -sl
    228c:	130e0000 	movwne	r0, #57344	; 0xe000
    2290:	0066625f 	rsbeq	r6, r6, pc, asr r2
    2294:	2411bb07 	ldrcs	fp, [r1], #-2823	; 0xfffff4f9
    2298:	10000003 	andne	r0, r0, r3
    229c:	0002ab10 	andeq	sl, r2, r0, lsl fp
    22a0:	07bc0700 	ldreq	r0, [ip, r0, lsl #14]!
    22a4:	00000025 	andeq	r0, r0, r5, lsr #32
    22a8:	03001018 	movweq	r1, #24
    22ac:	c3070000 	movwgt	r0, #28672	; 0x7000
    22b0:	0000a60a 	andeq	sl, r0, sl, lsl #12
    22b4:	11101c00 	tstne	r0, r0, lsl #24
    22b8:	0700000b 	streq	r0, [r0, -fp]
    22bc:	06071dc5 	streq	r1, [r7], -r5, asr #27
    22c0:	10200000 	eorne	r0, r0, r0
    22c4:	00000b2b 	andeq	r0, r0, fp, lsr #22
    22c8:	311dc707 	tstcc	sp, r7, lsl #14
    22cc:	24000006 	strcs	r0, [r0], #-6
    22d0:	00064410 	andeq	r4, r6, r0, lsl r4
    22d4:	0dca0700 	stcleq	7, cr0, [sl]
    22d8:	00000655 	andeq	r0, r0, r5, asr r6
    22dc:	07211028 	streq	r1, [r1, -r8, lsr #32]!
    22e0:	cb070000 	blgt	1c22e8 <__bss_end__+0x1b7f40>
    22e4:	00066f09 	andeq	r6, r6, r9, lsl #30
    22e8:	5f132c00 	svcpl	0x00132c00
    22ec:	07006275 	smlsdxeq	r0, r5, r2, r6
    22f0:	032411ce 			; <UNDEFINED> instruction: 0x032411ce
    22f4:	13300000 	teqne	r0, #0, 0
    22f8:	0070755f 	rsbseq	r7, r0, pc, asr r5
    22fc:	4c12cf07 	ldcmi	15, cr12, [r2], {7}
    2300:	38000003 	stmdacc	r0, {r0, r1}
    2304:	72755f13 	rsbsvc	r5, r5, #76	; 0x4c
    2308:	07d00700 	ldrbeq	r0, [r0, r0, lsl #14]
    230c:	00000025 	andeq	r0, r0, r5, lsr #32
    2310:	02d7103c 	sbcseq	r1, r7, #60, 0	; 0x3c
    2314:	d3070000 	movwle	r0, #28672	; 0x7000
    2318:	00067511 	andeq	r7, r6, r1, lsl r5
    231c:	f9104000 			; <UNDEFINED> instruction: 0xf9104000
    2320:	07000006 	streq	r0, [r0, -r6]
    2324:	068511d4 	pkhtbeq	r1, r5, r4, asr #3
    2328:	13430000 	movtne	r0, #12288	; 0x3000
    232c:	00626c5f 	rsbeq	r6, r2, pc, asr ip
    2330:	2411d707 	ldrcs	sp, [r1], #-1799	; 0xfffff8f9
    2334:	44000003 	strmi	r0, [r0], #-3
    2338:	00032610 	andeq	r2, r3, r0, lsl r6
    233c:	07da0700 	ldrbeq	r0, [sl, r0, lsl #14]
    2340:	00000025 	andeq	r0, r0, r5, lsr #32
    2344:	0352104c 	cmpeq	r2, #76, 0	; 0x4c
    2348:	db070000 	blle	1c2350 <__bss_end__+0x1b7fa8>
    234c:	0000cb0a 	andeq	ip, r0, sl, lsl #22
    2350:	6d105000 	ldcvs	0, cr5, [r0, #-0]
    2354:	0700000a 	streq	r0, [r0, -sl]
    2358:	04b312de 	ldrteq	r1, [r3], #734	; 0x2de
    235c:	10540000 	subsne	r0, r4, r0
    2360:	0000063e 	andeq	r0, r0, lr, lsr r6
    2364:	520ce207 	andpl	lr, ip, #1879048192	; 0x70000000
    2368:	58000001 	stmdapl	r0, {r0}
    236c:	0005ca10 	andeq	ip, r5, r0, lsl sl
    2370:	0ee40700 	cdpeq	7, 14, cr0, cr4, cr0, {0}
    2374:	00000146 	andeq	r0, r0, r6, asr #2
    2378:	0537105c 	ldreq	r1, [r7, #-92]!	; 0xffffffa4
    237c:	e5070000 	str	r0, [r7, #-0]
    2380:	00002509 	andeq	r2, r0, r9, lsl #10
    2384:	17006400 	strne	r6, [r0, -r0, lsl #8]
    2388:	00000025 	andeq	r0, r0, r5, lsr #32
    238c:	000004b3 			; <UNDEFINED> instruction: 0x000004b3
    2390:	0004b318 	andeq	fp, r4, r8, lsl r3
    2394:	00a61800 	adceq	r1, r6, r0, lsl #16
    2398:	5e180000 	cdppl	0, 1, cr0, cr8, cr0, {0}
    239c:	18000001 	stmdane	r0, {r0}
    23a0:	00000025 	andeq	r0, r0, r5, lsr #32
    23a4:	be040800 	cdplt	8, 0, cr0, cr4, cr0, {0}
    23a8:	11000004 	tstne	r0, r4
    23ac:	000004b3 			; <UNDEFINED> instruction: 0x000004b3
    23b0:	00062819 	andeq	r2, r6, r9, lsl r8
    23b4:	07042800 	streq	r2, [r4, -r0, lsl #16]
    23b8:	07080260 	streq	r0, [r8, -r0, ror #4]
    23bc:	1a000006 	bne	23dc <__code_start__-0x5c24>
    23c0:	00000592 	muleq	r0, r2, r5
    23c4:	07026207 	streq	r6, [r2, -r7, lsl #4]
    23c8:	00000025 	andeq	r0, r0, r5, lsr #32
    23cc:	031f1a00 	tsteq	pc, #0, 20
    23d0:	67070000 	strvs	r0, [r7, -r0]
    23d4:	06e10b02 	strbteq	r0, [r1], r2, lsl #22
    23d8:	1a040000 	bne	1023e0 <__bss_end__+0xf8038>
    23dc:	000004ab 	andeq	r0, r0, fp, lsr #9
    23e0:	14026707 	strne	r6, [r2], #-1799	; 0xfffff8f9
    23e4:	000006e1 	andeq	r0, r0, r1, ror #13
    23e8:	046a1a08 	strbteq	r1, [sl], #-2568	; 0xfffff5f8
    23ec:	67070000 	strvs	r0, [r7, -r0]
    23f0:	06e11e02 	strbteq	r1, [r1], r2, lsl #28
    23f4:	1a0c0000 	bne	3023fc <__bss_end__+0x2f8054>
    23f8:	000005eb 	andeq	r0, r0, fp, ror #11
    23fc:	08026907 	stmdaeq	r2, {r0, r1, r2, r8, fp, sp, lr}
    2400:	00000025 	andeq	r0, r0, r5, lsr #32
    2404:	02771a10 	rsbseq	r1, r7, #16, 20	; 0x10000
    2408:	6a070000 	bvs	1c2410 <__bss_end__+0x1b8068>
    240c:	08e10802 	stmiaeq	r1!, {r1, fp}^
    2410:	1a140000 	bne	502418 <__bss_end__+0x4f8070>
    2414:	00000607 	andeq	r0, r0, r7, lsl #12
    2418:	07026d07 	streq	r6, [r2, -r7, lsl #26]
    241c:	00000025 	andeq	r0, r0, r5, lsr #32
    2420:	05f51a30 	ldrbeq	r1, [r5, #2608]!	; 0xa30
    2424:	6e070000 	cdpvs	0, 0, cr0, cr7, cr0, {0}
    2428:	08f61602 	ldmeq	r6!, {r1, r9, sl, ip}^
    242c:	1a340000 	bne	d02434 <__bss_end__+0xcf808c>
    2430:	00000561 	andeq	r0, r0, r1, ror #10
    2434:	07027007 	streq	r7, [r2, -r7]
    2438:	00000025 	andeq	r0, r0, r5, lsr #32
    243c:	05fd1a38 	ldrbeq	r1, [sp, #2616]!	; 0xa38
    2440:	72070000 	andvc	r0, r7, #0, 0
    2444:	09070a02 	stmdbeq	r7, {r1, r9, fp}
    2448:	1a3c0000 	bne	f02450 <__bss_end__+0xef80a8>
    244c:	00000513 	andeq	r0, r0, r3, lsl r5
    2450:	13027507 	movwne	r7, #9479	; 0x2507
    2454:	000001d6 	ldrdeq	r0, [r0], -r6
    2458:	04891a40 	streq	r1, [r9], #2624	; 0xa40
    245c:	76070000 	strvc	r0, [r7], -r0
    2460:	00250702 	eoreq	r0, r5, r2, lsl #14
    2464:	1a440000 	bne	110246c <__bss_end__+0x10f80c4>
    2468:	0000073b 	andeq	r0, r0, fp, lsr r7
    246c:	13027707 	movwne	r7, #9991	; 0x2707
    2470:	000001d6 	ldrdeq	r0, [r0], -r6
    2474:	05731a48 	ldrbeq	r1, [r3, #-2632]!	; 0xfffff5b8
    2478:	78070000 	stmdavc	r7, {}	; <UNPREDICTABLE>
    247c:	090d1402 	stmdbeq	sp, {r1, sl, ip}
    2480:	1a4c0000 	bne	1302488 <__bss_end__+0x12f80e0>
    2484:	000004b3 			; <UNDEFINED> instruction: 0x000004b3
    2488:	07027b07 	streq	r7, [r2, -r7, lsl #22]
    248c:	00000025 	andeq	r0, r0, r5, lsr #32
    2490:	034a1a50 	movteq	r1, #43600	; 0xaa50
    2494:	7c070000 	stcvc	0, cr0, [r7], {-0}
    2498:	015e0902 	cmpeq	lr, r2, lsl #18
    249c:	1a540000 	bne	15024a4 <__bss_end__+0x14f80fc>
    24a0:	0000058b 	andeq	r0, r0, fp, lsl #11
    24a4:	07029f07 	streq	r9, [r2, -r7, lsl #30]
    24a8:	000008bc 			; <UNDEFINED> instruction: 0x000008bc
    24ac:	05591b58 	ldrbeq	r1, [r9, #-2904]	; 0xfffff4a8
    24b0:	a3070000 	movwge	r0, #28672	; 0x7000
    24b4:	03071302 	movweq	r1, #29442	; 0x7302
    24b8:	01480000 	mrseq	r0, (UNDEF: 72)
    24bc:	0004f11b 	andeq	pc, r4, fp, lsl r1	; <UNPREDICTABLE>
    24c0:	02a40700 	adceq	r0, r4, #0, 14
    24c4:	0002c412 	andeq	ip, r2, r2, lsl r4
    24c8:	1b014c00 	blne	554d0 <__bss_end__+0x4b128>
    24cc:	000006ef 	andeq	r0, r0, pc, ror #13
    24d0:	0c02a807 	stceq	8, cr10, [r2], {7}
    24d4:	0000091e 	andeq	r0, r0, lr, lsl r9
    24d8:	081b02dc 	ldmdaeq	fp, {r2, r3, r4, r6, r7, r9}
    24dc:	07000003 	streq	r0, [r0, -r3]
    24e0:	a21002ad 	andsge	r0, r0, #-805306358	; 0xd000000a
    24e4:	e0000006 	and	r0, r0, r6
    24e8:	02ed1b02 	rsceq	r1, sp, #2048	; 0x800
    24ec:	af070000 	svcge	0x00070000
    24f0:	092a0a02 	stmdbeq	sl!, {r1, r9, fp}
    24f4:	02ec0000 	rsceq	r0, ip, #0, 0
    24f8:	95040800 	strls	r0, [r4, #-2048]	; 0xfffff800
    24fc:	17000004 	strne	r0, [r0, -r4]
    2500:	00000025 	andeq	r0, r0, r5, lsr #32
    2504:	0000062b 	andeq	r0, r0, fp, lsr #12
    2508:	0004b318 	andeq	fp, r4, r8, lsl r3
    250c:	00a61800 	adceq	r1, r6, r0, lsl #16
    2510:	2b180000 	blcs	602518 <__bss_end__+0x5f8170>
    2514:	18000006 	stmdane	r0, {r1, r2}
    2518:	00000025 	andeq	r0, r0, r5, lsr #32
    251c:	6b040800 	blvs	104524 <__bss_end__+0xfa17c>
    2520:	08000001 	stmdaeq	r0, {r0}
    2524:	00060d04 	andeq	r0, r6, r4, lsl #26
    2528:	00d71700 	sbcseq	r1, r7, r0, lsl #14
    252c:	06550000 	ldrbeq	r0, [r5], -r0
    2530:	b3180000 	tstlt	r8, #0, 0
    2534:	18000004 	stmdane	r0, {r2}
    2538:	000000a6 	andeq	r0, r0, r6, lsr #1
    253c:	0000d718 	andeq	sp, r0, r8, lsl r7
    2540:	00251800 	eoreq	r1, r5, r0, lsl #16
    2544:	08000000 	stmdaeq	r0, {}	; <UNPREDICTABLE>
    2548:	00063704 	andeq	r3, r6, r4, lsl #14
    254c:	00251700 	eoreq	r1, r5, r0, lsl #14
    2550:	066f0000 	strbteq	r0, [pc], -r0
    2554:	b3180000 	tstlt	r8, #0, 0
    2558:	18000004 	stmdane	r0, {r2}
    255c:	000000a6 	andeq	r0, r0, r6, lsr #1
    2560:	5b040800 	blpl	104568 <__bss_end__+0xfa1c0>
    2564:	0d000006 	stceq	0, cr0, [r0, #-24]	; 0xffffffe8
    2568:	0000004f 	andeq	r0, r0, pc, asr #32
    256c:	00000685 	andeq	r0, r0, r5, lsl #13
    2570:	00002c0e 	andeq	r2, r0, lr, lsl #24
    2574:	0d000200 	sfmeq	f0, 4, [r0, #-0]
    2578:	0000004f 	andeq	r0, r0, pc, asr #32
    257c:	00000695 	muleq	r0, r5, r6
    2580:	00002c0e 	andeq	r2, r0, lr, lsl #24
    2584:	0a000000 	beq	258c <__code_start__-0x5a74>
    2588:	000005b0 			; <UNDEFINED> instruction: 0x000005b0
    258c:	1a011f07 	bne	4a1b0 <__bss_end__+0x3fe08>
    2590:	00000352 	andeq	r0, r0, r2, asr r3
    2594:	0006d61c 	andeq	sp, r6, ip, lsl r6
    2598:	23070c00 	movwcs	r0, #31744	; 0x7c00
    259c:	06db0801 	ldrbeq	r0, [fp], r1, lsl #16
    25a0:	d81a0000 	ldmdale	sl, {}	; <UNPREDICTABLE>
    25a4:	07000005 	streq	r0, [r0, -r5]
    25a8:	db110125 	blle	442a44 <__bss_end__+0x43869c>
    25ac:	00000006 	andeq	r0, r0, r6
    25b0:	0004ea1a 	andeq	lr, r4, sl, lsl sl
    25b4:	01260700 			; <UNDEFINED> instruction: 0x01260700
    25b8:	00002507 	andeq	r2, r0, r7, lsl #10
    25bc:	aa1a0400 	bge	6835c4 <__bss_end__+0x67921c>
    25c0:	07000005 	streq	r0, [r0, -r5]
    25c4:	e10b0127 	tst	fp, r7, lsr #2
    25c8:	08000006 	stmdaeq	r0, {r1, r2}
    25cc:	a2040800 	andge	r0, r4, #0, 16
    25d0:	08000006 	stmdaeq	r0, {r1, r2}
    25d4:	00069504 	andeq	r9, r6, r4, lsl #10
    25d8:	026f1c00 	rsbeq	r1, pc, #0, 24
    25dc:	070e0000 	streq	r0, [lr, -r0]
    25e0:	2008013f 	andcs	r0, r8, pc, lsr r1
    25e4:	1a000007 	bne	2608 <__code_start__-0x59f8>
    25e8:	0000062f 	andeq	r0, r0, pc, lsr #12
    25ec:	12014007 	andne	r4, r1, #7, 0
    25f0:	00000720 	andeq	r0, r0, r0, lsr #14
    25f4:	06691a00 	strbteq	r1, [r9], -r0, lsl #20
    25f8:	41070000 	mrsmi	r0, (UNDEF: 7)
    25fc:	07201201 	streq	r1, [r0, -r1, lsl #4]!
    2600:	1a060000 	bne	182608 <__bss_end__+0x178260>
    2604:	0000068d 	andeq	r0, r0, sp, lsl #13
    2608:	12014207 	andne	r4, r1, #1879048192	; 0x70000000
    260c:	00000056 	andeq	r0, r0, r6, asr r0
    2610:	560d000c 	strpl	r0, [sp], -ip
    2614:	30000000 	andcc	r0, r0, r0
    2618:	0e000007 	cdpeq	0, 0, cr0, cr0, cr7, {0}
    261c:	0000002c 	andeq	r0, r0, ip, lsr #32
    2620:	d01d0002 	andsle	r0, sp, r2
    2624:	07028007 	streq	r8, [r2, -r7]
    2628:	00000845 	andeq	r0, r0, r5, asr #16
    262c:	0006ba1a 	andeq	fp, r6, sl, lsl sl
    2630:	02820700 	addeq	r0, r2, #0, 14
    2634:	00002c18 	andeq	r2, r0, r8, lsl ip
    2638:	6f1a0000 	svcvs	0x001a0000
    263c:	07000006 	streq	r0, [r0, -r6]
    2640:	5e120283 	cdppl	2, 1, cr0, cr2, cr3, {4}
    2644:	04000001 	streq	r0, [r0], #-1
    2648:	0005061a 	andeq	r0, r5, sl, lsl r6
    264c:	02840700 	addeq	r0, r4, #0, 14
    2650:	00084510 	andeq	r4, r8, r0, lsl r5
    2654:	121a0800 	andsne	r0, sl, #0, 16
    2658:	07000007 	streq	r0, [r0, -r7]
    265c:	ec170285 	lfm	f0, 4, [r7], {133}	; 0x85
    2660:	24000001 	strcs	r0, [r0], #-1
    2664:	00047a1a 	andeq	r7, r4, sl, lsl sl
    2668:	02860700 	addeq	r0, r6, #0, 14
    266c:	0000250f 	andeq	r2, r0, pc, lsl #10
    2670:	d31a4800 	tstle	sl, #0, 16
    2674:	07000005 	streq	r0, [r0, -r5]
    2678:	7c2c0287 	sfmvc	f0, 4, [ip], #-540	; 0xfffffde4
    267c:	50000000 	andpl	r0, r0, r0
    2680:	0007281a 	andeq	r2, r7, sl, lsl r8
    2684:	02880700 	addeq	r0, r8, #0, 14
    2688:	0006e71a 	andeq	lr, r6, sl, lsl r7
    268c:	de1a5800 	cdple	8, 1, cr5, cr10, cr0, {0}
    2690:	07000005 	streq	r0, [r0, -r5]
    2694:	46160289 	ldrmi	r0, [r6], -r9, lsl #5
    2698:	68000001 	stmdavs	r0, {r0}
    269c:	00072d1a 	andeq	r2, r7, sl, lsl sp
    26a0:	028a0700 	addeq	r0, sl, #0, 14
    26a4:	00014616 	andeq	r4, r1, r6, lsl r6
    26a8:	7d1a7000 	ldcvc	0, cr7, [sl, #-0]
    26ac:	07000005 	streq	r0, [r0, -r5]
    26b0:	4616028b 	ldrmi	r0, [r6], -fp, lsl #5
    26b4:	78000001 	stmdavc	r0, {r0}
    26b8:	0006e51a 	andeq	lr, r6, sl, lsl r5
    26bc:	028c0700 	addeq	r0, ip, #0, 14
    26c0:	00085510 	andeq	r5, r8, r0, lsl r5
    26c4:	fa1a8000 	blx	6a26cc <__bss_end__+0x698324>
    26c8:	07000004 	streq	r0, [r0, -r4]
    26cc:	6510028d 	ldrvs	r0, [r0, #-653]	; 0xfffffd73
    26d0:	88000008 	stmdahi	r0, {r3}
    26d4:	00069a1a 	andeq	r9, r6, sl, lsl sl
    26d8:	028e0700 	addeq	r0, lr, #0, 14
    26dc:	0000250f 	andeq	r2, r0, pc, lsl #10
    26e0:	401aa000 	andsmi	sl, sl, r0
    26e4:	07000004 	streq	r0, [r0, -r4]
    26e8:	4616028f 	ldrmi	r0, [r6], -pc, lsl #5
    26ec:	a4000001 	strge	r0, [r0], #-1
    26f0:	0002bf1a 	andeq	fp, r2, sl, lsl pc
    26f4:	02900700 	addseq	r0, r0, #0, 14
    26f8:	00014616 	andeq	r4, r1, r6, lsl r6
    26fc:	2f1aac00 	svccs	0x001aac00
    2700:	07000004 	streq	r0, [r0, -r4]
    2704:	46160291 			; <UNDEFINED> instruction: 0x46160291
    2708:	b4000001 	strlt	r0, [r0], #-1
    270c:	00028b1a 	andeq	r8, r2, sl, lsl fp
    2710:	02920700 	addseq	r0, r2, #0, 14
    2714:	00014616 	andeq	r4, r1, r6, lsl r6
    2718:	9a1abc00 	bls	6b1720 <__bss_end__+0x6a7378>
    271c:	07000002 	streq	r0, [r0, -r2]
    2720:	46160293 			; <UNDEFINED> instruction: 0x46160293
    2724:	c4000001 	strgt	r0, [r0], #-1
    2728:	0005901a 	andeq	r9, r5, sl, lsl r0
    272c:	02940700 	addseq	r0, r4, #0, 14
    2730:	00002508 	andeq	r2, r0, r8, lsl #10
    2734:	0d00cc00 	stceq	12, cr12, [r0, #-0]
    2738:	00000164 	andeq	r0, r0, r4, ror #2
    273c:	00000855 	andeq	r0, r0, r5, asr r8
    2740:	00002c0e 	andeq	r2, r0, lr, lsl #24
    2744:	0d001900 	vstreq.16	s2, [r0, #-0]	; <UNPREDICTABLE>
    2748:	00000164 	andeq	r0, r0, r4, ror #2
    274c:	00000865 	andeq	r0, r0, r5, ror #16
    2750:	00002c0e 	andeq	r2, r0, lr, lsl #24
    2754:	0d000700 	stceq	7, cr0, [r0, #-0]
    2758:	00000164 	andeq	r0, r0, r4, ror #2
    275c:	00000875 	andeq	r0, r0, r5, ror r8
    2760:	00002c0e 	andeq	r2, r0, lr, lsl #24
    2764:	1d001700 	stcne	7, cr1, [r0, #-0]
    2768:	029907f0 	addseq	r0, r9, #240, 14	; 0x3c00000
    276c:	00089c07 	andeq	r9, r8, r7, lsl #24
    2770:	05491a00 	strbeq	r1, [r9, #-2560]	; 0xfffff600
    2774:	9c070000 	stcls	0, cr0, [r7], {-0}
    2778:	089c1b02 	ldmeq	ip, {r1, r8, r9, fp, ip}
    277c:	1a000000 	bne	2784 <__code_start__-0x587c>
    2780:	000006dc 	ldrdeq	r0, [r0], -ip
    2784:	18029d07 	stmdane	r2, {r0, r1, r2, r8, sl, fp, ip, pc}
    2788:	000008ac 	andeq	r0, r0, ip, lsr #17
    278c:	4c0d0078 	stcmi	0, cr0, [sp], {120}	; 0x78
    2790:	ac000003 	stcge	0, cr0, [r0], {3}
    2794:	0e000008 	cdpeq	0, 0, cr0, cr0, cr8, {0}
    2798:	0000002c 	andeq	r0, r0, ip, lsr #32
    279c:	2c0d001d 	stccs	0, cr0, [sp], {29}
    27a0:	bc000000 	stclt	0, cr0, [r0], {-0}
    27a4:	0e000008 	cdpeq	0, 0, cr0, cr0, cr8, {0}
    27a8:	0000002c 	andeq	r0, r0, ip, lsr #32
    27ac:	f01e001d 			; <UNDEFINED> instruction: 0xf01e001d
    27b0:	03027e07 	movweq	r7, #11783	; 0x2e07
    27b4:	000008e1 	andeq	r0, r0, r1, ror #17
    27b8:	0006281f 	andeq	r2, r6, pc, lsl r8
    27bc:	02950700 	addseq	r0, r5, #0, 14
    27c0:	0007300b 	andeq	r3, r7, fp
    27c4:	06ff1f00 	ldrbteq	r1, [pc], r0, lsl #30
    27c8:	9e070000 	cdpls	0, 0, cr0, cr7, cr0, {0}
    27cc:	08750b02 	ldmdaeq	r5!, {r1, r8, r9, fp}^
    27d0:	0d000000 	stceq	0, cr0, [r0, #-0]
    27d4:	00000164 	andeq	r0, r0, r4, ror #2
    27d8:	000008f1 	strdeq	r0, [r0], -r1
    27dc:	00002c0e 	andeq	r2, r0, lr, lsl #24
    27e0:	09001800 	stmdbeq	r0, {fp, ip}
    27e4:	000002b4 			; <UNDEFINED> instruction: 0x000002b4
    27e8:	08f10408 	ldmeq	r1!, {r3, sl}^
    27ec:	07200000 	streq	r0, [r0, -r0]!
    27f0:	18000009 	stmdane	r0, {r0, r3}
    27f4:	000004b3 			; <UNDEFINED> instruction: 0x000004b3
    27f8:	fc040800 	stc2	8, cr0, [r4], {-0}
    27fc:	08000008 	stmdaeq	r0, {r3}
    2800:	0001d604 	andeq	sp, r1, r4, lsl #12
    2804:	091e2000 	ldmdbeq	lr, {sp}
    2808:	25180000 	ldrcs	r0, [r8, #-0]
    280c:	00000000 	andeq	r0, r0, r0
    2810:	09240408 	stmdbeq	r4!, {r3, sl}
    2814:	04080000 	streq	r0, [r8], #-0
    2818:	00000913 	andeq	r0, r0, r3, lsl r9
    281c:	0006950d 	andeq	r9, r6, sp, lsl #10
    2820:	00093a00 	andeq	r3, r9, r0, lsl #20
    2824:	002c0e00 	eoreq	r0, ip, r0, lsl #28
    2828:	00020000 	andeq	r0, r2, r0
    282c:	0006ae21 	andeq	sl, r6, r1, lsr #28
    2830:	032e0700 			; <UNDEFINED> instruction: 0x032e0700
    2834:	0004b317 	andeq	fp, r4, r7, lsl r3
    2838:	06a72100 	strteq	r2, [r7], r0, lsl #2
    283c:	2f070000 	svccs	0x00070000
    2840:	04b91d03 	ldrteq	r1, [r9], #3331	; 0xd03
    2844:	52040000 	andpl	r0, r4, #0, 0
    2848:	08000006 	stmdaeq	r0, {r1, r2}
    284c:	09600f21 	stmdbeq	r0!, {r0, r5, r8, r9, sl, fp}^
    2850:	04080000 	streq	r0, [r8], #-0
    2854:	00000966 	andeq	r0, r0, r6, ror #18
    2858:	00002517 	andeq	r2, r0, r7, lsl r5
    285c:	00097500 	andeq	r7, r9, r0, lsl #10
    2860:	00251800 	eoreq	r1, r5, r0, lsl #16
    2864:	22000000 	andcs	r0, r0, #0, 0
    2868:	00000493 	muleq	r0, r3, r4
    286c:	54162308 	ldrpl	r2, [r6], #-776	; 0xfffffcf8
    2870:	23000009 	movwcs	r0, #9
    2874:	00000784 	andeq	r0, r0, r4, lsl #15
    2878:	25056a01 	strcs	r6, [r5, #-2561]	; 0xfffff5ff
    287c:	a0000000 	andge	r0, r0, r0
    2880:	2c000093 	stccs	0, cr0, [r0], {147}	; 0x93
    2884:	01000000 	mrseq	r0, (UNDEF: 0)
    2888:	0009e69c 	muleq	r9, ip, r6
    288c:	6d662400 	cfstrdvs	mvd2, [r6, #-0]
    2890:	6a010074 	bvs	42a68 <__bss_end__+0x386c0>
    2894:	00062b18 	andeq	r2, r6, r8, lsl fp
    2898:	70910200 	addsvc	r0, r1, r0, lsl #4
    289c:	02fb2625 	rscseq	r2, fp, #38797312	; 0x2500000
    28a0:	6b010000 	blvs	428a8 <__bss_end__+0x38500>
    28a4:	0000a80d 	andeq	sl, r0, sp, lsl #16
    28a8:	64910200 	ldrvs	r0, [r1], #512	; 0x200
    28ac:	74657227 	strbtvc	r7, [r5], #-551	; 0xfffffdd9
    28b0:	096d0100 	stmdbeq	sp!, {r8}^
    28b4:	00000025 	andeq	r0, r0, r5, lsr #32
    28b8:	00000a00 	andeq	r0, r0, r0, lsl #20
    28bc:	000009fe 	strdeq	r0, [r0], -lr
    28c0:	0093bc28 	addseq	fp, r3, r8, lsr #24
    28c4:	0009e600 	andeq	lr, r9, r0, lsl #12
    28c8:	50012900 	andpl	r2, r1, r0, lsl #18
    28cc:	06489103 	strbeq	r9, [r8], -r3, lsl #2
    28d0:	02510129 	subseq	r0, r1, #1073741834	; 0x4000000a
    28d4:	00004c91 	muleq	r0, r1, ip
    28d8:	0007832a 	andeq	r8, r7, sl, lsr #6
    28dc:	05270100 	streq	r0, [r7, #-256]!	; 0xffffff00
    28e0:	00000025 	andeq	r0, r0, r5, lsr #32
    28e4:	000094dc 	ldrdeq	r9, [r0], -ip
    28e8:	000002e0 	andeq	r0, r0, r0, ror #5
    28ec:	0c279c01 	stceq	12, cr9, [r7], #-4
    28f0:	662b0000 	strtvs	r0, [fp], -r0
    28f4:	0100746d 	tsteq	r0, sp, ror #8
    28f8:	062b1927 	strteq	r1, [fp], -r7, lsr #18
    28fc:	0a270000 	beq	9c2904 <__bss_end__+0x9b855c>
    2900:	0a130000 	beq	4c2908 <__bss_end__+0x4b8560>
    2904:	61240000 			; <UNDEFINED> instruction: 0x61240000
    2908:	27010070 	smlsdxcs	r1, r0, r0, r0
    290c:	0000a826 	andeq	sl, r0, r6, lsr #16
    2910:	6c910200 	lfmvs	f0, 4, [r1], {0}
    2914:	0000b02c 	andeq	fp, r0, ip, lsr #32
    2918:	000c3700 	andeq	r3, ip, r0, lsl #14
    291c:	54030500 	strpl	r0, [r3], #-1280	; 0xfffffb00
    2920:	2d0000a3 	stccs	0, cr0, [r0, #-652]	; 0xfffffd74
    2924:	00000090 	muleq	r0, r0, r0
    2928:	0100752e 	tsteq	r0, lr, lsr #10
    292c:	005d162e 	subseq	r1, sp, lr, lsr #12
    2930:	76270000 	strtvc	r0, [r7], -r0
    2934:	112f0100 			; <UNDEFINED> instruction: 0x112f0100
    2938:	00000025 	andeq	r0, r0, r5, lsr #32
    293c:	00000aa4 	andeq	r0, r0, r4, lsr #21
    2940:	00000aa0 	andeq	r0, r0, r0, lsr #21
    2944:	01007327 	tsteq	r0, r7, lsr #6
    2948:	015e1330 	cmpeq	lr, r0, lsr r3
    294c:	0ac40000 	beq	ff102954 <__bss_end__+0xff0f85ac>
    2950:	0ac20000 	beq	ff082958 <__bss_end__+0xff0785b0>
    2954:	a82d0000 	stmdage	sp!, {}	; <UNPREDICTABLE>
    2958:	2f000000 	svccs	0x00000000
    295c:	42010078 	andmi	r0, r1, #120, 0	; 0x78
    2960:	0000701a 	andeq	r7, r0, sl, lsl r0
    2964:	93540600 	cmpls	r4, #0, 12
    2968:	04935104 	ldreq	r5, [r3], #260	; 0x104
    296c:	00696827 	rsbeq	r6, r9, r7, lsr #16
    2970:	5d1a4601 	ldcpl	6, cr4, [sl, #-4]
    2974:	db000000 	blle	297c <__code_start__-0x5684>
    2978:	d700000a 	strle	r0, [r0, -sl]
    297c:	2700000a 	strcs	r0, [r0, -sl]
    2980:	01006f6c 	tsteq	r0, ip, ror #30
    2984:	005d1a47 	subseq	r1, sp, r7, asr #20
    2988:	0afd0000 	beq	fff42990 <__bss_end__+0xfff385e8>
    298c:	0af90000 	beq	ffe42994 <__bss_end__+0xffe385ec>
    2990:	c8300000 	ldmdagt	r0!, {}	; <UNPREDICTABLE>
    2994:	3c000095 	stccc	0, cr0, [r0], {149}	; 0x95
    2998:	b300000c 	movwlt	r0, #12
    299c:	2900000a 	stmdbcs	r0, {r1, r3}
    29a0:	32015001 	andcc	r5, r1, #1, 0
    29a4:	95e83000 	strbls	r3, [r8, #0]!
    29a8:	0c3c0000 	ldceq	0, cr0, [ip], #-0
    29ac:	0ac60000 	beq	ff1829b4 <__bss_end__+0xff17860c>
    29b0:	01290000 			; <UNDEFINED> instruction: 0x01290000
    29b4:	003a0150 	eorseq	r0, sl, r0, asr r1
    29b8:	00964431 	addseq	r4, r6, r1, lsr r4
    29bc:	000ad600 	andeq	sp, sl, r0, lsl #12
    29c0:	50012900 	andpl	r2, r1, r0, lsl #18
    29c4:	00300802 	eorseq	r0, r0, r2, lsl #16
    29c8:	00965031 	addseq	r5, r6, r1, lsr r0
    29cc:	000ae600 	andeq	lr, sl, r0, lsl #12
    29d0:	50012900 	andpl	r2, r1, r0, lsl #18
    29d4:	00780802 	rsbseq	r0, r8, r2, lsl #16
    29d8:	00968030 	addseq	r8, r6, r0, lsr r0
    29dc:	000c3c00 	andeq	r3, ip, r0, lsl #24
    29e0:	000aff00 	andeq	pc, sl, r0, lsl #30
    29e4:	50012900 	andpl	r2, r1, r0, lsl #18
    29e8:	01294001 			; <UNDEFINED> instruction: 0x01294001
    29ec:	00740251 	rsbseq	r0, r4, r1, asr r2
    29f0:	96a03000 	strtls	r3, [r0], r0
    29f4:	09810000 	stmibeq	r1, {}	; <UNPREDICTABLE>
    29f8:	0b350000 	bleq	d42a00 <__bss_end__+0xd38658>
    29fc:	01290000 			; <UNDEFINED> instruction: 0x01290000
    2a00:	e8030550 	stmda	r3, {r4, r6, r8, sl}
    2a04:	290000a2 	stmdbcs	r0, {r1, r5, r7}
    2a08:	03055101 	movweq	r5, #20737	; 0x5101
    2a0c:	0000a290 	muleq	r0, r0, r2
    2a10:	05520129 	ldrbeq	r0, [r2, #-297]	; 0xfffffed7
    2a14:	00a35403 	adceq	r5, r3, r3, lsl #8
    2a18:	53012900 	movwpl	r2, #6400	; 0x1900
    2a1c:	293b0802 	ldmdbcs	fp!, {r1, fp}
    2a20:	02007d02 	andeq	r7, r0, #128	; 0x80
    2a24:	32000274 	andcc	r0, r0, #116, 4	; 0x40000007
    2a28:	000096a4 	andeq	r9, r0, r4, lsr #13
    2a2c:	00000d0d 	andeq	r0, r0, sp, lsl #26
    2a30:	0096bc30 	addseq	fp, r6, r0, lsr ip
    2a34:	00098100 	andeq	r8, r9, r0, lsl #2
    2a38:	000b7400 	andeq	r7, fp, r0, lsl #8
    2a3c:	50012900 	andpl	r2, r1, r0, lsl #18
    2a40:	a2e80305 	rscge	r0, r8, #335544320	; 0x14000000
    2a44:	01290000 			; <UNDEFINED> instruction: 0x01290000
    2a48:	90030551 	andls	r0, r3, r1, asr r5
    2a4c:	290000a2 	stmdbcs	r0, {r1, r5, r7}
    2a50:	03055201 	movweq	r5, #20993	; 0x5201
    2a54:	0000a354 	andeq	sl, r0, r4, asr r3
    2a58:	02530129 	subseq	r0, r3, #1073741834	; 0x4000000a
    2a5c:	02293e08 	eoreq	r3, r9, #8, 28	; 0x80
    2a60:	7502007d 	strvc	r0, [r2, #-125]	; 0xffffff83
    2a64:	c0320000 	eorsgt	r0, r2, r0
    2a68:	0d000096 	stceq	0, cr0, [r0, #-600]	; 0xfffffda8
    2a6c:	3000000d 	andcc	r0, r0, sp
    2a70:	000096c8 	andeq	r9, r0, r8, asr #13
    2a74:	00000c3c 	andeq	r0, r0, ip, lsr ip
    2a78:	00000b90 	muleq	r0, r0, fp
    2a7c:	01500129 	cmpeq	r0, r9, lsr #2
    2a80:	dc310040 	ldcle	0, cr0, [r1], #-256	; 0xffffff00
    2a84:	a0000096 	mulge	r0, r6, r0
    2a88:	2900000b 	stmdbcs	r0, {r0, r1, r3}
    2a8c:	08025001 	stmdaeq	r2, {r0, ip, lr}
    2a90:	e8310030 	ldmda	r1!, {r4, r5}
    2a94:	b0000096 	mullt	r0, r6, r0
    2a98:	2900000b 	stmdbcs	r0, {r0, r1, r3}
    2a9c:	08025001 	stmdaeq	r2, {r0, ip, lr}
    2aa0:	00300078 	eorseq	r0, r0, r8, ror r0
    2aa4:	3c000097 	stccc	0, cr0, [r0], {151}	; 0x97
    2aa8:	c300000c 	movwgt	r0, #12
    2aac:	2900000b 	stmdbcs	r0, {r0, r1, r3}
    2ab0:	40015001 	andmi	r5, r1, r1
    2ab4:	972c3000 	strls	r3, [ip, -r0]!
    2ab8:	0c3c0000 	ldceq	0, cr0, [ip], #-0
    2abc:	0bdc0000 	bleq	ff702ac4 <__bss_end__+0xff6f871c>
    2ac0:	01290000 			; <UNDEFINED> instruction: 0x01290000
    2ac4:	293a0150 	ldmdbcs	sl!, {r4, r6, r8}
    2ac8:	74025101 	strvc	r5, [r2], #-257	; 0xfffffeff
    2acc:	44310000 	ldrtmi	r0, [r1], #-0
    2ad0:	ec000097 	stc	0, cr0, [r0], {151}	; 0x97
    2ad4:	2900000b 	stmdbcs	r0, {r0, r1, r3}
    2ad8:	08025001 	stmdaeq	r2, {r0, ip, lr}
    2adc:	9c30002d 	ldcls	0, cr0, [r0], #-180	; 0xffffff4c
    2ae0:	81000097 	swphi	r0, r7, [r0]	; <UNPREDICTABLE>
    2ae4:	1b000009 	blne	2b10 <__code_start__-0x54f0>
    2ae8:	2900000c 	stmdbcs	r0, {r2, r3}
    2aec:	03055001 	movweq	r5, #20481	; 0x5001
    2af0:	0000a320 	andeq	sl, r0, r0, lsr #6
    2af4:	05510129 	ldrbeq	r0, [r1, #-297]	; 0xfffffed7
    2af8:	00a29003 	adceq	r9, r2, r3
    2afc:	52012900 	andpl	r2, r1, #0, 18
    2b00:	a3540305 	cmpge	r4, #335544320	; 0x14000000
    2b04:	01290000 			; <UNDEFINED> instruction: 0x01290000
    2b08:	63080253 	movwvs	r0, #33363	; 0x8253
    2b0c:	97a03200 	strls	r3, [r0, r0, lsl #4]!
    2b10:	0d0d0000 	stceq	0, cr0, [sp, #-0]
    2b14:	00000000 	andeq	r0, r0, r0
    2b18:	016b0d00 	cmneq	fp, r0, lsl #26
    2b1c:	0c370000 	ldceq	0, cr0, [r7], #-0
    2b20:	2c0e0000 	stccs	0, cr0, [lr], {-0}
    2b24:	07000000 	streq	r0, [r0, -r0]
    2b28:	0c271100 	stfeqs	f1, [r7], #-0
    2b2c:	90330000 	eorsls	r0, r3, r0
    2b30:	01000007 	tsteq	r0, r7
    2b34:	93cc0d07 	bicls	r0, ip, #448	; 0x1c0
    2b38:	01100000 	tsteq	r0, r0
    2b3c:	9c010000 	stcls	0, cr0, [r1], {-0}
    2b40:	00000ce8 	andeq	r0, r0, r8, ror #25
    2b44:	0002de34 	andeq	sp, r2, r4, lsr lr
    2b48:	1f070100 	svcne	0x00070100
    2b4c:	0000002c 	andeq	r0, r0, ip, lsr #32
    2b50:	00000b2d 	andeq	r0, r0, sp, lsr #22
    2b54:	00000b1b 	andeq	r0, r0, fp, lsl fp
    2b58:	0100752b 	tsteq	r0, fp, lsr #10
    2b5c:	005d2e07 	subseq	r2, sp, r7, lsl #28
    2b60:	0bb10000 	bleq	fec42b68 <__bss_end__+0xfec387c0>
    2b64:	0ba50000 	bleq	fe942b6c <__bss_end__+0xfe9387c4>
    2b68:	6e2f0000 	cdpvs	0, 2, cr0, cr15, cr0, {0}
    2b6c:	01006d75 	tsteq	r0, r5, ror sp
    2b70:	0ce80a08 	vstmiaeq	r8!, {s1-s8}
    2b74:	91020000 	mrsls	r0, (UNDEF: 2)
    2b78:	00702754 	rsbseq	r2, r0, r4, asr r7
    2b7c:	5e140801 	cdppl	8, 1, cr0, cr4, cr1, {0}
    2b80:	16000001 	strne	r0, [r0], -r1
    2b84:	fe00000c 	cdp2	0, 0, cr0, cr0, cr12, {0}
    2b88:	2c00000b 	stccs	0, cr0, [r0], {11}
    2b8c:	000000b0 	strheq	r0, [r0], -r0	; <UNPREDICTABLE>
    2b90:	00000d08 	andeq	r0, r0, r8, lsl #26
    2b94:	a3480305 	movtge	r0, #33541	; 0x8305
    2b98:	04300000 	ldrteq	r0, [r0], #-0
    2b9c:	81000094 	swphi	r0, r4, [r0]	; <UNPREDICTABLE>
    2ba0:	de000009 	cdple	0, 0, cr0, cr0, cr9, {0}
    2ba4:	2900000c 	stmdbcs	r0, {r2, r3}
    2ba8:	03055001 	movweq	r5, #20481	; 0x5001
    2bac:	0000a2a0 	andeq	sl, r0, r0, lsr #5
    2bb0:	05510129 	ldrbeq	r0, [r1, #-297]	; 0xfffffed7
    2bb4:	00a29003 	adceq	r9, r2, r3
    2bb8:	52012900 	andpl	r2, r1, #0, 18
    2bbc:	a3480305 	movtge	r0, #33541	; 0x8305
    2bc0:	01290000 			; <UNDEFINED> instruction: 0x01290000
    2bc4:	294b0153 	stmdbcs	fp, {r0, r1, r4, r6, r8}^
    2bc8:	03007d02 	movweq	r7, #3330	; 0xd02
    2bcc:	005001f3 	ldrsheq	r0, [r0], #-19	; 0xffffffed
    2bd0:	00940832 	addseq	r0, r4, r2, lsr r8
    2bd4:	000d0d00 	andeq	r0, sp, r0, lsl #26
    2bd8:	640d0000 	strvs	r0, [sp], #-0
    2bdc:	f8000001 			; <UNDEFINED> instruction: 0xf8000001
    2be0:	0e00000c 	cdpeq	0, 0, cr0, cr0, cr12, {0}
    2be4:	0000002c 	andeq	r0, r0, ip, lsr #32
    2be8:	6b0d0020 	blvs	342c70 <__bss_end__+0x3388c8>
    2bec:	08000001 	stmdaeq	r0, {r0}
    2bf0:	0e00000d 	cdpeq	0, 0, cr0, cr0, cr13, {0}
    2bf4:	0000002c 	andeq	r0, r0, ip, lsr #32
    2bf8:	f8110008 			; <UNDEFINED> instruction: 0xf8110008
    2bfc:	3500000c 	strcc	r0, [r0, #-12]
    2c00:	00000068 	andeq	r0, r0, r8, rrx
    2c04:	00000068 	andeq	r0, r0, r8, rrx
    2c08:	00067608 	andeq	r7, r6, r8, lsl #12
    2c0c:	000009d1 	ldrdeq	r0, [r0], -r1
    2c10:	0a120004 	beq	482c28 <__bss_end__+0x478880>
    2c14:	01040000 	mrseq	r0, (UNDEF: 4)
    2c18:	0000035a 	andeq	r0, r0, sl, asr r3
    2c1c:	0007990c 	andeq	r9, r7, ip, lsl #18
    2c20:	0004c100 	andeq	ip, r4, r0, lsl #2
    2c24:	0097bc00 	addseq	fp, r7, r0, lsl #24
    2c28:	00003000 	andeq	r3, r0, r0
    2c2c:	000c9f00 	andeq	r9, ip, r0, lsl #30
    2c30:	05040200 	streq	r0, [r4, #-512]	; 0xfffffe00
    2c34:	00746e69 	rsbseq	r6, r4, r9, ror #28
    2c38:	ae070403 	cdpge	4, 0, cr0, cr7, cr3, {0}
    2c3c:	03000001 	movweq	r0, #1
    2c40:	005c0601 	subseq	r0, ip, r1, lsl #12
    2c44:	02030000 	andeq	r0, r3, #0, 0
    2c48:	0001fe05 	andeq	pc, r1, r5, lsl #28
    2c4c:	05040300 	streq	r0, [r4, #-768]	; 0xfffffd00
    2c50:	000001ed 	andeq	r0, r0, sp, ror #3
    2c54:	e8050803 	stmda	r5, {r0, r1, fp}
    2c58:	03000001 	movweq	r0, #1
    2c5c:	005a0801 	subseq	r0, sl, r1, lsl #16
    2c60:	02030000 	andeq	r0, r3, #0, 0
    2c64:	00001c07 	andeq	r1, r0, r7, lsl #24
    2c68:	07040300 	streq	r0, [r4, -r0, lsl #6]
    2c6c:	000001a9 	andeq	r0, r0, r9, lsr #3
    2c70:	a4070803 	strge	r0, [r7], #-2051	; 0xfffff7fd
    2c74:	04000001 	streq	r0, [r0], #-1
    2c78:	05280504 	streq	r0, [r8, #-1284]!	; 0xfffffafc
    2c7c:	22020000 	andcs	r0, r2, #0, 0
    2c80:	00007919 	andeq	r7, r0, r9, lsl r9
    2c84:	7f040600 	svcvc	0x00040600
    2c88:	07000000 	streq	r0, [r0, -r0]
    2c8c:	0000063d 	andeq	r0, r0, sp, lsr r6
    2c90:	00056c05 	andeq	r6, r5, r5, lsl #24
    2c94:	0e2c0300 	cdpeq	3, 2, cr0, cr12, cr0, {0}
    2c98:	00000041 	andeq	r0, r0, r1, asr #32
    2c9c:	00064a05 	andeq	r4, r6, r5, lsl #20
    2ca0:	0e720300 	cdpeq	3, 7, cr0, cr2, cr0, {0}
    2ca4:	00000041 	andeq	r0, r0, r1, asr #32
    2ca8:	00053008 	andeq	r3, r5, r8
    2cac:	015e0400 	cmpeq	lr, r0, lsl #8
    2cb0:	00002c17 	andeq	r2, r0, r7, lsl ip
    2cb4:	03040900 	movweq	r0, #18688	; 0x4900
    2cb8:	00cb03a6 	sbceq	r0, fp, r6, lsr #7
    2cbc:	1b0a0000 	blne	282cc4 <__bss_end__+0x27891c>
    2cc0:	03000005 	movweq	r0, #5
    2cc4:	009c0ca8 	addseq	r0, ip, r8, lsr #25
    2cc8:	a40a0000 	strge	r0, [sl], #-0
    2ccc:	03000004 	movweq	r0, #4
    2cd0:	00cb13a9 	sbceq	r1, fp, r9, lsr #7
    2cd4:	0b000000 	bleq	2cdc <__code_start__-0x5324>
    2cd8:	0000004f 	andeq	r0, r0, pc, asr #32
    2cdc:	000000db 	ldrdeq	r0, [r0], -fp
    2ce0:	00002c0c 	andeq	r2, r0, ip, lsl #24
    2ce4:	0d000300 	stceq	3, cr0, [r0, #-0]
    2ce8:	09a30308 	stmibeq	r3!, {r3, r8, r9}
    2cec:	000000ff 	strdeq	r0, [r0], -pc	; <UNPREDICTABLE>
    2cf0:	0006350e 	andeq	r3, r6, lr, lsl #10
    2cf4:	07a50300 	streq	r0, [r5, r0, lsl #6]!
    2cf8:	00000025 	andeq	r0, r0, r5, lsr #32
    2cfc:	067c0e00 	ldrbteq	r0, [ip], -r0, lsl #28
    2d00:	aa030000 	bge	c2d08 <__bss_end__+0xb8960>
    2d04:	0000a905 	andeq	sl, r0, r5, lsl #18
    2d08:	05000400 	streq	r0, [r0, #-1024]	; 0xfffffc00
    2d0c:	000005b7 			; <UNDEFINED> instruction: 0x000005b7
    2d10:	db03ab03 	blle	ed924 <__bss_end__+0xe357c>
    2d14:	05000000 	streq	r0, [r0, #-0]
    2d18:	00000461 	andeq	r0, r0, r1, ror #8
    2d1c:	6d1baf03 	ldcvs	15, cr10, [fp, #-12]
    2d20:	06000000 	streq	r0, [r0], -r0
    2d24:	00011d04 	andeq	r1, r1, r4, lsl #26
    2d28:	08010300 	stmdaeq	r1, {r8, r9}
    2d2c:	00000063 	andeq	r0, r0, r3, rrx
    2d30:	00011d0f 	andeq	r1, r1, pc, lsl #26
    2d34:	06920500 	ldreq	r0, [r2], r0, lsl #10
    2d38:	16050000 	strne	r0, [r5], -r0
    2d3c:	00005d19 	andeq	r5, r0, r9, lsl sp
    2d40:	04721000 	ldrbteq	r1, [r2], #-0
    2d44:	05180000 	ldreq	r0, [r8, #-0]
    2d48:	018f082f 	orreq	r0, pc, pc, lsr #16
    2d4c:	d80e0000 	stmdale	lr, {}	; <UNPREDICTABLE>
    2d50:	05000005 	streq	r0, [r0, #-5]
    2d54:	018f1331 	orreq	r1, pc, r1, lsr r3	; <UNPREDICTABLE>
    2d58:	11000000 	mrsne	r0, (UNDEF: 0)
    2d5c:	05006b5f 	streq	r6, [r0, #-2911]	; 0xfffff4a1
    2d60:	00250732 	eoreq	r0, r5, r2, lsr r7
    2d64:	0e040000 	cdpeq	0, 0, cr0, cr4, cr0, {0}
    2d68:	00000620 	andeq	r0, r0, r0, lsr #12
    2d6c:	250b3205 	strcs	r3, [fp, #-517]	; 0xfffffdfb
    2d70:	08000000 	stmdaeq	r0, {}	; <UNPREDICTABLE>
    2d74:	00045b0e 	andeq	r5, r4, lr, lsl #22
    2d78:	14320500 	ldrtne	r0, [r2], #-1280	; 0xfffffb00
    2d7c:	00000025 	andeq	r0, r0, r5, lsr #32
    2d80:	06c70e0c 	strbeq	r0, [r7], ip, lsl #28
    2d84:	32050000 	andcc	r0, r5, #0, 0
    2d88:	0000251b 	andeq	r2, r0, fp, lsl r5
    2d8c:	5f111000 	svcpl	0x00111000
    2d90:	33050078 	movwcc	r0, #20600	; 0x5078
    2d94:	0001950b 	andeq	r9, r1, fp, lsl #10
    2d98:	06001400 	streq	r1, [r0], -r0, lsl #8
    2d9c:	00013504 	andeq	r3, r1, r4, lsl #10
    2da0:	01290b00 			; <UNDEFINED> instruction: 0x01290b00
    2da4:	01a50000 			; <UNDEFINED> instruction: 0x01a50000
    2da8:	2c0c0000 	stccs	0, cr0, [ip], {-0}
    2dac:	00000000 	andeq	r0, r0, r0
    2db0:	049f1000 	ldreq	r1, [pc], #0	; 2db8 <__code_start__-0x5248>
    2db4:	05240000 	streq	r0, [r4, #-0]!
    2db8:	02280837 	eoreq	r0, r8, #3604480	; 0x370000
    2dbc:	ce0e0000 	cdpgt	0, 0, cr0, cr14, cr0, {0}
    2dc0:	05000002 	streq	r0, [r0, #-2]
    2dc4:	00250939 	eoreq	r0, r5, r9, lsr r9
    2dc8:	0e000000 	cdpeq	0, 0, cr0, cr0, cr0, {0}
    2dcc:	00000660 	andeq	r0, r0, r0, ror #12
    2dd0:	25093a05 	strcs	r3, [r9, #-2565]	; 0xfffff5fb
    2dd4:	04000000 	streq	r0, [r0], #-0
    2dd8:	0002e30e 	andeq	lr, r2, lr, lsl #6
    2ddc:	093b0500 	ldmdbeq	fp!, {r8, sl}
    2de0:	00000025 	andeq	r0, r0, r5, lsr #32
    2de4:	07400e08 	strbeq	r0, [r0, -r8, lsl #28]
    2de8:	3c050000 	stccc	0, cr0, [r5], {-0}
    2dec:	00002509 	andeq	r2, r0, r9, lsl #10
    2df0:	500e0c00 	andpl	r0, lr, r0, lsl #24
    2df4:	05000005 	streq	r0, [r0, #-5]
    2df8:	0025093d 	eoreq	r0, r5, sp, lsr r9
    2dfc:	0e100000 	cdpeq	0, 1, cr0, cr0, cr0, {0}
    2e00:	0000053f 	andeq	r0, r0, pc, lsr r5
    2e04:	25093e05 	strcs	r3, [r9, #-3589]	; 0xfffff1fb
    2e08:	14000000 	strne	r0, [r0], #-0
    2e0c:	0006cc0e 	andeq	ip, r6, lr, lsl #24
    2e10:	093f0500 	ldmdbeq	pc!, {r8, sl}	; <UNPREDICTABLE>
    2e14:	00000025 	andeq	r0, r0, r5, lsr #32
    2e18:	05990e18 	ldreq	r0, [r9, #3608]	; 0xe18
    2e1c:	40050000 	andmi	r0, r5, r0
    2e20:	00002509 	andeq	r2, r0, r9, lsl #10
    2e24:	070e1c00 	streq	r1, [lr, -r0, lsl #24]
    2e28:	05000007 	streq	r0, [r0, #-7]
    2e2c:	00250941 	eoreq	r0, r5, r1, asr #18
    2e30:	00200000 	eoreq	r0, r0, r0
    2e34:	0002f212 	andeq	pc, r2, r2, lsl r2	; <UNPREDICTABLE>
    2e38:	05010800 	streq	r0, [r1, #-2048]	; 0xfffff800
    2e3c:	026d084a 	rsbeq	r0, sp, #4849664	; 0x4a0000
    2e40:	4e0e0000 	cdpmi	0, 0, cr0, cr14, cr0, {0}
    2e44:	05000004 	streq	r0, [r0, #-4]
    2e48:	026d0a4b 	rsbeq	r0, sp, #307200	; 0x4b000
    2e4c:	0e000000 	cdpeq	0, 0, cr0, cr0, cr0, {0}
    2e50:	0000024c 	andeq	r0, r0, ip, asr #4
    2e54:	6d094c05 	stcvs	12, cr4, [r9, #-20]	; 0xffffffec
    2e58:	80000002 	andhi	r0, r0, r2
    2e5c:	00068413 	andeq	r8, r6, r3, lsl r4
    2e60:	0a4e0500 	beq	1384268 <__bss_end__+0x1379ec0>
    2e64:	00000129 	andeq	r0, r0, r9, lsr #2
    2e68:	17130100 	ldrne	r0, [r3, -r0, lsl #2]
    2e6c:	05000003 	streq	r0, [r0, #-3]
    2e70:	01290a51 			; <UNDEFINED> instruction: 0x01290a51
    2e74:	01040000 	mrseq	r0, (UNDEF: 4)
    2e78:	006b0b00 	rsbeq	r0, fp, r0, lsl #22
    2e7c:	027d0000 	rsbseq	r0, sp, #0, 0
    2e80:	2c0c0000 	stccs	0, cr0, [ip], {-0}
    2e84:	1f000000 	svcne	0x00000000
    2e88:	05591200 	ldrbeq	r1, [r9, #-512]	; 0xfffffe00
    2e8c:	01900000 	orrseq	r0, r0, r0
    2e90:	c0085d05 	andgt	r5, r8, r5, lsl #26
    2e94:	0e000002 	cdpeq	0, 0, cr0, cr0, cr2, {0}
    2e98:	000005d8 	ldrdeq	r0, [r0], -r8
    2e9c:	c0125e05 	andsgt	r5, r2, r5, lsl #28
    2ea0:	00000002 	andeq	r0, r0, r2
    2ea4:	0005f00e 	andeq	pc, r5, lr
    2ea8:	065f0500 	ldrbeq	r0, [pc], -r0, lsl #10
    2eac:	00000025 	andeq	r0, r0, r5, lsr #32
    2eb0:	04560e04 	ldrbeq	r0, [r6], #-3588	; 0xfffff1fc
    2eb4:	61050000 	mrsvs	r0, (UNDEF: 5)
    2eb8:	0002c609 	andeq	ip, r2, r9, lsl #12
    2ebc:	f20e0800 	vadd.i8	d0, d14, d0
    2ec0:	05000002 	streq	r0, [r0, #-2]
    2ec4:	02281e62 	eoreq	r1, r8, #1568	; 0x620
    2ec8:	00880000 	addeq	r0, r8, r0
    2ecc:	027d0406 	rsbseq	r0, sp, #100663296	; 0x6000000
    2ed0:	d60b0000 	strle	r0, [fp], -r0
    2ed4:	d6000002 	strle	r0, [r0], -r2
    2ed8:	0c000002 	stceq	0, cr0, [r0], {2}
    2edc:	0000002c 	andeq	r0, r0, ip, lsr #32
    2ee0:	0406001f 	streq	r0, [r6], #-31	; 0xffffffe1
    2ee4:	000002dc 	ldrdeq	r0, [r0], -ip
    2ee8:	05a31014 	streq	r1, [r3, #20]!
    2eec:	05080000 	streq	r0, [r8, #-0]
    2ef0:	03050875 	movweq	r0, #22645	; 0x5875
    2ef4:	dd0e0000 	stcle	0, cr0, [lr, #-0]
    2ef8:	05000002 	streq	r0, [r0, #-2]
    2efc:	03051176 	movweq	r1, #20854	; 0x5176
    2f00:	0e000000 	cdpeq	0, 0, cr0, cr0, cr0, {0}
    2f04:	00000262 	andeq	r0, r0, r2, ror #4
    2f08:	25067705 	strcs	r7, [r6, #-1797]	; 0xfffff8fb
    2f0c:	04000000 	streq	r0, [r0], #-0
    2f10:	4f040600 	svcmi	0x00040600
    2f14:	10000000 	andne	r0, r0, r0
    2f18:	000005c2 	andeq	r0, r0, r2, asr #11
    2f1c:	08b50568 	ldmeq	r5!, {r3, r5, r6, r8, sl}
    2f20:	0000044e 	andeq	r0, r0, lr, asr #8
    2f24:	00705f11 	rsbseq	r5, r0, r1, lsl pc
    2f28:	0512b605 	ldreq	fp, [r2, #-1541]	; 0xfffff9fb
    2f2c:	00000003 	andeq	r0, r0, r3
    2f30:	00725f11 	rsbseq	r5, r2, r1, lsl pc
    2f34:	2507b705 	strcs	fp, [r7, #-1797]	; 0xfffff8fb
    2f38:	04000000 	streq	r0, [r0], #-0
    2f3c:	00775f11 	rsbseq	r5, r7, r1, lsl pc
    2f40:	2507b805 	strcs	fp, [r7, #-2053]	; 0xfffff7fb
    2f44:	08000000 	stmdaeq	r0, {}	; <UNPREDICTABLE>
    2f48:	0003100e 	andeq	r1, r3, lr
    2f4c:	09b90500 	ldmibeq	r9!, {r8, sl}
    2f50:	0000003a 	andeq	r0, r0, sl, lsr r0
    2f54:	04bb0e0c 	ldrteq	r0, [fp], #3596	; 0xe0c
    2f58:	ba050000 	blt	142f60 <__bss_end__+0x138bb8>
    2f5c:	00003a09 	andeq	r3, r0, r9, lsl #20
    2f60:	5f110e00 	svcpl	0x00110e00
    2f64:	05006662 	streq	r6, [r0, #-1634]	; 0xfffff99e
    2f68:	02dd11bb 	sbcseq	r1, sp, #-1073741778	; 0xc000002e
    2f6c:	0e100000 	cdpeq	0, 1, cr0, cr0, cr0, {0}
    2f70:	000002ab 	andeq	r0, r0, fp, lsr #5
    2f74:	2507bc05 	strcs	fp, [r7, #-3077]	; 0xfffff3fb
    2f78:	18000000 	stmdane	r0, {}	; <UNPREDICTABLE>
    2f7c:	0003000e 	andeq	r0, r3, lr
    2f80:	0ac30500 	beq	ff0c4388 <__bss_end__+0xff0b9fe0>
    2f84:	0000006b 	andeq	r0, r0, fp, rrx
    2f88:	0b110e1c 	bleq	446800 <__bss_end__+0x43c458>
    2f8c:	c5050000 	strgt	r0, [r5, #-0]
    2f90:	0005c01d 	andeq	ip, r5, sp, lsl r0
    2f94:	2b0e2000 	blcs	38af9c <__bss_end__+0x380bf4>
    2f98:	0500000b 	streq	r0, [r0, #-11]
    2f9c:	05ea1dc7 	strbeq	r1, [sl, #3527]!	; 0xdc7
    2fa0:	0e240000 	cdpeq	0, 2, cr0, cr4, cr0, {0}
    2fa4:	00000644 	andeq	r0, r0, r4, asr #12
    2fa8:	0e0dca05 	vmlaeq.f32	s24, s26, s10
    2fac:	28000006 	stmdacs	r0, {r1, r2}
    2fb0:	0007210e 	andeq	r2, r7, lr, lsl #2
    2fb4:	09cb0500 	stmibeq	fp, {r8, sl}^
    2fb8:	00000628 	andeq	r0, r0, r8, lsr #12
    2fbc:	755f112c 	ldrbvc	r1, [pc, #-300]	; 2e98 <__code_start__-0x5168>
    2fc0:	ce050062 	cdpgt	0, 0, cr0, cr5, cr2, {3}
    2fc4:	0002dd11 	andeq	sp, r2, r1, lsl sp
    2fc8:	5f113000 	svcpl	0x00113000
    2fcc:	05007075 	streq	r7, [r0, #-117]	; 0xffffff8b
    2fd0:	030512cf 	movweq	r1, #21199	; 0x52cf
    2fd4:	11380000 	teqne	r8, r0
    2fd8:	0072755f 	rsbseq	r7, r2, pc, asr r5
    2fdc:	2507d005 	strcs	sp, [r7, #-5]
    2fe0:	3c000000 	stccc	0, cr0, [r0], {-0}
    2fe4:	0002d70e 	andeq	sp, r2, lr, lsl #14
    2fe8:	11d30500 	bicsne	r0, r3, r0, lsl #10
    2fec:	0000062e 	andeq	r0, r0, lr, lsr #12
    2ff0:	06f90e40 	ldrbteq	r0, [r9], r0, asr #28
    2ff4:	d4050000 	strle	r0, [r5], #-0
    2ff8:	00063e11 	andeq	r3, r6, r1, lsl lr
    2ffc:	5f114300 	svcpl	0x00114300
    3000:	0500626c 	streq	r6, [r0, #-620]	; 0xfffffd94
    3004:	02dd11d7 	sbcseq	r1, sp, #-1073741771	; 0xc0000035
    3008:	0e440000 	cdpeq	0, 4, cr0, cr4, cr0, {0}
    300c:	00000326 	andeq	r0, r0, r6, lsr #6
    3010:	2507da05 	strcs	sp, [r7, #-2565]	; 0xfffff5fb
    3014:	4c000000 	stcmi	0, cr0, [r0], {-0}
    3018:	0003520e 	andeq	r5, r3, lr, lsl #4
    301c:	0adb0500 	beq	ff6c4424 <__bss_end__+0xff6ba07c>
    3020:	00000084 	andeq	r0, r0, r4, lsl #1
    3024:	0a6d0e50 	beq	1b4696c <__bss_end__+0x1b3c5c4>
    3028:	de050000 	cdple	0, 0, cr0, cr5, cr0, {0}
    302c:	00046c12 	andeq	r6, r4, r2, lsl ip
    3030:	3e0e5400 	cfcpyscc	mvf5, mvf14
    3034:	05000006 	streq	r0, [r0, #-6]
    3038:	010b0ce2 	smlatteq	fp, r2, ip, r0
    303c:	0e580000 	cdpeq	0, 5, cr0, cr8, cr0, {0}
    3040:	000005ca 	andeq	r0, r0, sl, asr #11
    3044:	ff0ee405 			; <UNDEFINED> instruction: 0xff0ee405
    3048:	5c000000 	stcpl	0, cr0, [r0], {-0}
    304c:	0005370e 	andeq	r3, r5, lr, lsl #14
    3050:	09e50500 	stmibeq	r5!, {r8, sl}^
    3054:	00000025 	andeq	r0, r0, r5, lsr #32
    3058:	25150064 	ldrcs	r0, [r5, #-100]	; 0xffffff9c
    305c:	6c000000 	stcvs	0, cr0, [r0], {-0}
    3060:	16000004 	strne	r0, [r0], -r4
    3064:	0000046c 	andeq	r0, r0, ip, ror #8
    3068:	00006b16 	andeq	r6, r0, r6, lsl fp
    306c:	01171600 	tsteq	r7, r0, lsl #12
    3070:	25160000 	ldrcs	r0, [r6, #-0]
    3074:	00000000 	andeq	r0, r0, r0
    3078:	04770406 	ldrbteq	r0, [r7], #-1030	; 0xfffffbfa
    307c:	6c0f0000 	stcvs	0, cr0, [pc], {-0}
    3080:	17000004 	strne	r0, [r0, -r4]
    3084:	00000628 	andeq	r0, r0, r8, lsr #12
    3088:	60050428 	andvs	r0, r5, r8, lsr #8
    308c:	05c00802 	strbeq	r0, [r0, #2050]	; 0x802
    3090:	92180000 	andsls	r0, r8, #0, 0
    3094:	05000005 	streq	r0, [r0, #-5]
    3098:	25070262 	strcs	r0, [r7, #-610]	; 0xfffffd9e
    309c:	00000000 	andeq	r0, r0, r0
    30a0:	00031f18 	andeq	r1, r3, r8, lsl pc
    30a4:	02670500 	rsbeq	r0, r7, #0, 10
    30a8:	00069a0b 	andeq	r9, r6, fp, lsl #20
    30ac:	ab180400 	blge	6040b4 <__bss_end__+0x5f9d0c>
    30b0:	05000004 	streq	r0, [r0, #-4]
    30b4:	9a140267 	bls	503a58 <__bss_end__+0x4f96b0>
    30b8:	08000006 	stmdaeq	r0, {r1, r2}
    30bc:	00046a18 	andeq	r6, r4, r8, lsl sl
    30c0:	02670500 	rsbeq	r0, r7, #0, 10
    30c4:	00069a1e 	andeq	r9, r6, lr, lsl sl
    30c8:	eb180c00 	bl	6060d0 <__bss_end__+0x5fbd28>
    30cc:	05000005 	streq	r0, [r0, #-5]
    30d0:	25080269 	strcs	r0, [r8, #-617]	; 0xfffffd97
    30d4:	10000000 	andne	r0, r0, r0
    30d8:	00027718 	andeq	r7, r2, r8, lsl r7
    30dc:	026a0500 	rsbeq	r0, sl, #0, 10
    30e0:	00089a08 	andeq	r9, r8, r8, lsl #20
    30e4:	07181400 	ldreq	r1, [r8, -r0, lsl #8]
    30e8:	05000006 	streq	r0, [r0, #-6]
    30ec:	2507026d 	strcs	r0, [r7, #-621]	; 0xfffffd93
    30f0:	30000000 	andcc	r0, r0, r0
    30f4:	0005f518 	andeq	pc, r5, r8, lsl r5	; <UNPREDICTABLE>
    30f8:	026e0500 	rsbeq	r0, lr, #0, 10
    30fc:	0008af16 	andeq	sl, r8, r6, lsl pc
    3100:	61183400 	tstvs	r8, r0, lsl #8
    3104:	05000005 	streq	r0, [r0, #-5]
    3108:	25070270 	strcs	r0, [r7, #-624]	; 0xfffffd90
    310c:	38000000 	stmdacc	r0, {}	; <UNPREDICTABLE>
    3110:	0005fd18 	andeq	pc, r5, r8, lsl sp	; <UNPREDICTABLE>
    3114:	02720500 	rsbseq	r0, r2, #0, 10
    3118:	0008c00a 	andeq	ip, r8, sl
    311c:	13183c00 	tstne	r8, #0, 24
    3120:	05000005 	streq	r0, [r0, #-5]
    3124:	8f130275 	svchi	0x00130275
    3128:	40000001 	andmi	r0, r0, r1
    312c:	00048918 	andeq	r8, r4, r8, lsl r9
    3130:	02760500 	rsbseq	r0, r6, #0, 10
    3134:	00002507 	andeq	r2, r0, r7, lsl #10
    3138:	3b184400 	blcc	614140 <__bss_end__+0x609d98>
    313c:	05000007 	streq	r0, [r0, #-7]
    3140:	8f130277 	svchi	0x00130277
    3144:	48000001 	stmdami	r0, {r0}
    3148:	00057318 	andeq	r7, r5, r8, lsl r3
    314c:	02780500 	rsbseq	r0, r8, #0, 10
    3150:	0008c614 	andeq	ip, r8, r4, lsl r6
    3154:	b3184c00 	tstlt	r8, #0, 24
    3158:	05000004 	streq	r0, [r0, #-4]
    315c:	2507027b 	strcs	r0, [r7, #-635]	; 0xfffffd85
    3160:	50000000 	andpl	r0, r0, r0
    3164:	00034a18 	andeq	r4, r3, r8, lsl sl
    3168:	027c0500 	rsbseq	r0, ip, #0, 10
    316c:	00011709 	andeq	r1, r1, r9, lsl #14
    3170:	8b185400 	blhi	618178 <__bss_end__+0x60ddd0>
    3174:	05000005 	streq	r0, [r0, #-5]
    3178:	7507029f 	strvc	r0, [r7, #-671]	; 0xfffffd61
    317c:	58000008 	stmdapl	r0, {r3}
    3180:	00055919 	andeq	r5, r5, r9, lsl r9
    3184:	02a30500 	adceq	r0, r3, #0, 10
    3188:	0002c013 	andeq	ip, r2, r3, lsl r0
    318c:	19014800 	stmdbne	r1, {fp, lr}
    3190:	000004f1 	strdeq	r0, [r0], -r1
    3194:	1202a405 	andne	sl, r2, #83886080	; 0x5000000
    3198:	0000027d 	andeq	r0, r0, sp, ror r2
    319c:	ef19014c 	svc	0x0019014c
    31a0:	05000006 	streq	r0, [r0, #-6]
    31a4:	d70c02a8 	strle	r0, [ip, -r8, lsr #5]
    31a8:	dc000008 	stcle	0, cr0, [r0], {8}
    31ac:	03081902 	movweq	r1, #35074	; 0x8902
    31b0:	ad050000 	stcge	0, cr0, [r5, #-0]
    31b4:	065b1002 	ldrbeq	r1, [fp], -r2
    31b8:	02e00000 	rsceq	r0, r0, #0, 0
    31bc:	0002ed19 	andeq	lr, r2, r9, lsl sp
    31c0:	02af0500 	adceq	r0, pc, #0, 10
    31c4:	0008e30a 	andeq	lr, r8, sl, lsl #6
    31c8:	0002ec00 	andeq	lr, r2, r0, lsl #24
    31cc:	044e0406 	strbeq	r0, [lr], #-1030	; 0xfffffbfa
    31d0:	25150000 	ldrcs	r0, [r5, #-0]
    31d4:	e4000000 	str	r0, [r0], #-0
    31d8:	16000005 	strne	r0, [r0], -r5
    31dc:	0000046c 	andeq	r0, r0, ip, ror #8
    31e0:	00006b16 	andeq	r6, r0, r6, lsl fp
    31e4:	05e41600 	strbeq	r1, [r4, #1536]!	; 0x600
    31e8:	25160000 	ldrcs	r0, [r6, #-0]
    31ec:	00000000 	andeq	r0, r0, r0
    31f0:	01240406 			; <UNDEFINED> instruction: 0x01240406
    31f4:	04060000 	streq	r0, [r6], #-0
    31f8:	000005c6 	andeq	r0, r0, r6, asr #11
    31fc:	00009015 	andeq	r9, r0, r5, lsl r0
    3200:	00060e00 	andeq	r0, r6, r0, lsl #28
    3204:	046c1600 	strbteq	r1, [ip], #-1536	; 0xfffffa00
    3208:	6b160000 	blvs	583210 <__bss_end__+0x578e68>
    320c:	16000000 	strne	r0, [r0], -r0
    3210:	00000090 	muleq	r0, r0, r0
    3214:	00002516 	andeq	r2, r0, r6, lsl r5
    3218:	04060000 	streq	r0, [r6], #-0
    321c:	000005f0 	strdeq	r0, [r0], -r0	; <UNPREDICTABLE>
    3220:	00002515 	andeq	r2, r0, r5, lsl r5
    3224:	00062800 	andeq	r2, r6, r0, lsl #16
    3228:	046c1600 	strbteq	r1, [ip], #-1536	; 0xfffffa00
    322c:	6b160000 	blvs	583234 <__bss_end__+0x578e8c>
    3230:	00000000 	andeq	r0, r0, r0
    3234:	06140406 	ldreq	r0, [r4], -r6, lsl #8
    3238:	4f0b0000 	svcmi	0x000b0000
    323c:	3e000000 	cdpcc	0, 0, cr0, cr0, cr0, {0}
    3240:	0c000006 	stceq	0, cr0, [r0], {6}
    3244:	0000002c 	andeq	r0, r0, ip, lsr #32
    3248:	4f0b0002 	svcmi	0x000b0002
    324c:	4e000000 	cdpmi	0, 0, cr0, cr0, cr0, {0}
    3250:	0c000006 	stceq	0, cr0, [r0], {6}
    3254:	0000002c 	andeq	r0, r0, ip, lsr #32
    3258:	b0080000 	andlt	r0, r8, r0
    325c:	05000005 	streq	r0, [r0, #-5]
    3260:	0b1a011f 	bleq	6836e4 <__bss_end__+0x67933c>
    3264:	1a000003 	bne	3278 <__code_start__-0x4d88>
    3268:	000006d6 	ldrdeq	r0, [r0], -r6
    326c:	0123050c 			; <UNDEFINED> instruction: 0x0123050c
    3270:	00069408 	andeq	r9, r6, r8, lsl #8
    3274:	05d81800 	ldrbeq	r1, [r8, #2048]	; 0x800
    3278:	25050000 	strcs	r0, [r5, #-0]
    327c:	06941101 	ldreq	r1, [r4], r1, lsl #2
    3280:	18000000 	stmdane	r0, {}	; <UNPREDICTABLE>
    3284:	000004ea 	andeq	r0, r0, sl, ror #9
    3288:	07012605 	streq	r2, [r1, -r5, lsl #12]
    328c:	00000025 	andeq	r0, r0, r5, lsr #32
    3290:	05aa1804 	streq	r1, [sl, #2052]!	; 0x804
    3294:	27050000 	strcs	r0, [r5, -r0]
    3298:	069a0b01 	ldreq	r0, [sl], r1, lsl #22
    329c:	00080000 	andeq	r0, r8, r0
    32a0:	065b0406 	ldrbeq	r0, [fp], -r6, lsl #8
    32a4:	04060000 	streq	r0, [r6], #-0
    32a8:	0000064e 	andeq	r0, r0, lr, asr #12
    32ac:	00026f1a 	andeq	r6, r2, sl, lsl pc
    32b0:	3f050e00 	svccc	0x00050e00
    32b4:	06d90801 	ldrbeq	r0, [r9], r1, lsl #16
    32b8:	2f180000 	svccs	0x00180000
    32bc:	05000006 	streq	r0, [r0, #-6]
    32c0:	d9120140 	ldmdble	r2, {r6, r8}
    32c4:	00000006 	andeq	r0, r0, r6
    32c8:	00066918 	andeq	r6, r6, r8, lsl r9
    32cc:	01410500 	cmpeq	r1, r0, lsl #10
    32d0:	0006d912 	andeq	sp, r6, r2, lsl r9
    32d4:	8d180600 	ldchi	6, cr0, [r8, #-0]
    32d8:	05000006 	streq	r0, [r0, #-6]
    32dc:	56120142 	ldrpl	r0, [r2], -r2, asr #2
    32e0:	0c000000 	stceq	0, cr0, [r0], {-0}
    32e4:	00560b00 	subseq	r0, r6, r0, lsl #22
    32e8:	06e90000 	strbteq	r0, [r9], r0
    32ec:	2c0c0000 	stccs	0, cr0, [ip], {-0}
    32f0:	02000000 	andeq	r0, r0, #0, 0
    32f4:	05d01b00 	ldrbeq	r1, [r0, #2816]	; 0xb00
    32f8:	fe070280 	cdp2	2, 0, cr0, cr7, cr0, {4}
    32fc:	18000007 	stmdane	r0, {r0, r1, r2}
    3300:	000006ba 			; <UNDEFINED> instruction: 0x000006ba
    3304:	18028205 	stmdane	r2, {r0, r2, r9, pc}
    3308:	0000002c 	andeq	r0, r0, ip, lsr #32
    330c:	066f1800 	strbteq	r1, [pc], -r0, lsl #16
    3310:	83050000 	movwhi	r0, #20480	; 0x5000
    3314:	01171202 	tsteq	r7, r2, lsl #4
    3318:	18040000 	stmdane	r4, {}	; <UNPREDICTABLE>
    331c:	00000506 	andeq	r0, r0, r6, lsl #10
    3320:	10028405 	andne	r8, r2, r5, lsl #8
    3324:	000007fe 	strdeq	r0, [r0], -lr
    3328:	07121808 	ldreq	r1, [r2, -r8, lsl #16]
    332c:	85050000 	strhi	r0, [r5, #-0]
    3330:	01a51702 			; <UNDEFINED> instruction: 0x01a51702
    3334:	18240000 	stmdane	r4!, {}	; <UNPREDICTABLE>
    3338:	0000047a 	andeq	r0, r0, sl, ror r4
    333c:	0f028605 	svceq	0x00028605
    3340:	00000025 	andeq	r0, r0, r5, lsr #32
    3344:	05d31848 	ldrbeq	r1, [r3, #2120]	; 0x848
    3348:	87050000 	strhi	r0, [r5, -r0]
    334c:	00642c02 	rsbeq	r2, r4, r2, lsl #24
    3350:	18500000 	ldmdane	r0, {}^	; <UNPREDICTABLE>
    3354:	00000728 	andeq	r0, r0, r8, lsr #14
    3358:	1a028805 	bne	a5374 <__bss_end__+0x9afcc>
    335c:	000006a0 	andeq	r0, r0, r0, lsr #13
    3360:	05de1858 	ldrbeq	r1, [lr, #2136]	; 0x858
    3364:	89050000 	stmdbhi	r5, {}	; <UNPREDICTABLE>
    3368:	00ff1602 	rscseq	r1, pc, r2, lsl #12
    336c:	18680000 	stmdane	r8!, {}^	; <UNPREDICTABLE>
    3370:	0000072d 	andeq	r0, r0, sp, lsr #14
    3374:	16028a05 	strne	r8, [r2], -r5, lsl #20
    3378:	000000ff 	strdeq	r0, [r0], -pc	; <UNPREDICTABLE>
    337c:	057d1870 	ldrbeq	r1, [sp, #-2160]!	; 0xfffff790
    3380:	8b050000 	blhi	143388 <__bss_end__+0x138fe0>
    3384:	00ff1602 	rscseq	r1, pc, r2, lsl #12
    3388:	18780000 	ldmdane	r8!, {}^	; <UNPREDICTABLE>
    338c:	000006e5 	andeq	r0, r0, r5, ror #13
    3390:	10028c05 	andne	r8, r2, r5, lsl #24
    3394:	0000080e 	andeq	r0, r0, lr, lsl #16
    3398:	04fa1880 	ldrbteq	r1, [sl], #2176	; 0x880
    339c:	8d050000 	stchi	0, cr0, [r5, #-0]
    33a0:	081e1002 	ldmdaeq	lr, {r1, ip}
    33a4:	18880000 	stmne	r8, {}	; <UNPREDICTABLE>
    33a8:	0000069a 	muleq	r0, sl, r6
    33ac:	0f028e05 	svceq	0x00028e05
    33b0:	00000025 	andeq	r0, r0, r5, lsr #32
    33b4:	044018a0 	strbeq	r1, [r0], #-2208	; 0xfffff760
    33b8:	8f050000 	svchi	0x00050000
    33bc:	00ff1602 	rscseq	r1, pc, r2, lsl #12
    33c0:	18a40000 	stmiane	r4!, {}	; <UNPREDICTABLE>
    33c4:	000002bf 			; <UNDEFINED> instruction: 0x000002bf
    33c8:	16029005 	strne	r9, [r2], -r5
    33cc:	000000ff 	strdeq	r0, [r0], -pc	; <UNPREDICTABLE>
    33d0:	042f18ac 	strteq	r1, [pc], #-2220	; 33d8 <__code_start__-0x4c28>
    33d4:	91050000 	mrsls	r0, (UNDEF: 5)
    33d8:	00ff1602 	rscseq	r1, pc, r2, lsl #12
    33dc:	18b40000 	ldmne	r4!, {}	; <UNPREDICTABLE>
    33e0:	0000028b 	andeq	r0, r0, fp, lsl #5
    33e4:	16029205 	strne	r9, [r2], -r5, lsl #4
    33e8:	000000ff 	strdeq	r0, [r0], -pc	; <UNPREDICTABLE>
    33ec:	029a18bc 	addseq	r1, sl, #188, 16	; 0xbc0000
    33f0:	93050000 	movwls	r0, #20480	; 0x5000
    33f4:	00ff1602 	rscseq	r1, pc, r2, lsl #12
    33f8:	18c40000 	stmiane	r4, {}^	; <UNPREDICTABLE>
    33fc:	00000590 	muleq	r0, r0, r5
    3400:	08029405 	stmdaeq	r2, {r0, r2, sl, ip, pc}
    3404:	00000025 	andeq	r0, r0, r5, lsr #32
    3408:	1d0b00cc 	stcne	0, cr0, [fp, #-816]	; 0xfffffcd0
    340c:	0e000001 	cdpeq	0, 0, cr0, cr0, cr1, {0}
    3410:	0c000008 	stceq	0, cr0, [r0], {8}
    3414:	0000002c 	andeq	r0, r0, ip, lsr #32
    3418:	1d0b0019 	stcne	0, cr0, [fp, #-100]	; 0xffffff9c
    341c:	1e000001 	cdpne	0, 0, cr0, cr0, cr1, {0}
    3420:	0c000008 	stceq	0, cr0, [r0], {8}
    3424:	0000002c 	andeq	r0, r0, ip, lsr #32
    3428:	1d0b0007 	stcne	0, cr0, [fp, #-28]	; 0xffffffe4
    342c:	2e000001 	cdpcs	0, 0, cr0, cr0, cr1, {0}
    3430:	0c000008 	stceq	0, cr0, [r0], {8}
    3434:	0000002c 	andeq	r0, r0, ip, lsr #32
    3438:	f01b0017 			; <UNDEFINED> instruction: 0xf01b0017
    343c:	07029905 	streq	r9, [r2, -r5, lsl #18]
    3440:	00000855 	andeq	r0, r0, r5, asr r8
    3444:	00054918 	andeq	r4, r5, r8, lsl r9
    3448:	029c0500 	addseq	r0, ip, #0, 10
    344c:	0008551b 	andeq	r5, r8, fp, lsl r5
    3450:	dc180000 	ldcle	0, cr0, [r8], {-0}
    3454:	05000006 	streq	r0, [r0, #-6]
    3458:	6518029d 	ldrvs	r0, [r8, #-669]	; 0xfffffd63
    345c:	78000008 	stmdavc	r0, {r3}
    3460:	03050b00 	movweq	r0, #23296	; 0x5b00
    3464:	08650000 	stmdaeq	r5!, {}^	; <UNPREDICTABLE>
    3468:	2c0c0000 	stccs	0, cr0, [ip], {-0}
    346c:	1d000000 	stcne	0, cr0, [r0, #-0]
    3470:	002c0b00 	eoreq	r0, ip, r0, lsl #22
    3474:	08750000 	ldmdaeq	r5!, {}^	; <UNPREDICTABLE>
    3478:	2c0c0000 	stccs	0, cr0, [ip], {-0}
    347c:	1d000000 	stcne	0, cr0, [r0, #-0]
    3480:	05f01c00 	ldrbeq	r1, [r0, #3072]!	; 0xc00
    3484:	9a03027e 	bls	c3e84 <__bss_end__+0xb9adc>
    3488:	1d000008 	stcne	0, cr0, [r0, #-32]	; 0xffffffe0
    348c:	00000628 	andeq	r0, r0, r8, lsr #12
    3490:	0b029505 	bleq	a88ac <__bss_end__+0x9e504>
    3494:	000006e9 	andeq	r0, r0, r9, ror #13
    3498:	0006ff1d 	andeq	pc, r6, sp, lsl pc	; <UNPREDICTABLE>
    349c:	029e0500 	addseq	r0, lr, #0, 10
    34a0:	00082e0b 	andeq	r2, r8, fp, lsl #28
    34a4:	1d0b0000 	stcne	0, cr0, [fp, #-0]
    34a8:	aa000001 	bge	34b4 <__code_start__-0x4b4c>
    34ac:	0c000008 	stceq	0, cr0, [r0], {8}
    34b0:	0000002c 	andeq	r0, r0, ip, lsr #32
    34b4:	b4070018 	strlt	r0, [r7], #-24	; 0xffffffe8
    34b8:	06000002 	streq	r0, [r0], -r2
    34bc:	0008aa04 	andeq	sl, r8, r4, lsl #20
    34c0:	08c01e00 	stmiaeq	r0, {r9, sl, fp, ip}^
    34c4:	6c160000 	ldcvs	0, cr0, [r6], {-0}
    34c8:	00000004 	andeq	r0, r0, r4
    34cc:	08b50406 	ldmeq	r5!, {r1, r2, sl}
    34d0:	04060000 	streq	r0, [r6], #-0
    34d4:	0000018f 	andeq	r0, r0, pc, lsl #3
    34d8:	0008d71e 	andeq	sp, r8, lr, lsl r7
    34dc:	00251600 	eoreq	r1, r5, r0, lsl #12
    34e0:	06000000 	streq	r0, [r0], -r0
    34e4:	0008dd04 	andeq	sp, r8, r4, lsl #26
    34e8:	cc040600 	stcgt	6, cr0, [r4], {-0}
    34ec:	0b000008 	bleq	3514 <__code_start__-0x4aec>
    34f0:	0000064e 	andeq	r0, r0, lr, asr #12
    34f4:	000008f3 	strdeq	r0, [r0], -r3
    34f8:	00002c0c 	andeq	r2, r0, ip, lsl #24
    34fc:	1f000200 	svcne	0x00000200
    3500:	000006ae 	andeq	r0, r0, lr, lsr #13
    3504:	17032e05 	strne	r2, [r3, -r5, lsl #28]
    3508:	0000046c 	andeq	r0, r0, ip, ror #8
    350c:	0006a71f 	andeq	sl, r6, pc, lsl r7
    3510:	032f0500 			; <UNDEFINED> instruction: 0x032f0500
    3514:	0004721d 	andeq	r7, r4, sp, lsl r2
    3518:	06520500 	ldrbeq	r0, [r2], -r0, lsl #10
    351c:	21060000 	mrscs	r0, (UNDEF: 6)
    3520:	0009190f 	andeq	r1, r9, pc, lsl #18
    3524:	1f040600 	svcne	0x00040600
    3528:	15000009 	strne	r0, [r0, #-9]
    352c:	00000025 	andeq	r0, r0, r5, lsr #32
    3530:	0000092e 	andeq	r0, r0, lr, lsr #18
    3534:	00002516 	andeq	r2, r0, r6, lsl r5
    3538:	93200000 	nopls	{0}	; <UNPREDICTABLE>
    353c:	06000004 	streq	r0, [r0], -r4
    3540:	090d1623 	stmdbeq	sp, {r0, r1, r5, r9, sl, ip}
    3544:	2e210000 	cdpcs	0, 2, cr0, cr1, cr0, {0}
    3548:	01000009 	tsteq	r0, r9
    354c:	03050f10 	movweq	r0, #24336	; 0x5f10
    3550:	0000a398 	muleq	r0, r8, r3
    3554:	0007aa22 	andeq	sl, r7, r2, lsr #20
    3558:	0f120100 	svceq	0x00120100
    355c:	0000090d 	andeq	r0, r0, sp, lsl #18
    3560:	000097d4 	ldrdeq	r9, [r0], -r4
    3564:	00000018 	andeq	r0, r0, r8, lsl r0
    3568:	098b9c01 	stmibeq	fp, {r0, sl, fp, ip, pc}
    356c:	c4230000 	strtgt	r0, [r3], #-0
    3570:	01000007 	tsteq	r0, r7
    3574:	090d2d12 	stmdbeq	sp, {r1, r4, r8, sl, fp, sp}
    3578:	0cb40000 	ldceq	0, cr0, [r4]
    357c:	0cb00000 	ldceq	0, cr0, [r0]
    3580:	6f240000 	svcvs	0x00240000
    3584:	0100646c 	tsteq	r0, ip, ror #8
    3588:	090d1313 	stmdbeq	sp, {r0, r1, r4, r8, r9, ip}
    358c:	0cd80000 	ldcleq	0, cr0, [r8], {0}
    3590:	0cd60000 	ldcleq	0, cr0, [r6], {0}
    3594:	25000000 	strcs	r0, [r0, #-0]
    3598:	000007c9 	andeq	r0, r0, r9, asr #15
    359c:	250c0b01 	strcs	r0, [ip, #-2817]	; 0xfffff4ff
    35a0:	bc000000 	stclt	0, cr0, [r0], {-0}
    35a4:	18000097 	stmdane	r0, {r0, r1, r2, r4, r7}
    35a8:	01000000 	mrseq	r0, (UNDEF: 0)
    35ac:	0009c89c 	muleq	r9, ip, r8
    35b0:	00632600 	rsbeq	r2, r3, r0, lsl #12
    35b4:	25200b01 	strcs	r0, [r0, #-2817]!	; 0xfffff4ff
    35b8:	ef000000 	svc	0x00000000
    35bc:	eb00000c 	bl	35f4 <__code_start__-0x4a0c>
    35c0:	2700000c 	strcs	r0, [r0, -ip]
    35c4:	000097cc 	andeq	r9, r0, ip, asr #15
    35c8:	000009c8 	andeq	r0, r0, r8, asr #19
    35cc:	02500128 	subseq	r0, r0, #10
    35d0:	00000074 	andeq	r0, r0, r4, ror r0
    35d4:	0007ba29 	andeq	fp, r7, r9, lsr #20
    35d8:	0007ba00 	andeq	fp, r7, r0, lsl #20
    35dc:	05480600 	strbeq	r0, [r8, #-1536]	; 0xfffffa00
    35e0:	0009ba00 	andeq	fp, r9, r0, lsl #20
    35e4:	76000400 	strvc	r0, [r0], -r0, lsl #8
    35e8:	0400000c 	streq	r0, [r0], #-12
    35ec:	00035a01 	andeq	r5, r3, r1, lsl #20
    35f0:	07d90c00 	ldrbeq	r0, [r9, r0, lsl #24]
    35f4:	04c10000 	strbeq	r0, [r1], #0
    35f8:	97ec0000 	strbls	r0, [ip, r0]!
    35fc:	00200000 	eoreq	r0, r0, r0
    3600:	0df10000 	ldcleq	0, cr0, [r1]
    3604:	04020000 	streq	r0, [r2], #-0
    3608:	746e6905 	strbtvc	r6, [lr], #-2309	; 0xfffff6fb
    360c:	07040300 	streq	r0, [r4, -r0, lsl #6]
    3610:	000001ae 	andeq	r0, r0, lr, lsr #3
    3614:	5c060103 	stfpls	f0, [r6], {3}
    3618:	03000000 	movweq	r0, #0
    361c:	01fe0502 	mvnseq	r0, r2, lsl #10
    3620:	04030000 	streq	r0, [r3], #-0
    3624:	0001ed05 	andeq	lr, r1, r5, lsl #26
    3628:	05080300 	streq	r0, [r8, #-768]	; 0xfffffd00
    362c:	000001e8 	andeq	r0, r0, r8, ror #3
    3630:	5a080103 	bpl	203a44 <__bss_end__+0x1f969c>
    3634:	03000000 	movweq	r0, #0
    3638:	001c0702 	andseq	r0, ip, r2, lsl #14
    363c:	04030000 	streq	r0, [r3], #-0
    3640:	0001a907 	andeq	sl, r1, r7, lsl #18
    3644:	07080300 	streq	r0, [r8, -r0, lsl #6]
    3648:	000001a4 	andeq	r0, r0, r4, lsr #3
    364c:	28050404 	stmdacs	r5, {r2, sl}
    3650:	02000005 	andeq	r0, r0, #5, 0
    3654:	00791922 	rsbseq	r1, r9, r2, lsr #18
    3658:	04060000 	streq	r0, [r6], #-0
    365c:	0000007f 	andeq	r0, r0, pc, ror r0
    3660:	00063d07 	andeq	r3, r6, r7, lsl #26
    3664:	056c0500 	strbeq	r0, [ip, #-1280]!	; 0xfffffb00
    3668:	2c030000 	stccs	0, cr0, [r3], {-0}
    366c:	0000410e 	andeq	r4, r0, lr, lsl #2
    3670:	064a0500 	strbeq	r0, [sl], -r0, lsl #10
    3674:	72030000 	andvc	r0, r3, #0, 0
    3678:	0000410e 	andeq	r4, r0, lr, lsl #2
    367c:	05300800 	ldreq	r0, [r0, #-2048]!	; 0xfffff800
    3680:	5e040000 	cdppl	0, 0, cr0, cr4, cr0, {0}
    3684:	002c1701 	eoreq	r1, ip, r1, lsl #14
    3688:	04090000 	streq	r0, [r9], #-0
    368c:	cb03a603 	blgt	ecea0 <__bss_end__+0xe2af8>
    3690:	0a000000 	beq	3698 <__code_start__-0x4968>
    3694:	0000051b 	andeq	r0, r0, fp, lsl r5
    3698:	9c0ca803 	stcls	8, cr10, [ip], {3}
    369c:	0a000000 	beq	36a4 <__code_start__-0x495c>
    36a0:	000004a4 	andeq	r0, r0, r4, lsr #9
    36a4:	cb13a903 	blgt	4edab8 <__bss_end__+0x4e3710>
    36a8:	00000000 	andeq	r0, r0, r0
    36ac:	00004f0b 	andeq	r4, r0, fp, lsl #30
    36b0:	0000db00 	andeq	sp, r0, r0, lsl #22
    36b4:	002c0c00 	eoreq	r0, ip, r0, lsl #24
    36b8:	00030000 	andeq	r0, r3, r0
    36bc:	a303080d 	movwge	r0, #14349	; 0x380d
    36c0:	0000ff09 	andeq	pc, r0, r9, lsl #30
    36c4:	06350e00 	ldrteq	r0, [r5], -r0, lsl #28
    36c8:	a5030000 	strge	r0, [r3, #-0]
    36cc:	00002507 	andeq	r2, r0, r7, lsl #10
    36d0:	7c0e0000 	stcvc	0, cr0, [lr], {-0}
    36d4:	03000006 	movweq	r0, #6
    36d8:	00a905aa 	adceq	r0, r9, sl, lsr #11
    36dc:	00040000 	andeq	r0, r4, r0
    36e0:	0005b705 	andeq	fp, r5, r5, lsl #14
    36e4:	03ab0300 			; <UNDEFINED> instruction: 0x03ab0300
    36e8:	000000db 	ldrdeq	r0, [r0], -fp
    36ec:	00046105 	andeq	r6, r4, r5, lsl #2
    36f0:	1baf0300 	blne	febc42f8 <__bss_end__+0xfebb9f50>
    36f4:	0000006d 	andeq	r0, r0, sp, rrx
    36f8:	011d0406 	tsteq	sp, r6, lsl #8
    36fc:	01030000 	mrseq	r0, (UNDEF: 3)
    3700:	00006308 	andeq	r6, r0, r8, lsl #6
    3704:	011d0f00 	tsteq	sp, r0, lsl #30
    3708:	92050000 	andls	r0, r5, #0, 0
    370c:	05000006 	streq	r0, [r0, #-6]
    3710:	005d1916 	subseq	r1, sp, r6, lsl r9
    3714:	72100000 	andsvc	r0, r0, #0, 0
    3718:	18000004 	stmdane	r0, {r2}
    371c:	8f082f05 	svchi	0x00082f05
    3720:	0e000001 	cdpeq	0, 0, cr0, cr0, cr1, {0}
    3724:	000005d8 	ldrdeq	r0, [r0], -r8
    3728:	8f133105 	svchi	0x00133105
    372c:	00000001 	andeq	r0, r0, r1
    3730:	006b5f11 	rsbeq	r5, fp, r1, lsl pc
    3734:	25073205 	strcs	r3, [r7, #-517]	; 0xfffffdfb
    3738:	04000000 	streq	r0, [r0], #-0
    373c:	0006200e 	andeq	r2, r6, lr
    3740:	0b320500 	bleq	c84b48 <__bss_end__+0xc7a7a0>
    3744:	00000025 	andeq	r0, r0, r5, lsr #32
    3748:	045b0e08 	ldrbeq	r0, [fp], #-3592	; 0xfffff1f8
    374c:	32050000 	andcc	r0, r5, #0, 0
    3750:	00002514 	andeq	r2, r0, r4, lsl r5
    3754:	c70e0c00 	strgt	r0, [lr, -r0, lsl #24]
    3758:	05000006 	streq	r0, [r0, #-6]
    375c:	00251b32 	eoreq	r1, r5, r2, lsr fp
    3760:	11100000 	tstne	r0, r0
    3764:	0500785f 	streq	r7, [r0, #-2143]	; 0xfffff7a1
    3768:	01950b33 	orrseq	r0, r5, r3, lsr fp
    376c:	00140000 	andseq	r0, r4, r0
    3770:	01350406 	teqeq	r5, r6, lsl #8
    3774:	290b0000 	stmdbcs	fp, {}	; <UNPREDICTABLE>
    3778:	a5000001 	strge	r0, [r0, #-1]
    377c:	0c000001 	stceq	0, cr0, [r0], {1}
    3780:	0000002c 	andeq	r0, r0, ip, lsr #32
    3784:	9f100000 	svcls	0x00100000
    3788:	24000004 	strcs	r0, [r0], #-4
    378c:	28083705 	stmdacs	r8, {r0, r2, r8, r9, sl, ip, sp}
    3790:	0e000002 	cdpeq	0, 0, cr0, cr0, cr2, {0}
    3794:	000002ce 	andeq	r0, r0, lr, asr #5
    3798:	25093905 	strcs	r3, [r9, #-2309]	; 0xfffff6fb
    379c:	00000000 	andeq	r0, r0, r0
    37a0:	0006600e 	andeq	r6, r6, lr
    37a4:	093a0500 	ldmdbeq	sl!, {r8, sl}
    37a8:	00000025 	andeq	r0, r0, r5, lsr #32
    37ac:	02e30e04 	rsceq	r0, r3, #4, 28	; 0x40
    37b0:	3b050000 	blcc	1437b8 <__bss_end__+0x139410>
    37b4:	00002509 	andeq	r2, r0, r9, lsl #10
    37b8:	400e0800 	andmi	r0, lr, r0, lsl #16
    37bc:	05000007 	streq	r0, [r0, #-7]
    37c0:	0025093c 	eoreq	r0, r5, ip, lsr r9
    37c4:	0e0c0000 	cdpeq	0, 0, cr0, cr12, cr0, {0}
    37c8:	00000550 	andeq	r0, r0, r0, asr r5
    37cc:	25093d05 	strcs	r3, [r9, #-3333]	; 0xfffff2fb
    37d0:	10000000 	andne	r0, r0, r0
    37d4:	00053f0e 	andeq	r3, r5, lr, lsl #30
    37d8:	093e0500 	ldmdbeq	lr!, {r8, sl}
    37dc:	00000025 	andeq	r0, r0, r5, lsr #32
    37e0:	06cc0e14 			; <UNDEFINED> instruction: 0x06cc0e14
    37e4:	3f050000 	svccc	0x00050000
    37e8:	00002509 	andeq	r2, r0, r9, lsl #10
    37ec:	990e1800 	stmdbls	lr, {fp, ip}
    37f0:	05000005 	streq	r0, [r0, #-5]
    37f4:	00250940 	eoreq	r0, r5, r0, asr #18
    37f8:	0e1c0000 	cdpeq	0, 1, cr0, cr12, cr0, {0}
    37fc:	00000707 	andeq	r0, r0, r7, lsl #14
    3800:	25094105 	strcs	r4, [r9, #-261]	; 0xfffffefb
    3804:	20000000 	andcs	r0, r0, r0
    3808:	02f21200 	rscseq	r1, r2, #0, 4
    380c:	01080000 	mrseq	r0, (UNDEF: 8)
    3810:	6d084a05 	vstrvs	s8, [r8, #-20]	; 0xffffffec
    3814:	0e000002 	cdpeq	0, 0, cr0, cr0, cr2, {0}
    3818:	0000044e 	andeq	r0, r0, lr, asr #8
    381c:	6d0a4b05 	vstrvs	d4, [sl, #-20]	; 0xffffffec
    3820:	00000002 	andeq	r0, r0, r2
    3824:	00024c0e 	andeq	r4, r2, lr, lsl #24
    3828:	094c0500 	stmdbeq	ip, {r8, sl}^
    382c:	0000026d 	andeq	r0, r0, sp, ror #4
    3830:	06841380 	streq	r1, [r4], r0, lsl #7
    3834:	4e050000 	cdpmi	0, 0, cr0, cr5, cr0, {0}
    3838:	0001290a 	andeq	r2, r1, sl, lsl #18
    383c:	13010000 	movwne	r0, #4096	; 0x1000
    3840:	00000317 	andeq	r0, r0, r7, lsl r3
    3844:	290a5105 	stmdbcs	sl, {r0, r2, r8, ip, lr}
    3848:	04000001 	streq	r0, [r0], #-1
    384c:	6b0b0001 	blvs	2c3858 <__bss_end__+0x2b94b0>
    3850:	7d000000 	stcvc	0, cr0, [r0, #-0]
    3854:	0c000002 	stceq	0, cr0, [r0], {2}
    3858:	0000002c 	andeq	r0, r0, ip, lsr #32
    385c:	5912001f 	ldmdbpl	r2, {r0, r1, r2, r3, r4}
    3860:	90000005 	andls	r0, r0, r5
    3864:	085d0501 	ldmdaeq	sp, {r0, r8, sl}^
    3868:	000002c0 	andeq	r0, r0, r0, asr #5
    386c:	0005d80e 	andeq	sp, r5, lr, lsl #16
    3870:	125e0500 	subsne	r0, lr, #0, 10
    3874:	000002c0 	andeq	r0, r0, r0, asr #5
    3878:	05f00e00 	ldrbeq	r0, [r0, #3584]!	; 0xe00
    387c:	5f050000 	svcpl	0x00050000
    3880:	00002506 	andeq	r2, r0, r6, lsl #10
    3884:	560e0400 	strpl	r0, [lr], -r0, lsl #8
    3888:	05000004 	streq	r0, [r0, #-4]
    388c:	02c60961 	sbceq	r0, r6, #1589248	; 0x184000
    3890:	0e080000 	cdpeq	0, 0, cr0, cr8, cr0, {0}
    3894:	000002f2 	strdeq	r0, [r0], -r2
    3898:	281e6205 	ldmdacs	lr, {r0, r2, r9, sp, lr}
    389c:	88000002 	stmdahi	r0, {r1}
    38a0:	7d040600 	stcvc	6, cr0, [r4, #-0]
    38a4:	0b000002 	bleq	38b4 <__code_start__-0x474c>
    38a8:	000002d6 	ldrdeq	r0, [r0], -r6
    38ac:	000002d6 	ldrdeq	r0, [r0], -r6
    38b0:	00002c0c 	andeq	r2, r0, ip, lsl #24
    38b4:	06001f00 	streq	r1, [r0], -r0, lsl #30
    38b8:	0002dc04 	andeq	sp, r2, r4, lsl #24
    38bc:	a3101400 	tstge	r0, #0, 8
    38c0:	08000005 	stmdaeq	r0, {r0, r2}
    38c4:	05087505 	streq	r7, [r8, #-1285]	; 0xfffffafb
    38c8:	0e000003 	cdpeq	0, 0, cr0, cr0, cr3, {0}
    38cc:	000002dd 	ldrdeq	r0, [r0], -sp
    38d0:	05117605 	ldreq	r7, [r1, #-1541]	; 0xfffff9fb
    38d4:	00000003 	andeq	r0, r0, r3
    38d8:	0002620e 	andeq	r6, r2, lr, lsl #4
    38dc:	06770500 	ldrbteq	r0, [r7], -r0, lsl #10
    38e0:	00000025 	andeq	r0, r0, r5, lsr #32
    38e4:	04060004 	streq	r0, [r6], #-4
    38e8:	0000004f 	andeq	r0, r0, pc, asr #32
    38ec:	0005c210 	andeq	ip, r5, r0, lsl r2
    38f0:	b5056800 	strlt	r6, [r5, #-2048]	; 0xfffff800
    38f4:	00044e08 	andeq	r4, r4, r8, lsl #28
    38f8:	705f1100 	subsvc	r1, pc, r0, lsl #2
    38fc:	12b60500 	adcsne	r0, r6, #0, 10
    3900:	00000305 	andeq	r0, r0, r5, lsl #6
    3904:	725f1100 	subsvc	r1, pc, #0
    3908:	07b70500 	ldreq	r0, [r7, r0, lsl #10]!
    390c:	00000025 	andeq	r0, r0, r5, lsr #32
    3910:	775f1104 	ldrbvc	r1, [pc, -r4, lsl #2]
    3914:	07b80500 	ldreq	r0, [r8, r0, lsl #10]!
    3918:	00000025 	andeq	r0, r0, r5, lsr #32
    391c:	03100e08 	tsteq	r0, #8, 28	; 0x80
    3920:	b9050000 	stmdblt	r5, {}	; <UNPREDICTABLE>
    3924:	00003a09 	andeq	r3, r0, r9, lsl #20
    3928:	bb0e0c00 	bllt	386930 <__bss_end__+0x37c588>
    392c:	05000004 	streq	r0, [r0, #-4]
    3930:	003a09ba 	ldrhteq	r0, [sl], -sl
    3934:	110e0000 	mrsne	r0, (UNDEF: 14)
    3938:	0066625f 	rsbeq	r6, r6, pc, asr r2
    393c:	dd11bb05 	vldrle	d11, [r1, #-20]	; 0xffffffec
    3940:	10000002 	andne	r0, r0, r2
    3944:	0002ab0e 	andeq	sl, r2, lr, lsl #22
    3948:	07bc0500 	ldreq	r0, [ip, r0, lsl #10]!
    394c:	00000025 	andeq	r0, r0, r5, lsr #32
    3950:	03000e18 	movweq	r0, #3608	; 0xe18
    3954:	c3050000 	movwgt	r0, #20480	; 0x5000
    3958:	00006b0a 	andeq	r6, r0, sl, lsl #22
    395c:	110e1c00 	tstne	lr, r0, lsl #24
    3960:	0500000b 	streq	r0, [r0, #-11]
    3964:	05c01dc5 	strbeq	r1, [r0, #3525]	; 0xdc5
    3968:	0e200000 	cdpeq	0, 2, cr0, cr0, cr0, {0}
    396c:	00000b2b 	andeq	r0, r0, fp, lsr #22
    3970:	ea1dc705 	b	77558c <__bss_end__+0x76b1e4>
    3974:	24000005 	strcs	r0, [r0], #-5
    3978:	0006440e 	andeq	r4, r6, lr, lsl #8
    397c:	0dca0500 	cfstr64eq	mvdx0, [sl]
    3980:	0000060e 	andeq	r0, r0, lr, lsl #12
    3984:	07210e28 	streq	r0, [r1, -r8, lsr #28]!
    3988:	cb050000 	blgt	143990 <__bss_end__+0x1395e8>
    398c:	00062809 	andeq	r2, r6, r9, lsl #16
    3990:	5f112c00 	svcpl	0x00112c00
    3994:	05006275 	streq	r6, [r0, #-629]	; 0xfffffd8b
    3998:	02dd11ce 	sbcseq	r1, sp, #-2147483597	; 0x80000033
    399c:	11300000 	teqne	r0, r0
    39a0:	0070755f 	rsbseq	r7, r0, pc, asr r5
    39a4:	0512cf05 	ldreq	ip, [r2, #-3845]	; 0xfffff0fb
    39a8:	38000003 	stmdacc	r0, {r0, r1}
    39ac:	72755f11 	rsbsvc	r5, r5, #68	; 0x44
    39b0:	07d00500 	ldrbeq	r0, [r0, r0, lsl #10]
    39b4:	00000025 	andeq	r0, r0, r5, lsr #32
    39b8:	02d70e3c 	sbcseq	r0, r7, #60, 28	; 0x3c0
    39bc:	d3050000 	movwle	r0, #20480	; 0x5000
    39c0:	00062e11 	andeq	r2, r6, r1, lsl lr
    39c4:	f90e4000 			; <UNDEFINED> instruction: 0xf90e4000
    39c8:	05000006 	streq	r0, [r0, #-6]
    39cc:	063e11d4 			; <UNDEFINED> instruction: 0x063e11d4
    39d0:	11430000 	mrsne	r0, (UNDEF: 67)
    39d4:	00626c5f 	rsbeq	r6, r2, pc, asr ip
    39d8:	dd11d705 	ldcle	7, cr13, [r1, #-20]	; 0xffffffec
    39dc:	44000002 	strmi	r0, [r0], #-2
    39e0:	0003260e 	andeq	r2, r3, lr, lsl #12
    39e4:	07da0500 	ldrbeq	r0, [sl, r0, lsl #10]
    39e8:	00000025 	andeq	r0, r0, r5, lsr #32
    39ec:	03520e4c 	cmpeq	r2, #76, 28	; 0x4c0
    39f0:	db050000 	blle	1439f8 <__bss_end__+0x139650>
    39f4:	0000840a 	andeq	r8, r0, sl, lsl #8
    39f8:	6d0e5000 	stcvs	0, cr5, [lr, #-0]
    39fc:	0500000a 	streq	r0, [r0, #-10]
    3a00:	046c12de 	strbteq	r1, [ip], #-734	; 0xfffffd22
    3a04:	0e540000 	cdpeq	0, 5, cr0, cr4, cr0, {0}
    3a08:	0000063e 	andeq	r0, r0, lr, lsr r6
    3a0c:	0b0ce205 	bleq	33c228 <__bss_end__+0x331e80>
    3a10:	58000001 	stmdapl	r0, {r0}
    3a14:	0005ca0e 	andeq	ip, r5, lr, lsl #20
    3a18:	0ee40500 	cdpeq	5, 14, cr0, cr4, cr0, {0}
    3a1c:	000000ff 	strdeq	r0, [r0], -pc	; <UNPREDICTABLE>
    3a20:	05370e5c 	ldreq	r0, [r7, #-3676]!	; 0xfffff1a4
    3a24:	e5050000 	str	r0, [r5, #-0]
    3a28:	00002509 	andeq	r2, r0, r9, lsl #10
    3a2c:	15006400 	strne	r6, [r0, #-1024]	; 0xfffffc00
    3a30:	00000025 	andeq	r0, r0, r5, lsr #32
    3a34:	0000046c 	andeq	r0, r0, ip, ror #8
    3a38:	00046c16 	andeq	r6, r4, r6, lsl ip
    3a3c:	006b1600 	rsbeq	r1, fp, r0, lsl #12
    3a40:	17160000 	ldrne	r0, [r6, -r0]
    3a44:	16000001 	strne	r0, [r0], -r1
    3a48:	00000025 	andeq	r0, r0, r5, lsr #32
    3a4c:	77040600 	strvc	r0, [r4, -r0, lsl #12]
    3a50:	0f000004 	svceq	0x00000004
    3a54:	0000046c 	andeq	r0, r0, ip, ror #8
    3a58:	00062817 	andeq	r2, r6, r7, lsl r8
    3a5c:	05042800 	streq	r2, [r4, #-2048]	; 0xfffff800
    3a60:	c0080260 	andgt	r0, r8, r0, ror #4
    3a64:	18000005 	stmdane	r0, {r0, r2}
    3a68:	00000592 	muleq	r0, r2, r5
    3a6c:	07026205 	streq	r6, [r2, -r5, lsl #4]
    3a70:	00000025 	andeq	r0, r0, r5, lsr #32
    3a74:	031f1800 	tsteq	pc, #0, 16
    3a78:	67050000 	strvs	r0, [r5, -r0]
    3a7c:	069a0b02 	ldreq	r0, [sl], r2, lsl #22
    3a80:	18040000 	stmdane	r4, {}	; <UNPREDICTABLE>
    3a84:	000004ab 	andeq	r0, r0, fp, lsr #9
    3a88:	14026705 	strne	r6, [r2], #-1797	; 0xfffff8fb
    3a8c:	0000069a 	muleq	r0, sl, r6
    3a90:	046a1808 	strbteq	r1, [sl], #-2056	; 0xfffff7f8
    3a94:	67050000 	strvs	r0, [r5, -r0]
    3a98:	069a1e02 	ldreq	r1, [sl], r2, lsl #28
    3a9c:	180c0000 	stmdane	ip, {}	; <UNPREDICTABLE>
    3aa0:	000005eb 	andeq	r0, r0, fp, ror #11
    3aa4:	08026905 	stmdaeq	r2, {r0, r2, r8, fp, sp, lr}
    3aa8:	00000025 	andeq	r0, r0, r5, lsr #32
    3aac:	02771810 	rsbseq	r1, r7, #16, 16	; 0x100000
    3ab0:	6a050000 	bvs	143ab8 <__bss_end__+0x139710>
    3ab4:	089a0802 	ldmeq	sl, {r1, fp}
    3ab8:	18140000 	ldmdane	r4, {}	; <UNPREDICTABLE>
    3abc:	00000607 	andeq	r0, r0, r7, lsl #12
    3ac0:	07026d05 	streq	r6, [r2, -r5, lsl #26]
    3ac4:	00000025 	andeq	r0, r0, r5, lsr #32
    3ac8:	05f51830 	ldrbeq	r1, [r5, #2096]!	; 0x830
    3acc:	6e050000 	cdpvs	0, 0, cr0, cr5, cr0, {0}
    3ad0:	08af1602 	stmiaeq	pc!, {r1, r9, sl, ip}	; <UNPREDICTABLE>
    3ad4:	18340000 	ldmdane	r4!, {}	; <UNPREDICTABLE>
    3ad8:	00000561 	andeq	r0, r0, r1, ror #10
    3adc:	07027005 	streq	r7, [r2, -r5]
    3ae0:	00000025 	andeq	r0, r0, r5, lsr #32
    3ae4:	05fd1838 	ldrbeq	r1, [sp, #2104]!	; 0x838
    3ae8:	72050000 	andvc	r0, r5, #0, 0
    3aec:	08c00a02 	stmiaeq	r0, {r1, r9, fp}^
    3af0:	183c0000 	ldmdane	ip!, {}	; <UNPREDICTABLE>
    3af4:	00000513 	andeq	r0, r0, r3, lsl r5
    3af8:	13027505 	movwne	r7, #9477	; 0x2505
    3afc:	0000018f 	andeq	r0, r0, pc, lsl #3
    3b00:	04891840 	streq	r1, [r9], #2112	; 0x840
    3b04:	76050000 	strvc	r0, [r5], -r0
    3b08:	00250702 	eoreq	r0, r5, r2, lsl #14
    3b0c:	18440000 	stmdane	r4, {}^	; <UNPREDICTABLE>
    3b10:	0000073b 	andeq	r0, r0, fp, lsr r7
    3b14:	13027705 	movwne	r7, #9989	; 0x2705
    3b18:	0000018f 	andeq	r0, r0, pc, lsl #3
    3b1c:	05731848 	ldrbeq	r1, [r3, #-2120]!	; 0xfffff7b8
    3b20:	78050000 	stmdavc	r5, {}	; <UNPREDICTABLE>
    3b24:	08c61402 	stmiaeq	r6, {r1, sl, ip}^
    3b28:	184c0000 	stmdane	ip, {}^	; <UNPREDICTABLE>
    3b2c:	000004b3 			; <UNDEFINED> instruction: 0x000004b3
    3b30:	07027b05 	streq	r7, [r2, -r5, lsl #22]
    3b34:	00000025 	andeq	r0, r0, r5, lsr #32
    3b38:	034a1850 	movteq	r1, #43088	; 0xa850
    3b3c:	7c050000 	stcvc	0, cr0, [r5], {-0}
    3b40:	01170902 	tsteq	r7, r2, lsl #18
    3b44:	18540000 	ldmdane	r4, {}^	; <UNPREDICTABLE>
    3b48:	0000058b 	andeq	r0, r0, fp, lsl #11
    3b4c:	07029f05 	streq	r9, [r2, -r5, lsl #30]
    3b50:	00000875 	andeq	r0, r0, r5, ror r8
    3b54:	05591958 	ldrbeq	r1, [r9, #-2392]	; 0xfffff6a8
    3b58:	a3050000 	movwge	r0, #20480	; 0x5000
    3b5c:	02c01302 	sbceq	r1, r0, #134217728	; 0x8000000
    3b60:	01480000 	mrseq	r0, (UNDEF: 72)
    3b64:	0004f119 	andeq	pc, r4, r9, lsl r1	; <UNPREDICTABLE>
    3b68:	02a40500 	adceq	r0, r4, #0, 10
    3b6c:	00027d12 	andeq	r7, r2, r2, lsl sp
    3b70:	19014c00 	stmdbne	r1, {sl, fp, lr}
    3b74:	000006ef 	andeq	r0, r0, pc, ror #13
    3b78:	0c02a805 	stceq	8, cr10, [r2], {5}
    3b7c:	000008d7 	ldrdeq	r0, [r0], -r7
    3b80:	081902dc 	ldmdaeq	r9, {r2, r3, r4, r6, r7, r9}
    3b84:	05000003 	streq	r0, [r0, #-3]
    3b88:	5b1002ad 	blpl	404644 <__bss_end__+0x3fa29c>
    3b8c:	e0000006 	and	r0, r0, r6
    3b90:	02ed1902 	rsceq	r1, sp, #32768	; 0x8000
    3b94:	af050000 	svcge	0x00050000
    3b98:	08e30a02 	stmiaeq	r3!, {r1, r9, fp}^
    3b9c:	02ec0000 	rsceq	r0, ip, #0, 0
    3ba0:	4e040600 	cfmadd32mi	mvax0, mvfx0, mvfx4, mvfx0
    3ba4:	15000004 	strne	r0, [r0, #-4]
    3ba8:	00000025 	andeq	r0, r0, r5, lsr #32
    3bac:	000005e4 	andeq	r0, r0, r4, ror #11
    3bb0:	00046c16 	andeq	r6, r4, r6, lsl ip
    3bb4:	006b1600 	rsbeq	r1, fp, r0, lsl #12
    3bb8:	e4160000 	ldr	r0, [r6], #-0
    3bbc:	16000005 	strne	r0, [r0], -r5
    3bc0:	00000025 	andeq	r0, r0, r5, lsr #32
    3bc4:	24040600 	strcs	r0, [r4], #-1536	; 0xfffffa00
    3bc8:	06000001 	streq	r0, [r0], -r1
    3bcc:	0005c604 	andeq	ip, r5, r4, lsl #12
    3bd0:	00901500 	addseq	r1, r0, r0, lsl #10
    3bd4:	060e0000 	streq	r0, [lr], -r0
    3bd8:	6c160000 	ldcvs	0, cr0, [r6], {-0}
    3bdc:	16000004 	strne	r0, [r0], -r4
    3be0:	0000006b 	andeq	r0, r0, fp, rrx
    3be4:	00009016 	andeq	r9, r0, r6, lsl r0
    3be8:	00251600 	eoreq	r1, r5, r0, lsl #12
    3bec:	06000000 	streq	r0, [r0], -r0
    3bf0:	0005f004 	andeq	pc, r5, r4
    3bf4:	00251500 	eoreq	r1, r5, r0, lsl #10
    3bf8:	06280000 	strteq	r0, [r8], -r0
    3bfc:	6c160000 	ldcvs	0, cr0, [r6], {-0}
    3c00:	16000004 	strne	r0, [r0], -r4
    3c04:	0000006b 	andeq	r0, r0, fp, rrx
    3c08:	14040600 	strne	r0, [r4], #-1536	; 0xfffffa00
    3c0c:	0b000006 	bleq	3c2c <__code_start__-0x43d4>
    3c10:	0000004f 	andeq	r0, r0, pc, asr #32
    3c14:	0000063e 	andeq	r0, r0, lr, lsr r6
    3c18:	00002c0c 	andeq	r2, r0, ip, lsl #24
    3c1c:	0b000200 	bleq	4424 <__code_start__-0x3bdc>
    3c20:	0000004f 	andeq	r0, r0, pc, asr #32
    3c24:	0000064e 	andeq	r0, r0, lr, asr #12
    3c28:	00002c0c 	andeq	r2, r0, ip, lsl #24
    3c2c:	08000000 	stmdaeq	r0, {}	; <UNPREDICTABLE>
    3c30:	000005b0 			; <UNDEFINED> instruction: 0x000005b0
    3c34:	1a011f05 	bne	4b850 <__bss_end__+0x414a8>
    3c38:	0000030b 	andeq	r0, r0, fp, lsl #6
    3c3c:	0006d61a 	andeq	sp, r6, sl, lsl r6
    3c40:	23050c00 	movwcs	r0, #23552	; 0x5c00
    3c44:	06940801 	ldreq	r0, [r4], r1, lsl #16
    3c48:	d8180000 	ldmdale	r8, {}	; <UNPREDICTABLE>
    3c4c:	05000005 	streq	r0, [r0, #-5]
    3c50:	94110125 	ldrls	r0, [r1], #-293	; 0xfffffedb
    3c54:	00000006 	andeq	r0, r0, r6
    3c58:	0004ea18 	andeq	lr, r4, r8, lsl sl
    3c5c:	01260500 			; <UNDEFINED> instruction: 0x01260500
    3c60:	00002507 	andeq	r2, r0, r7, lsl #10
    3c64:	aa180400 	bge	604c6c <__bss_end__+0x5fa8c4>
    3c68:	05000005 	streq	r0, [r0, #-5]
    3c6c:	9a0b0127 	bls	2c4110 <__bss_end__+0x2b9d68>
    3c70:	08000006 	stmdaeq	r0, {r1, r2}
    3c74:	5b040600 	blpl	10547c <__bss_end__+0xfb0d4>
    3c78:	06000006 	streq	r0, [r0], -r6
    3c7c:	00064e04 	andeq	r4, r6, r4, lsl #28
    3c80:	026f1a00 	rsbeq	r1, pc, #0, 20
    3c84:	050e0000 	streq	r0, [lr, #-0]
    3c88:	d908013f 	stmdble	r8, {r0, r1, r2, r3, r4, r5, r8}
    3c8c:	18000006 	stmdane	r0, {r1, r2}
    3c90:	0000062f 	andeq	r0, r0, pc, lsr #12
    3c94:	12014005 	andne	r4, r1, #5, 0
    3c98:	000006d9 	ldrdeq	r0, [r0], -r9
    3c9c:	06691800 	strbteq	r1, [r9], -r0, lsl #16
    3ca0:	41050000 	mrsmi	r0, (UNDEF: 5)
    3ca4:	06d91201 	ldrbeq	r1, [r9], r1, lsl #4
    3ca8:	18060000 	stmdane	r6, {}	; <UNPREDICTABLE>
    3cac:	0000068d 	andeq	r0, r0, sp, lsl #13
    3cb0:	12014205 	andne	r4, r1, #1342177280	; 0x50000000
    3cb4:	00000056 	andeq	r0, r0, r6, asr r0
    3cb8:	560b000c 	strpl	r0, [fp], -ip
    3cbc:	e9000000 	stmdb	r0, {}	; <UNPREDICTABLE>
    3cc0:	0c000006 	stceq	0, cr0, [r0], {6}
    3cc4:	0000002c 	andeq	r0, r0, ip, lsr #32
    3cc8:	d01b0002 	andsle	r0, fp, r2
    3ccc:	07028005 	streq	r8, [r2, -r5]
    3cd0:	000007fe 	strdeq	r0, [r0], -lr
    3cd4:	0006ba18 	andeq	fp, r6, r8, lsl sl
    3cd8:	02820500 	addeq	r0, r2, #0, 10
    3cdc:	00002c18 	andeq	r2, r0, r8, lsl ip
    3ce0:	6f180000 	svcvs	0x00180000
    3ce4:	05000006 	streq	r0, [r0, #-6]
    3ce8:	17120283 	ldrne	r0, [r2, -r3, lsl #5]
    3cec:	04000001 	streq	r0, [r0], #-1
    3cf0:	00050618 	andeq	r0, r5, r8, lsl r6
    3cf4:	02840500 	addeq	r0, r4, #0, 10
    3cf8:	0007fe10 	andeq	pc, r7, r0, lsl lr	; <UNPREDICTABLE>
    3cfc:	12180800 	andsne	r0, r8, #0, 16
    3d00:	05000007 	streq	r0, [r0, #-7]
    3d04:	a5170285 	ldrge	r0, [r7, #-645]	; 0xfffffd7b
    3d08:	24000001 	strcs	r0, [r0], #-1
    3d0c:	00047a18 	andeq	r7, r4, r8, lsl sl
    3d10:	02860500 	addeq	r0, r6, #0, 10
    3d14:	0000250f 	andeq	r2, r0, pc, lsl #10
    3d18:	d3184800 	tstle	r8, #0, 16
    3d1c:	05000005 	streq	r0, [r0, #-5]
    3d20:	642c0287 	strtvs	r0, [ip], #-647	; 0xfffffd79
    3d24:	50000000 	andpl	r0, r0, r0
    3d28:	00072818 	andeq	r2, r7, r8, lsl r8
    3d2c:	02880500 	addeq	r0, r8, #0, 10
    3d30:	0006a01a 	andeq	sl, r6, sl, lsl r0
    3d34:	de185800 	cdple	8, 1, cr5, cr8, cr0, {0}
    3d38:	05000005 	streq	r0, [r0, #-5]
    3d3c:	ff160289 			; <UNDEFINED> instruction: 0xff160289
    3d40:	68000000 	stmdavs	r0, {}	; <UNPREDICTABLE>
    3d44:	00072d18 	andeq	r2, r7, r8, lsl sp
    3d48:	028a0500 	addeq	r0, sl, #0, 10
    3d4c:	0000ff16 	andeq	pc, r0, r6, lsl pc	; <UNPREDICTABLE>
    3d50:	7d187000 	ldcvc	0, cr7, [r8, #-0]
    3d54:	05000005 	streq	r0, [r0, #-5]
    3d58:	ff16028b 			; <UNDEFINED> instruction: 0xff16028b
    3d5c:	78000000 	stmdavc	r0, {}	; <UNPREDICTABLE>
    3d60:	0006e518 	andeq	lr, r6, r8, lsl r5
    3d64:	028c0500 	addeq	r0, ip, #0, 10
    3d68:	00080e10 	andeq	r0, r8, r0, lsl lr
    3d6c:	fa188000 	blx	623d74 <__bss_end__+0x6199cc>
    3d70:	05000004 	streq	r0, [r0, #-4]
    3d74:	1e10028d 	cdpne	2, 1, cr0, cr0, cr13, {4}
    3d78:	88000008 	stmdahi	r0, {r3}
    3d7c:	00069a18 	andeq	r9, r6, r8, lsl sl
    3d80:	028e0500 	addeq	r0, lr, #0, 10
    3d84:	0000250f 	andeq	r2, r0, pc, lsl #10
    3d88:	4018a000 	andsmi	sl, r8, r0
    3d8c:	05000004 	streq	r0, [r0, #-4]
    3d90:	ff16028f 			; <UNDEFINED> instruction: 0xff16028f
    3d94:	a4000000 	strge	r0, [r0], #-0
    3d98:	0002bf18 	andeq	fp, r2, r8, lsl pc
    3d9c:	02900500 	addseq	r0, r0, #0, 10
    3da0:	0000ff16 	andeq	pc, r0, r6, lsl pc	; <UNPREDICTABLE>
    3da4:	2f18ac00 	svccs	0x0018ac00
    3da8:	05000004 	streq	r0, [r0, #-4]
    3dac:	ff160291 			; <UNDEFINED> instruction: 0xff160291
    3db0:	b4000000 	strlt	r0, [r0], #-0
    3db4:	00028b18 	andeq	r8, r2, r8, lsl fp
    3db8:	02920500 	addseq	r0, r2, #0, 10
    3dbc:	0000ff16 	andeq	pc, r0, r6, lsl pc	; <UNPREDICTABLE>
    3dc0:	9a18bc00 	bls	632dc8 <__bss_end__+0x628a20>
    3dc4:	05000002 	streq	r0, [r0, #-2]
    3dc8:	ff160293 			; <UNDEFINED> instruction: 0xff160293
    3dcc:	c4000000 	strgt	r0, [r0], #-0
    3dd0:	00059018 	andeq	r9, r5, r8, lsl r0
    3dd4:	02940500 	addseq	r0, r4, #0, 10
    3dd8:	00002508 	andeq	r2, r0, r8, lsl #10
    3ddc:	0b00cc00 	bleq	36de4 <__bss_end__+0x2ca3c>
    3de0:	0000011d 	andeq	r0, r0, sp, lsl r1
    3de4:	0000080e 	andeq	r0, r0, lr, lsl #16
    3de8:	00002c0c 	andeq	r2, r0, ip, lsl #24
    3dec:	0b001900 	bleq	a1f4 <__FUNCTION__.4+0x4>
    3df0:	0000011d 	andeq	r0, r0, sp, lsl r1
    3df4:	0000081e 	andeq	r0, r0, lr, lsl r8
    3df8:	00002c0c 	andeq	r2, r0, ip, lsl #24
    3dfc:	0b000700 	bleq	5a04 <__code_start__-0x25fc>
    3e00:	0000011d 	andeq	r0, r0, sp, lsl r1
    3e04:	0000082e 	andeq	r0, r0, lr, lsr #16
    3e08:	00002c0c 	andeq	r2, r0, ip, lsl #24
    3e0c:	1b001700 	blne	9a14 <uart_put8+0x20>
    3e10:	029905f0 	addseq	r0, r9, #240, 10	; 0x3c000000
    3e14:	00085507 	andeq	r5, r8, r7, lsl #10
    3e18:	05491800 	strbeq	r1, [r9, #-2048]	; 0xfffff800
    3e1c:	9c050000 	stcls	0, cr0, [r5], {-0}
    3e20:	08551b02 	ldmdaeq	r5, {r1, r8, r9, fp, ip}^
    3e24:	18000000 	stmdane	r0, {}	; <UNPREDICTABLE>
    3e28:	000006dc 	ldrdeq	r0, [r0], -ip
    3e2c:	18029d05 	stmdane	r2, {r0, r2, r8, sl, fp, ip, pc}
    3e30:	00000865 	andeq	r0, r0, r5, ror #16
    3e34:	050b0078 	streq	r0, [fp, #-120]	; 0xffffff88
    3e38:	65000003 	strvs	r0, [r0, #-3]
    3e3c:	0c000008 	stceq	0, cr0, [r0], {8}
    3e40:	0000002c 	andeq	r0, r0, ip, lsr #32
    3e44:	2c0b001d 	stccs	0, cr0, [fp], {29}
    3e48:	75000000 	strvc	r0, [r0, #-0]
    3e4c:	0c000008 	stceq	0, cr0, [r0], {8}
    3e50:	0000002c 	andeq	r0, r0, ip, lsr #32
    3e54:	f01c001d 			; <UNDEFINED> instruction: 0xf01c001d
    3e58:	03027e05 	movweq	r7, #11781	; 0x2e05
    3e5c:	0000089a 	muleq	r0, sl, r8
    3e60:	0006281d 	andeq	r2, r6, sp, lsl r8
    3e64:	02950500 	addseq	r0, r5, #0, 10
    3e68:	0006e90b 	andeq	lr, r6, fp, lsl #18
    3e6c:	06ff1d00 	ldrbteq	r1, [pc], r0, lsl #26
    3e70:	9e050000 	cdpls	0, 0, cr0, cr5, cr0, {0}
    3e74:	082e0b02 	stmdaeq	lr!, {r1, r8, r9, fp}
    3e78:	0b000000 	bleq	3e80 <__code_start__-0x4180>
    3e7c:	0000011d 	andeq	r0, r0, sp, lsl r1
    3e80:	000008aa 	andeq	r0, r0, sl, lsr #17
    3e84:	00002c0c 	andeq	r2, r0, ip, lsl #24
    3e88:	07001800 	streq	r1, [r0, -r0, lsl #16]
    3e8c:	000002b4 			; <UNDEFINED> instruction: 0x000002b4
    3e90:	08aa0406 	stmiaeq	sl!, {r1, r2, sl}
    3e94:	c01e0000 	andsgt	r0, lr, r0
    3e98:	16000008 	strne	r0, [r0], -r8
    3e9c:	0000046c 	andeq	r0, r0, ip, ror #8
    3ea0:	b5040600 	strlt	r0, [r4, #-1536]	; 0xfffffa00
    3ea4:	06000008 	streq	r0, [r0], -r8
    3ea8:	00018f04 	andeq	r8, r1, r4, lsl #30
    3eac:	08d71e00 	ldmeq	r7, {r9, sl, fp, ip}^
    3eb0:	25160000 	ldrcs	r0, [r6, #-0]
    3eb4:	00000000 	andeq	r0, r0, r0
    3eb8:	08dd0406 	ldmeq	sp, {r1, r2, sl}^
    3ebc:	04060000 	streq	r0, [r6], #-0
    3ec0:	000008cc 	andeq	r0, r0, ip, asr #17
    3ec4:	00064e0b 	andeq	r4, r6, fp, lsl #28
    3ec8:	0008f300 	andeq	pc, r8, r0, lsl #6
    3ecc:	002c0c00 	eoreq	r0, ip, r0, lsl #24
    3ed0:	00020000 	andeq	r0, r2, r0
    3ed4:	0006ae1f 	andeq	sl, r6, pc, lsl lr
    3ed8:	032e0500 			; <UNDEFINED> instruction: 0x032e0500
    3edc:	00046c17 	andeq	r6, r4, r7, lsl ip
    3ee0:	06a71f00 	strteq	r1, [r7], r0, lsl #30
    3ee4:	2f050000 	svccs	0x00050000
    3ee8:	04721d03 	ldrbteq	r1, [r2], #-3331	; 0xfffff2fd
    3eec:	52050000 	andpl	r0, r5, #0, 0
    3ef0:	06000006 	streq	r0, [r0], -r6
    3ef4:	09190f21 	ldmdbeq	r9, {r0, r5, r8, r9, sl, fp}
    3ef8:	04060000 	streq	r0, [r6], #-0
    3efc:	0000091f 	andeq	r0, r0, pc, lsl r9
    3f00:	00002515 	andeq	r2, r0, r5, lsl r5
    3f04:	00092e00 	andeq	r2, r9, r0, lsl #28
    3f08:	00251600 	eoreq	r1, r5, r0, lsl #12
    3f0c:	20000000 	andcs	r0, r0, r0
    3f10:	00000493 	muleq	r0, r3, r4
    3f14:	0d162306 	ldceq	3, cr2, [r6, #-24]	; 0xffffffe8
    3f18:	21000009 	tstcs	r0, r9
    3f1c:	00000068 	andeq	r0, r0, r8, rrx
    3f20:	ec060401 	cfstrs	mvf0, [r6], {1}
    3f24:	20000097 	mulcs	r0, r7, r0
    3f28:	01000000 	mrseq	r0, (UNDEF: 0)
    3f2c:	00098d9c 	muleq	r9, ip, sp
    3f30:	97f82200 	ldrbls	r2, [r8, r0, lsl #4]!
    3f34:	098d0000 	stmibeq	sp, {}	; <UNPREDICTABLE>
    3f38:	09670000 	stmdbeq	r7!, {}^	; <UNPREDICTABLE>
    3f3c:	01230000 			; <UNDEFINED> instruction: 0x01230000
    3f40:	5c030550 	cfstr32pl	mvfx0, [r3], {80}	; 0x50
    3f44:	000000a3 	andeq	r0, r0, r3, lsr #1
    3f48:	0097fc24 	addseq	pc, r7, r4, lsr #24
    3f4c:	00099900 	andeq	r9, r9, r0, lsl #18
    3f50:	98042200 	stmdals	r4, {r9, sp}
    3f54:	09a50000 	stmibeq	r5!, {}	; <UNPREDICTABLE>
    3f58:	09830000 	stmibeq	r3, {}	; <UNPREDICTABLE>
    3f5c:	01230000 			; <UNDEFINED> instruction: 0x01230000
    3f60:	003a0150 	eorseq	r0, sl, r0, asr r1
    3f64:	00980824 	addseq	r0, r8, r4, lsr #16
    3f68:	0009b100 	andeq	fp, r9, r0, lsl #2
    3f6c:	02250000 	eoreq	r0, r5, #0, 0
    3f70:	02000008 	andeq	r0, r0, #8, 0
    3f74:	06000008 	streq	r0, [r0], -r8
    3f78:	f425052e 	vld3.8	{d0,d2,d4}, [r5 :128], lr
    3f7c:	f4000007 	vst4.8	{d0-d3}, [r0], r7
    3f80:	06000007 	streq	r0, [r0], -r7
    3f84:	07250657 			; <UNDEFINED> instruction: 0x07250657
    3f88:	07000008 	streq	r0, [r0, -r8]
    3f8c:	06000008 	streq	r0, [r0], -r8
    3f90:	10250664 	eorne	r0, r5, r4, ror #12
    3f94:	10000008 	andne	r0, r0, r8
    3f98:	06000008 	streq	r0, [r0], -r8
    3f9c:	8d000673 	stchi	6, cr0, [r0, #-460]	; 0xfffffe34
    3fa0:	0400000a 	streq	r0, [r0], #-10
    3fa4:	000e8100 	andeq	r8, lr, r0, lsl #2
    3fa8:	5a010400 	bpl	44fb0 <__bss_end__+0x3ac08>
    3fac:	0c000003 	stceq	0, cr0, [r0], {3}
    3fb0:	00000873 	andeq	r0, r0, r3, ror r8
    3fb4:	000004c1 	andeq	r0, r0, r1, asr #9
    3fb8:	0000980c 	andeq	r9, r0, ip, lsl #16
    3fbc:	00000044 	andeq	r0, r0, r4, asr #32
    3fc0:	00000f27 	andeq	r0, r0, r7, lsr #30
    3fc4:	69050402 	stmdbvs	r5, {r1, sl}
    3fc8:	0300746e 	movweq	r7, #1134	; 0x46e
    3fcc:	01ae0704 			; <UNDEFINED> instruction: 0x01ae0704
    3fd0:	01030000 	mrseq	r0, (UNDEF: 3)
    3fd4:	00005c06 	andeq	r5, r0, r6, lsl #24
    3fd8:	05020300 	streq	r0, [r2, #-768]	; 0xfffffd00
    3fdc:	000001fe 	strdeq	r0, [r0], -lr
    3fe0:	ed050403 	cfstrs	mvf0, [r5, #-12]
    3fe4:	03000001 	movweq	r0, #1
    3fe8:	01e80508 	mvneq	r0, r8, lsl #10
    3fec:	c0040000 	andgt	r0, r4, r0
    3ff0:	03000008 	movweq	r0, #8
    3ff4:	005b182e 	subseq	r1, fp, lr, lsr #16
    3ff8:	01030000 	mrseq	r0, (UNDEF: 3)
    3ffc:	00005a08 	andeq	r5, r0, r8, lsl #20
    4000:	07020300 	streq	r0, [r2, -r0, lsl #6]
    4004:	0000001c 	andeq	r0, r0, ip, lsl r0
    4008:	00021b04 	andeq	r1, r2, r4, lsl #22
    400c:	19340300 	ldmdbne	r4!, {r8, r9}
    4010:	00000075 	andeq	r0, r0, r5, ror r0
    4014:	a9070403 	stmdbge	r7, {r0, r1, sl}
    4018:	03000001 	movweq	r0, #1
    401c:	01a40708 			; <UNDEFINED> instruction: 0x01a40708
    4020:	04050000 	streq	r0, [r5], #-0
    4024:	00052804 	andeq	r2, r5, r4, lsl #16
    4028:	19220400 	stmdbne	r2!, {sl}
    402c:	00000091 	muleq	r0, r1, r0
    4030:	00970406 	addseq	r0, r7, r6, lsl #8
    4034:	3d070000 	stccc	0, cr0, [r7, #-0]
    4038:	04000006 	streq	r0, [r0], #-6
    403c:	0000056c 	andeq	r0, r0, ip, ror #10
    4040:	410e2c05 	tstmi	lr, r5, lsl #24
    4044:	04000000 	streq	r0, [r0], #-0
    4048:	0000064a 	andeq	r0, r0, sl, asr #12
    404c:	410e7205 	tstmi	lr, r5, lsl #4
    4050:	08000000 	stmdaeq	r0, {}	; <UNPREDICTABLE>
    4054:	00000530 	andeq	r0, r0, r0, lsr r5
    4058:	17015e06 	strne	r5, [r1, -r6, lsl #28]
    405c:	0000002c 	andeq	r0, r0, ip, lsr #32
    4060:	a6050409 	strge	r0, [r5], -r9, lsl #8
    4064:	0000e303 	andeq	lr, r0, r3, lsl #6
    4068:	051b0a00 	ldreq	r0, [fp, #-2560]	; 0xfffff600
    406c:	a8050000 	stmdage	r5, {}	; <UNPREDICTABLE>
    4070:	0000b40c 	andeq	fp, r0, ip, lsl #8
    4074:	04a40a00 	strteq	r0, [r4], #2560	; 0xa00
    4078:	a9050000 	stmdbge	r5, {}	; <UNPREDICTABLE>
    407c:	0000e313 	andeq	lr, r0, r3, lsl r3
    4080:	5b0b0000 	blpl	2c4088 <__bss_end__+0x2b9ce0>
    4084:	f3000000 	vhadd.u8	d0, d0, d0
    4088:	0c000000 	stceq	0, cr0, [r0], {-0}
    408c:	0000002c 	andeq	r0, r0, ip, lsr #32
    4090:	080d0003 	stmdaeq	sp, {r0, r1}
    4094:	1709a305 	strne	sl, [r9, -r5, lsl #6]
    4098:	0e000001 	cdpeq	0, 0, cr0, cr0, cr1, {0}
    409c:	00000635 	andeq	r0, r0, r5, lsr r6
    40a0:	2507a505 	strcs	sl, [r7, #-1285]	; 0xfffffafb
    40a4:	00000000 	andeq	r0, r0, r0
    40a8:	00067c0e 	andeq	r7, r6, lr, lsl #24
    40ac:	05aa0500 	streq	r0, [sl, #1280]!	; 0x500
    40b0:	000000c1 	andeq	r0, r0, r1, asr #1
    40b4:	b7040004 	strlt	r0, [r4, -r4]
    40b8:	05000005 	streq	r0, [r0, #-5]
    40bc:	00f303ab 	rscseq	r0, r3, fp, lsr #7
    40c0:	61040000 	mrsvs	r0, (UNDEF: 4)
    40c4:	05000004 	streq	r0, [r0, #-4]
    40c8:	00851baf 	addeq	r1, r5, pc, lsr #23
    40cc:	04060000 	streq	r0, [r6], #-0
    40d0:	00000135 	andeq	r0, r0, r5, lsr r1
    40d4:	63080103 	movwvs	r0, #33027	; 0x8103
    40d8:	0f000000 	svceq	0x00000000
    40dc:	00000135 	andeq	r0, r0, r5, lsr r1
    40e0:	00069204 	andeq	r9, r6, r4, lsl #4
    40e4:	19160700 	ldmdbne	r6, {r8, r9, sl}
    40e8:	00000075 	andeq	r0, r0, r5, ror r0
    40ec:	00047210 	andeq	r7, r4, r0, lsl r2
    40f0:	2f071800 	svccs	0x00071800
    40f4:	0001a708 	andeq	sl, r1, r8, lsl #14
    40f8:	05d80e00 	ldrbeq	r0, [r8, #3584]	; 0xe00
    40fc:	31070000 	mrscc	r0, (UNDEF: 7)
    4100:	0001a713 	andeq	sl, r1, r3, lsl r7
    4104:	5f110000 	svcpl	0x00110000
    4108:	3207006b 	andcc	r0, r7, #107, 0	; 0x6b
    410c:	00002507 	andeq	r2, r0, r7, lsl #10
    4110:	200e0400 	andcs	r0, lr, r0, lsl #8
    4114:	07000006 	streq	r0, [r0, -r6]
    4118:	00250b32 	eoreq	r0, r5, r2, lsr fp
    411c:	0e080000 	cdpeq	0, 0, cr0, cr8, cr0, {0}
    4120:	0000045b 	andeq	r0, r0, fp, asr r4
    4124:	25143207 	ldrcs	r3, [r4, #-519]	; 0xfffffdf9
    4128:	0c000000 	stceq	0, cr0, [r0], {-0}
    412c:	0006c70e 	andeq	ip, r6, lr, lsl #14
    4130:	1b320700 	blne	c85d38 <__bss_end__+0xc7b990>
    4134:	00000025 	andeq	r0, r0, r5, lsr #32
    4138:	785f1110 	ldmdavc	pc, {r4, r8, ip}^	; <UNPREDICTABLE>
    413c:	0b330700 	bleq	cc5d44 <__bss_end__+0xcbb99c>
    4140:	000001ad 	andeq	r0, r0, sp, lsr #3
    4144:	04060014 	streq	r0, [r6], #-20	; 0xffffffec
    4148:	0000014d 	andeq	r0, r0, sp, asr #2
    414c:	0001410b 	andeq	r4, r1, fp, lsl #2
    4150:	0001bd00 	andeq	fp, r1, r0, lsl #26
    4154:	002c0c00 	eoreq	r0, ip, r0, lsl #24
    4158:	00000000 	andeq	r0, r0, r0
    415c:	00049f10 	andeq	r9, r4, r0, lsl pc
    4160:	37072400 	strcc	r2, [r7, -r0, lsl #8]
    4164:	00024008 	andeq	r4, r2, r8
    4168:	02ce0e00 	sbceq	r0, lr, #0, 28
    416c:	39070000 	stmdbcc	r7, {}	; <UNPREDICTABLE>
    4170:	00002509 	andeq	r2, r0, r9, lsl #10
    4174:	600e0000 	andvs	r0, lr, r0
    4178:	07000006 	streq	r0, [r0, -r6]
    417c:	0025093a 	eoreq	r0, r5, sl, lsr r9
    4180:	0e040000 	cdpeq	0, 0, cr0, cr4, cr0, {0}
    4184:	000002e3 	andeq	r0, r0, r3, ror #5
    4188:	25093b07 	strcs	r3, [r9, #-2823]	; 0xfffff4f9
    418c:	08000000 	stmdaeq	r0, {}	; <UNPREDICTABLE>
    4190:	0007400e 	andeq	r4, r7, lr
    4194:	093c0700 	ldmdbeq	ip!, {r8, r9, sl}
    4198:	00000025 	andeq	r0, r0, r5, lsr #32
    419c:	05500e0c 	ldrbeq	r0, [r0, #-3596]	; 0xfffff1f4
    41a0:	3d070000 	stccc	0, cr0, [r7, #-0]
    41a4:	00002509 	andeq	r2, r0, r9, lsl #10
    41a8:	3f0e1000 	svccc	0x000e1000
    41ac:	07000005 	streq	r0, [r0, -r5]
    41b0:	0025093e 	eoreq	r0, r5, lr, lsr r9
    41b4:	0e140000 	cdpeq	0, 1, cr0, cr4, cr0, {0}
    41b8:	000006cc 	andeq	r0, r0, ip, asr #13
    41bc:	25093f07 	strcs	r3, [r9, #-3847]	; 0xfffff0f9
    41c0:	18000000 	stmdane	r0, {}	; <UNPREDICTABLE>
    41c4:	0005990e 	andeq	r9, r5, lr, lsl #18
    41c8:	09400700 	stmdbeq	r0, {r8, r9, sl}^
    41cc:	00000025 	andeq	r0, r0, r5, lsr #32
    41d0:	07070e1c 	smladeq	r7, ip, lr, r0
    41d4:	41070000 	mrsmi	r0, (UNDEF: 7)
    41d8:	00002509 	andeq	r2, r0, r9, lsl #10
    41dc:	12002000 	andne	r2, r0, #0, 0
    41e0:	000002f2 	strdeq	r0, [r0], -r2
    41e4:	4a070108 	bmi	1c460c <__bss_end__+0x1ba264>
    41e8:	00028508 	andeq	r8, r2, r8, lsl #10
    41ec:	044e0e00 	strbeq	r0, [lr], #-3584	; 0xfffff200
    41f0:	4b070000 	blmi	1c41f8 <__bss_end__+0x1b9e50>
    41f4:	0002850a 	andeq	r8, r2, sl, lsl #10
    41f8:	4c0e0000 	stcmi	0, cr0, [lr], {-0}
    41fc:	07000002 	streq	r0, [r0, -r2]
    4200:	0285094c 	addeq	r0, r5, #76, 18	; 0x130000
    4204:	13800000 	orrne	r0, r0, #0, 0
    4208:	00000684 	andeq	r0, r0, r4, lsl #13
    420c:	410a4e07 	tstmi	sl, r7, lsl #28
    4210:	00000001 	andeq	r0, r0, r1
    4214:	03171301 	tsteq	r7, #67108864	; 0x4000000
    4218:	51070000 	mrspl	r0, (UNDEF: 7)
    421c:	0001410a 	andeq	r4, r1, sl, lsl #2
    4220:	00010400 	andeq	r0, r1, r0, lsl #8
    4224:	0000830b 	andeq	r8, r0, fp, lsl #6
    4228:	00029500 	andeq	r9, r2, r0, lsl #10
    422c:	002c0c00 	eoreq	r0, ip, r0, lsl #24
    4230:	001f0000 	andseq	r0, pc, r0
    4234:	00055912 	andeq	r5, r5, r2, lsl r9
    4238:	07019000 	streq	r9, [r1, -r0]
    423c:	02d8085d 	sbcseq	r0, r8, #6094848	; 0x5d0000
    4240:	d80e0000 	stmdale	lr, {}	; <UNPREDICTABLE>
    4244:	07000005 	streq	r0, [r0, -r5]
    4248:	02d8125e 	sbcseq	r1, r8, #-536870907	; 0xe0000005
    424c:	0e000000 	cdpeq	0, 0, cr0, cr0, cr0, {0}
    4250:	000005f0 	strdeq	r0, [r0], -r0	; <UNPREDICTABLE>
    4254:	25065f07 	strcs	r5, [r6, #-3847]	; 0xfffff0f9
    4258:	04000000 	streq	r0, [r0], #-0
    425c:	0004560e 	andeq	r5, r4, lr, lsl #12
    4260:	09610700 	stmdbeq	r1!, {r8, r9, sl}^
    4264:	000002de 	ldrdeq	r0, [r0], -lr
    4268:	02f20e08 	rscseq	r0, r2, #8, 28	; 0x80
    426c:	62070000 	andvs	r0, r7, #0, 0
    4270:	0002401e 	andeq	r4, r2, lr, lsl r0
    4274:	06008800 	streq	r8, [r0], -r0, lsl #16
    4278:	00029504 	andeq	r9, r2, r4, lsl #10
    427c:	02ee0b00 	rsceq	r0, lr, #0, 22
    4280:	02ee0000 	rsceq	r0, lr, #0, 0
    4284:	2c0c0000 	stccs	0, cr0, [ip], {-0}
    4288:	1f000000 	svcne	0x00000000
    428c:	f4040600 	vst1.8	{d0-d2}, [r4], r0
    4290:	14000002 	strne	r0, [r0], #-2
    4294:	0005a310 	andeq	sl, r5, r0, lsl r3
    4298:	75070800 	strvc	r0, [r7, #-2048]	; 0xfffff800
    429c:	00031d08 	andeq	r1, r3, r8, lsl #26
    42a0:	02dd0e00 	sbcseq	r0, sp, #0, 28
    42a4:	76070000 	strvc	r0, [r7], -r0
    42a8:	00031d11 	andeq	r1, r3, r1, lsl sp
    42ac:	620e0000 	andvs	r0, lr, #0, 0
    42b0:	07000002 	streq	r0, [r0, -r2]
    42b4:	00250677 	eoreq	r0, r5, r7, ror r6
    42b8:	00040000 	andeq	r0, r4, r0
    42bc:	005b0406 	subseq	r0, fp, r6, lsl #8
    42c0:	c2100000 	andsgt	r0, r0, #0, 0
    42c4:	68000005 	stmdavs	r0, {r0, r2}
    42c8:	6608b507 	strvs	fp, [r8], -r7, lsl #10
    42cc:	11000004 	tstne	r0, r4
    42d0:	0700705f 	smlsdeq	r0, pc, r0, r7	; <UNPREDICTABLE>
    42d4:	031d12b6 	tsteq	sp, #1610612747	; 0x6000000b
    42d8:	11000000 	mrsne	r0, (UNDEF: 0)
    42dc:	0700725f 	smlsdeq	r0, pc, r2, r7	; <UNPREDICTABLE>
    42e0:	002507b7 	strhteq	r0, [r5], -r7
    42e4:	11040000 	mrsne	r0, (UNDEF: 4)
    42e8:	0700775f 	smlsdeq	r0, pc, r7, r7	; <UNPREDICTABLE>
    42ec:	002507b8 	strhteq	r0, [r5], -r8
    42f0:	0e080000 	cdpeq	0, 0, cr0, cr8, cr0, {0}
    42f4:	00000310 	andeq	r0, r0, r0, lsl r3
    42f8:	3a09b907 	bcc	27271c <__bss_end__+0x268374>
    42fc:	0c000000 	stceq	0, cr0, [r0], {-0}
    4300:	0004bb0e 	andeq	fp, r4, lr, lsl #22
    4304:	09ba0700 	ldmibeq	sl!, {r8, r9, sl}
    4308:	0000003a 	andeq	r0, r0, sl, lsr r0
    430c:	625f110e 	subsvs	r1, pc, #-2147483645	; 0x80000003
    4310:	bb070066 	bllt	1c44b0 <__bss_end__+0x1ba108>
    4314:	0002f511 	andeq	pc, r2, r1, lsl r5	; <UNPREDICTABLE>
    4318:	ab0e1000 	blge	388320 <__bss_end__+0x37df78>
    431c:	07000002 	streq	r0, [r0, -r2]
    4320:	002507bc 	strhteq	r0, [r5], -ip
    4324:	0e180000 	cdpeq	0, 1, cr0, cr8, cr0, {0}
    4328:	00000300 	andeq	r0, r0, r0, lsl #6
    432c:	830ac307 	movwhi	ip, #41735	; 0xa307
    4330:	1c000000 	stcne	0, cr0, [r0], {-0}
    4334:	000b110e 	andeq	r1, fp, lr, lsl #2
    4338:	1dc50700 	stclne	7, cr0, [r5]
    433c:	000005d8 	ldrdeq	r0, [r0], -r8
    4340:	0b2b0e20 	bleq	ac7bc8 <__bss_end__+0xabd820>
    4344:	c7070000 	strgt	r0, [r7, -r0]
    4348:	0006021d 	andeq	r0, r6, sp, lsl r2
    434c:	440e2400 	strmi	r2, [lr], #-1024	; 0xfffffc00
    4350:	07000006 	streq	r0, [r0, -r6]
    4354:	06260dca 	strteq	r0, [r6], -sl, asr #27
    4358:	0e280000 	cdpeq	0, 2, cr0, cr8, cr0, {0}
    435c:	00000721 	andeq	r0, r0, r1, lsr #14
    4360:	4009cb07 	andmi	ip, r9, r7, lsl #22
    4364:	2c000006 	stccs	0, cr0, [r0], {6}
    4368:	62755f11 	rsbsvs	r5, r5, #68	; 0x44
    436c:	11ce0700 	bicne	r0, lr, r0, lsl #14
    4370:	000002f5 	strdeq	r0, [r0], -r5
    4374:	755f1130 	ldrbvc	r1, [pc, #-304]	; 424c <__code_start__-0x3db4>
    4378:	cf070070 	svcgt	0x00070070
    437c:	00031d12 	andeq	r1, r3, r2, lsl sp
    4380:	5f113800 	svcpl	0x00113800
    4384:	07007275 	smlsdxeq	r0, r5, r2, r7
    4388:	002507d0 	ldrdeq	r0, [r5], -r0	; <UNPREDICTABLE>
    438c:	0e3c0000 	cdpeq	0, 3, cr0, cr12, cr0, {0}
    4390:	000002d7 	ldrdeq	r0, [r0], -r7
    4394:	4611d307 	ldrmi	sp, [r1], -r7, lsl #6
    4398:	40000006 	andmi	r0, r0, r6
    439c:	0006f90e 	andeq	pc, r6, lr, lsl #18
    43a0:	11d40700 	bicsne	r0, r4, r0, lsl #14
    43a4:	00000656 	andeq	r0, r0, r6, asr r6
    43a8:	6c5f1143 	ldfvse	f1, [pc], {67}	; 0x43
    43ac:	d7070062 	strle	r0, [r7, -r2, rrx]
    43b0:	0002f511 	andeq	pc, r2, r1, lsl r5	; <UNPREDICTABLE>
    43b4:	260e4400 	strcs	r4, [lr], -r0, lsl #8
    43b8:	07000003 	streq	r0, [r0, -r3]
    43bc:	002507da 	ldrdeq	r0, [r5], -sl	; <UNPREDICTABLE>
    43c0:	0e4c0000 	cdpeq	0, 4, cr0, cr12, cr0, {0}
    43c4:	00000352 	andeq	r0, r0, r2, asr r3
    43c8:	9c0adb07 			; <UNDEFINED> instruction: 0x9c0adb07
    43cc:	50000000 	andpl	r0, r0, r0
    43d0:	000a6d0e 	andeq	r6, sl, lr, lsl #26
    43d4:	12de0700 	sbcsne	r0, lr, #0, 14
    43d8:	00000484 	andeq	r0, r0, r4, lsl #9
    43dc:	063e0e54 			; <UNDEFINED> instruction: 0x063e0e54
    43e0:	e2070000 	and	r0, r7, #0, 0
    43e4:	0001230c 	andeq	r2, r1, ip, lsl #6
    43e8:	ca0e5800 	bgt	39a3f0 <__bss_end__+0x390048>
    43ec:	07000005 	streq	r0, [r0, -r5]
    43f0:	01170ee4 	tsteq	r7, r4, ror #29
    43f4:	0e5c0000 	cdpeq	0, 5, cr0, cr12, cr0, {0}
    43f8:	00000537 	andeq	r0, r0, r7, lsr r5
    43fc:	2509e507 	strcs	lr, [r9, #-1287]	; 0xfffffaf9
    4400:	64000000 	strvs	r0, [r0], #-0
    4404:	00251500 	eoreq	r1, r5, r0, lsl #10
    4408:	04840000 	streq	r0, [r4], #0
    440c:	84160000 	ldrhi	r0, [r6], #-0
    4410:	16000004 	strne	r0, [r0], -r4
    4414:	00000083 	andeq	r0, r0, r3, lsl #1
    4418:	00012f16 	andeq	r2, r1, r6, lsl pc
    441c:	00251600 	eoreq	r1, r5, r0, lsl #12
    4420:	06000000 	streq	r0, [r0], -r0
    4424:	00048f04 	andeq	r8, r4, r4, lsl #30
    4428:	04840f00 	streq	r0, [r4], #3840	; 0xf00
    442c:	28170000 	ldmdacs	r7, {}	; <UNPREDICTABLE>
    4430:	28000006 	stmdacs	r0, {r1, r2}
    4434:	02600704 	rsbeq	r0, r0, #4, 14	; 0x100000
    4438:	0005d808 	andeq	sp, r5, r8, lsl #16
    443c:	05921800 	ldreq	r1, [r2, #2048]	; 0x800
    4440:	62070000 	andvs	r0, r7, #0, 0
    4444:	00250702 	eoreq	r0, r5, r2, lsl #14
    4448:	18000000 	stmdane	r0, {}	; <UNPREDICTABLE>
    444c:	0000031f 	andeq	r0, r0, pc, lsl r3
    4450:	0b026707 	bleq	9e074 <__bss_end__+0x93ccc>
    4454:	000006b2 			; <UNDEFINED> instruction: 0x000006b2
    4458:	04ab1804 	strteq	r1, [fp], #2052	; 0x804
    445c:	67070000 	strvs	r0, [r7, -r0]
    4460:	06b21402 	ldrteq	r1, [r2], r2, lsl #8
    4464:	18080000 	stmdane	r8, {}	; <UNPREDICTABLE>
    4468:	0000046a 	andeq	r0, r0, sl, ror #8
    446c:	1e026707 	cdpne	7, 0, cr6, cr2, cr7, {0}
    4470:	000006b2 			; <UNDEFINED> instruction: 0x000006b2
    4474:	05eb180c 	strbeq	r1, [fp, #2060]!	; 0x80c
    4478:	69070000 	stmdbvs	r7, {}	; <UNPREDICTABLE>
    447c:	00250802 	eoreq	r0, r5, r2, lsl #16
    4480:	18100000 	ldmdane	r0, {}	; <UNPREDICTABLE>
    4484:	00000277 	andeq	r0, r0, r7, ror r2
    4488:	08026a07 	stmdaeq	r2, {r0, r1, r2, r9, fp, sp, lr}
    448c:	000008b2 			; <UNDEFINED> instruction: 0x000008b2
    4490:	06071814 			; <UNDEFINED> instruction: 0x06071814
    4494:	6d070000 	stcvs	0, cr0, [r7, #-0]
    4498:	00250702 	eoreq	r0, r5, r2, lsl #14
    449c:	18300000 	ldmdane	r0!, {}	; <UNPREDICTABLE>
    44a0:	000005f5 	strdeq	r0, [r0], -r5
    44a4:	16026e07 	strne	r6, [r2], -r7, lsl #28
    44a8:	000008c7 	andeq	r0, r0, r7, asr #17
    44ac:	05611834 	strbeq	r1, [r1, #-2100]!	; 0xfffff7cc
    44b0:	70070000 	andvc	r0, r7, r0
    44b4:	00250702 	eoreq	r0, r5, r2, lsl #14
    44b8:	18380000 	ldmdane	r8!, {}	; <UNPREDICTABLE>
    44bc:	000005fd 	strdeq	r0, [r0], -sp
    44c0:	0a027207 	beq	a0ce4 <__bss_end__+0x9693c>
    44c4:	000008d8 	ldrdeq	r0, [r0], -r8
    44c8:	0513183c 	ldreq	r1, [r3, #-2108]	; 0xfffff7c4
    44cc:	75070000 	strvc	r0, [r7, #-0]
    44d0:	01a71302 			; <UNDEFINED> instruction: 0x01a71302
    44d4:	18400000 	stmdane	r0, {}^	; <UNPREDICTABLE>
    44d8:	00000489 	andeq	r0, r0, r9, lsl #9
    44dc:	07027607 	streq	r7, [r2, -r7, lsl #12]
    44e0:	00000025 	andeq	r0, r0, r5, lsr #32
    44e4:	073b1844 	ldreq	r1, [fp, -r4, asr #16]!
    44e8:	77070000 	strvc	r0, [r7, -r0]
    44ec:	01a71302 			; <UNDEFINED> instruction: 0x01a71302
    44f0:	18480000 	stmdane	r8, {}^	; <UNPREDICTABLE>
    44f4:	00000573 	andeq	r0, r0, r3, ror r5
    44f8:	14027807 	strne	r7, [r2], #-2055	; 0xfffff7f9
    44fc:	000008de 	ldrdeq	r0, [r0], -lr
    4500:	04b3184c 	ldrteq	r1, [r3], #2124	; 0x84c
    4504:	7b070000 	blvc	1c450c <__bss_end__+0x1ba164>
    4508:	00250702 	eoreq	r0, r5, r2, lsl #14
    450c:	18500000 	ldmdane	r0, {}^	; <UNPREDICTABLE>
    4510:	0000034a 	andeq	r0, r0, sl, asr #6
    4514:	09027c07 	stmdbeq	r2, {r0, r1, r2, sl, fp, ip, sp, lr}
    4518:	0000012f 	andeq	r0, r0, pc, lsr #2
    451c:	058b1854 	streq	r1, [fp, #2132]	; 0x854
    4520:	9f070000 	svcls	0x00070000
    4524:	088d0702 	stmeq	sp, {r1, r8, r9, sl}
    4528:	19580000 	ldmdbne	r8, {}^	; <UNPREDICTABLE>
    452c:	00000559 	andeq	r0, r0, r9, asr r5
    4530:	1302a307 	movwne	sl, #8967	; 0x2307
    4534:	000002d8 	ldrdeq	r0, [r0], -r8
    4538:	f1190148 			; <UNDEFINED> instruction: 0xf1190148
    453c:	07000004 	streq	r0, [r0, -r4]
    4540:	951202a4 	ldrls	r0, [r2, #-676]	; 0xfffffd5c
    4544:	4c000002 	stcmi	0, cr0, [r0], {2}
    4548:	06ef1901 	strbteq	r1, [pc], r1, lsl #18
    454c:	a8070000 	stmdage	r7, {}	; <UNPREDICTABLE>
    4550:	08ef0c02 	stmiaeq	pc!, {r1, sl, fp}^	; <UNPREDICTABLE>
    4554:	02dc0000 	sbcseq	r0, ip, #0, 0
    4558:	00030819 	andeq	r0, r3, r9, lsl r8
    455c:	02ad0700 	adceq	r0, sp, #0, 14
    4560:	00067310 	andeq	r7, r6, r0, lsl r3
    4564:	1902e000 	stmdbne	r2, {sp, lr, pc}
    4568:	000002ed 	andeq	r0, r0, sp, ror #5
    456c:	0a02af07 	beq	b0190 <__bss_end__+0xa5de8>
    4570:	000008fb 	strdeq	r0, [r0], -fp
    4574:	060002ec 	streq	r0, [r0], -ip, ror #5
    4578:	00046604 	andeq	r6, r4, r4, lsl #12
    457c:	00251500 	eoreq	r1, r5, r0, lsl #10
    4580:	05fc0000 	ldrbeq	r0, [ip, #0]!
    4584:	84160000 	ldrhi	r0, [r6], #-0
    4588:	16000004 	strne	r0, [r0], -r4
    458c:	00000083 	andeq	r0, r0, r3, lsl #1
    4590:	0005fc16 	andeq	pc, r5, r6, lsl ip	; <UNPREDICTABLE>
    4594:	00251600 	eoreq	r1, r5, r0, lsl #12
    4598:	06000000 	streq	r0, [r0], -r0
    459c:	00013c04 	andeq	r3, r1, r4, lsl #24
    45a0:	de040600 	cfmadd32le	mvax0, mvfx0, mvfx4, mvfx0
    45a4:	15000005 	strne	r0, [r0, #-5]
    45a8:	000000a8 	andeq	r0, r0, r8, lsr #1
    45ac:	00000626 	andeq	r0, r0, r6, lsr #12
    45b0:	00048416 	andeq	r8, r4, r6, lsl r4
    45b4:	00831600 	addeq	r1, r3, r0, lsl #12
    45b8:	a8160000 	ldmdage	r6, {}	; <UNPREDICTABLE>
    45bc:	16000000 	strne	r0, [r0], -r0
    45c0:	00000025 	andeq	r0, r0, r5, lsr #32
    45c4:	08040600 	stmdaeq	r4, {r9, sl}
    45c8:	15000006 	strne	r0, [r0, #-6]
    45cc:	00000025 	andeq	r0, r0, r5, lsr #32
    45d0:	00000640 	andeq	r0, r0, r0, asr #12
    45d4:	00048416 	andeq	r8, r4, r6, lsl r4
    45d8:	00831600 	addeq	r1, r3, r0, lsl #12
    45dc:	06000000 	streq	r0, [r0], -r0
    45e0:	00062c04 	andeq	r2, r6, r4, lsl #24
    45e4:	005b0b00 	subseq	r0, fp, r0, lsl #22
    45e8:	06560000 	ldrbeq	r0, [r6], -r0
    45ec:	2c0c0000 	stccs	0, cr0, [ip], {-0}
    45f0:	02000000 	andeq	r0, r0, #0, 0
    45f4:	005b0b00 	subseq	r0, fp, r0, lsl #22
    45f8:	06660000 	strbteq	r0, [r6], -r0
    45fc:	2c0c0000 	stccs	0, cr0, [ip], {-0}
    4600:	00000000 	andeq	r0, r0, r0
    4604:	05b00800 	ldreq	r0, [r0, #2048]!	; 0x800
    4608:	1f070000 	svcne	0x00070000
    460c:	03231a01 			; <UNDEFINED> instruction: 0x03231a01
    4610:	d61a0000 	ldrle	r0, [sl], -r0
    4614:	0c000006 	stceq	0, cr0, [r0], {6}
    4618:	08012307 	stmdaeq	r1, {r0, r1, r2, r8, r9, sp}
    461c:	000006ac 	andeq	r0, r0, ip, lsr #13
    4620:	0005d818 	andeq	sp, r5, r8, lsl r8
    4624:	01250700 			; <UNDEFINED> instruction: 0x01250700
    4628:	0006ac11 	andeq	sl, r6, r1, lsl ip
    462c:	ea180000 	b	604634 <__bss_end__+0x5fa28c>
    4630:	07000004 	streq	r0, [r0, -r4]
    4634:	25070126 	strcs	r0, [r7, #-294]	; 0xfffffeda
    4638:	04000000 	streq	r0, [r0], #-0
    463c:	0005aa18 	andeq	sl, r5, r8, lsl sl
    4640:	01270700 			; <UNDEFINED> instruction: 0x01270700
    4644:	0006b20b 	andeq	fp, r6, fp, lsl #4
    4648:	06000800 	streq	r0, [r0], -r0, lsl #16
    464c:	00067304 	andeq	r7, r6, r4, lsl #6
    4650:	66040600 	strvs	r0, [r4], -r0, lsl #12
    4654:	1a000006 	bne	4674 <__code_start__-0x398c>
    4658:	0000026f 	andeq	r0, r0, pc, ror #4
    465c:	013f070e 	teqeq	pc, lr, lsl #14
    4660:	0006f108 	andeq	pc, r6, r8, lsl #2
    4664:	062f1800 	strteq	r1, [pc], -r0, lsl #16
    4668:	40070000 	andmi	r0, r7, r0
    466c:	06f11201 	ldrbteq	r1, [r1], r1, lsl #4
    4670:	18000000 	stmdane	r0, {}	; <UNPREDICTABLE>
    4674:	00000669 	andeq	r0, r0, r9, ror #12
    4678:	12014107 	andne	r4, r1, #-1073741823	; 0xc0000001
    467c:	000006f1 	strdeq	r0, [r0], -r1
    4680:	068d1806 	streq	r1, [sp], r6, lsl #16
    4684:	42070000 	andmi	r0, r7, #0, 0
    4688:	00621201 	rsbeq	r1, r2, r1, lsl #4
    468c:	000c0000 	andeq	r0, ip, r0
    4690:	0000620b 	andeq	r6, r0, fp, lsl #4
    4694:	00070100 	andeq	r0, r7, r0, lsl #2
    4698:	002c0c00 	eoreq	r0, ip, r0, lsl #24
    469c:	00020000 	andeq	r0, r2, r0
    46a0:	8007d01b 	andhi	sp, r7, fp, lsl r0
    46a4:	08160702 	ldmdaeq	r6, {r1, r8, r9, sl}
    46a8:	ba180000 	blt	6046b0 <__bss_end__+0x5fa308>
    46ac:	07000006 	streq	r0, [r0, -r6]
    46b0:	2c180282 	lfmcs	f0, 4, [r8], {130}	; 0x82
    46b4:	00000000 	andeq	r0, r0, r0
    46b8:	00066f18 	andeq	r6, r6, r8, lsl pc
    46bc:	02830700 	addeq	r0, r3, #0, 14
    46c0:	00012f12 	andeq	r2, r1, r2, lsl pc
    46c4:	06180400 	ldreq	r0, [r8], -r0, lsl #8
    46c8:	07000005 	streq	r0, [r0, -r5]
    46cc:	16100284 	ldrne	r0, [r0], -r4, lsl #5
    46d0:	08000008 	stmdaeq	r0, {r3}
    46d4:	00071218 	andeq	r1, r7, r8, lsl r2
    46d8:	02850700 	addeq	r0, r5, #0, 14
    46dc:	0001bd17 	andeq	fp, r1, r7, lsl sp
    46e0:	7a182400 	bvc	60d6e8 <__bss_end__+0x603340>
    46e4:	07000004 	streq	r0, [r0, -r4]
    46e8:	250f0286 	strcs	r0, [pc, #-646]	; 446a <__code_start__-0x3b96>
    46ec:	48000000 	stmdami	r0, {}	; <UNPREDICTABLE>
    46f0:	0005d318 	andeq	sp, r5, r8, lsl r3
    46f4:	02870700 	addeq	r0, r7, #0, 14
    46f8:	00007c2c 	andeq	r7, r0, ip, lsr #24
    46fc:	28185000 	ldmdacs	r8, {ip, lr}
    4700:	07000007 	streq	r0, [r0, -r7]
    4704:	b81a0288 	ldmdalt	sl, {r3, r7, r9}
    4708:	58000006 	stmdapl	r0, {r1, r2}
    470c:	0005de18 	andeq	sp, r5, r8, lsl lr
    4710:	02890700 	addeq	r0, r9, #0, 14
    4714:	00011716 	andeq	r1, r1, r6, lsl r7
    4718:	2d186800 	ldccs	8, cr6, [r8, #-0]
    471c:	07000007 	streq	r0, [r0, -r7]
    4720:	1716028a 	ldrne	r0, [r6, -sl, lsl #5]
    4724:	70000001 	andvc	r0, r0, r1
    4728:	00057d18 	andeq	r7, r5, r8, lsl sp
    472c:	028b0700 	addeq	r0, fp, #0, 14
    4730:	00011716 	andeq	r1, r1, r6, lsl r7
    4734:	e5187800 	ldr	r7, [r8, #-2048]	; 0xfffff800
    4738:	07000006 	streq	r0, [r0, -r6]
    473c:	2610028c 	ldrcs	r0, [r0], -ip, lsl #5
    4740:	80000008 	andhi	r0, r0, r8
    4744:	0004fa18 	andeq	pc, r4, r8, lsl sl	; <UNPREDICTABLE>
    4748:	028d0700 	addeq	r0, sp, #0, 14
    474c:	00083610 	andeq	r3, r8, r0, lsl r6
    4750:	9a188800 	bls	626758 <__bss_end__+0x61c3b0>
    4754:	07000006 	streq	r0, [r0, -r6]
    4758:	250f028e 	strcs	r0, [pc, #-654]	; 44d2 <__code_start__-0x3b2e>
    475c:	a0000000 	andge	r0, r0, r0
    4760:	00044018 	andeq	r4, r4, r8, lsl r0
    4764:	028f0700 	addeq	r0, pc, #0, 14
    4768:	00011716 	andeq	r1, r1, r6, lsl r7
    476c:	bf18a400 	svclt	0x0018a400
    4770:	07000002 	streq	r0, [r0, -r2]
    4774:	17160290 			; <UNDEFINED> instruction: 0x17160290
    4778:	ac000001 	stcge	0, cr0, [r0], {1}
    477c:	00042f18 	andeq	r2, r4, r8, lsl pc
    4780:	02910700 	addseq	r0, r1, #0, 14
    4784:	00011716 	andeq	r1, r1, r6, lsl r7
    4788:	8b18b400 	blhi	631790 <__bss_end__+0x6273e8>
    478c:	07000002 	streq	r0, [r0, -r2]
    4790:	17160292 			; <UNDEFINED> instruction: 0x17160292
    4794:	bc000001 	stclt	0, cr0, [r0], {1}
    4798:	00029a18 	andeq	r9, r2, r8, lsl sl
    479c:	02930700 	addseq	r0, r3, #0, 14
    47a0:	00011716 	andeq	r1, r1, r6, lsl r7
    47a4:	9018c400 	andsls	ip, r8, r0, lsl #8
    47a8:	07000005 	streq	r0, [r0, -r5]
    47ac:	25080294 	strcs	r0, [r8, #-660]	; 0xfffffd6c
    47b0:	cc000000 	stcgt	0, cr0, [r0], {-0}
    47b4:	01350b00 	teqeq	r5, r0, lsl #22
    47b8:	08260000 	stmdaeq	r6!, {}	; <UNPREDICTABLE>
    47bc:	2c0c0000 	stccs	0, cr0, [ip], {-0}
    47c0:	19000000 	stmdbne	r0, {}	; <UNPREDICTABLE>
    47c4:	01350b00 	teqeq	r5, r0, lsl #22
    47c8:	08360000 	ldmdaeq	r6!, {}	; <UNPREDICTABLE>
    47cc:	2c0c0000 	stccs	0, cr0, [ip], {-0}
    47d0:	07000000 	streq	r0, [r0, -r0]
    47d4:	01350b00 	teqeq	r5, r0, lsl #22
    47d8:	08460000 	stmdaeq	r6, {}^	; <UNPREDICTABLE>
    47dc:	2c0c0000 	stccs	0, cr0, [ip], {-0}
    47e0:	17000000 	strne	r0, [r0, -r0]
    47e4:	07f01b00 	ldrbeq	r1, [r0, r0, lsl #22]!
    47e8:	6d070299 	sfmvs	f0, 4, [r7, #-612]	; 0xfffffd9c
    47ec:	18000008 	stmdane	r0, {r3}
    47f0:	00000549 	andeq	r0, r0, r9, asr #10
    47f4:	1b029c07 	blne	ab818 <__bss_end__+0xa1470>
    47f8:	0000086d 	andeq	r0, r0, sp, ror #16
    47fc:	06dc1800 	ldrbeq	r1, [ip], r0, lsl #16
    4800:	9d070000 	stcls	0, cr0, [r7, #-0]
    4804:	087d1802 	ldmdaeq	sp!, {r1, fp, ip}^
    4808:	00780000 	rsbseq	r0, r8, r0
    480c:	00031d0b 	andeq	r1, r3, fp, lsl #26
    4810:	00087d00 	andeq	r7, r8, r0, lsl #26
    4814:	002c0c00 	eoreq	r0, ip, r0, lsl #24
    4818:	001d0000 	andseq	r0, sp, r0
    481c:	00002c0b 	andeq	r2, r0, fp, lsl #24
    4820:	00088d00 	andeq	r8, r8, r0, lsl #26
    4824:	002c0c00 	eoreq	r0, ip, r0, lsl #24
    4828:	001d0000 	andseq	r0, sp, r0
    482c:	7e07f01c 	mcrvc	0, 0, pc, cr7, cr12, {0}	; <UNPREDICTABLE>
    4830:	08b20302 	ldmeq	r2!, {r1, r8, r9}
    4834:	281d0000 	ldmdacs	sp, {}	; <UNPREDICTABLE>
    4838:	07000006 	streq	r0, [r0, -r6]
    483c:	010b0295 			; <UNDEFINED> instruction: 0x010b0295
    4840:	1d000007 	stcne	0, cr0, [r0, #-28]	; 0xffffffe4
    4844:	000006ff 	strdeq	r0, [r0], -pc	; <UNPREDICTABLE>
    4848:	0b029e07 	bleq	ac06c <__bss_end__+0xa1cc4>
    484c:	00000846 	andeq	r0, r0, r6, asr #16
    4850:	01350b00 	teqeq	r5, r0, lsl #22
    4854:	08c20000 	stmiaeq	r2, {}^	; <UNPREDICTABLE>
    4858:	2c0c0000 	stccs	0, cr0, [ip], {-0}
    485c:	18000000 	stmdane	r0, {}	; <UNPREDICTABLE>
    4860:	02b40700 	adcseq	r0, r4, #0, 14
    4864:	04060000 	streq	r0, [r6], #-0
    4868:	000008c2 	andeq	r0, r0, r2, asr #17
    486c:	0008d81e 	andeq	sp, r8, lr, lsl r8
    4870:	04841600 	streq	r1, [r4], #1536	; 0x600
    4874:	06000000 	streq	r0, [r0], -r0
    4878:	0008cd04 	andeq	ip, r8, r4, lsl #26
    487c:	a7040600 	strge	r0, [r4, -r0, lsl #12]
    4880:	1e000001 	cdpne	0, 0, cr0, cr0, cr1, {0}
    4884:	000008ef 	andeq	r0, r0, pc, ror #17
    4888:	00002516 	andeq	r2, r0, r6, lsl r5
    488c:	04060000 	streq	r0, [r6], #-0
    4890:	000008f5 	strdeq	r0, [r0], -r5
    4894:	08e40406 	stmiaeq	r4!, {r1, r2, sl}^
    4898:	660b0000 	strvs	r0, [fp], -r0
    489c:	0b000006 	bleq	48bc <__code_start__-0x3744>
    48a0:	0c000009 	stceq	0, cr0, [r0], {9}
    48a4:	0000002c 	andeq	r0, r0, ip, lsr #32
    48a8:	ae1f0002 	cdpge	0, 1, cr0, cr15, cr2, {0}
    48ac:	07000006 	streq	r0, [r0, -r6]
    48b0:	8417032e 	ldrhi	r0, [r7], #-814	; 0xfffffcd2
    48b4:	1f000004 	svcne	0x00000004
    48b8:	000006a7 	andeq	r0, r0, r7, lsr #13
    48bc:	1d032f07 	stcne	15, cr2, [r3, #-28]	; 0xffffffe4
    48c0:	0000048a 	andeq	r0, r0, sl, lsl #9
    48c4:	00065204 	andeq	r5, r6, r4, lsl #4
    48c8:	0f210800 	svceq	0x00210800
    48cc:	00000931 	andeq	r0, r0, r1, lsr r9
    48d0:	09370406 	ldmdbeq	r7!, {r1, r2, sl}
    48d4:	25150000 	ldrcs	r0, [r5, #-0]
    48d8:	46000000 	strmi	r0, [r0], -r0
    48dc:	16000009 	strne	r0, [r0], -r9
    48e0:	00000025 	andeq	r0, r0, r5, lsr #32
    48e4:	04932000 	ldreq	r2, [r3], #0
    48e8:	23080000 	movwcs	r0, #32768	; 0x8000
    48ec:	00092516 	andeq	r2, r9, r6, lsl r5
    48f0:	00690b00 	rsbeq	r0, r9, r0, lsl #22
    48f4:	095d0000 	ldmdbeq	sp, {}^	; <UNPREDICTABLE>
    48f8:	00210000 	eoreq	r0, r1, r0
    48fc:	0008c820 	andeq	ip, r8, r0, lsr #16
    4900:	12050900 	andne	r0, r5, #0, 18
    4904:	00000952 	andeq	r0, r0, r2, asr r9
    4908:	00086620 	andeq	r6, r8, r0, lsr #12
    490c:	12060900 	andne	r0, r6, #0, 18
    4910:	00000952 	andeq	r0, r0, r2, asr r9
    4914:	0008a420 	andeq	sl, r8, r0, lsr #8
    4918:	12080900 	andne	r0, r8, #0, 18
    491c:	00000952 	andeq	r0, r0, r2, asr r9
    4920:	0008b320 	andeq	fp, r8, r0, lsr #6
    4924:	12090900 	andne	r0, r9, #0, 18
    4928:	00000952 	andeq	r0, r0, r2, asr r9
    492c:	00084c20 	andeq	r4, r8, r0, lsr #24
    4930:	120b0900 	andne	r0, fp, #0, 18
    4934:	00000952 	andeq	r0, r0, r2, asr r9
    4938:	00085a20 	andeq	r5, r8, r0, lsr #20
    493c:	120c0900 	andne	r0, ip, #0, 18
    4940:	00000952 	andeq	r0, r0, r2, asr r9
    4944:	00089720 	andeq	r9, r8, r0, lsr #14
    4948:	120e0900 	andne	r0, lr, #0, 18
    494c:	00000952 	andeq	r0, r0, r2, asr r9
    4950:	00088820 	andeq	r8, r8, r0, lsr #16
    4954:	12100900 	andsne	r0, r0, #0, 18
    4958:	00000952 	andeq	r0, r0, r2, asr r9
    495c:	00082d22 	andeq	r2, r8, r2, lsr #26
    4960:	06190100 	ldreq	r0, [r9], -r0, lsl #2
    4964:	00009818 	andeq	r9, r0, r8, lsl r8
    4968:	00000038 	andeq	r0, r0, r8, lsr r0
    496c:	0a379c01 	beq	deb978 <__bss_end__+0xde15d0>
    4970:	1b230000 	blne	8c4978 <__bss_end__+0x8ba5d0>
    4974:	01000008 	tsteq	r0, r8
    4978:	6224071a 	eorvs	r0, r4, #6815744	; 0x680000
    497c:	01007373 	tsteq	r0, r3, ror r3
    4980:	0a370f30 	beq	dc8648 <__bss_end__+0xdbe2a0>
    4984:	0d130000 	ldceq	0, cr0, [r3, #-0]
    4988:	0d0d0000 	stceq	0, cr0, [sp, #-0]
    498c:	44250000 	strtmi	r0, [r5], #-0
    4990:	01000008 	tsteq	r0, r8
    4994:	0a370f31 	beq	dc8660 <__bss_end__+0xdbe2b8>
    4998:	53260000 			; <UNDEFINED> instruction: 0x53260000
    499c:	3800000a 	stmdacc	r0, {r1, r3}
    49a0:	01000098 	swpeq	r0, r8, [r0]	; <UNPREDICTABLE>
    49a4:	00009838 	andeq	r9, r0, r8, lsr r8
    49a8:	00000008 	andeq	r0, r0, r8
    49ac:	1b054401 	blne	1559b8 <__bss_end__+0x14b610>
    49b0:	2700000a 	strcs	r0, [r0, -sl]
    49b4:	00000a60 	andeq	r0, r0, r0, ror #20
    49b8:	38280001 	stmdacc	r8!, {r0}
    49bc:	6c000098 	stcvs	0, cr0, [r0], {152}	; 0x98
    49c0:	2800000a 	stmdacs	r0, {r1, r3}
    49c4:	00009844 	andeq	r9, r0, r4, asr #16
    49c8:	00000a78 	andeq	r0, r0, r8, ror sl
    49cc:	00984828 	addseq	r4, r8, r8, lsr #16
    49d0:	000a8400 	andeq	r8, sl, r0, lsl #8
    49d4:	04060000 	streq	r0, [r6], #-0
    49d8:	0000004f 	andeq	r0, r0, pc, asr #32
    49dc:	00001029 	andeq	r1, r0, r9, lsr #32
    49e0:	070e0100 	streq	r0, [lr, -r0, lsl #2]
    49e4:	00000083 	andeq	r0, r0, r3, lsl #1
    49e8:	0000980c 	andeq	r9, r0, ip, lsl #16
    49ec:	0000000c 	andeq	r0, r0, ip
    49f0:	352a9c01 	strcc	r9, [sl, #-3073]!	; 0xfffff3ff
    49f4:	02000008 	andeq	r0, r0, #8, 0
    49f8:	6c031407 	cfstrsvs	mvf1, [r3], {7}
    49fc:	2b00000a 	blcs	4a2c <__code_start__-0x35d4>
    4a00:	02006e69 	andeq	r6, r0, #1680	; 0x690
    4a04:	00690e08 	rsbeq	r0, r9, r8, lsl #28
    4a08:	2c000000 	stccs	0, cr0, [r0], {-0}
    4a0c:	00000823 	andeq	r0, r0, r3, lsr #16
    4a10:	00000823 	andeq	r0, r0, r3, lsr #16
    4a14:	2c064008 	stccs	0, cr4, [r6], {8}
    4a18:	0000081b 	andeq	r0, r0, fp, lsl r8
    4a1c:	0000081b 	andeq	r0, r0, fp, lsl r8
    4a20:	2c06e108 	stfcsd	f6, [r6], {8}
    4a24:	00000068 	andeq	r0, r0, r8, rrx
    4a28:	00000068 	andeq	r0, r0, r8, rrx
    4a2c:	00067608 	andeq	r7, r6, r8, lsl #12
    4a30:	00000a0c 	andeq	r0, r0, ip, lsl #20
    4a34:	11080004 	tstne	r8, r4
    4a38:	01040000 	mrseq	r0, (UNDEF: 4)
    4a3c:	0000035a 	andeq	r0, r0, sl, asr r3
    4a40:	0009060c 	andeq	r0, r9, ip, lsl #12
    4a44:	0004c100 	andeq	ip, r4, r0, lsl #2
    4a48:	00985000 	addseq	r5, r8, r0
    4a4c:	00003c00 	andeq	r3, r0, r0, lsl #24
    4a50:	0010f600 	andseq	pc, r0, r0, lsl #12
    4a54:	05040200 	streq	r0, [r4, #-512]	; 0xfffffe00
    4a58:	00746e69 	rsbseq	r6, r4, r9, ror #28
    4a5c:	00002503 	andeq	r2, r0, r3, lsl #10
    4a60:	07040400 	streq	r0, [r4, -r0, lsl #8]
    4a64:	000001ae 	andeq	r0, r0, lr, lsr #3
    4a68:	5c060104 	stfpls	f0, [r6], {4}
    4a6c:	04000000 	streq	r0, [r0], #-0
    4a70:	01fe0502 	mvnseq	r0, r2, lsl #10
    4a74:	04040000 	streq	r0, [r4], #-0
    4a78:	0001ed05 	andeq	lr, r1, r5, lsl #26
    4a7c:	05080400 	streq	r0, [r8, #-1024]	; 0xfffffc00
    4a80:	000001e8 	andeq	r0, r0, r8, ror #3
    4a84:	5a080104 	bpl	204e9c <__bss_end__+0x1faaf4>
    4a88:	04000000 	streq	r0, [r0], #-0
    4a8c:	001c0702 	andseq	r0, ip, r2, lsl #14
    4a90:	04040000 	streq	r0, [r4], #-0
    4a94:	0001a907 	andeq	sl, r1, r7, lsl #18
    4a98:	07080400 	streq	r0, [r8, -r0, lsl #8]
    4a9c:	000001a4 	andeq	r0, r0, r4, lsr #3
    4aa0:	28060405 	stmdacs	r6, {r0, r2, sl}
    4aa4:	02000005 	andeq	r0, r0, #5, 0
    4aa8:	007e1922 	rsbseq	r1, lr, r2, lsr #18
    4aac:	04070000 	streq	r0, [r7], #-0
    4ab0:	00000084 	andeq	r0, r0, r4, lsl #1
    4ab4:	00063d08 	andeq	r3, r6, r8, lsl #26
    4ab8:	056c0600 	strbeq	r0, [ip, #-1536]!	; 0xfffffa00
    4abc:	2c030000 	stccs	0, cr0, [r3], {-0}
    4ac0:	0000460e 	andeq	r4, r0, lr, lsl #12
    4ac4:	064a0600 	strbeq	r0, [sl], -r0, lsl #12
    4ac8:	72030000 	andvc	r0, r3, #0, 0
    4acc:	0000460e 	andeq	r4, r0, lr, lsl #12
    4ad0:	05300900 	ldreq	r0, [r0, #-2304]!	; 0xfffff700
    4ad4:	5e040000 	cdppl	0, 0, cr0, cr4, cr0, {0}
    4ad8:	00311701 	eorseq	r1, r1, r1, lsl #14
    4adc:	040a0000 	streq	r0, [sl], #-0
    4ae0:	d003a603 	andle	sl, r3, r3, lsl #12
    4ae4:	0b000000 	bleq	4aec <__code_start__-0x3514>
    4ae8:	0000051b 	andeq	r0, r0, fp, lsl r5
    4aec:	a10ca803 	tstge	ip, r3, lsl #16
    4af0:	0b000000 	bleq	4af8 <__code_start__-0x3508>
    4af4:	000004a4 	andeq	r0, r0, r4, lsr #9
    4af8:	d013a903 	andsle	sl, r3, r3, lsl #18
    4afc:	00000000 	andeq	r0, r0, r0
    4b00:	0000540c 	andeq	r5, r0, ip, lsl #8
    4b04:	0000e000 	andeq	lr, r0, r0
    4b08:	00310d00 	eorseq	r0, r1, r0, lsl #26
    4b0c:	00030000 	andeq	r0, r3, r0
    4b10:	a303080e 	movwge	r0, #14350	; 0x380e
    4b14:	00010409 	andeq	r0, r1, r9, lsl #8
    4b18:	06350f00 	ldrteq	r0, [r5], -r0, lsl #30
    4b1c:	a5030000 	strge	r0, [r3, #-0]
    4b20:	00002507 	andeq	r2, r0, r7, lsl #10
    4b24:	7c0f0000 	stcvc	0, cr0, [pc], {-0}
    4b28:	03000006 	movweq	r0, #6
    4b2c:	00ae05aa 	adceq	r0, lr, sl, lsr #11
    4b30:	00040000 	andeq	r0, r4, r0
    4b34:	0005b706 	andeq	fp, r5, r6, lsl #14
    4b38:	03ab0300 			; <UNDEFINED> instruction: 0x03ab0300
    4b3c:	000000e0 	andeq	r0, r0, r0, ror #1
    4b40:	00046106 	andeq	r6, r4, r6, lsl #2
    4b44:	1baf0300 	blne	febc574c <__bss_end__+0xfebbb3a4>
    4b48:	00000072 	andeq	r0, r0, r2, ror r0
    4b4c:	01220407 			; <UNDEFINED> instruction: 0x01220407
    4b50:	01040000 	mrseq	r0, (UNDEF: 4)
    4b54:	00006308 	andeq	r6, r0, r8, lsl #6
    4b58:	01220300 			; <UNDEFINED> instruction: 0x01220300
    4b5c:	92060000 	andls	r0, r6, #0, 0
    4b60:	05000006 	streq	r0, [r0, #-6]
    4b64:	00621916 	rsbeq	r1, r2, r6, lsl r9
    4b68:	72100000 	andsvc	r0, r0, #0, 0
    4b6c:	18000004 	stmdane	r0, {r2}
    4b70:	94082f05 	strls	r2, [r8], #-3845	; 0xfffff0fb
    4b74:	0f000001 	svceq	0x00000001
    4b78:	000005d8 	ldrdeq	r0, [r0], -r8
    4b7c:	94133105 	ldrls	r3, [r3], #-261	; 0xfffffefb
    4b80:	00000001 	andeq	r0, r0, r1
    4b84:	006b5f11 	rsbeq	r5, fp, r1, lsl pc
    4b88:	25073205 	strcs	r3, [r7, #-517]	; 0xfffffdfb
    4b8c:	04000000 	streq	r0, [r0], #-0
    4b90:	0006200f 	andeq	r2, r6, pc
    4b94:	0b320500 	bleq	c85f9c <__bss_end__+0xc7bbf4>
    4b98:	00000025 	andeq	r0, r0, r5, lsr #32
    4b9c:	045b0f08 	ldrbeq	r0, [fp], #-3848	; 0xfffff0f8
    4ba0:	32050000 	andcc	r0, r5, #0, 0
    4ba4:	00002514 	andeq	r2, r0, r4, lsl r5
    4ba8:	c70f0c00 	strgt	r0, [pc, -r0, lsl #24]
    4bac:	05000006 	streq	r0, [r0, #-6]
    4bb0:	00251b32 	eoreq	r1, r5, r2, lsr fp
    4bb4:	11100000 	tstne	r0, r0
    4bb8:	0500785f 	streq	r7, [r0, #-2143]	; 0xfffff7a1
    4bbc:	019a0b33 	orrseq	r0, sl, r3, lsr fp
    4bc0:	00140000 	andseq	r0, r4, r0
    4bc4:	013a0407 	teqeq	sl, r7, lsl #8
    4bc8:	2e0c0000 	cdpcs	0, 0, cr0, cr12, cr0, {0}
    4bcc:	aa000001 	bge	4bd8 <__code_start__-0x3428>
    4bd0:	0d000001 	stceq	0, cr0, [r0, #-4]
    4bd4:	00000031 	andeq	r0, r0, r1, lsr r0
    4bd8:	9f100000 	svcls	0x00100000
    4bdc:	24000004 	strcs	r0, [r0], #-4
    4be0:	2d083705 	stccs	7, cr3, [r8, #-20]	; 0xffffffec
    4be4:	0f000002 	svceq	0x00000002
    4be8:	000002ce 	andeq	r0, r0, lr, asr #5
    4bec:	25093905 	strcs	r3, [r9, #-2309]	; 0xfffff6fb
    4bf0:	00000000 	andeq	r0, r0, r0
    4bf4:	0006600f 	andeq	r6, r6, pc
    4bf8:	093a0500 	ldmdbeq	sl!, {r8, sl}
    4bfc:	00000025 	andeq	r0, r0, r5, lsr #32
    4c00:	02e30f04 	rsceq	r0, r3, #4, 30
    4c04:	3b050000 	blcc	144c0c <__bss_end__+0x13a864>
    4c08:	00002509 	andeq	r2, r0, r9, lsl #10
    4c0c:	400f0800 	andmi	r0, pc, r0, lsl #16
    4c10:	05000007 	streq	r0, [r0, #-7]
    4c14:	0025093c 	eoreq	r0, r5, ip, lsr r9
    4c18:	0f0c0000 	svceq	0x000c0000
    4c1c:	00000550 	andeq	r0, r0, r0, asr r5
    4c20:	25093d05 	strcs	r3, [r9, #-3333]	; 0xfffff2fb
    4c24:	10000000 	andne	r0, r0, r0
    4c28:	00053f0f 	andeq	r3, r5, pc, lsl #30
    4c2c:	093e0500 	ldmdbeq	lr!, {r8, sl}
    4c30:	00000025 	andeq	r0, r0, r5, lsr #32
    4c34:	06cc0f14 			; <UNDEFINED> instruction: 0x06cc0f14
    4c38:	3f050000 	svccc	0x00050000
    4c3c:	00002509 	andeq	r2, r0, r9, lsl #10
    4c40:	990f1800 	stmdbls	pc, {fp, ip}	; <UNPREDICTABLE>
    4c44:	05000005 	streq	r0, [r0, #-5]
    4c48:	00250940 	eoreq	r0, r5, r0, asr #18
    4c4c:	0f1c0000 	svceq	0x001c0000
    4c50:	00000707 	andeq	r0, r0, r7, lsl #14
    4c54:	25094105 	strcs	r4, [r9, #-261]	; 0xfffffefb
    4c58:	20000000 	andcs	r0, r0, r0
    4c5c:	02f21200 	rscseq	r1, r2, #0, 4
    4c60:	01080000 	mrseq	r0, (UNDEF: 8)
    4c64:	72084a05 	andvc	r4, r8, #20480	; 0x5000
    4c68:	0f000002 	svceq	0x00000002
    4c6c:	0000044e 	andeq	r0, r0, lr, asr #8
    4c70:	720a4b05 	andvc	r4, sl, #5120	; 0x1400
    4c74:	00000002 	andeq	r0, r0, r2
    4c78:	00024c0f 	andeq	r4, r2, pc, lsl #24
    4c7c:	094c0500 	stmdbeq	ip, {r8, sl}^
    4c80:	00000272 	andeq	r0, r0, r2, ror r2
    4c84:	06841380 	streq	r1, [r4], r0, lsl #7
    4c88:	4e050000 	cdpmi	0, 0, cr0, cr5, cr0, {0}
    4c8c:	00012e0a 	andeq	r2, r1, sl, lsl #28
    4c90:	13010000 	movwne	r0, #4096	; 0x1000
    4c94:	00000317 	andeq	r0, r0, r7, lsl r3
    4c98:	2e0a5105 	adfcse	f5, f2, f5
    4c9c:	04000001 	streq	r0, [r0], #-1
    4ca0:	700c0001 	andvc	r0, ip, r1
    4ca4:	82000000 	andhi	r0, r0, #0, 0
    4ca8:	0d000002 	stceq	0, cr0, [r0, #-8]
    4cac:	00000031 	andeq	r0, r0, r1, lsr r0
    4cb0:	5912001f 	ldmdbpl	r2, {r0, r1, r2, r3, r4}
    4cb4:	90000005 	andls	r0, r0, r5
    4cb8:	085d0501 	ldmdaeq	sp, {r0, r8, sl}^
    4cbc:	000002c5 	andeq	r0, r0, r5, asr #5
    4cc0:	0005d80f 	andeq	sp, r5, pc, lsl #16
    4cc4:	125e0500 	subsne	r0, lr, #0, 10
    4cc8:	000002c5 	andeq	r0, r0, r5, asr #5
    4ccc:	05f00f00 	ldrbeq	r0, [r0, #3840]!	; 0xf00
    4cd0:	5f050000 	svcpl	0x00050000
    4cd4:	00002506 	andeq	r2, r0, r6, lsl #10
    4cd8:	560f0400 	strpl	r0, [pc], -r0, lsl #8
    4cdc:	05000004 	streq	r0, [r0, #-4]
    4ce0:	02cb0961 	sbceq	r0, fp, #1589248	; 0x184000
    4ce4:	0f080000 	svceq	0x00080000
    4ce8:	000002f2 	strdeq	r0, [r0], -r2
    4cec:	2d1e6205 	lfmcs	f6, 4, [lr, #-20]	; 0xffffffec
    4cf0:	88000002 	stmdahi	r0, {r1}
    4cf4:	82040700 	andhi	r0, r4, #0, 14
    4cf8:	0c000002 	stceq	0, cr0, [r0], {2}
    4cfc:	000002db 	ldrdeq	r0, [r0], -fp
    4d00:	000002db 	ldrdeq	r0, [r0], -fp
    4d04:	0000310d 	andeq	r3, r0, sp, lsl #2
    4d08:	07001f00 	streq	r1, [r0, -r0, lsl #30]
    4d0c:	0002e104 	andeq	lr, r2, r4, lsl #2
    4d10:	a3101400 	tstge	r0, #0, 8
    4d14:	08000005 	stmdaeq	r0, {r0, r2}
    4d18:	0a087505 	beq	222134 <__bss_end__+0x217d8c>
    4d1c:	0f000003 	svceq	0x00000003
    4d20:	000002dd 	ldrdeq	r0, [r0], -sp
    4d24:	0a117605 	beq	462540 <__bss_end__+0x458198>
    4d28:	00000003 	andeq	r0, r0, r3
    4d2c:	0002620f 	andeq	r6, r2, pc, lsl #4
    4d30:	06770500 	ldrbteq	r0, [r7], -r0, lsl #10
    4d34:	00000025 	andeq	r0, r0, r5, lsr #32
    4d38:	04070004 	streq	r0, [r7], #-4
    4d3c:	00000054 	andeq	r0, r0, r4, asr r0
    4d40:	0005c210 	andeq	ip, r5, r0, lsl r2
    4d44:	b5056800 	strlt	r6, [r5, #-2048]	; 0xfffff800
    4d48:	00045308 	andeq	r5, r4, r8, lsl #6
    4d4c:	705f1100 	subsvc	r1, pc, r0, lsl #2
    4d50:	12b60500 	adcsne	r0, r6, #0, 10
    4d54:	0000030a 	andeq	r0, r0, sl, lsl #6
    4d58:	725f1100 	subsvc	r1, pc, #0
    4d5c:	07b70500 	ldreq	r0, [r7, r0, lsl #10]!
    4d60:	00000025 	andeq	r0, r0, r5, lsr #32
    4d64:	775f1104 	ldrbvc	r1, [pc, -r4, lsl #2]
    4d68:	07b80500 	ldreq	r0, [r8, r0, lsl #10]!
    4d6c:	00000025 	andeq	r0, r0, r5, lsr #32
    4d70:	03100f08 	tsteq	r0, #8, 30
    4d74:	b9050000 	stmdblt	r5, {}	; <UNPREDICTABLE>
    4d78:	00003f09 	andeq	r3, r0, r9, lsl #30
    4d7c:	bb0f0c00 	bllt	3c7d84 <__bss_end__+0x3bd9dc>
    4d80:	05000004 	streq	r0, [r0, #-4]
    4d84:	003f09ba 	ldrhteq	r0, [pc], -sl
    4d88:	110e0000 	mrsne	r0, (UNDEF: 14)
    4d8c:	0066625f 	rsbeq	r6, r6, pc, asr r2
    4d90:	e211bb05 	ands	fp, r1, #5120	; 0x1400
    4d94:	10000002 	andne	r0, r0, r2
    4d98:	0002ab0f 	andeq	sl, r2, pc, lsl #22
    4d9c:	07bc0500 	ldreq	r0, [ip, r0, lsl #10]!
    4da0:	00000025 	andeq	r0, r0, r5, lsr #32
    4da4:	03000f18 	movweq	r0, #3864	; 0xf18
    4da8:	c3050000 	movwgt	r0, #20480	; 0x5000
    4dac:	0000700a 	andeq	r7, r0, sl
    4db0:	110f1c00 	tstne	pc, r0, lsl #24
    4db4:	0500000b 	streq	r0, [r0, #-11]
    4db8:	05c51dc5 	strbeq	r1, [r5, #3525]	; 0xdc5
    4dbc:	0f200000 	svceq	0x00200000
    4dc0:	00000b2b 	andeq	r0, r0, fp, lsr #22
    4dc4:	ef1dc705 	svc	0x001dc705
    4dc8:	24000005 	strcs	r0, [r0], #-5
    4dcc:	0006440f 	andeq	r4, r6, pc, lsl #8
    4dd0:	0dca0500 	cfstr64eq	mvdx0, [sl]
    4dd4:	00000613 	andeq	r0, r0, r3, lsl r6
    4dd8:	07210f28 	streq	r0, [r1, -r8, lsr #30]!
    4ddc:	cb050000 	blgt	144de4 <__bss_end__+0x13aa3c>
    4de0:	00062d09 	andeq	r2, r6, r9, lsl #26
    4de4:	5f112c00 	svcpl	0x00112c00
    4de8:	05006275 	streq	r6, [r0, #-629]	; 0xfffffd8b
    4dec:	02e211ce 	rsceq	r1, r2, #-2147483597	; 0x80000033
    4df0:	11300000 	teqne	r0, r0
    4df4:	0070755f 	rsbseq	r7, r0, pc, asr r5
    4df8:	0a12cf05 	beq	4b8a14 <__bss_end__+0x4ae66c>
    4dfc:	38000003 	stmdacc	r0, {r0, r1}
    4e00:	72755f11 	rsbsvc	r5, r5, #68	; 0x44
    4e04:	07d00500 	ldrbeq	r0, [r0, r0, lsl #10]
    4e08:	00000025 	andeq	r0, r0, r5, lsr #32
    4e0c:	02d70f3c 	sbcseq	r0, r7, #60, 30	; 0xf0
    4e10:	d3050000 	movwle	r0, #20480	; 0x5000
    4e14:	00063311 	andeq	r3, r6, r1, lsl r3
    4e18:	f90f4000 			; <UNDEFINED> instruction: 0xf90f4000
    4e1c:	05000006 	streq	r0, [r0, #-6]
    4e20:	064311d4 			; <UNDEFINED> instruction: 0x064311d4
    4e24:	11430000 	mrsne	r0, (UNDEF: 67)
    4e28:	00626c5f 	rsbeq	r6, r2, pc, asr ip
    4e2c:	e211d705 	ands	sp, r1, #1310720	; 0x140000
    4e30:	44000002 	strmi	r0, [r0], #-2
    4e34:	0003260f 	andeq	r2, r3, pc, lsl #12
    4e38:	07da0500 	ldrbeq	r0, [sl, r0, lsl #10]
    4e3c:	00000025 	andeq	r0, r0, r5, lsr #32
    4e40:	03520f4c 	cmpeq	r2, #76, 30	; 0x130
    4e44:	db050000 	blle	144e4c <__bss_end__+0x13aaa4>
    4e48:	0000890a 	andeq	r8, r0, sl, lsl #18
    4e4c:	6d0f5000 	stcvs	0, cr5, [pc, #-0]	; 4e54 <__code_start__-0x31ac>
    4e50:	0500000a 	streq	r0, [r0, #-10]
    4e54:	047112de 	ldrbteq	r1, [r1], #-734	; 0xfffffd22
    4e58:	0f540000 	svceq	0x00540000
    4e5c:	0000063e 	andeq	r0, r0, lr, lsr r6
    4e60:	100ce205 	andne	lr, ip, r5, lsl #4
    4e64:	58000001 	stmdapl	r0, {r0}
    4e68:	0005ca0f 	andeq	ip, r5, pc, lsl #20
    4e6c:	0ee40500 	cdpeq	5, 14, cr0, cr4, cr0, {0}
    4e70:	00000104 	andeq	r0, r0, r4, lsl #2
    4e74:	05370f5c 	ldreq	r0, [r7, #-3932]!	; 0xfffff0a4
    4e78:	e5050000 	str	r0, [r5, #-0]
    4e7c:	00002509 	andeq	r2, r0, r9, lsl #10
    4e80:	15006400 	strne	r6, [r0, #-1024]	; 0xfffffc00
    4e84:	00000025 	andeq	r0, r0, r5, lsr #32
    4e88:	00000471 	andeq	r0, r0, r1, ror r4
    4e8c:	00047116 	andeq	r7, r4, r6, lsl r1
    4e90:	00701600 	rsbseq	r1, r0, r0, lsl #12
    4e94:	1c160000 	ldcne	0, cr0, [r6], {-0}
    4e98:	16000001 	strne	r0, [r0], -r1
    4e9c:	00000025 	andeq	r0, r0, r5, lsr #32
    4ea0:	7c040700 	stcvc	7, cr0, [r4], {-0}
    4ea4:	03000004 	movweq	r0, #4
    4ea8:	00000471 	andeq	r0, r0, r1, ror r4
    4eac:	00062817 	andeq	r2, r6, r7, lsl r8
    4eb0:	05042800 	streq	r2, [r4, #-2048]	; 0xfffff800
    4eb4:	c5080260 	strgt	r0, [r8, #-608]	; 0xfffffda0
    4eb8:	18000005 	stmdane	r0, {r0, r2}
    4ebc:	00000592 	muleq	r0, r2, r5
    4ec0:	07026205 	streq	r6, [r2, -r5, lsl #4]
    4ec4:	00000025 	andeq	r0, r0, r5, lsr #32
    4ec8:	031f1800 	tsteq	pc, #0, 16
    4ecc:	67050000 	strvs	r0, [r5, -r0]
    4ed0:	069f0b02 	ldreq	r0, [pc], r2, lsl #22
    4ed4:	18040000 	stmdane	r4, {}	; <UNPREDICTABLE>
    4ed8:	000004ab 	andeq	r0, r0, fp, lsr #9
    4edc:	14026705 	strne	r6, [r2], #-1797	; 0xfffff8fb
    4ee0:	0000069f 	muleq	r0, pc, r6	; <UNPREDICTABLE>
    4ee4:	046a1808 	strbteq	r1, [sl], #-2056	; 0xfffff7f8
    4ee8:	67050000 	strvs	r0, [r5, -r0]
    4eec:	069f1e02 	ldreq	r1, [pc], r2, lsl #28
    4ef0:	180c0000 	stmdane	ip, {}	; <UNPREDICTABLE>
    4ef4:	000005eb 	andeq	r0, r0, fp, ror #11
    4ef8:	08026905 	stmdaeq	r2, {r0, r2, r8, fp, sp, lr}
    4efc:	00000025 	andeq	r0, r0, r5, lsr #32
    4f00:	02771810 	rsbseq	r1, r7, #16, 16	; 0x100000
    4f04:	6a050000 	bvs	144f0c <__bss_end__+0x13ab64>
    4f08:	089f0802 	ldmeq	pc, {r1, fp}	; <UNPREDICTABLE>
    4f0c:	18140000 	ldmdane	r4, {}	; <UNPREDICTABLE>
    4f10:	00000607 	andeq	r0, r0, r7, lsl #12
    4f14:	07026d05 	streq	r6, [r2, -r5, lsl #26]
    4f18:	00000025 	andeq	r0, r0, r5, lsr #32
    4f1c:	05f51830 	ldrbeq	r1, [r5, #2096]!	; 0x830
    4f20:	6e050000 	cdpvs	0, 0, cr0, cr5, cr0, {0}
    4f24:	08b41602 	ldmeq	r4!, {r1, r9, sl, ip}
    4f28:	18340000 	ldmdane	r4!, {}	; <UNPREDICTABLE>
    4f2c:	00000561 	andeq	r0, r0, r1, ror #10
    4f30:	07027005 	streq	r7, [r2, -r5]
    4f34:	00000025 	andeq	r0, r0, r5, lsr #32
    4f38:	05fd1838 	ldrbeq	r1, [sp, #2104]!	; 0x838
    4f3c:	72050000 	andvc	r0, r5, #0, 0
    4f40:	08c50a02 	stmiaeq	r5, {r1, r9, fp}^
    4f44:	183c0000 	ldmdane	ip!, {}	; <UNPREDICTABLE>
    4f48:	00000513 	andeq	r0, r0, r3, lsl r5
    4f4c:	13027505 	movwne	r7, #9477	; 0x2505
    4f50:	00000194 	muleq	r0, r4, r1
    4f54:	04891840 	streq	r1, [r9], #2112	; 0x840
    4f58:	76050000 	strvc	r0, [r5], -r0
    4f5c:	00250702 	eoreq	r0, r5, r2, lsl #14
    4f60:	18440000 	stmdane	r4, {}^	; <UNPREDICTABLE>
    4f64:	0000073b 	andeq	r0, r0, fp, lsr r7
    4f68:	13027705 	movwne	r7, #9989	; 0x2705
    4f6c:	00000194 	muleq	r0, r4, r1
    4f70:	05731848 	ldrbeq	r1, [r3, #-2120]!	; 0xfffff7b8
    4f74:	78050000 	stmdavc	r5, {}	; <UNPREDICTABLE>
    4f78:	08cb1402 	stmiaeq	fp, {r1, sl, ip}^
    4f7c:	184c0000 	stmdane	ip, {}^	; <UNPREDICTABLE>
    4f80:	000004b3 			; <UNDEFINED> instruction: 0x000004b3
    4f84:	07027b05 	streq	r7, [r2, -r5, lsl #22]
    4f88:	00000025 	andeq	r0, r0, r5, lsr #32
    4f8c:	034a1850 	movteq	r1, #43088	; 0xa850
    4f90:	7c050000 	stcvc	0, cr0, [r5], {-0}
    4f94:	011c0902 	tsteq	ip, r2, lsl #18
    4f98:	18540000 	ldmdane	r4, {}^	; <UNPREDICTABLE>
    4f9c:	0000058b 	andeq	r0, r0, fp, lsl #11
    4fa0:	07029f05 	streq	r9, [r2, -r5, lsl #30]
    4fa4:	0000087a 	andeq	r0, r0, sl, ror r8
    4fa8:	05591958 	ldrbeq	r1, [r9, #-2392]	; 0xfffff6a8
    4fac:	a3050000 	movwge	r0, #20480	; 0x5000
    4fb0:	02c51302 	sbceq	r1, r5, #134217728	; 0x8000000
    4fb4:	01480000 	mrseq	r0, (UNDEF: 72)
    4fb8:	0004f119 	andeq	pc, r4, r9, lsl r1	; <UNPREDICTABLE>
    4fbc:	02a40500 	adceq	r0, r4, #0, 10
    4fc0:	00028212 	andeq	r8, r2, r2, lsl r2
    4fc4:	19014c00 	stmdbne	r1, {sl, fp, lr}
    4fc8:	000006ef 	andeq	r0, r0, pc, ror #13
    4fcc:	0c02a805 	stceq	8, cr10, [r2], {5}
    4fd0:	000008dc 	ldrdeq	r0, [r0], -ip
    4fd4:	081902dc 	ldmdaeq	r9, {r2, r3, r4, r6, r7, r9}
    4fd8:	05000003 	streq	r0, [r0, #-3]
    4fdc:	601002ad 	andsvs	r0, r0, sp, lsr #5
    4fe0:	e0000006 	and	r0, r0, r6
    4fe4:	02ed1902 	rsceq	r1, sp, #32768	; 0x8000
    4fe8:	af050000 	svcge	0x00050000
    4fec:	08e80a02 	stmiaeq	r8!, {r1, r9, fp}^
    4ff0:	02ec0000 	rsceq	r0, ip, #0, 0
    4ff4:	53040700 	movwpl	r0, #18176	; 0x4700
    4ff8:	15000004 	strne	r0, [r0, #-4]
    4ffc:	00000025 	andeq	r0, r0, r5, lsr #32
    5000:	000005e9 	andeq	r0, r0, r9, ror #11
    5004:	00047116 	andeq	r7, r4, r6, lsl r1
    5008:	00701600 	rsbseq	r1, r0, r0, lsl #12
    500c:	e9160000 	ldmdb	r6, {}	; <UNPREDICTABLE>
    5010:	16000005 	strne	r0, [r0], -r5
    5014:	00000025 	andeq	r0, r0, r5, lsr #32
    5018:	29040700 	stmdbcs	r4, {r8, r9, sl}
    501c:	07000001 	streq	r0, [r0, -r1]
    5020:	0005cb04 	andeq	ip, r5, r4, lsl #22
    5024:	00951500 	addseq	r1, r5, r0, lsl #10
    5028:	06130000 	ldreq	r0, [r3], -r0
    502c:	71160000 	tstvc	r6, r0
    5030:	16000004 	strne	r0, [r0], -r4
    5034:	00000070 	andeq	r0, r0, r0, ror r0
    5038:	00009516 	andeq	r9, r0, r6, lsl r5
    503c:	00251600 	eoreq	r1, r5, r0, lsl #12
    5040:	07000000 	streq	r0, [r0, -r0]
    5044:	0005f504 	andeq	pc, r5, r4, lsl #10
    5048:	00251500 	eoreq	r1, r5, r0, lsl #10
    504c:	062d0000 	strteq	r0, [sp], -r0
    5050:	71160000 	tstvc	r6, r0
    5054:	16000004 	strne	r0, [r0], -r4
    5058:	00000070 	andeq	r0, r0, r0, ror r0
    505c:	19040700 	stmdbne	r4, {r8, r9, sl}
    5060:	0c000006 	stceq	0, cr0, [r0], {6}
    5064:	00000054 	andeq	r0, r0, r4, asr r0
    5068:	00000643 	andeq	r0, r0, r3, asr #12
    506c:	0000310d 	andeq	r3, r0, sp, lsl #2
    5070:	0c000200 	sfmeq	f0, 4, [r0], {-0}
    5074:	00000054 	andeq	r0, r0, r4, asr r0
    5078:	00000653 	andeq	r0, r0, r3, asr r6
    507c:	0000310d 	andeq	r3, r0, sp, lsl #2
    5080:	09000000 	stmdbeq	r0, {}	; <UNPREDICTABLE>
    5084:	000005b0 			; <UNDEFINED> instruction: 0x000005b0
    5088:	1a011f05 	bne	4cca4 <__bss_end__+0x428fc>
    508c:	00000310 	andeq	r0, r0, r0, lsl r3
    5090:	0006d61a 	andeq	sp, r6, sl, lsl r6
    5094:	23050c00 	movwcs	r0, #23552	; 0x5c00
    5098:	06990801 	ldreq	r0, [r9], r1, lsl #16
    509c:	d8180000 	ldmdale	r8, {}	; <UNPREDICTABLE>
    50a0:	05000005 	streq	r0, [r0, #-5]
    50a4:	99110125 	ldmdbls	r1, {r0, r2, r5, r8}
    50a8:	00000006 	andeq	r0, r0, r6
    50ac:	0004ea18 	andeq	lr, r4, r8, lsl sl
    50b0:	01260500 			; <UNDEFINED> instruction: 0x01260500
    50b4:	00002507 	andeq	r2, r0, r7, lsl #10
    50b8:	aa180400 	bge	6060c0 <__bss_end__+0x5fbd18>
    50bc:	05000005 	streq	r0, [r0, #-5]
    50c0:	9f0b0127 	svcls	0x000b0127
    50c4:	08000006 	stmdaeq	r0, {r1, r2}
    50c8:	60040700 	andvs	r0, r4, r0, lsl #14
    50cc:	07000006 	streq	r0, [r0, -r6]
    50d0:	00065304 	andeq	r5, r6, r4, lsl #6
    50d4:	026f1a00 	rsbeq	r1, pc, #0, 20
    50d8:	050e0000 	streq	r0, [lr, #-0]
    50dc:	de08013f 	mcrle	1, 0, r0, cr8, cr15, {1}
    50e0:	18000006 	stmdane	r0, {r1, r2}
    50e4:	0000062f 	andeq	r0, r0, pc, lsr #12
    50e8:	12014005 	andne	r4, r1, #5, 0
    50ec:	000006de 	ldrdeq	r0, [r0], -lr
    50f0:	06691800 	strbteq	r1, [r9], -r0, lsl #16
    50f4:	41050000 	mrsmi	r0, (UNDEF: 5)
    50f8:	06de1201 	ldrbeq	r1, [lr], r1, lsl #4
    50fc:	18060000 	stmdane	r6, {}	; <UNPREDICTABLE>
    5100:	0000068d 	andeq	r0, r0, sp, lsl #13
    5104:	12014205 	andne	r4, r1, #1342177280	; 0x50000000
    5108:	0000005b 	andeq	r0, r0, fp, asr r0
    510c:	5b0c000c 	blpl	305144 <__bss_end__+0x2fad9c>
    5110:	ee000000 	cdp	0, 0, cr0, cr0, cr0, {0}
    5114:	0d000006 	stceq	0, cr0, [r0, #-24]	; 0xffffffe8
    5118:	00000031 	andeq	r0, r0, r1, lsr r0
    511c:	d01b0002 	andsle	r0, fp, r2
    5120:	07028005 	streq	r8, [r2, -r5]
    5124:	00000803 	andeq	r0, r0, r3, lsl #16
    5128:	0006ba18 	andeq	fp, r6, r8, lsl sl
    512c:	02820500 	addeq	r0, r2, #0, 10
    5130:	00003118 	andeq	r3, r0, r8, lsl r1
    5134:	6f180000 	svcvs	0x00180000
    5138:	05000006 	streq	r0, [r0, #-6]
    513c:	1c120283 	lfmne	f0, 4, [r2], {131}	; 0x83
    5140:	04000001 	streq	r0, [r0], #-1
    5144:	00050618 	andeq	r0, r5, r8, lsl r6
    5148:	02840500 	addeq	r0, r4, #0, 10
    514c:	00080310 	andeq	r0, r8, r0, lsl r3
    5150:	12180800 	andsne	r0, r8, #0, 16
    5154:	05000007 	streq	r0, [r0, #-7]
    5158:	aa170285 	bge	5c5b74 <__bss_end__+0x5bb7cc>
    515c:	24000001 	strcs	r0, [r0], #-1
    5160:	00047a18 	andeq	r7, r4, r8, lsl sl
    5164:	02860500 	addeq	r0, r6, #0, 10
    5168:	0000250f 	andeq	r2, r0, pc, lsl #10
    516c:	d3184800 	tstle	r8, #0, 16
    5170:	05000005 	streq	r0, [r0, #-5]
    5174:	692c0287 	stmdbvs	ip!, {r0, r1, r2, r7, r9}
    5178:	50000000 	andpl	r0, r0, r0
    517c:	00072818 	andeq	r2, r7, r8, lsl r8
    5180:	02880500 	addeq	r0, r8, #0, 10
    5184:	0006a51a 	andeq	sl, r6, sl, lsl r5
    5188:	de185800 	cdple	8, 1, cr5, cr8, cr0, {0}
    518c:	05000005 	streq	r0, [r0, #-5]
    5190:	04160289 	ldreq	r0, [r6], #-649	; 0xfffffd77
    5194:	68000001 	stmdavs	r0, {r0}
    5198:	00072d18 	andeq	r2, r7, r8, lsl sp
    519c:	028a0500 	addeq	r0, sl, #0, 10
    51a0:	00010416 	andeq	r0, r1, r6, lsl r4
    51a4:	7d187000 	ldcvc	0, cr7, [r8, #-0]
    51a8:	05000005 	streq	r0, [r0, #-5]
    51ac:	0416028b 	ldreq	r0, [r6], #-651	; 0xfffffd75
    51b0:	78000001 	stmdavc	r0, {r0}
    51b4:	0006e518 	andeq	lr, r6, r8, lsl r5
    51b8:	028c0500 	addeq	r0, ip, #0, 10
    51bc:	00081310 	andeq	r1, r8, r0, lsl r3
    51c0:	fa188000 	blx	6251c8 <__bss_end__+0x61ae20>
    51c4:	05000004 	streq	r0, [r0, #-4]
    51c8:	2310028d 	tstcs	r0, #-805306360	; 0xd0000008
    51cc:	88000008 	stmdahi	r0, {r3}
    51d0:	00069a18 	andeq	r9, r6, r8, lsl sl
    51d4:	028e0500 	addeq	r0, lr, #0, 10
    51d8:	0000250f 	andeq	r2, r0, pc, lsl #10
    51dc:	4018a000 	andsmi	sl, r8, r0
    51e0:	05000004 	streq	r0, [r0, #-4]
    51e4:	0416028f 	ldreq	r0, [r6], #-655	; 0xfffffd71
    51e8:	a4000001 	strge	r0, [r0], #-1
    51ec:	0002bf18 	andeq	fp, r2, r8, lsl pc
    51f0:	02900500 	addseq	r0, r0, #0, 10
    51f4:	00010416 	andeq	r0, r1, r6, lsl r4
    51f8:	2f18ac00 	svccs	0x0018ac00
    51fc:	05000004 	streq	r0, [r0, #-4]
    5200:	04160291 	ldreq	r0, [r6], #-657	; 0xfffffd6f
    5204:	b4000001 	strlt	r0, [r0], #-1
    5208:	00028b18 	andeq	r8, r2, r8, lsl fp
    520c:	02920500 	addseq	r0, r2, #0, 10
    5210:	00010416 	andeq	r0, r1, r6, lsl r4
    5214:	9a18bc00 	bls	63421c <__bss_end__+0x629e74>
    5218:	05000002 	streq	r0, [r0, #-2]
    521c:	04160293 	ldreq	r0, [r6], #-659	; 0xfffffd6d
    5220:	c4000001 	strgt	r0, [r0], #-1
    5224:	00059018 	andeq	r9, r5, r8, lsl r0
    5228:	02940500 	addseq	r0, r4, #0, 10
    522c:	00002508 	andeq	r2, r0, r8, lsl #10
    5230:	0c00cc00 	stceq	12, cr12, [r0], {-0}
    5234:	00000122 	andeq	r0, r0, r2, lsr #2
    5238:	00000813 	andeq	r0, r0, r3, lsl r8
    523c:	0000310d 	andeq	r3, r0, sp, lsl #2
    5240:	0c001900 			; <UNDEFINED> instruction: 0x0c001900
    5244:	00000122 	andeq	r0, r0, r2, lsr #2
    5248:	00000823 	andeq	r0, r0, r3, lsr #16
    524c:	0000310d 	andeq	r3, r0, sp, lsl #2
    5250:	0c000700 	stceq	7, cr0, [r0], {-0}
    5254:	00000122 	andeq	r0, r0, r2, lsr #2
    5258:	00000833 	andeq	r0, r0, r3, lsr r8
    525c:	0000310d 	andeq	r3, r0, sp, lsl #2
    5260:	1b001700 	blne	ae68 <__bss_end__+0xac0>
    5264:	029905f0 	addseq	r0, r9, #240, 10	; 0x3c000000
    5268:	00085a07 	andeq	r5, r8, r7, lsl #20
    526c:	05491800 	strbeq	r1, [r9, #-2048]	; 0xfffff800
    5270:	9c050000 	stcls	0, cr0, [r5], {-0}
    5274:	085a1b02 	ldmdaeq	sl, {r1, r8, r9, fp, ip}^
    5278:	18000000 	stmdane	r0, {}	; <UNPREDICTABLE>
    527c:	000006dc 	ldrdeq	r0, [r0], -ip
    5280:	18029d05 	stmdane	r2, {r0, r2, r8, sl, fp, ip, pc}
    5284:	0000086a 	andeq	r0, r0, sl, ror #16
    5288:	0a0c0078 	beq	305470 <__bss_end__+0x2fb0c8>
    528c:	6a000003 	bvs	52a0 <__code_start__-0x2d60>
    5290:	0d000008 	stceq	0, cr0, [r0, #-32]	; 0xffffffe0
    5294:	00000031 	andeq	r0, r0, r1, lsr r0
    5298:	310c001d 	tstcc	ip, sp, lsl r0
    529c:	7a000000 	bvc	52a4 <__code_start__-0x2d5c>
    52a0:	0d000008 	stceq	0, cr0, [r0, #-32]	; 0xffffffe0
    52a4:	00000031 	andeq	r0, r0, r1, lsr r0
    52a8:	f01c001d 			; <UNDEFINED> instruction: 0xf01c001d
    52ac:	03027e05 	movweq	r7, #11781	; 0x2e05
    52b0:	0000089f 	muleq	r0, pc, r8	; <UNPREDICTABLE>
    52b4:	0006281d 	andeq	r2, r6, sp, lsl r8
    52b8:	02950500 	addseq	r0, r5, #0, 10
    52bc:	0006ee0b 	andeq	lr, r6, fp, lsl #28
    52c0:	06ff1d00 	ldrbteq	r1, [pc], r0, lsl #26
    52c4:	9e050000 	cdpls	0, 0, cr0, cr5, cr0, {0}
    52c8:	08330b02 	ldmdaeq	r3!, {r1, r8, r9, fp}
    52cc:	0c000000 	stceq	0, cr0, [r0], {-0}
    52d0:	00000122 	andeq	r0, r0, r2, lsr #2
    52d4:	000008af 	andeq	r0, r0, pc, lsr #17
    52d8:	0000310d 	andeq	r3, r0, sp, lsl #2
    52dc:	08001800 	stmdaeq	r0, {fp, ip}
    52e0:	000002b4 			; <UNDEFINED> instruction: 0x000002b4
    52e4:	08af0407 	stmiaeq	pc!, {r0, r1, r2, sl}	; <UNPREDICTABLE>
    52e8:	c51e0000 	ldrgt	r0, [lr, #-0]
    52ec:	16000008 	strne	r0, [r0], -r8
    52f0:	00000471 	andeq	r0, r0, r1, ror r4
    52f4:	ba040700 	blt	106efc <__bss_end__+0xfcb54>
    52f8:	07000008 	streq	r0, [r0, -r8]
    52fc:	00019404 	andeq	r9, r1, r4, lsl #8
    5300:	08dc1e00 	ldmeq	ip, {r9, sl, fp, ip}^
    5304:	25160000 	ldrcs	r0, [r6, #-0]
    5308:	00000000 	andeq	r0, r0, r0
    530c:	08e20407 	stmiaeq	r2!, {r0, r1, r2, sl}^
    5310:	04070000 	streq	r0, [r7], #-0
    5314:	000008d1 	ldrdeq	r0, [r0], -r1
    5318:	0006530c 	andeq	r5, r6, ip, lsl #6
    531c:	0008f800 	andeq	pc, r8, r0, lsl #16
    5320:	00310d00 	eorseq	r0, r1, r0, lsl #26
    5324:	00020000 	andeq	r0, r2, r0
    5328:	0006ae1f 	andeq	sl, r6, pc, lsl lr
    532c:	032e0500 			; <UNDEFINED> instruction: 0x032e0500
    5330:	00047117 	andeq	r7, r4, r7, lsl r1
    5334:	06a71f00 	strteq	r1, [r7], r0, lsl #30
    5338:	2f050000 	svccs	0x00050000
    533c:	04771d03 	ldrbteq	r1, [r7], #-3331	; 0xfffff2fd
    5340:	52060000 	andpl	r0, r6, #0, 0
    5344:	06000006 	streq	r0, [r0], -r6
    5348:	091e0f21 	ldmdbeq	lr, {r0, r5, r8, r9, sl, fp}
    534c:	04070000 	streq	r0, [r7], #-0
    5350:	00000924 	andeq	r0, r0, r4, lsr #18
    5354:	00002515 	andeq	r2, r0, r5, lsl r5
    5358:	00093300 	andeq	r3, r9, r0, lsl #6
    535c:	00251600 	eoreq	r1, r5, r0, lsl #12
    5360:	20000000 	andcs	r0, r0, r0
    5364:	00000493 	muleq	r0, r3, r4
    5368:	12162306 	andsne	r2, r6, #402653184	; 0x18000000
    536c:	21000009 	tstcs	r0, r9
    5370:	00000810 	andeq	r0, r0, r0, lsl r8
    5374:	50060401 	andpl	r0, r6, r1, lsl #8
    5378:	3c000098 	stccc	0, cr0, [r0], {152}	; 0x98
    537c:	01000000 	mrseq	r0, (UNDEF: 0)
    5380:	0009eb9c 	muleq	r9, ip, fp
    5384:	08d72200 	ldmeq	r7, {r9, sp}^
    5388:	09010000 	stmdbeq	r1, {}	; <UNPREDICTABLE>
    538c:	00002c0f 	andeq	r2, r0, pc, lsl #24
    5390:	10001c00 	andne	r1, r0, r0, lsl #24
    5394:	08fe2220 	ldmeq	lr!, {r5, r9, sp}^
    5398:	0a010000 	beq	453a0 <__bss_end__+0x3aff8>
    539c:	00002c0f 	andeq	r2, r0, pc, lsl #24
    53a0:	10002400 	andne	r2, r0, r0, lsl #8
    53a4:	091b2220 	ldmdbeq	fp, {r5, r9, sp}
    53a8:	0b010000 	bleq	453b0 <__bss_end__+0x3b008>
    53ac:	00002c0f 	andeq	r2, r0, pc, lsl #24
    53b0:	00000000 	andeq	r0, r0, r0
    53b4:	08e5235a 	stmiaeq	r5!, {r1, r3, r4, r6, r8, r9, sp}^
    53b8:	0c010000 	stceq	0, cr0, [r1], {-0}
    53bc:	00002c0f 	andeq	r2, r0, pc, lsl #24
    53c0:	58242000 	stmdapl	r4!, {sp}
    53c4:	eb000098 	bl	562c <__code_start__-0x29d4>
    53c8:	25000009 	strcs	r0, [r0, #-9]
    53cc:	00009860 	andeq	r9, r0, r0, ror #16
    53d0:	000009f7 	strdeq	r0, [r0], -r7
    53d4:	000009ae 	andeq	r0, r0, lr, lsr #19
    53d8:	01500126 	cmpeq	r0, r6, lsr #2
    53dc:	6c25003a 	stcvs	0, cr0, [r5], #-232	; 0xffffff18
    53e0:	03000098 	movweq	r0, #152	; 0x98
    53e4:	ce00000a 	cdpgt	0, 0, cr0, cr0, cr10, {0}
    53e8:	26000009 	strcs	r0, [r0], -r9
    53ec:	0c055001 	stceq	0, cr5, [r5], {1}
    53f0:	20100024 	andscs	r0, r0, r4, lsr #32
    53f4:	05510126 	ldrbeq	r0, [r1, #-294]	; 0xfffffeda
    53f8:	0000010c 	andeq	r0, r0, ip, lsl #2
    53fc:	7827005a 	stmdavc	r7!, {r1, r3, r4, r6}
    5400:	03000098 	movweq	r0, #152	; 0x98
    5404:	2600000a 	strcs	r0, [r0], -sl
    5408:	0c055001 	stceq	0, cr5, [r5], {1}
    540c:	2010001c 	andscs	r0, r0, ip, lsl r0
    5410:	05510126 	ldrbeq	r0, [r1, #-294]	; 0xfffffeda
    5414:	0000200c 	andeq	r2, r0, ip
    5418:	2800005a 	stmdacs	r0, {r1, r3, r4, r6}
    541c:	000007f4 	strdeq	r0, [r0], -r4
    5420:	000007f4 	strdeq	r0, [r0], -r4
    5424:	28065706 	stmdacs	r6, {r1, r2, r8, r9, sl, ip, lr}
    5428:	00000807 	andeq	r0, r0, r7, lsl #16
    542c:	00000807 	andeq	r0, r0, r7, lsl #16
    5430:	28066406 	stmdacs	r6, {r1, r2, sl, sp, lr}
    5434:	000008df 	ldrdeq	r0, [r0], -pc	; <UNPREDICTABLE>
    5438:	000008df 	ldrdeq	r0, [r0], -pc	; <UNPREDICTABLE>
    543c:	0006a406 	andeq	sl, r6, r6, lsl #8
    5440:	00000ad2 	ldrdeq	r0, [r0], -r2
    5444:	13400004 	movtne	r0, #4
    5448:	01040000 	mrseq	r0, (UNDEF: 4)
    544c:	0000035a 	andeq	r0, r0, sl, asr r3
    5450:	0009400c 	andeq	r4, r9, ip
    5454:	0004c100 	andeq	ip, r4, r0, lsl #2
    5458:	00988c00 	addseq	r8, r8, r0, lsl #24
    545c:	00008400 	andeq	r8, r0, r0, lsl #8
    5460:	00123d00 	andseq	r3, r2, r0, lsl #26
    5464:	05040200 	streq	r0, [r4, #-512]	; 0xfffffe00
    5468:	00746e69 	rsbseq	r6, r4, r9, ror #28
    546c:	ae070403 	cdpge	4, 0, cr0, cr7, cr3, {0}
    5470:	03000001 	movweq	r0, #1
    5474:	005c0601 	subseq	r0, ip, r1, lsl #12
    5478:	02030000 	andeq	r0, r3, #0, 0
    547c:	0001fe05 	andeq	pc, r1, r5, lsl #28
    5480:	05040300 	streq	r0, [r4, #-768]	; 0xfffffd00
    5484:	000001ed 	andeq	r0, r0, sp, ror #3
    5488:	e8050803 	stmda	r5, {r0, r1, fp}
    548c:	03000001 	movweq	r0, #1
    5490:	005a0801 	subseq	r0, sl, r1, lsl #16
    5494:	02030000 	andeq	r0, r3, #0, 0
    5498:	00001c07 	andeq	r1, r0, r7, lsl #24
    549c:	021b0400 	andseq	r0, fp, #0, 8
    54a0:	34020000 	strcc	r0, [r2], #-0
    54a4:	00006919 	andeq	r6, r0, r9, lsl r9
    54a8:	07040300 	streq	r0, [r4, -r0, lsl #6]
    54ac:	000001a9 	andeq	r0, r0, r9, lsr #3
    54b0:	a4070803 	strge	r0, [r7], #-2051	; 0xfffff7fd
    54b4:	05000001 	streq	r0, [r0, #-1]
    54b8:	05280404 	streq	r0, [r8, #-1028]!	; 0xfffffbfc
    54bc:	22030000 	andcs	r0, r3, #0, 0
    54c0:	00008519 	andeq	r8, r0, r9, lsl r5
    54c4:	8b040600 	blhi	106ccc <__bss_end__+0xfc924>
    54c8:	07000000 	streq	r0, [r0, -r0]
    54cc:	0000063d 	andeq	r0, r0, sp, lsr r6
    54d0:	00056c04 	andeq	r6, r5, r4, lsl #24
    54d4:	0e2c0400 	cdpeq	4, 2, cr0, cr12, cr0, {0}
    54d8:	00000041 	andeq	r0, r0, r1, asr #32
    54dc:	00064a04 	andeq	r4, r6, r4, lsl #20
    54e0:	0e720400 	cdpeq	4, 7, cr0, cr2, cr0, {0}
    54e4:	00000041 	andeq	r0, r0, r1, asr #32
    54e8:	00053008 	andeq	r3, r5, r8
    54ec:	015e0500 	cmpeq	lr, r0, lsl #10
    54f0:	00002c17 	andeq	r2, r0, r7, lsl ip
    54f4:	04040900 	streq	r0, [r4], #-2304	; 0xfffff700
    54f8:	00d703a6 	sbcseq	r0, r7, r6, lsr #7
    54fc:	1b0a0000 	blne	285504 <__bss_end__+0x27b15c>
    5500:	04000005 	streq	r0, [r0], #-5
    5504:	00a80ca8 	adceq	r0, r8, r8, lsr #25
    5508:	a40a0000 	strge	r0, [sl], #-0
    550c:	04000004 	streq	r0, [r0], #-4
    5510:	00d713a9 	sbcseq	r1, r7, r9, lsr #7
    5514:	0b000000 	bleq	551c <__code_start__-0x2ae4>
    5518:	0000004f 	andeq	r0, r0, pc, asr #32
    551c:	000000e7 	andeq	r0, r0, r7, ror #1
    5520:	00002c0c 	andeq	r2, r0, ip, lsl #24
    5524:	0d000300 	stceq	3, cr0, [r0, #-0]
    5528:	09a30408 	stmibeq	r3!, {r3, sl}
    552c:	0000010b 	andeq	r0, r0, fp, lsl #2
    5530:	0006350e 	andeq	r3, r6, lr, lsl #10
    5534:	07a50400 	streq	r0, [r5, r0, lsl #8]!
    5538:	00000025 	andeq	r0, r0, r5, lsr #32
    553c:	067c0e00 	ldrbteq	r0, [ip], -r0, lsl #28
    5540:	aa040000 	bge	105548 <__bss_end__+0xfb1a0>
    5544:	0000b505 	andeq	fp, r0, r5, lsl #10
    5548:	04000400 	streq	r0, [r0], #-1024	; 0xfffffc00
    554c:	000005b7 			; <UNDEFINED> instruction: 0x000005b7
    5550:	e703ab04 	str	sl, [r3, -r4, lsl #22]
    5554:	04000000 	streq	r0, [r0], #-0
    5558:	00000461 	andeq	r0, r0, r1, ror #8
    555c:	791baf04 	ldmdbvc	fp, {r2, r8, r9, sl, fp, sp, pc}
    5560:	06000000 	streq	r0, [r0], -r0
    5564:	00012904 	andeq	r2, r1, r4, lsl #18
    5568:	08010300 	stmdaeq	r1, {r8, r9}
    556c:	00000063 	andeq	r0, r0, r3, rrx
    5570:	0001290f 	andeq	r2, r1, pc, lsl #18
    5574:	06920400 	ldreq	r0, [r2], r0, lsl #8
    5578:	16060000 	strne	r0, [r6], -r0
    557c:	00006919 	andeq	r6, r0, r9, lsl r9
    5580:	04721000 	ldrbteq	r1, [r2], #-0
    5584:	06180000 	ldreq	r0, [r8], -r0
    5588:	019b082f 	orrseq	r0, fp, pc, lsr #16
    558c:	d80e0000 	stmdale	lr, {}	; <UNPREDICTABLE>
    5590:	06000005 	streq	r0, [r0], -r5
    5594:	019b1331 	orrseq	r1, fp, r1, lsr r3
    5598:	11000000 	mrsne	r0, (UNDEF: 0)
    559c:	06006b5f 			; <UNDEFINED> instruction: 0x06006b5f
    55a0:	00250732 	eoreq	r0, r5, r2, lsr r7
    55a4:	0e040000 	cdpeq	0, 0, cr0, cr4, cr0, {0}
    55a8:	00000620 	andeq	r0, r0, r0, lsr #12
    55ac:	250b3206 	strcs	r3, [fp, #-518]	; 0xfffffdfa
    55b0:	08000000 	stmdaeq	r0, {}	; <UNPREDICTABLE>
    55b4:	00045b0e 	andeq	r5, r4, lr, lsl #22
    55b8:	14320600 	ldrtne	r0, [r2], #-1536	; 0xfffffa00
    55bc:	00000025 	andeq	r0, r0, r5, lsr #32
    55c0:	06c70e0c 	strbeq	r0, [r7], ip, lsl #28
    55c4:	32060000 	andcc	r0, r6, #0, 0
    55c8:	0000251b 	andeq	r2, r0, fp, lsl r5
    55cc:	5f111000 	svcpl	0x00111000
    55d0:	33060078 	movwcc	r0, #24696	; 0x6078
    55d4:	0001a10b 	andeq	sl, r1, fp, lsl #2
    55d8:	06001400 	streq	r1, [r0], -r0, lsl #8
    55dc:	00014104 	andeq	r4, r1, r4, lsl #2
    55e0:	01350b00 	teqeq	r5, r0, lsl #22
    55e4:	01b10000 			; <UNDEFINED> instruction: 0x01b10000
    55e8:	2c0c0000 	stccs	0, cr0, [ip], {-0}
    55ec:	00000000 	andeq	r0, r0, r0
    55f0:	049f1000 	ldreq	r1, [pc], #0	; 55f8 <__code_start__-0x2a08>
    55f4:	06240000 	strteq	r0, [r4], -r0
    55f8:	02340837 	eorseq	r0, r4, #3604480	; 0x370000
    55fc:	ce0e0000 	cdpgt	0, 0, cr0, cr14, cr0, {0}
    5600:	06000002 	streq	r0, [r0], -r2
    5604:	00250939 	eoreq	r0, r5, r9, lsr r9
    5608:	0e000000 	cdpeq	0, 0, cr0, cr0, cr0, {0}
    560c:	00000660 	andeq	r0, r0, r0, ror #12
    5610:	25093a06 	strcs	r3, [r9, #-2566]	; 0xfffff5fa
    5614:	04000000 	streq	r0, [r0], #-0
    5618:	0002e30e 	andeq	lr, r2, lr, lsl #6
    561c:	093b0600 	ldmdbeq	fp!, {r9, sl}
    5620:	00000025 	andeq	r0, r0, r5, lsr #32
    5624:	07400e08 	strbeq	r0, [r0, -r8, lsl #28]
    5628:	3c060000 	stccc	0, cr0, [r6], {-0}
    562c:	00002509 	andeq	r2, r0, r9, lsl #10
    5630:	500e0c00 	andpl	r0, lr, r0, lsl #24
    5634:	06000005 	streq	r0, [r0], -r5
    5638:	0025093d 	eoreq	r0, r5, sp, lsr r9
    563c:	0e100000 	cdpeq	0, 1, cr0, cr0, cr0, {0}
    5640:	0000053f 	andeq	r0, r0, pc, lsr r5
    5644:	25093e06 	strcs	r3, [r9, #-3590]	; 0xfffff1fa
    5648:	14000000 	strne	r0, [r0], #-0
    564c:	0006cc0e 	andeq	ip, r6, lr, lsl #24
    5650:	093f0600 	ldmdbeq	pc!, {r9, sl}	; <UNPREDICTABLE>
    5654:	00000025 	andeq	r0, r0, r5, lsr #32
    5658:	05990e18 	ldreq	r0, [r9, #3608]	; 0xe18
    565c:	40060000 	andmi	r0, r6, r0
    5660:	00002509 	andeq	r2, r0, r9, lsl #10
    5664:	070e1c00 	streq	r1, [lr, -r0, lsl #24]
    5668:	06000007 	streq	r0, [r0], -r7
    566c:	00250941 	eoreq	r0, r5, r1, asr #18
    5670:	00200000 	eoreq	r0, r0, r0
    5674:	0002f212 	andeq	pc, r2, r2, lsl r2	; <UNPREDICTABLE>
    5678:	06010800 	streq	r0, [r1], -r0, lsl #16
    567c:	0279084a 	rsbseq	r0, r9, #4849664	; 0x4a0000
    5680:	4e0e0000 	cdpmi	0, 0, cr0, cr14, cr0, {0}
    5684:	06000004 	streq	r0, [r0], -r4
    5688:	02790a4b 	rsbseq	r0, r9, #307200	; 0x4b000
    568c:	0e000000 	cdpeq	0, 0, cr0, cr0, cr0, {0}
    5690:	0000024c 	andeq	r0, r0, ip, asr #4
    5694:	79094c06 	stmdbvc	r9, {r1, r2, sl, fp, lr}
    5698:	80000002 	andhi	r0, r0, r2
    569c:	00068413 	andeq	r8, r6, r3, lsl r4
    56a0:	0a4e0600 	beq	1386ea8 <__bss_end__+0x137cb00>
    56a4:	00000135 	andeq	r0, r0, r5, lsr r1
    56a8:	17130100 	ldrne	r0, [r3, -r0, lsl #2]
    56ac:	06000003 	streq	r0, [r0], -r3
    56b0:	01350a51 	teqeq	r5, r1, asr sl
    56b4:	01040000 	mrseq	r0, (UNDEF: 4)
    56b8:	00770b00 	rsbseq	r0, r7, r0, lsl #22
    56bc:	02890000 	addeq	r0, r9, #0, 0
    56c0:	2c0c0000 	stccs	0, cr0, [ip], {-0}
    56c4:	1f000000 	svcne	0x00000000
    56c8:	05591200 	ldrbeq	r1, [r9, #-512]	; 0xfffffe00
    56cc:	01900000 	orrseq	r0, r0, r0
    56d0:	cc085d06 	stcgt	13, cr5, [r8], {6}
    56d4:	0e000002 	cdpeq	0, 0, cr0, cr0, cr2, {0}
    56d8:	000005d8 	ldrdeq	r0, [r0], -r8
    56dc:	cc125e06 	ldcgt	14, cr5, [r2], {6}
    56e0:	00000002 	andeq	r0, r0, r2
    56e4:	0005f00e 	andeq	pc, r5, lr
    56e8:	065f0600 	ldrbeq	r0, [pc], -r0, lsl #12
    56ec:	00000025 	andeq	r0, r0, r5, lsr #32
    56f0:	04560e04 	ldrbeq	r0, [r6], #-3588	; 0xfffff1fc
    56f4:	61060000 	mrsvs	r0, (UNDEF: 6)
    56f8:	0002d209 	andeq	sp, r2, r9, lsl #4
    56fc:	f20e0800 	vadd.i8	d0, d14, d0
    5700:	06000002 	streq	r0, [r0], -r2
    5704:	02341e62 	eorseq	r1, r4, #1568	; 0x620
    5708:	00880000 	addeq	r0, r8, r0
    570c:	02890406 	addeq	r0, r9, #100663296	; 0x6000000
    5710:	e20b0000 	and	r0, fp, #0, 0
    5714:	e2000002 	and	r0, r0, #2, 0
    5718:	0c000002 	stceq	0, cr0, [r0], {2}
    571c:	0000002c 	andeq	r0, r0, ip, lsr #32
    5720:	0406001f 	streq	r0, [r6], #-31	; 0xffffffe1
    5724:	000002e8 	andeq	r0, r0, r8, ror #5
    5728:	05a31014 	streq	r1, [r3, #20]!
    572c:	06080000 	streq	r0, [r8], -r0
    5730:	03110875 	tsteq	r1, #7667712	; 0x750000
    5734:	dd0e0000 	stcle	0, cr0, [lr, #-0]
    5738:	06000002 	streq	r0, [r0], -r2
    573c:	03111176 	tsteq	r1, #-2147483619	; 0x8000001d
    5740:	0e000000 	cdpeq	0, 0, cr0, cr0, cr0, {0}
    5744:	00000262 	andeq	r0, r0, r2, ror #4
    5748:	25067706 	strcs	r7, [r6, #-1798]	; 0xfffff8fa
    574c:	04000000 	streq	r0, [r0], #-0
    5750:	4f040600 	svcmi	0x00040600
    5754:	10000000 	andne	r0, r0, r0
    5758:	000005c2 	andeq	r0, r0, r2, asr #11
    575c:	08b50668 	ldmeq	r5!, {r3, r5, r6, r9, sl}
    5760:	0000045a 	andeq	r0, r0, sl, asr r4
    5764:	00705f11 	rsbseq	r5, r0, r1, lsl pc
    5768:	1112b606 	tstne	r2, r6, lsl #12
    576c:	00000003 	andeq	r0, r0, r3
    5770:	00725f11 	rsbseq	r5, r2, r1, lsl pc
    5774:	2507b706 	strcs	fp, [r7, #-1798]	; 0xfffff8fa
    5778:	04000000 	streq	r0, [r0], #-0
    577c:	00775f11 	rsbseq	r5, r7, r1, lsl pc
    5780:	2507b806 	strcs	fp, [r7, #-2054]	; 0xfffff7fa
    5784:	08000000 	stmdaeq	r0, {}	; <UNPREDICTABLE>
    5788:	0003100e 	andeq	r1, r3, lr
    578c:	09b90600 	ldmibeq	r9!, {r9, sl}
    5790:	0000003a 	andeq	r0, r0, sl, lsr r0
    5794:	04bb0e0c 	ldrteq	r0, [fp], #3596	; 0xe0c
    5798:	ba060000 	blt	1857a0 <__bss_end__+0x17b3f8>
    579c:	00003a09 	andeq	r3, r0, r9, lsl #20
    57a0:	5f110e00 	svcpl	0x00110e00
    57a4:	06006662 	streq	r6, [r0], -r2, ror #12
    57a8:	02e911bb 	rsceq	r1, r9, #-1073741778	; 0xc000002e
    57ac:	0e100000 	cdpeq	0, 1, cr0, cr0, cr0, {0}
    57b0:	000002ab 	andeq	r0, r0, fp, lsr #5
    57b4:	2507bc06 	strcs	fp, [r7, #-3078]	; 0xfffff3fa
    57b8:	18000000 	stmdane	r0, {}	; <UNPREDICTABLE>
    57bc:	0003000e 	andeq	r0, r3, lr
    57c0:	0ac30600 	beq	ff0c6fc8 <__bss_end__+0xff0bcc20>
    57c4:	00000077 	andeq	r0, r0, r7, ror r0
    57c8:	0b110e1c 	bleq	449040 <__bss_end__+0x43ec98>
    57cc:	c5060000 	strgt	r0, [r6, #-0]
    57d0:	0005cc1d 	andeq	ip, r5, sp, lsl ip
    57d4:	2b0e2000 	blcs	38d7dc <__bss_end__+0x383434>
    57d8:	0600000b 	streq	r0, [r0], -fp
    57dc:	05f61dc7 	ldrbeq	r1, [r6, #3527]!	; 0xdc7
    57e0:	0e240000 	cdpeq	0, 2, cr0, cr4, cr0, {0}
    57e4:	00000644 	andeq	r0, r0, r4, asr #12
    57e8:	1a0dca06 	bne	378008 <__bss_end__+0x36dc60>
    57ec:	28000006 	stmdacs	r0, {r1, r2}
    57f0:	0007210e 	andeq	r2, r7, lr, lsl #2
    57f4:	09cb0600 	stmibeq	fp, {r9, sl}^
    57f8:	00000634 	andeq	r0, r0, r4, lsr r6
    57fc:	755f112c 	ldrbvc	r1, [pc, #-300]	; 56d8 <__code_start__-0x2928>
    5800:	ce060062 	cdpgt	0, 0, cr0, cr6, cr2, {3}
    5804:	0002e911 	andeq	lr, r2, r1, lsl r9
    5808:	5f113000 	svcpl	0x00113000
    580c:	06007075 			; <UNDEFINED> instruction: 0x06007075
    5810:	031112cf 	tsteq	r1, #-268435444	; 0xf000000c
    5814:	11380000 	teqne	r8, r0
    5818:	0072755f 	rsbseq	r7, r2, pc, asr r5
    581c:	2507d006 	strcs	sp, [r7, #-6]
    5820:	3c000000 	stccc	0, cr0, [r0], {-0}
    5824:	0002d70e 	andeq	sp, r2, lr, lsl #14
    5828:	11d30600 	bicsne	r0, r3, r0, lsl #12
    582c:	0000063a 	andeq	r0, r0, sl, lsr r6
    5830:	06f90e40 	ldrbteq	r0, [r9], r0, asr #28
    5834:	d4060000 	strle	r0, [r6], #-0
    5838:	00064a11 	andeq	r4, r6, r1, lsl sl
    583c:	5f114300 	svcpl	0x00114300
    5840:	0600626c 	streq	r6, [r0], -ip, ror #4
    5844:	02e911d7 	rsceq	r1, r9, #-1073741771	; 0xc0000035
    5848:	0e440000 	cdpeq	0, 4, cr0, cr4, cr0, {0}
    584c:	00000326 	andeq	r0, r0, r6, lsr #6
    5850:	2507da06 	strcs	sp, [r7, #-2566]	; 0xfffff5fa
    5854:	4c000000 	stcmi	0, cr0, [r0], {-0}
    5858:	0003520e 	andeq	r5, r3, lr, lsl #4
    585c:	0adb0600 	beq	ff6c7064 <__bss_end__+0xff6bccbc>
    5860:	00000090 	muleq	r0, r0, r0
    5864:	0a6d0e50 	beq	1b491ac <__bss_end__+0x1b3ee04>
    5868:	de060000 	cdple	0, 0, cr0, cr6, cr0, {0}
    586c:	00047812 	andeq	r7, r4, r2, lsl r8
    5870:	3e0e5400 	cfcpyscc	mvf5, mvf14
    5874:	06000006 	streq	r0, [r0], -r6
    5878:	01170ce2 	tsteq	r7, r2, ror #25
    587c:	0e580000 	cdpeq	0, 5, cr0, cr8, cr0, {0}
    5880:	000005ca 	andeq	r0, r0, sl, asr #11
    5884:	0b0ee406 	bleq	3be8a4 <__bss_end__+0x3b44fc>
    5888:	5c000001 	stcpl	0, cr0, [r0], {1}
    588c:	0005370e 	andeq	r3, r5, lr, lsl #14
    5890:	09e50600 	stmibeq	r5!, {r9, sl}^
    5894:	00000025 	andeq	r0, r0, r5, lsr #32
    5898:	25150064 	ldrcs	r0, [r5, #-100]	; 0xffffff9c
    589c:	78000000 	stmdavc	r0, {}	; <UNPREDICTABLE>
    58a0:	16000004 	strne	r0, [r0], -r4
    58a4:	00000478 	andeq	r0, r0, r8, ror r4
    58a8:	00007716 	andeq	r7, r0, r6, lsl r7
    58ac:	01231600 			; <UNDEFINED> instruction: 0x01231600
    58b0:	25160000 	ldrcs	r0, [r6, #-0]
    58b4:	00000000 	andeq	r0, r0, r0
    58b8:	04830406 	streq	r0, [r3], #1030	; 0x406
    58bc:	780f0000 	stmdavc	pc, {}	; <UNPREDICTABLE>
    58c0:	17000004 	strne	r0, [r0, -r4]
    58c4:	00000628 	andeq	r0, r0, r8, lsr #12
    58c8:	60060428 	andvs	r0, r6, r8, lsr #8
    58cc:	05cc0802 	strbeq	r0, [ip, #2050]	; 0x802
    58d0:	92180000 	andsls	r0, r8, #0, 0
    58d4:	06000005 	streq	r0, [r0], -r5
    58d8:	25070262 	strcs	r0, [r7, #-610]	; 0xfffffd9e
    58dc:	00000000 	andeq	r0, r0, r0
    58e0:	00031f18 	andeq	r1, r3, r8, lsl pc
    58e4:	02670600 	rsbeq	r0, r7, #0, 12
    58e8:	0006a60b 	andeq	sl, r6, fp, lsl #12
    58ec:	ab180400 	blge	6068f4 <__bss_end__+0x5fc54c>
    58f0:	06000004 	streq	r0, [r0], -r4
    58f4:	a6140267 	ldrge	r0, [r4], -r7, ror #4
    58f8:	08000006 	stmdaeq	r0, {r1, r2}
    58fc:	00046a18 	andeq	r6, r4, r8, lsl sl
    5900:	02670600 	rsbeq	r0, r7, #0, 12
    5904:	0006a61e 	andeq	sl, r6, lr, lsl r6
    5908:	eb180c00 	bl	608910 <__bss_end__+0x5fe568>
    590c:	06000005 	streq	r0, [r0], -r5
    5910:	25080269 	strcs	r0, [r8, #-617]	; 0xfffffd97
    5914:	10000000 	andne	r0, r0, r0
    5918:	00027718 	andeq	r7, r2, r8, lsl r7
    591c:	026a0600 	rsbeq	r0, sl, #0, 12
    5920:	0008a608 	andeq	sl, r8, r8, lsl #12
    5924:	07181400 	ldreq	r1, [r8, -r0, lsl #8]
    5928:	06000006 	streq	r0, [r0], -r6
    592c:	2507026d 	strcs	r0, [r7, #-621]	; 0xfffffd93
    5930:	30000000 	andcc	r0, r0, r0
    5934:	0005f518 	andeq	pc, r5, r8, lsl r5	; <UNPREDICTABLE>
    5938:	026e0600 	rsbeq	r0, lr, #0, 12
    593c:	0008bb16 	andeq	fp, r8, r6, lsl fp
    5940:	61183400 	tstvs	r8, r0, lsl #8
    5944:	06000005 	streq	r0, [r0], -r5
    5948:	25070270 	strcs	r0, [r7, #-624]	; 0xfffffd90
    594c:	38000000 	stmdacc	r0, {}	; <UNPREDICTABLE>
    5950:	0005fd18 	andeq	pc, r5, r8, lsl sp	; <UNPREDICTABLE>
    5954:	02720600 	rsbseq	r0, r2, #0, 12
    5958:	0008cc0a 	andeq	ip, r8, sl, lsl #24
    595c:	13183c00 	tstne	r8, #0, 24
    5960:	06000005 	streq	r0, [r0], -r5
    5964:	9b130275 	blls	4c6340 <__bss_end__+0x4bbf98>
    5968:	40000001 	andmi	r0, r0, r1
    596c:	00048918 	andeq	r8, r4, r8, lsl r9
    5970:	02760600 	rsbseq	r0, r6, #0, 12
    5974:	00002507 	andeq	r2, r0, r7, lsl #10
    5978:	3b184400 	blcc	616980 <__bss_end__+0x60c5d8>
    597c:	06000007 	streq	r0, [r0], -r7
    5980:	9b130277 	blls	4c6364 <__bss_end__+0x4bbfbc>
    5984:	48000001 	stmdami	r0, {r0}
    5988:	00057318 	andeq	r7, r5, r8, lsl r3
    598c:	02780600 	rsbseq	r0, r8, #0, 12
    5990:	0008d214 	andeq	sp, r8, r4, lsl r2
    5994:	b3184c00 	tstlt	r8, #0, 24
    5998:	06000004 	streq	r0, [r0], -r4
    599c:	2507027b 	strcs	r0, [r7, #-635]	; 0xfffffd85
    59a0:	50000000 	andpl	r0, r0, r0
    59a4:	00034a18 	andeq	r4, r3, r8, lsl sl
    59a8:	027c0600 	rsbseq	r0, ip, #0, 12
    59ac:	00012309 	andeq	r2, r1, r9, lsl #6
    59b0:	8b185400 	blhi	61a9b8 <__bss_end__+0x610610>
    59b4:	06000005 	streq	r0, [r0], -r5
    59b8:	8107029f 			; <UNDEFINED> instruction: 0x8107029f
    59bc:	58000008 	stmdapl	r0, {r3}
    59c0:	00055919 	andeq	r5, r5, r9, lsl r9
    59c4:	02a30600 	adceq	r0, r3, #0, 12
    59c8:	0002cc13 	andeq	ip, r2, r3, lsl ip
    59cc:	19014800 	stmdbne	r1, {fp, lr}
    59d0:	000004f1 	strdeq	r0, [r0], -r1
    59d4:	1202a406 	andne	sl, r2, #100663296	; 0x6000000
    59d8:	00000289 	andeq	r0, r0, r9, lsl #5
    59dc:	ef19014c 	svc	0x0019014c
    59e0:	06000006 	streq	r0, [r0], -r6
    59e4:	e30c02a8 	movw	r0, #49832	; 0xc2a8
    59e8:	dc000008 	stcle	0, cr0, [r0], {8}
    59ec:	03081902 	movweq	r1, #35074	; 0x8902
    59f0:	ad060000 	stcge	0, cr0, [r6, #-0]
    59f4:	06671002 	strbteq	r1, [r7], -r2
    59f8:	02e00000 	rsceq	r0, r0, #0, 0
    59fc:	0002ed19 	andeq	lr, r2, r9, lsl sp
    5a00:	02af0600 	adceq	r0, pc, #0, 12
    5a04:	0008ef0a 	andeq	lr, r8, sl, lsl #30
    5a08:	0002ec00 	andeq	lr, r2, r0, lsl #24
    5a0c:	045a0406 	ldrbeq	r0, [sl], #-1030	; 0xfffffbfa
    5a10:	25150000 	ldrcs	r0, [r5, #-0]
    5a14:	f0000000 			; <UNDEFINED> instruction: 0xf0000000
    5a18:	16000005 	strne	r0, [r0], -r5
    5a1c:	00000478 	andeq	r0, r0, r8, ror r4
    5a20:	00007716 	andeq	r7, r0, r6, lsl r7
    5a24:	05f01600 	ldrbeq	r1, [r0, #1536]!	; 0x600
    5a28:	25160000 	ldrcs	r0, [r6, #-0]
    5a2c:	00000000 	andeq	r0, r0, r0
    5a30:	01300406 	teqeq	r0, r6, lsl #8
    5a34:	04060000 	streq	r0, [r6], #-0
    5a38:	000005d2 	ldrdeq	r0, [r0], -r2
    5a3c:	00009c15 	andeq	r9, r0, r5, lsl ip
    5a40:	00061a00 	andeq	r1, r6, r0, lsl #20
    5a44:	04781600 	ldrbteq	r1, [r8], #-1536	; 0xfffffa00
    5a48:	77160000 	ldrvc	r0, [r6, -r0]
    5a4c:	16000000 	strne	r0, [r0], -r0
    5a50:	0000009c 	muleq	r0, ip, r0
    5a54:	00002516 	andeq	r2, r0, r6, lsl r5
    5a58:	04060000 	streq	r0, [r6], #-0
    5a5c:	000005fc 	strdeq	r0, [r0], -ip
    5a60:	00002515 	andeq	r2, r0, r5, lsl r5
    5a64:	00063400 	andeq	r3, r6, r0, lsl #8
    5a68:	04781600 	ldrbteq	r1, [r8], #-1536	; 0xfffffa00
    5a6c:	77160000 	ldrvc	r0, [r6, -r0]
    5a70:	00000000 	andeq	r0, r0, r0
    5a74:	06200406 	strteq	r0, [r0], -r6, lsl #8
    5a78:	4f0b0000 	svcmi	0x000b0000
    5a7c:	4a000000 	bmi	5a84 <__code_start__-0x257c>
    5a80:	0c000006 	stceq	0, cr0, [r0], {6}
    5a84:	0000002c 	andeq	r0, r0, ip, lsr #32
    5a88:	4f0b0002 	svcmi	0x000b0002
    5a8c:	5a000000 	bpl	5a94 <__code_start__-0x256c>
    5a90:	0c000006 	stceq	0, cr0, [r0], {6}
    5a94:	0000002c 	andeq	r0, r0, ip, lsr #32
    5a98:	b0080000 	andlt	r0, r8, r0
    5a9c:	06000005 	streq	r0, [r0], -r5
    5aa0:	171a011f 			; <UNDEFINED> instruction: 0x171a011f
    5aa4:	1a000003 	bne	5ab8 <__code_start__-0x2548>
    5aa8:	000006d6 	ldrdeq	r0, [r0], -r6
    5aac:	0123060c 			; <UNDEFINED> instruction: 0x0123060c
    5ab0:	0006a008 	andeq	sl, r6, r8
    5ab4:	05d81800 	ldrbeq	r1, [r8, #2048]	; 0x800
    5ab8:	25060000 	strcs	r0, [r6, #-0]
    5abc:	06a01101 	strteq	r1, [r0], r1, lsl #2
    5ac0:	18000000 	stmdane	r0, {}	; <UNPREDICTABLE>
    5ac4:	000004ea 	andeq	r0, r0, sl, ror #9
    5ac8:	07012606 	streq	r2, [r1, -r6, lsl #12]
    5acc:	00000025 	andeq	r0, r0, r5, lsr #32
    5ad0:	05aa1804 	streq	r1, [sl, #2052]!	; 0x804
    5ad4:	27060000 	strcs	r0, [r6, -r0]
    5ad8:	06a60b01 	strteq	r0, [r6], r1, lsl #22
    5adc:	00080000 	andeq	r0, r8, r0
    5ae0:	06670406 	strbteq	r0, [r7], -r6, lsl #8
    5ae4:	04060000 	streq	r0, [r6], #-0
    5ae8:	0000065a 	andeq	r0, r0, sl, asr r6
    5aec:	00026f1a 	andeq	r6, r2, sl, lsl pc
    5af0:	3f060e00 	svccc	0x00060e00
    5af4:	06e50801 	strbteq	r0, [r5], r1, lsl #16
    5af8:	2f180000 	svccs	0x00180000
    5afc:	06000006 	streq	r0, [r0], -r6
    5b00:	e5120140 	ldr	r0, [r2, #-320]	; 0xfffffec0
    5b04:	00000006 	andeq	r0, r0, r6
    5b08:	00066918 	andeq	r6, r6, r8, lsl r9
    5b0c:	01410600 	cmpeq	r1, r0, lsl #12
    5b10:	0006e512 	andeq	lr, r6, r2, lsl r5
    5b14:	8d180600 	ldchi	6, cr0, [r8, #-0]
    5b18:	06000006 	streq	r0, [r0], -r6
    5b1c:	56120142 	ldrpl	r0, [r2], -r2, asr #2
    5b20:	0c000000 	stceq	0, cr0, [r0], {-0}
    5b24:	00560b00 	subseq	r0, r6, r0, lsl #22
    5b28:	06f50000 	ldrbteq	r0, [r5], r0
    5b2c:	2c0c0000 	stccs	0, cr0, [ip], {-0}
    5b30:	02000000 	andeq	r0, r0, #0, 0
    5b34:	06d01b00 	ldrbeq	r1, [r0], r0, lsl #22
    5b38:	0a070280 	beq	1c6540 <__bss_end__+0x1bc198>
    5b3c:	18000008 	stmdane	r0, {r3}
    5b40:	000006ba 			; <UNDEFINED> instruction: 0x000006ba
    5b44:	18028206 	stmdane	r2, {r1, r2, r9, pc}
    5b48:	0000002c 	andeq	r0, r0, ip, lsr #32
    5b4c:	066f1800 	strbteq	r1, [pc], -r0, lsl #16
    5b50:	83060000 	movwhi	r0, #24576	; 0x6000
    5b54:	01231202 			; <UNDEFINED> instruction: 0x01231202
    5b58:	18040000 	stmdane	r4, {}	; <UNPREDICTABLE>
    5b5c:	00000506 	andeq	r0, r0, r6, lsl #10
    5b60:	10028406 	andne	r8, r2, r6, lsl #8
    5b64:	0000080a 	andeq	r0, r0, sl, lsl #16
    5b68:	07121808 	ldreq	r1, [r2, -r8, lsl #16]
    5b6c:	85060000 	strhi	r0, [r6, #-0]
    5b70:	01b11702 			; <UNDEFINED> instruction: 0x01b11702
    5b74:	18240000 	stmdane	r4!, {}	; <UNPREDICTABLE>
    5b78:	0000047a 	andeq	r0, r0, sl, ror r4
    5b7c:	0f028606 	svceq	0x00028606
    5b80:	00000025 	andeq	r0, r0, r5, lsr #32
    5b84:	05d31848 	ldrbeq	r1, [r3, #2120]	; 0x848
    5b88:	87060000 	strhi	r0, [r6, -r0]
    5b8c:	00702c02 	rsbseq	r2, r0, r2, lsl #24
    5b90:	18500000 	ldmdane	r0, {}^	; <UNPREDICTABLE>
    5b94:	00000728 	andeq	r0, r0, r8, lsr #14
    5b98:	1a028806 	bne	a7bb8 <__bss_end__+0x9d810>
    5b9c:	000006ac 	andeq	r0, r0, ip, lsr #13
    5ba0:	05de1858 	ldrbeq	r1, [lr, #2136]	; 0x858
    5ba4:	89060000 	stmdbhi	r6, {}	; <UNPREDICTABLE>
    5ba8:	010b1602 	tsteq	fp, r2, lsl #12
    5bac:	18680000 	stmdane	r8!, {}^	; <UNPREDICTABLE>
    5bb0:	0000072d 	andeq	r0, r0, sp, lsr #14
    5bb4:	16028a06 	strne	r8, [r2], -r6, lsl #20
    5bb8:	0000010b 	andeq	r0, r0, fp, lsl #2
    5bbc:	057d1870 	ldrbeq	r1, [sp, #-2160]!	; 0xfffff790
    5bc0:	8b060000 	blhi	185bc8 <__bss_end__+0x17b820>
    5bc4:	010b1602 	tsteq	fp, r2, lsl #12
    5bc8:	18780000 	ldmdane	r8!, {}^	; <UNPREDICTABLE>
    5bcc:	000006e5 	andeq	r0, r0, r5, ror #13
    5bd0:	10028c06 	andne	r8, r2, r6, lsl #24
    5bd4:	0000081a 	andeq	r0, r0, sl, lsl r8
    5bd8:	04fa1880 	ldrbteq	r1, [sl], #2176	; 0x880
    5bdc:	8d060000 	stchi	0, cr0, [r6, #-0]
    5be0:	082a1002 	stmdaeq	sl!, {r1, ip}
    5be4:	18880000 	stmne	r8, {}	; <UNPREDICTABLE>
    5be8:	0000069a 	muleq	r0, sl, r6
    5bec:	0f028e06 	svceq	0x00028e06
    5bf0:	00000025 	andeq	r0, r0, r5, lsr #32
    5bf4:	044018a0 	strbeq	r1, [r0], #-2208	; 0xfffff760
    5bf8:	8f060000 	svchi	0x00060000
    5bfc:	010b1602 	tsteq	fp, r2, lsl #12
    5c00:	18a40000 	stmiane	r4!, {}	; <UNPREDICTABLE>
    5c04:	000002bf 			; <UNDEFINED> instruction: 0x000002bf
    5c08:	16029006 	strne	r9, [r2], -r6
    5c0c:	0000010b 	andeq	r0, r0, fp, lsl #2
    5c10:	042f18ac 	strteq	r1, [pc], #-2220	; 5c18 <__code_start__-0x23e8>
    5c14:	91060000 	mrsls	r0, (UNDEF: 6)
    5c18:	010b1602 	tsteq	fp, r2, lsl #12
    5c1c:	18b40000 	ldmne	r4!, {}	; <UNPREDICTABLE>
    5c20:	0000028b 	andeq	r0, r0, fp, lsl #5
    5c24:	16029206 	strne	r9, [r2], -r6, lsl #4
    5c28:	0000010b 	andeq	r0, r0, fp, lsl #2
    5c2c:	029a18bc 	addseq	r1, sl, #188, 16	; 0xbc0000
    5c30:	93060000 	movwls	r0, #24576	; 0x6000
    5c34:	010b1602 	tsteq	fp, r2, lsl #12
    5c38:	18c40000 	stmiane	r4, {}^	; <UNPREDICTABLE>
    5c3c:	00000590 	muleq	r0, r0, r5
    5c40:	08029406 	stmdaeq	r2, {r1, r2, sl, ip, pc}
    5c44:	00000025 	andeq	r0, r0, r5, lsr #32
    5c48:	290b00cc 	stmdbcs	fp, {r2, r3, r6, r7}
    5c4c:	1a000001 	bne	5c58 <__code_start__-0x23a8>
    5c50:	0c000008 	stceq	0, cr0, [r0], {8}
    5c54:	0000002c 	andeq	r0, r0, ip, lsr #32
    5c58:	290b0019 	stmdbcs	fp, {r0, r3, r4}
    5c5c:	2a000001 	bcs	5c68 <__code_start__-0x2398>
    5c60:	0c000008 	stceq	0, cr0, [r0], {8}
    5c64:	0000002c 	andeq	r0, r0, ip, lsr #32
    5c68:	290b0007 	stmdbcs	fp, {r0, r1, r2}
    5c6c:	3a000001 	bcc	5c78 <__code_start__-0x2388>
    5c70:	0c000008 	stceq	0, cr0, [r0], {8}
    5c74:	0000002c 	andeq	r0, r0, ip, lsr #32
    5c78:	f01b0017 			; <UNDEFINED> instruction: 0xf01b0017
    5c7c:	07029906 	streq	r9, [r2, -r6, lsl #18]
    5c80:	00000861 	andeq	r0, r0, r1, ror #16
    5c84:	00054918 	andeq	r4, r5, r8, lsl r9
    5c88:	029c0600 	addseq	r0, ip, #0, 12
    5c8c:	0008611b 	andeq	r6, r8, fp, lsl r1
    5c90:	dc180000 	ldcle	0, cr0, [r8], {-0}
    5c94:	06000006 	streq	r0, [r0], -r6
    5c98:	7118029d 			; <UNDEFINED> instruction: 0x7118029d
    5c9c:	78000008 	stmdavc	r0, {r3}
    5ca0:	03110b00 	tsteq	r1, #0, 22
    5ca4:	08710000 	ldmdaeq	r1!, {}^	; <UNPREDICTABLE>
    5ca8:	2c0c0000 	stccs	0, cr0, [ip], {-0}
    5cac:	1d000000 	stcne	0, cr0, [r0, #-0]
    5cb0:	002c0b00 	eoreq	r0, ip, r0, lsl #22
    5cb4:	08810000 	stmeq	r1, {}	; <UNPREDICTABLE>
    5cb8:	2c0c0000 	stccs	0, cr0, [ip], {-0}
    5cbc:	1d000000 	stcne	0, cr0, [r0, #-0]
    5cc0:	06f01c00 	ldrbteq	r1, [r0], r0, lsl #24
    5cc4:	a603027e 			; <UNDEFINED> instruction: 0xa603027e
    5cc8:	1d000008 	stcne	0, cr0, [r0, #-32]	; 0xffffffe0
    5ccc:	00000628 	andeq	r0, r0, r8, lsr #12
    5cd0:	0b029506 	bleq	ab0f0 <__bss_end__+0xa0d48>
    5cd4:	000006f5 	strdeq	r0, [r0], -r5
    5cd8:	0006ff1d 	andeq	pc, r6, sp, lsl pc	; <UNPREDICTABLE>
    5cdc:	029e0600 	addseq	r0, lr, #0, 12
    5ce0:	00083a0b 	andeq	r3, r8, fp, lsl #20
    5ce4:	290b0000 	stmdbcs	fp, {}	; <UNPREDICTABLE>
    5ce8:	b6000001 	strlt	r0, [r0], -r1
    5cec:	0c000008 	stceq	0, cr0, [r0], {8}
    5cf0:	0000002c 	andeq	r0, r0, ip, lsr #32
    5cf4:	b4070018 	strlt	r0, [r7], #-24	; 0xffffffe8
    5cf8:	06000002 	streq	r0, [r0], -r2
    5cfc:	0008b604 	andeq	fp, r8, r4, lsl #12
    5d00:	08cc1e00 	stmiaeq	ip, {r9, sl, fp, ip}^
    5d04:	78160000 	ldmdavc	r6, {}	; <UNPREDICTABLE>
    5d08:	00000004 	andeq	r0, r0, r4
    5d0c:	08c10406 	stmiaeq	r1, {r1, r2, sl}^
    5d10:	04060000 	streq	r0, [r6], #-0
    5d14:	0000019b 	muleq	r0, fp, r1
    5d18:	0008e31e 	andeq	lr, r8, lr, lsl r3
    5d1c:	00251600 	eoreq	r1, r5, r0, lsl #12
    5d20:	06000000 	streq	r0, [r0], -r0
    5d24:	0008e904 	andeq	lr, r8, r4, lsl #18
    5d28:	d8040600 	stmdale	r4, {r9, sl}
    5d2c:	0b000008 	bleq	5d54 <__code_start__-0x22ac>
    5d30:	0000065a 	andeq	r0, r0, sl, asr r6
    5d34:	000008ff 	strdeq	r0, [r0], -pc	; <UNPREDICTABLE>
    5d38:	00002c0c 	andeq	r2, r0, ip, lsl #24
    5d3c:	1f000200 	svcne	0x00000200
    5d40:	000006ae 	andeq	r0, r0, lr, lsr #13
    5d44:	17032e06 	strne	r2, [r3, -r6, lsl #28]
    5d48:	00000478 	andeq	r0, r0, r8, ror r4
    5d4c:	0006a71f 	andeq	sl, r6, pc, lsl r7
    5d50:	032f0600 			; <UNDEFINED> instruction: 0x032f0600
    5d54:	00047e1d 	andeq	r7, r4, sp, lsl lr
    5d58:	06520400 	ldrbeq	r0, [r2], -r0, lsl #8
    5d5c:	21070000 	mrscs	r0, (UNDEF: 7)
    5d60:	0009250f 	andeq	r2, r9, pc, lsl #10
    5d64:	2b040600 	blcs	10756c <__bss_end__+0xfd1c4>
    5d68:	15000009 	strne	r0, [r0, #-9]
    5d6c:	00000025 	andeq	r0, r0, r5, lsr #32
    5d70:	0000093a 	andeq	r0, r0, sl, lsr r9
    5d74:	00002516 	andeq	r2, r0, r6, lsl r5
    5d78:	93200000 	nopls	{0}	; <UNPREDICTABLE>
    5d7c:	07000004 	streq	r0, [r0, -r4]
    5d80:	09191623 	ldmdbeq	r9, {r0, r1, r5, r9, sl, ip}
    5d84:	36210000 	strtcc	r0, [r1], -r0
    5d88:	01000009 	tsteq	r0, r9
    5d8c:	98f80621 	ldmls	r8!, {r0, r5, r9, sl}^
    5d90:	00180000 	andseq	r0, r8, r0
    5d94:	9c010000 	stcls	0, cr0, [r1], {-0}
    5d98:	00000990 	muleq	r0, r0, r9
    5d9c:	63657322 	cmnvs	r5, #-2013265920	; 0x88000000
    5da0:	19210100 	stmdbne	r1!, {r8}
    5da4:	0000005d 	andeq	r0, r0, sp, asr r0
    5da8:	00000d42 	andeq	r0, r0, r2, asr #26
    5dac:	00000d3e 	andeq	r0, r0, lr, lsr sp
    5db0:	00990c23 	addseq	r0, r9, r3, lsr #24
    5db4:	00099000 	andeq	r9, r9, r0
    5db8:	50012400 	andpl	r2, r1, r0, lsl #8
    5dbc:	5001f311 	andpl	pc, r1, r1, lsl r3	; <UNPREDICTABLE>
    5dc0:	01f32435 	mvnseq	r2, r5, lsr r4
    5dc4:	24321c50 	ldrtcs	r1, [r2], #-3152	; 0xfffff3b0
    5dc8:	225001f3 	subscs	r0, r0, #-1073741764	; 0xc000003c
    5dcc:	00002433 	andeq	r2, r0, r3, lsr r4
    5dd0:	00080721 	andeq	r0, r8, r1, lsr #14
    5dd4:	061c0100 	ldreq	r0, [ip], -r0, lsl #2
    5dd8:	000098e0 	andeq	r9, r0, r0, ror #17
    5ddc:	00000018 	andeq	r0, r0, r8, lsl r0
    5de0:	09d99c01 	ldmibeq	r9, {r0, sl, fp, ip, pc}^
    5de4:	6d220000 	stcvs	0, cr0, [r2, #-0]
    5de8:	1c010073 	stcne	0, cr0, [r1], {115}	; 0x73
    5dec:	00005d18 	andeq	r5, r0, r8, lsl sp
    5df0:	000d6700 	andeq	r6, sp, r0, lsl #14
    5df4:	000d6300 	andeq	r6, sp, r0, lsl #6
    5df8:	98f42300 	ldmls	r4!, {r8, r9, sp}^
    5dfc:	09d90000 	ldmibeq	r9, {}^	; <UNPREDICTABLE>
    5e00:	01240000 			; <UNDEFINED> instruction: 0x01240000
    5e04:	01f31150 	mvnseq	r1, r0, asr r1
    5e08:	f3243550 	vqrshl.u32	<illegal reg q1.5>, q0, q2
    5e0c:	321c5001 	andscc	r5, ip, #1, 0
    5e10:	5001f324 	andpl	pc, r1, r4, lsr #6
    5e14:	00243322 	eoreq	r3, r4, r2, lsr #6
    5e18:	09792100 	ldmdbeq	r9!, {r8, sp}^
    5e1c:	12010000 	andne	r0, r1, #0, 0
    5e20:	0098bc06 	addseq	fp, r8, r6, lsl #24
    5e24:	00002400 	andeq	r2, r0, r0, lsl #8
    5e28:	479c0100 	ldrmi	r0, [ip, r0, lsl #2]
    5e2c:	2200000a 	andcs	r0, r0, #10, 0
    5e30:	01007375 	tsteq	r0, r5, ror r3
    5e34:	005d1812 	subseq	r1, sp, r2, lsl r8
    5e38:	0d8c0000 	stceq	0, cr0, [ip]
    5e3c:	0d880000 	stceq	0, cr0, [r8]
    5e40:	73250000 			; <UNDEFINED> instruction: 0x73250000
    5e44:	0e130100 	mufeqs	f0, f3, f0
    5e48:	0000005d 	andeq	r0, r0, sp, asr r0
    5e4c:	00000dac 	andeq	r0, r0, ip, lsr #27
    5e50:	00000daa 	andeq	r0, r0, sl, lsr #27
    5e54:	0098cc26 	addseq	ip, r8, r6, lsr #24
    5e58:	00001400 	andeq	r1, r0, r0, lsl #8
    5e5c:	000a3d00 	andeq	r3, sl, r0, lsl #26
    5e60:	00652500 	rsbeq	r2, r5, r0, lsl #10
    5e64:	5d121501 	cfldr32pl	mvfx1, [r2, #-4]
    5e68:	c1000000 	mrsgt	r0, (UNDEF: 0)
    5e6c:	bf00000d 	svclt	0x0000000d
    5e70:	2700000d 	strcs	r0, [r0, -sp]
    5e74:	000098d0 	ldrdeq	r9, [r0], -r0
    5e78:	00000a47 	andeq	r0, r0, r7, asr #20
    5e7c:	98c82700 	stmials	r8, {r8, r9, sl, sp}^
    5e80:	0a470000 	beq	11c5e88 <__bss_end__+0x11bbae0>
    5e84:	28000000 	stmdacs	r0, {}	; <UNPREDICTABLE>
    5e88:	00000927 	andeq	r0, r0, r7, lsr #18
    5e8c:	5d0a0b01 	vstrpl	d0, [sl, #-4]
    5e90:	a0000000 	andge	r0, r0, r0
    5e94:	1c000098 	stcne	0, cr0, [r0], {152}	; 0x98
    5e98:	01000000 	mrseq	r0, (UNDEF: 0)
    5e9c:	000a8f9c 	muleq	sl, ip, pc	; <UNPREDICTABLE>
    5ea0:	00752500 	rsbseq	r2, r5, r0, lsl #10
    5ea4:	5d0e0d01 	stcpl	13, cr0, [lr, #-4]
    5ea8:	d8000000 	stmdale	r0, {}	; <UNPREDICTABLE>
    5eac:	d400000d 	strle	r0, [r0], #-13
    5eb0:	2700000d 	strcs	r0, [r0, -sp]
    5eb4:	000098a8 	andeq	r9, r0, r8, lsr #17
    5eb8:	00000abd 			; <UNDEFINED> instruction: 0x00000abd
    5ebc:	0098ac27 	addseq	sl, r8, r7, lsr #24
    5ec0:	000a8f00 	andeq	r8, sl, r0, lsl #30
    5ec4:	98b42700 	ldmls	r4!, {r8, r9, sl, sp}
    5ec8:	0abd0000 	beq	fef45ed0 <__bss_end__+0xfef3bb28>
    5ecc:	28000000 	stmdacs	r0, {}	; <UNPREDICTABLE>
    5ed0:	00000966 	andeq	r0, r0, r6, ror #18
    5ed4:	5d0a0401 	cfstrspl	mvf0, [sl, #-4]
    5ed8:	8c000000 	stchi	0, cr0, [r0], {-0}
    5edc:	14000098 	strne	r0, [r0], #-152	; 0xffffff68
    5ee0:	01000000 	mrseq	r0, (UNDEF: 0)
    5ee4:	000abd9c 	muleq	sl, ip, sp
    5ee8:	98982300 	ldmls	r8, {r8, r9, sp}
    5eec:	0ac90000 	beq	ff245ef4 <__bss_end__+0xff23bb4c>
    5ef0:	01240000 			; <UNDEFINED> instruction: 0x01240000
    5ef4:	040c0550 	streq	r0, [ip], #-1360	; 0xfffffab0
    5ef8:	00200030 	eoreq	r0, r0, r0, lsr r0
    5efc:	09542900 	ldmdbeq	r4, {r8, fp, sp}^
    5f00:	09540000 	ldmdbeq	r4, {}^	; <UNPREDICTABLE>
    5f04:	84070000 	strhi	r0, [r7], #-0
    5f08:	09602906 	stmdbeq	r0!, {r1, r2, r8, fp, sp}^
    5f0c:	09600000 	stmdbeq	r0!, {}^	; <UNPREDICTABLE>
    5f10:	a8070000 	stmdage	r7, {}	; <UNPREDICTABLE>
    5f14:	0e62000a 	cdpeq	0, 6, cr0, cr2, cr10, {0}
    5f18:	00040000 	andeq	r0, r4, r0
    5f1c:	00001597 	muleq	r0, r7, r5
    5f20:	035a0104 	cmpeq	sl, #1
    5f24:	3a0c0000 	bcc	305f2c <__bss_end__+0x2fbb84>
    5f28:	c100000a 	tstgt	r0, sl
    5f2c:	f0000004 			; <UNDEFINED> instruction: 0xf0000004
    5f30:	00000000 	andeq	r0, r0, r0
    5f34:	d8000000 	stmdale	r0, {}	; <UNPREDICTABLE>
    5f38:	02000013 	andeq	r0, r0, #19, 0
    5f3c:	6e690504 	cdpvs	5, 6, cr0, cr9, cr4, {0}
    5f40:	04030074 	streq	r0, [r3], #-116	; 0xffffff8c
    5f44:	0001ae07 	andeq	sl, r1, r7, lsl #28
    5f48:	06010300 	streq	r0, [r1], -r0, lsl #6
    5f4c:	0000005c 	andeq	r0, r0, ip, asr r0
    5f50:	fe050203 	cdp2	2, 0, cr0, cr5, cr3, {0}
    5f54:	03000001 	movweq	r0, #1
    5f58:	01ed0504 	mvneq	r0, r4, lsl #10
    5f5c:	08030000 	stmdaeq	r3, {}	; <UNPREDICTABLE>
    5f60:	0001e805 	andeq	lr, r1, r5, lsl #16
    5f64:	08c00400 	stmiaeq	r0, {sl}^
    5f68:	2e020000 	cdpcs	0, 0, cr0, cr2, cr0, {0}
    5f6c:	00005b18 	andeq	r5, r0, r8, lsl fp
    5f70:	08010300 	stmdaeq	r1, {r8, r9}
    5f74:	0000005a 	andeq	r0, r0, sl, asr r0
    5f78:	1c070203 	sfmne	f0, 4, [r7], {3}
    5f7c:	04000000 	streq	r0, [r0], #-0
    5f80:	0000021b 	andeq	r0, r0, fp, lsl r2
    5f84:	75193402 	ldrvc	r3, [r9, #-1026]	; 0xfffffbfe
    5f88:	03000000 	movweq	r0, #0
    5f8c:	01a90704 			; <UNDEFINED> instruction: 0x01a90704
    5f90:	08030000 	stmdaeq	r3, {}	; <UNPREDICTABLE>
    5f94:	0001a407 	andeq	sl, r1, r7, lsl #8
    5f98:	04040500 	streq	r0, [r4], #-1280	; 0xfffffb00
    5f9c:	00000528 	andeq	r0, r0, r8, lsr #10
    5fa0:	91192203 	tstls	r9, r3, lsl #4
    5fa4:	06000000 	streq	r0, [r0], -r0
    5fa8:	00009704 	andeq	r9, r0, r4, lsl #14
    5fac:	063d0700 	ldrteq	r0, [sp], -r0, lsl #14
    5fb0:	6c040000 	stcvs	0, cr0, [r4], {-0}
    5fb4:	04000005 	streq	r0, [r0], #-5
    5fb8:	00410e2c 	subeq	r0, r1, ip, lsr #28
    5fbc:	4a040000 	bmi	105fc4 <__bss_end__+0xfbc1c>
    5fc0:	04000006 	streq	r0, [r0], #-6
    5fc4:	00410e72 	subeq	r0, r1, r2, ror lr
    5fc8:	30080000 	andcc	r0, r8, r0
    5fcc:	05000005 	streq	r0, [r0, #-5]
    5fd0:	2c17015e 	ldfcss	f0, [r7], {94}	; 0x5e
    5fd4:	09000000 	stmdbeq	r0, {}	; <UNPREDICTABLE>
    5fd8:	03a60404 			; <UNDEFINED> instruction: 0x03a60404
    5fdc:	000000e3 	andeq	r0, r0, r3, ror #1
    5fe0:	00051b0a 	andeq	r1, r5, sl, lsl #22
    5fe4:	0ca80400 	cfstrseq	mvf0, [r8]
    5fe8:	000000b4 	strheq	r0, [r0], -r4
    5fec:	0004a40a 	andeq	sl, r4, sl, lsl #8
    5ff0:	13a90400 			; <UNDEFINED> instruction: 0x13a90400
    5ff4:	000000e3 	andeq	r0, r0, r3, ror #1
    5ff8:	005b0b00 	subseq	r0, fp, r0, lsl #22
    5ffc:	00f30000 	rscseq	r0, r3, r0
    6000:	2c0c0000 	stccs	0, cr0, [ip], {-0}
    6004:	03000000 	movweq	r0, #0
    6008:	04080d00 	streq	r0, [r8], #-3328	; 0xfffff300
    600c:	011709a3 	tsteq	r7, r3, lsr #19
    6010:	350e0000 	strcc	r0, [lr, #-0]
    6014:	04000006 	streq	r0, [r0], #-6
    6018:	002507a5 	eoreq	r0, r5, r5, lsr #15
    601c:	0e000000 	cdpeq	0, 0, cr0, cr0, cr0, {0}
    6020:	0000067c 	andeq	r0, r0, ip, ror r6
    6024:	c105aa04 	tstgt	r5, r4, lsl #20
    6028:	04000000 	streq	r0, [r0], #-0
    602c:	05b70400 	ldreq	r0, [r7, #1024]!	; 0x400
    6030:	ab040000 	blge	106038 <__bss_end__+0xfbc90>
    6034:	0000f303 	andeq	pc, r0, r3, lsl #6
    6038:	04610400 	strbteq	r0, [r1], #-1024	; 0xfffffc00
    603c:	af040000 	svcge	0x00040000
    6040:	0000851b 	andeq	r8, r0, fp, lsl r5
    6044:	35040600 	strcc	r0, [r4, #-1536]	; 0xfffffa00
    6048:	03000001 	movweq	r0, #1
    604c:	00630801 	rsbeq	r0, r3, r1, lsl #16
    6050:	350f0000 	strcc	r0, [pc, #-0]	; 6058 <__code_start__-0x1fa8>
    6054:	04000001 	streq	r0, [r0], #-1
    6058:	00000692 	muleq	r0, r2, r6
    605c:	75191606 	ldrvc	r1, [r9, #-1542]	; 0xfffff9fa
    6060:	10000000 	andne	r0, r0, r0
    6064:	00000472 	andeq	r0, r0, r2, ror r4
    6068:	082f0618 	stmdaeq	pc!, {r3, r4, r9, sl}	; <UNPREDICTABLE>
    606c:	000001a7 	andeq	r0, r0, r7, lsr #3
    6070:	0005d80e 	andeq	sp, r5, lr, lsl #16
    6074:	13310600 	teqne	r1, #0, 12
    6078:	000001a7 	andeq	r0, r0, r7, lsr #3
    607c:	6b5f1100 	blvs	17ca484 <__bss_end__+0x17c00dc>
    6080:	07320600 	ldreq	r0, [r2, -r0, lsl #12]!
    6084:	00000025 	andeq	r0, r0, r5, lsr #32
    6088:	06200e04 	strteq	r0, [r0], -r4, lsl #28
    608c:	32060000 	andcc	r0, r6, #0, 0
    6090:	0000250b 	andeq	r2, r0, fp, lsl #10
    6094:	5b0e0800 	blpl	38809c <__bss_end__+0x37dcf4>
    6098:	06000004 	streq	r0, [r0], -r4
    609c:	00251432 	eoreq	r1, r5, r2, lsr r4
    60a0:	0e0c0000 	cdpeq	0, 0, cr0, cr12, cr0, {0}
    60a4:	000006c7 	andeq	r0, r0, r7, asr #13
    60a8:	251b3206 	ldrcs	r3, [fp, #-518]	; 0xfffffdfa
    60ac:	10000000 	andne	r0, r0, r0
    60b0:	00785f11 	rsbseq	r5, r8, r1, lsl pc
    60b4:	ad0b3306 	stcge	3, cr3, [fp, #-24]	; 0xffffffe8
    60b8:	14000001 	strne	r0, [r0], #-1
    60bc:	4d040600 	stcmi	6, cr0, [r4, #-0]
    60c0:	0b000001 	bleq	60cc <__code_start__-0x1f34>
    60c4:	00000141 	andeq	r0, r0, r1, asr #2
    60c8:	000001bd 			; <UNDEFINED> instruction: 0x000001bd
    60cc:	00002c0c 	andeq	r2, r0, ip, lsl #24
    60d0:	10000000 	andne	r0, r0, r0
    60d4:	0000049f 	muleq	r0, pc, r4	; <UNPREDICTABLE>
    60d8:	08370624 	ldmdaeq	r7!, {r2, r5, r9, sl}
    60dc:	00000240 	andeq	r0, r0, r0, asr #4
    60e0:	0002ce0e 	andeq	ip, r2, lr, lsl #28
    60e4:	09390600 	ldmdbeq	r9!, {r9, sl}
    60e8:	00000025 	andeq	r0, r0, r5, lsr #32
    60ec:	06600e00 	strbteq	r0, [r0], -r0, lsl #28
    60f0:	3a060000 	bcc	1860f8 <__bss_end__+0x17bd50>
    60f4:	00002509 	andeq	r2, r0, r9, lsl #10
    60f8:	e30e0400 	movw	r0, #58368	; 0xe400
    60fc:	06000002 	streq	r0, [r0], -r2
    6100:	0025093b 	eoreq	r0, r5, fp, lsr r9
    6104:	0e080000 	cdpeq	0, 0, cr0, cr8, cr0, {0}
    6108:	00000740 	andeq	r0, r0, r0, asr #14
    610c:	25093c06 	strcs	r3, [r9, #-3078]	; 0xfffff3fa
    6110:	0c000000 	stceq	0, cr0, [r0], {-0}
    6114:	0005500e 	andeq	r5, r5, lr
    6118:	093d0600 	ldmdbeq	sp!, {r9, sl}
    611c:	00000025 	andeq	r0, r0, r5, lsr #32
    6120:	053f0e10 	ldreq	r0, [pc, #-3600]!	; 5318 <__code_start__-0x2ce8>
    6124:	3e060000 	cdpcc	0, 0, cr0, cr6, cr0, {0}
    6128:	00002509 	andeq	r2, r0, r9, lsl #10
    612c:	cc0e1400 	cfstrsgt	mvf1, [lr], {-0}
    6130:	06000006 	streq	r0, [r0], -r6
    6134:	0025093f 	eoreq	r0, r5, pc, lsr r9
    6138:	0e180000 	cdpeq	0, 1, cr0, cr8, cr0, {0}
    613c:	00000599 	muleq	r0, r9, r5
    6140:	25094006 	strcs	r4, [r9, #-6]
    6144:	1c000000 	stcne	0, cr0, [r0], {-0}
    6148:	0007070e 	andeq	r0, r7, lr, lsl #14
    614c:	09410600 	stmdbeq	r1, {r9, sl}^
    6150:	00000025 	andeq	r0, r0, r5, lsr #32
    6154:	f2120020 	vhadd.s16	d0, d2, d16
    6158:	08000002 	stmdaeq	r0, {r1}
    615c:	084a0601 	stmdaeq	sl, {r0, r9, sl}^
    6160:	00000285 	andeq	r0, r0, r5, lsl #5
    6164:	00044e0e 	andeq	r4, r4, lr, lsl #28
    6168:	0a4b0600 	beq	12c7970 <__bss_end__+0x12bd5c8>
    616c:	00000285 	andeq	r0, r0, r5, lsl #5
    6170:	024c0e00 	subeq	r0, ip, #0, 28
    6174:	4c060000 	stcmi	0, cr0, [r6], {-0}
    6178:	00028509 	andeq	r8, r2, r9, lsl #10
    617c:	84138000 	ldrhi	r8, [r3], #-0
    6180:	06000006 	streq	r0, [r0], -r6
    6184:	01410a4e 	cmpeq	r1, lr, asr #20
    6188:	01000000 	mrseq	r0, (UNDEF: 0)
    618c:	00031713 	andeq	r1, r3, r3, lsl r7
    6190:	0a510600 	beq	1447998 <__bss_end__+0x143d5f0>
    6194:	00000141 	andeq	r0, r0, r1, asr #2
    6198:	0b000104 	bleq	65b0 <__code_start__-0x1a50>
    619c:	00000083 	andeq	r0, r0, r3, lsl #1
    61a0:	00000295 	muleq	r0, r5, r2
    61a4:	00002c0c 	andeq	r2, r0, ip, lsl #24
    61a8:	12001f00 	andne	r1, r0, #0, 30
    61ac:	00000559 	andeq	r0, r0, r9, asr r5
    61b0:	5d060190 	stfpls	f0, [r6, #-576]	; 0xfffffdc0
    61b4:	0002d808 	andeq	sp, r2, r8, lsl #16
    61b8:	05d80e00 	ldrbeq	r0, [r8, #3584]	; 0xe00
    61bc:	5e060000 	cdppl	0, 0, cr0, cr6, cr0, {0}
    61c0:	0002d812 	andeq	sp, r2, r2, lsl r8
    61c4:	f00e0000 			; <UNDEFINED> instruction: 0xf00e0000
    61c8:	06000005 	streq	r0, [r0], -r5
    61cc:	0025065f 	eoreq	r0, r5, pc, asr r6
    61d0:	0e040000 	cdpeq	0, 0, cr0, cr4, cr0, {0}
    61d4:	00000456 	andeq	r0, r0, r6, asr r4
    61d8:	de096106 	adflee	f6, f1, f6
    61dc:	08000002 	stmdaeq	r0, {r1}
    61e0:	0002f20e 	andeq	pc, r2, lr, lsl #4
    61e4:	1e620600 	cdpne	6, 6, cr0, cr2, cr0, {0}
    61e8:	00000240 	andeq	r0, r0, r0, asr #4
    61ec:	04060088 	streq	r0, [r6], #-136	; 0xffffff78
    61f0:	00000295 	muleq	r0, r5, r2
    61f4:	0002ee0b 	andeq	lr, r2, fp, lsl #28
    61f8:	0002ee00 	andeq	lr, r2, r0, lsl #28
    61fc:	002c0c00 	eoreq	r0, ip, r0, lsl #24
    6200:	001f0000 	andseq	r0, pc, r0
    6204:	02f40406 	rscseq	r0, r4, #100663296	; 0x6000000
    6208:	10140000 	andsne	r0, r4, r0
    620c:	000005a3 	andeq	r0, r0, r3, lsr #11
    6210:	08750608 	ldmdaeq	r5!, {r3, r9, sl}^
    6214:	0000031d 	andeq	r0, r0, sp, lsl r3
    6218:	0002dd0e 	andeq	sp, r2, lr, lsl #26
    621c:	11760600 	cmnne	r6, r0, lsl #12
    6220:	0000031d 	andeq	r0, r0, sp, lsl r3
    6224:	02620e00 	rsbeq	r0, r2, #0, 28
    6228:	77060000 	strvc	r0, [r6, -r0]
    622c:	00002506 	andeq	r2, r0, r6, lsl #10
    6230:	06000400 	streq	r0, [r0], -r0, lsl #8
    6234:	00005b04 	andeq	r5, r0, r4, lsl #22
    6238:	05c21000 	strbeq	r1, [r2]
    623c:	06680000 	strbteq	r0, [r8], -r0
    6240:	046608b5 	strbteq	r0, [r6], #-2229	; 0xfffff74b
    6244:	5f110000 	svcpl	0x00110000
    6248:	b6060070 			; <UNDEFINED> instruction: 0xb6060070
    624c:	00031d12 	andeq	r1, r3, r2, lsl sp
    6250:	5f110000 	svcpl	0x00110000
    6254:	b7060072 	smlsdxlt	r6, r2, r0, r0
    6258:	00002507 	andeq	r2, r0, r7, lsl #10
    625c:	5f110400 	svcpl	0x00110400
    6260:	b8060077 	stmdalt	r6, {r0, r1, r2, r4, r5, r6}
    6264:	00002507 	andeq	r2, r0, r7, lsl #10
    6268:	100e0800 	andne	r0, lr, r0, lsl #16
    626c:	06000003 	streq	r0, [r0], -r3
    6270:	003a09b9 	ldrhteq	r0, [sl], -r9
    6274:	0e0c0000 	cdpeq	0, 0, cr0, cr12, cr0, {0}
    6278:	000004bb 			; <UNDEFINED> instruction: 0x000004bb
    627c:	3a09ba06 	bcc	274a9c <__bss_end__+0x26a6f4>
    6280:	0e000000 	cdpeq	0, 0, cr0, cr0, cr0, {0}
    6284:	66625f11 	uqadd16vs	r5, r2, r1
    6288:	11bb0600 			; <UNDEFINED> instruction: 0x11bb0600
    628c:	000002f5 	strdeq	r0, [r0], -r5
    6290:	02ab0e10 	adceq	r0, fp, #16, 28	; 0x100
    6294:	bc060000 	stclt	0, cr0, [r6], {-0}
    6298:	00002507 	andeq	r2, r0, r7, lsl #10
    629c:	000e1800 	andeq	r1, lr, r0, lsl #16
    62a0:	06000003 	streq	r0, [r0], -r3
    62a4:	00830ac3 	addeq	r0, r3, r3, asr #21
    62a8:	0e1c0000 	cdpeq	0, 1, cr0, cr12, cr0, {0}
    62ac:	00000b11 	andeq	r0, r0, r1, lsl fp
    62b0:	d81dc506 	ldmdale	sp, {r1, r2, r8, sl, lr, pc}
    62b4:	20000005 	andcs	r0, r0, r5
    62b8:	000b2b0e 	andeq	r2, fp, lr, lsl #22
    62bc:	1dc70600 	stclne	6, cr0, [r7]
    62c0:	00000602 	andeq	r0, r0, r2, lsl #12
    62c4:	06440e24 	strbeq	r0, [r4], -r4, lsr #28
    62c8:	ca060000 	bgt	1862d0 <__bss_end__+0x17bf28>
    62cc:	0006260d 	andeq	r2, r6, sp, lsl #12
    62d0:	210e2800 	tstcs	lr, r0, lsl #16
    62d4:	06000007 	streq	r0, [r0], -r7
    62d8:	064009cb 	strbeq	r0, [r0], -fp, asr #19
    62dc:	112c0000 			; <UNDEFINED> instruction: 0x112c0000
    62e0:	0062755f 	rsbeq	r7, r2, pc, asr r5
    62e4:	f511ce06 			; <UNDEFINED> instruction: 0xf511ce06
    62e8:	30000002 	andcc	r0, r0, r2
    62ec:	70755f11 	rsbsvc	r5, r5, r1, lsl pc
    62f0:	12cf0600 	sbcne	r0, pc, #0, 12
    62f4:	0000031d 	andeq	r0, r0, sp, lsl r3
    62f8:	755f1138 	ldrbvc	r1, [pc, #-312]	; 61c8 <__code_start__-0x1e38>
    62fc:	d0060072 	andle	r0, r6, r2, ror r0
    6300:	00002507 	andeq	r2, r0, r7, lsl #10
    6304:	d70e3c00 	strle	r3, [lr, -r0, lsl #24]
    6308:	06000002 	streq	r0, [r0], -r2
    630c:	064611d3 			; <UNDEFINED> instruction: 0x064611d3
    6310:	0e400000 	cdpeq	0, 4, cr0, cr0, cr0, {0}
    6314:	000006f9 	strdeq	r0, [r0], -r9
    6318:	5611d406 	ldrpl	sp, [r1], -r6, lsl #8
    631c:	43000006 	movwmi	r0, #6
    6320:	626c5f11 	rsbvs	r5, ip, #68	; 0x44
    6324:	11d70600 	bicsne	r0, r7, r0, lsl #12
    6328:	000002f5 	strdeq	r0, [r0], -r5
    632c:	03260e44 			; <UNDEFINED> instruction: 0x03260e44
    6330:	da060000 	ble	186338 <__bss_end__+0x17bf90>
    6334:	00002507 	andeq	r2, r0, r7, lsl #10
    6338:	520e4c00 	andpl	r4, lr, #0, 24
    633c:	06000003 	streq	r0, [r0], -r3
    6340:	009c0adb 			; <UNDEFINED> instruction: 0x009c0adb
    6344:	0e500000 	cdpeq	0, 5, cr0, cr0, cr0, {0}
    6348:	00000a6d 	andeq	r0, r0, sp, ror #20
    634c:	8412de06 	ldrhi	sp, [r2], #-3590	; 0xfffff1fa
    6350:	54000004 	strpl	r0, [r0], #-4
    6354:	00063e0e 	andeq	r3, r6, lr, lsl #28
    6358:	0ce20600 	stcleq	6, cr0, [r2]
    635c:	00000123 	andeq	r0, r0, r3, lsr #2
    6360:	05ca0e58 	strbeq	r0, [sl, #3672]	; 0xe58
    6364:	e4060000 	str	r0, [r6], #-0
    6368:	0001170e 	andeq	r1, r1, lr, lsl #14
    636c:	370e5c00 	strcc	r5, [lr, -r0, lsl #24]
    6370:	06000005 	streq	r0, [r0], -r5
    6374:	002509e5 	eoreq	r0, r5, r5, ror #19
    6378:	00640000 	rsbeq	r0, r4, r0
    637c:	00002515 	andeq	r2, r0, r5, lsl r5
    6380:	00048400 	andeq	r8, r4, r0, lsl #8
    6384:	04841600 	streq	r1, [r4], #1536	; 0x600
    6388:	83160000 	tsthi	r6, #0, 0
    638c:	16000000 	strne	r0, [r0], -r0
    6390:	0000012f 	andeq	r0, r0, pc, lsr #2
    6394:	00002516 	andeq	r2, r0, r6, lsl r5
    6398:	04060000 	streq	r0, [r6], #-0
    639c:	0000048f 	andeq	r0, r0, pc, lsl #9
    63a0:	0004840f 	andeq	r8, r4, pc, lsl #8
    63a4:	06281700 	strteq	r1, [r8], -r0, lsl #14
    63a8:	04280000 	strteq	r0, [r8], #-0
    63ac:	08026006 	stmdaeq	r2, {r1, r2, sp, lr}
    63b0:	000005d8 	ldrdeq	r0, [r0], -r8
    63b4:	00059218 	andeq	r9, r5, r8, lsl r2
    63b8:	02620600 	rsbeq	r0, r2, #0, 12
    63bc:	00002507 	andeq	r2, r0, r7, lsl #10
    63c0:	1f180000 	svcne	0x00180000
    63c4:	06000003 	streq	r0, [r0], -r3
    63c8:	b20b0267 	andlt	r0, fp, #1879048198	; 0x70000006
    63cc:	04000006 	streq	r0, [r0], #-6
    63d0:	0004ab18 	andeq	sl, r4, r8, lsl fp
    63d4:	02670600 	rsbeq	r0, r7, #0, 12
    63d8:	0006b214 	andeq	fp, r6, r4, lsl r2
    63dc:	6a180800 	bvs	6083e4 <__bss_end__+0x5fe03c>
    63e0:	06000004 	streq	r0, [r0], -r4
    63e4:	b21e0267 	andslt	r0, lr, #1879048198	; 0x70000006
    63e8:	0c000006 	stceq	0, cr0, [r0], {6}
    63ec:	0005eb18 	andeq	lr, r5, r8, lsl fp
    63f0:	02690600 	rsbeq	r0, r9, #0, 12
    63f4:	00002508 	andeq	r2, r0, r8, lsl #10
    63f8:	77181000 	ldrvc	r1, [r8, -r0]
    63fc:	06000002 	streq	r0, [r0], -r2
    6400:	b208026a 	andlt	r0, r8, #-1610612730	; 0xa0000006
    6404:	14000008 	strne	r0, [r0], #-8
    6408:	00060718 	andeq	r0, r6, r8, lsl r7
    640c:	026d0600 	rsbeq	r0, sp, #0, 12
    6410:	00002507 	andeq	r2, r0, r7, lsl #10
    6414:	f5183000 			; <UNDEFINED> instruction: 0xf5183000
    6418:	06000005 	streq	r0, [r0], -r5
    641c:	c716026e 	ldrgt	r0, [r6, -lr, ror #4]
    6420:	34000008 	strcc	r0, [r0], #-8
    6424:	00056118 	andeq	r6, r5, r8, lsl r1
    6428:	02700600 	rsbseq	r0, r0, #0, 12
    642c:	00002507 	andeq	r2, r0, r7, lsl #10
    6430:	fd183800 	ldc2	8, cr3, [r8, #-0]
    6434:	06000005 	streq	r0, [r0], -r5
    6438:	d80a0272 	stmdale	sl, {r1, r4, r5, r6, r9}
    643c:	3c000008 	stccc	0, cr0, [r0], {8}
    6440:	00051318 	andeq	r1, r5, r8, lsl r3
    6444:	02750600 	rsbseq	r0, r5, #0, 12
    6448:	0001a713 	andeq	sl, r1, r3, lsl r7
    644c:	89184000 	ldmdbhi	r8, {lr}
    6450:	06000004 	streq	r0, [r0], -r4
    6454:	25070276 	strcs	r0, [r7, #-630]	; 0xfffffd8a
    6458:	44000000 	strmi	r0, [r0], #-0
    645c:	00073b18 	andeq	r3, r7, r8, lsl fp
    6460:	02770600 	rsbseq	r0, r7, #0, 12
    6464:	0001a713 	andeq	sl, r1, r3, lsl r7
    6468:	73184800 	tstvc	r8, #0, 16
    646c:	06000005 	streq	r0, [r0], -r5
    6470:	de140278 	mrcle	2, 0, r0, cr4, cr8, {3}
    6474:	4c000008 	stcmi	0, cr0, [r0], {8}
    6478:	0004b318 	andeq	fp, r4, r8, lsl r3
    647c:	027b0600 	rsbseq	r0, fp, #0, 12
    6480:	00002507 	andeq	r2, r0, r7, lsl #10
    6484:	4a185000 	bmi	61a48c <__bss_end__+0x6100e4>
    6488:	06000003 	streq	r0, [r0], -r3
    648c:	2f09027c 	svccs	0x0009027c
    6490:	54000001 	strpl	r0, [r0], #-1
    6494:	00058b18 	andeq	r8, r5, r8, lsl fp
    6498:	029f0600 	addseq	r0, pc, #0, 12
    649c:	00088d07 	andeq	r8, r8, r7, lsl #26
    64a0:	59195800 	ldmdbpl	r9, {fp, ip, lr}
    64a4:	06000005 	streq	r0, [r0], -r5
    64a8:	d81302a3 	ldmdale	r3, {r0, r1, r5, r7, r9}
    64ac:	48000002 	stmdami	r0, {r1}
    64b0:	04f11901 	ldrbteq	r1, [r1], #2305	; 0x901
    64b4:	a4060000 	strge	r0, [r6], #-0
    64b8:	02951202 	addseq	r1, r5, #536870912	; 0x20000000
    64bc:	014c0000 	mrseq	r0, (UNDEF: 76)
    64c0:	0006ef19 	andeq	lr, r6, r9, lsl pc
    64c4:	02a80600 	adceq	r0, r8, #0, 12
    64c8:	0008ef0c 	andeq	lr, r8, ip, lsl #30
    64cc:	1902dc00 	stmdbne	r2, {sl, fp, ip, lr, pc}
    64d0:	00000308 	andeq	r0, r0, r8, lsl #6
    64d4:	1002ad06 	andne	sl, r2, r6, lsl #26
    64d8:	00000673 	andeq	r0, r0, r3, ror r6
    64dc:	ed1902e0 	lfm	f0, 4, [r9, #-896]	; 0xfffffc80
    64e0:	06000002 	streq	r0, [r0], -r2
    64e4:	fb0a02af 	blx	286faa <__bss_end__+0x27cc02>
    64e8:	ec000008 	stc	0, cr0, [r0], {8}
    64ec:	04060002 	streq	r0, [r6], #-2
    64f0:	00000466 	andeq	r0, r0, r6, ror #8
    64f4:	00002515 	andeq	r2, r0, r5, lsl r5
    64f8:	0005fc00 	andeq	pc, r5, r0, lsl #24
    64fc:	04841600 	streq	r1, [r4], #1536	; 0x600
    6500:	83160000 	tsthi	r6, #0, 0
    6504:	16000000 	strne	r0, [r0], -r0
    6508:	000005fc 	strdeq	r0, [r0], -ip
    650c:	00002516 	andeq	r2, r0, r6, lsl r5
    6510:	04060000 	streq	r0, [r6], #-0
    6514:	0000013c 	andeq	r0, r0, ip, lsr r1
    6518:	05de0406 	ldrbeq	r0, [lr, #1030]	; 0x406
    651c:	a8150000 	ldmdage	r5, {}	; <UNPREDICTABLE>
    6520:	26000000 	strcs	r0, [r0], -r0
    6524:	16000006 	strne	r0, [r0], -r6
    6528:	00000484 	andeq	r0, r0, r4, lsl #9
    652c:	00008316 	andeq	r8, r0, r6, lsl r3
    6530:	00a81600 	adceq	r1, r8, r0, lsl #12
    6534:	25160000 	ldrcs	r0, [r6, #-0]
    6538:	00000000 	andeq	r0, r0, r0
    653c:	06080406 	streq	r0, [r8], -r6, lsl #8
    6540:	25150000 	ldrcs	r0, [r5, #-0]
    6544:	40000000 	andmi	r0, r0, r0
    6548:	16000006 	strne	r0, [r0], -r6
    654c:	00000484 	andeq	r0, r0, r4, lsl #9
    6550:	00008316 	andeq	r8, r0, r6, lsl r3
    6554:	04060000 	streq	r0, [r6], #-0
    6558:	0000062c 	andeq	r0, r0, ip, lsr #12
    655c:	00005b0b 	andeq	r5, r0, fp, lsl #22
    6560:	00065600 	andeq	r5, r6, r0, lsl #12
    6564:	002c0c00 	eoreq	r0, ip, r0, lsl #24
    6568:	00020000 	andeq	r0, r2, r0
    656c:	00005b0b 	andeq	r5, r0, fp, lsl #22
    6570:	00066600 	andeq	r6, r6, r0, lsl #12
    6574:	002c0c00 	eoreq	r0, ip, r0, lsl #24
    6578:	00000000 	andeq	r0, r0, r0
    657c:	0005b008 	andeq	fp, r5, r8
    6580:	011f0600 	tsteq	pc, r0, lsl #12
    6584:	0003231a 	andeq	r2, r3, sl, lsl r3
    6588:	06d61a00 	ldrbeq	r1, [r6], r0, lsl #20
    658c:	060c0000 	streq	r0, [ip], -r0
    6590:	ac080123 	stfges	f0, [r8], {35}	; 0x23
    6594:	18000006 	stmdane	r0, {r1, r2}
    6598:	000005d8 	ldrdeq	r0, [r0], -r8
    659c:	11012506 	tstne	r1, r6, lsl #10
    65a0:	000006ac 	andeq	r0, r0, ip, lsr #13
    65a4:	04ea1800 	strbteq	r1, [sl], #2048	; 0x800
    65a8:	26060000 	strcs	r0, [r6], -r0
    65ac:	00250701 	eoreq	r0, r5, r1, lsl #14
    65b0:	18040000 	stmdane	r4, {}	; <UNPREDICTABLE>
    65b4:	000005aa 	andeq	r0, r0, sl, lsr #11
    65b8:	0b012706 	bleq	501d8 <__bss_end__+0x45e30>
    65bc:	000006b2 			; <UNDEFINED> instruction: 0x000006b2
    65c0:	04060008 	streq	r0, [r6], #-8
    65c4:	00000673 	andeq	r0, r0, r3, ror r6
    65c8:	06660406 	strbteq	r0, [r6], -r6, lsl #8
    65cc:	6f1a0000 	svcvs	0x001a0000
    65d0:	0e000002 	cdpeq	0, 0, cr0, cr0, cr2, {0}
    65d4:	08013f06 	stmdaeq	r1, {r1, r2, r8, r9, sl, fp, ip, sp}
    65d8:	000006f1 	strdeq	r0, [r0], -r1
    65dc:	00062f18 	andeq	r2, r6, r8, lsl pc
    65e0:	01400600 	cmpeq	r0, r0, lsl #12
    65e4:	0006f112 	andeq	pc, r6, r2, lsl r1	; <UNPREDICTABLE>
    65e8:	69180000 	ldmdbvs	r8, {}	; <UNPREDICTABLE>
    65ec:	06000006 	streq	r0, [r0], -r6
    65f0:	f1120141 			; <UNDEFINED> instruction: 0xf1120141
    65f4:	06000006 	streq	r0, [r0], -r6
    65f8:	00068d18 	andeq	r8, r6, r8, lsl sp
    65fc:	01420600 	cmpeq	r2, r0, lsl #12
    6600:	00006212 	andeq	r6, r0, r2, lsl r2
    6604:	0b000c00 	bleq	960c <vprintk+0x130>
    6608:	00000062 	andeq	r0, r0, r2, rrx
    660c:	00000701 	andeq	r0, r0, r1, lsl #14
    6610:	00002c0c 	andeq	r2, r0, ip, lsl #24
    6614:	1b000200 	blne	6e1c <__code_start__-0x11e4>
    6618:	028006d0 	addeq	r0, r0, #208, 12	; 0xd000000
    661c:	00081607 	andeq	r1, r8, r7, lsl #12
    6620:	06ba1800 	ldrteq	r1, [sl], r0, lsl #16
    6624:	82060000 	andhi	r0, r6, #0, 0
    6628:	002c1802 	eoreq	r1, ip, r2, lsl #16
    662c:	18000000 	stmdane	r0, {}	; <UNPREDICTABLE>
    6630:	0000066f 	andeq	r0, r0, pc, ror #12
    6634:	12028306 	andne	r8, r2, #402653184	; 0x18000000
    6638:	0000012f 	andeq	r0, r0, pc, lsr #2
    663c:	05061804 	streq	r1, [r6, #-2052]	; 0xfffff7fc
    6640:	84060000 	strhi	r0, [r6], #-0
    6644:	08161002 	ldmdaeq	r6, {r1, ip}
    6648:	18080000 	stmdane	r8, {}	; <UNPREDICTABLE>
    664c:	00000712 	andeq	r0, r0, r2, lsl r7
    6650:	17028506 	strne	r8, [r2, -r6, lsl #10]
    6654:	000001bd 			; <UNDEFINED> instruction: 0x000001bd
    6658:	047a1824 	ldrbteq	r1, [sl], #-2084	; 0xfffff7dc
    665c:	86060000 	strhi	r0, [r6], -r0
    6660:	00250f02 	eoreq	r0, r5, r2, lsl #30
    6664:	18480000 	stmdane	r8, {}^	; <UNPREDICTABLE>
    6668:	000005d3 	ldrdeq	r0, [r0], -r3
    666c:	2c028706 	stccs	7, cr8, [r2], {6}
    6670:	0000007c 	andeq	r0, r0, ip, ror r0
    6674:	07281850 			; <UNDEFINED> instruction: 0x07281850
    6678:	88060000 	stmdahi	r6, {}	; <UNPREDICTABLE>
    667c:	06b81a02 	ldrteq	r1, [r8], r2, lsl #20
    6680:	18580000 	ldmdane	r8, {}^	; <UNPREDICTABLE>
    6684:	000005de 	ldrdeq	r0, [r0], -lr
    6688:	16028906 	strne	r8, [r2], -r6, lsl #18
    668c:	00000117 	andeq	r0, r0, r7, lsl r1
    6690:	072d1868 	streq	r1, [sp, -r8, ror #16]!
    6694:	8a060000 	bhi	18669c <__bss_end__+0x17c2f4>
    6698:	01171602 	tsteq	r7, r2, lsl #12
    669c:	18700000 	ldmdane	r0!, {}^	; <UNPREDICTABLE>
    66a0:	0000057d 	andeq	r0, r0, sp, ror r5
    66a4:	16028b06 	strne	r8, [r2], -r6, lsl #22
    66a8:	00000117 	andeq	r0, r0, r7, lsl r1
    66ac:	06e51878 	uxtabeq	r1, r5, r8, ror #16
    66b0:	8c060000 	stchi	0, cr0, [r6], {-0}
    66b4:	08261002 	stmdaeq	r6!, {r1, ip}
    66b8:	18800000 	stmne	r0, {}	; <UNPREDICTABLE>
    66bc:	000004fa 	strdeq	r0, [r0], -sl
    66c0:	10028d06 	andne	r8, r2, r6, lsl #26
    66c4:	00000836 	andeq	r0, r0, r6, lsr r8
    66c8:	069a1888 	ldreq	r1, [sl], r8, lsl #17
    66cc:	8e060000 	cdphi	0, 0, cr0, cr6, cr0, {0}
    66d0:	00250f02 	eoreq	r0, r5, r2, lsl #30
    66d4:	18a00000 	stmiane	r0!, {}	; <UNPREDICTABLE>
    66d8:	00000440 	andeq	r0, r0, r0, asr #8
    66dc:	16028f06 	strne	r8, [r2], -r6, lsl #30
    66e0:	00000117 	andeq	r0, r0, r7, lsl r1
    66e4:	02bf18a4 	adcseq	r1, pc, #164, 16	; 0xa40000
    66e8:	90060000 	andls	r0, r6, r0
    66ec:	01171602 	tsteq	r7, r2, lsl #12
    66f0:	18ac0000 	stmiane	ip!, {}	; <UNPREDICTABLE>
    66f4:	0000042f 	andeq	r0, r0, pc, lsr #8
    66f8:	16029106 	strne	r9, [r2], -r6, lsl #2
    66fc:	00000117 	andeq	r0, r0, r7, lsl r1
    6700:	028b18b4 	addeq	r1, fp, #180, 16	; 0xb40000
    6704:	92060000 	andls	r0, r6, #0, 0
    6708:	01171602 	tsteq	r7, r2, lsl #12
    670c:	18bc0000 	ldmne	ip!, {}	; <UNPREDICTABLE>
    6710:	0000029a 	muleq	r0, sl, r2
    6714:	16029306 	strne	r9, [r2], -r6, lsl #6
    6718:	00000117 	andeq	r0, r0, r7, lsl r1
    671c:	059018c4 	ldreq	r1, [r0, #2244]	; 0x8c4
    6720:	94060000 	strls	r0, [r6], #-0
    6724:	00250802 	eoreq	r0, r5, r2, lsl #16
    6728:	00cc0000 	sbceq	r0, ip, r0
    672c:	0001350b 	andeq	r3, r1, fp, lsl #10
    6730:	00082600 	andeq	r2, r8, r0, lsl #12
    6734:	002c0c00 	eoreq	r0, ip, r0, lsl #24
    6738:	00190000 	andseq	r0, r9, r0
    673c:	0001350b 	andeq	r3, r1, fp, lsl #10
    6740:	00083600 	andeq	r3, r8, r0, lsl #12
    6744:	002c0c00 	eoreq	r0, ip, r0, lsl #24
    6748:	00070000 	andeq	r0, r7, r0
    674c:	0001350b 	andeq	r3, r1, fp, lsl #10
    6750:	00084600 	andeq	r4, r8, r0, lsl #12
    6754:	002c0c00 	eoreq	r0, ip, r0, lsl #24
    6758:	00170000 	andseq	r0, r7, r0
    675c:	9906f01b 	stmdbls	r6, {r0, r1, r3, r4, ip, sp, lr, pc}
    6760:	086d0702 	stmdaeq	sp!, {r1, r8, r9, sl}^
    6764:	49180000 	ldmdbmi	r8, {}	; <UNPREDICTABLE>
    6768:	06000005 	streq	r0, [r0], -r5
    676c:	6d1b029c 	lfmvs	f0, 4, [fp, #-624]	; 0xfffffd90
    6770:	00000008 	andeq	r0, r0, r8
    6774:	0006dc18 	andeq	sp, r6, r8, lsl ip
    6778:	029d0600 	addseq	r0, sp, #0, 12
    677c:	00087d18 	andeq	r7, r8, r8, lsl sp
    6780:	0b007800 	bleq	24788 <__bss_end__+0x1a3e0>
    6784:	0000031d 	andeq	r0, r0, sp, lsl r3
    6788:	0000087d 	andeq	r0, r0, sp, ror r8
    678c:	00002c0c 	andeq	r2, r0, ip, lsl #24
    6790:	0b001d00 	bleq	db98 <__bss_end__+0x37f0>
    6794:	0000002c 	andeq	r0, r0, ip, lsr #32
    6798:	0000088d 	andeq	r0, r0, sp, lsl #17
    679c:	00002c0c 	andeq	r2, r0, ip, lsl #24
    67a0:	1c001d00 	stcne	13, cr1, [r0], {-0}
    67a4:	027e06f0 	rsbseq	r0, lr, #240, 12	; 0xf000000
    67a8:	0008b203 	andeq	fp, r8, r3, lsl #4
    67ac:	06281d00 	strteq	r1, [r8], -r0, lsl #26
    67b0:	95060000 	strls	r0, [r6, #-0]
    67b4:	07010b02 	streq	r0, [r1, -r2, lsl #22]
    67b8:	ff1d0000 			; <UNDEFINED> instruction: 0xff1d0000
    67bc:	06000006 	streq	r0, [r0], -r6
    67c0:	460b029e 			; <UNDEFINED> instruction: 0x460b029e
    67c4:	00000008 	andeq	r0, r0, r8
    67c8:	0001350b 	andeq	r3, r1, fp, lsl #10
    67cc:	0008c200 	andeq	ip, r8, r0, lsl #4
    67d0:	002c0c00 	eoreq	r0, ip, r0, lsl #24
    67d4:	00180000 	andseq	r0, r8, r0
    67d8:	0002b407 	andeq	fp, r2, r7, lsl #8
    67dc:	c2040600 	andgt	r0, r4, #0, 12
    67e0:	1e000008 	cdpne	0, 0, cr0, cr0, cr8, {0}
    67e4:	000008d8 	ldrdeq	r0, [r0], -r8
    67e8:	00048416 	andeq	r8, r4, r6, lsl r4
    67ec:	04060000 	streq	r0, [r6], #-0
    67f0:	000008cd 	andeq	r0, r0, sp, asr #17
    67f4:	01a70406 			; <UNDEFINED> instruction: 0x01a70406
    67f8:	ef1e0000 	svc	0x001e0000
    67fc:	16000008 	strne	r0, [r0], -r8
    6800:	00000025 	andeq	r0, r0, r5, lsr #32
    6804:	f5040600 			; <UNDEFINED> instruction: 0xf5040600
    6808:	06000008 	streq	r0, [r0], -r8
    680c:	0008e404 	andeq	lr, r8, r4, lsl #8
    6810:	06660b00 	strbteq	r0, [r6], -r0, lsl #22
    6814:	090b0000 	stmdbeq	fp, {}	; <UNPREDICTABLE>
    6818:	2c0c0000 	stccs	0, cr0, [ip], {-0}
    681c:	02000000 	andeq	r0, r0, #0, 0
    6820:	06ae1f00 	strteq	r1, [lr], r0, lsl #30
    6824:	2e060000 	cdpcs	0, 0, cr0, cr6, cr0, {0}
    6828:	04841703 	streq	r1, [r4], #1795	; 0x703
    682c:	a71f0000 	ldrge	r0, [pc, -r0]
    6830:	06000006 	streq	r0, [r0], -r6
    6834:	8a1d032f 	bhi	7474f8 <__bss_end__+0x73d150>
    6838:	04000004 	streq	r0, [r0], #-4
    683c:	00000652 	andeq	r0, r0, r2, asr r6
    6840:	310f2107 	tstcc	pc, r7, lsl #2
    6844:	06000009 	streq	r0, [r0], -r9
    6848:	00093704 	andeq	r3, r9, r4, lsl #14
    684c:	00251500 	eoreq	r1, r5, r0, lsl #10
    6850:	09460000 	stmdbeq	r6, {}^	; <UNPREDICTABLE>
    6854:	25160000 	ldrcs	r0, [r6, #-0]
    6858:	00000000 	andeq	r0, r0, r0
    685c:	00049320 	andeq	r9, r4, r0, lsr #6
    6860:	16230700 	strtne	r0, [r3], -r0, lsl #14
    6864:	00000925 	andeq	r0, r0, r5, lsr #18
    6868:	5b010721 	blpl	484f4 <__bss_end__+0x3e14c>
    686c:	09000000 	stmdbeq	r0, {}	; <UNPREDICTABLE>
    6870:	09910e0c 	ldmibeq	r1, {r2, r3, r9, sl, fp}
    6874:	82220000 	eorhi	r0, r2, #0, 0
    6878:	00000009 	andeq	r0, r0, r9
    687c:	000a4522 	andeq	r4, sl, r2, lsr #10
    6880:	73220100 			; <UNDEFINED> instruction: 0x73220100
    6884:	0400000a 	streq	r0, [r0], #-10
    6888:	00099f22 	andeq	r9, r9, r2, lsr #30
    688c:	56220500 	strtpl	r0, [r2], -r0, lsl #10
    6890:	0600000a 	streq	r0, [r0], -sl
    6894:	000a8222 	andeq	r8, sl, r2, lsr #4
    6898:	91220700 			; <UNDEFINED> instruction: 0x91220700
    689c:	0300000a 	movweq	r0, #10
    68a0:	000aa022 	andeq	sl, sl, r2, lsr #32
    68a4:	0d000200 	sfmeq	f0, 4, [r0, #-0]
    68a8:	091f0810 	ldmdbeq	pc, {r4, fp}	; <UNPREDICTABLE>
    68ac:	000009da 	ldrdeq	r0, [r0], -sl
    68b0:	00787411 	rsbseq	r7, r8, r1, lsl r4
    68b4:	4f0d2008 	svcmi	0x000d2008
    68b8:	00000000 	andeq	r0, r0, r0
    68bc:	00787211 	rsbseq	r7, r8, r1, lsl r2
    68c0:	4f0d2108 	svcmi	0x000d2108
    68c4:	01000000 	mrseq	r0, (UNDEF: 0)
    68c8:	000a0e0e 	andeq	r0, sl, lr, lsl #28
    68cc:	0e220800 	cdpeq	8, 2, cr0, cr2, cr0, {0}
    68d0:	00000069 	andeq	r0, r0, r9, rrx
    68d4:	0abc0e04 	beq	fef0a0ec <__bss_end__+0xfeeffd44>
    68d8:	23080000 	movwcs	r0, #32768	; 0x8000
    68dc:	0000690e 	andeq	r6, r0, lr, lsl #18
    68e0:	920e0800 	andls	r0, lr, #0, 16
    68e4:	08000009 	stmdaeq	r0, {r0, r3}
    68e8:	00690e24 	rsbeq	r0, r9, r4, lsr #28
    68ec:	000c0000 	andeq	r0, ip, r0
    68f0:	000a0404 	andeq	r0, sl, r4, lsl #8
    68f4:	03250800 			; <UNDEFINED> instruction: 0x03250800
    68f8:	00000991 	muleq	r0, r1, r9
    68fc:	0009d323 	andeq	sp, r9, r3, lsr #6
    6900:	122e0100 	eorne	r0, lr, #0
    6904:	000009da 	ldrdeq	r0, [r0], -sl
    6908:	0007f424 	andeq	pc, r7, r4, lsr #8
    690c:	06e50100 	strbteq	r0, [r5], r0, lsl #2
    6910:	00009acc 	andeq	r9, r0, ip, asr #21
    6914:	00000018 	andeq	r0, r0, r8, lsl r0
    6918:	0a1b9c01 	beq	6ed924 <__bss_end__+0x6e357c>
    691c:	d4250000 	strtle	r0, [r5], #-0
    6920:	1b00009a 	blne	6b90 <__code_start__-0x1470>
    6924:	2500000a 	strcs	r0, [r0, #-10]
    6928:	00009ae0 	andeq	r9, r0, r0, ror #21
    692c:	00000e29 	andeq	r0, r0, r9, lsr #28
    6930:	0a132600 	beq	4d0138 <__bss_end__+0x4c5d90>
    6934:	d0010000 	andle	r0, r1, r0
    6938:	00002505 	andeq	r2, r0, r5, lsl #10
    693c:	009a9000 	addseq	r9, sl, r0
    6940:	00003c00 	andeq	r3, r0, r0, lsl #24
    6944:	909c0100 	addsls	r0, ip, r0, lsl #2
    6948:	2700000a 	strcs	r0, [r0, -sl]
    694c:	0000067e 	andeq	r0, r0, lr, ror r6
    6950:	690ed201 	stmdbvs	lr, {r0, r9, ip, lr, pc}
    6954:	f8000000 			; <UNDEFINED> instruction: 0xf8000000
    6958:	f600000d 			; <UNDEFINED> instruction: 0xf600000d
    695c:	2700000d 	strcs	r0, [r0, -sp]
    6960:	00000514 	andeq	r0, r0, r4, lsl r5
    6964:	690ed301 	stmdbvs	lr, {r0, r8, r9, ip, lr, pc}
    6968:	11000000 	mrsne	r0, (UNDEF: 0)
    696c:	0b00000e 	bleq	69ac <__code_start__-0x1654>
    6970:	2500000e 	strcs	r0, [r0, #-14]
    6974:	00009a98 	muleq	r0, r8, sl
    6978:	00000e35 	andeq	r0, r0, r5, lsr lr
    697c:	009aa028 	addseq	sl, sl, r8, lsr #32
    6980:	000e4100 	andeq	r4, lr, r0, lsl #2
    6984:	000a7d00 	andeq	r7, sl, r0, lsl #26
    6988:	50012900 	andpl	r2, r1, r0, lsl #18
    698c:	50540c05 	subspl	r0, r4, r5, lsl #24
    6990:	25002021 	strcs	r2, [r0, #-33]	; 0xffffffdf
    6994:	00009ab4 			; <UNDEFINED> instruction: 0x00009ab4
    6998:	00000e35 	andeq	r0, r0, r5, lsr lr
    699c:	009ac025 	addseq	ip, sl, r5, lsr #32
    69a0:	000e3500 	andeq	r3, lr, r0, lsl #10
    69a4:	f4260000 	vld4.8	{d0-d3}, [r6], r0
    69a8:	01000009 	tsteq	r0, r9
    69ac:	002505c7 	eoreq	r0, r5, r7, asr #11
    69b0:	9a700000 	bls	1c069b8 <__bss_end__+0x1bfc610>
    69b4:	00200000 	eoreq	r0, r0, r0
    69b8:	9c010000 	stcls	0, cr0, [r1], {-0}
    69bc:	00000abd 			; <UNDEFINED> instruction: 0x00000abd
    69c0:	009a7825 	addseq	r7, sl, r5, lsr #16
    69c4:	000abd00 	andeq	fp, sl, r0, lsl #26
    69c8:	9a842500 	bls	fe10fdd0 <__bss_end__+0xfe105a28>
    69cc:	0bce0000 	bleq	ff3869d4 <__bss_end__+0xff37c62c>
    69d0:	26000000 	strcs	r0, [r0], -r0
    69d4:	00000a65 	andeq	r0, r0, r5, ror #20
    69d8:	2505bc01 	strcs	fp, [r5, #-3073]	; 0xfffff3ff
    69dc:	28000000 	stmdacs	r0, {}	; <UNPREDICTABLE>
    69e0:	1800009a 	stmdane	r0, {r1, r3, r4, r7}
    69e4:	01000000 	mrseq	r0, (UNDEF: 0)
    69e8:	000b139c 	muleq	fp, ip, r3
    69ec:	067e2700 	ldrbteq	r2, [lr], -r0, lsl #14
    69f0:	be010000 	cdplt	0, 0, cr0, cr1, cr0, {0}
    69f4:	0000690e 	andeq	r6, r0, lr, lsl #18
    69f8:	000e4100 	andeq	r4, lr, r0, lsl #2
    69fc:	000e3f00 	andeq	r3, lr, r0, lsl #30
    6a00:	09e92700 	stmibeq	r9!, {r8, r9, sl, sp}^
    6a04:	bf010000 	svclt	0x00010000
    6a08:	0000690e 	andeq	r6, r0, lr, lsl #18
    6a0c:	000e5800 	andeq	r5, lr, r0, lsl #16
    6a10:	000e5400 	andeq	r5, lr, r0, lsl #8
    6a14:	9a342a00 	bls	d1121c <__bss_end__+0xd06e74>
    6a18:	0e410000 	cdpeq	0, 4, cr0, cr1, cr0, {0}
    6a1c:	01290000 			; <UNDEFINED> instruction: 0x01290000
    6a20:	540c0550 	strpl	r0, [ip], #-1360	; 0xfffffab0
    6a24:	00202150 	eoreq	r2, r0, r0, asr r1
    6a28:	07ba2600 	ldreq	r2, [sl, r0, lsl #12]!
    6a2c:	af010000 	svcge	0x00010000
    6a30:	00002505 	andeq	r2, r0, r5, lsl #10
    6a34:	0099f400 	addseq	pc, r9, r0, lsl #8
    6a38:	00003400 	andeq	r3, r0, r0, lsl #8
    6a3c:	789c0100 	ldmvc	ip, {r8}
    6a40:	2b00000b 	blcs	6a74 <__code_start__-0x158c>
    6a44:	af010063 	svcge	0x00010063
    6a48:	00004f17 	andeq	r4, r0, r7, lsl pc
    6a4c:	000e7e00 	andeq	r7, lr, r0, lsl #28
    6a50:	000e7a00 	andeq	r7, lr, r0, lsl #20
    6a54:	9a002500 	bls	fe5c <__bss_end__+0x5ab4>
    6a58:	0e350000 	cdpeq	0, 3, cr0, cr5, cr0, {0}
    6a5c:	04250000 	strteq	r0, [r5], #-0
    6a60:	7800009a 	stmdavc	r0, {r1, r3, r4, r7}
    6a64:	2800000b 	stmdacs	r0, {r0, r1, r3}
    6a68:	00009a18 	andeq	r9, r0, r8, lsl sl
    6a6c:	00000e4d 	andeq	r0, r0, sp, asr #28
    6a70:	00000b6e 	andeq	r0, r0, lr, ror #22
    6a74:	05500129 	ldrbeq	r0, [r0, #-297]	; 0xfffffed7
    6a78:	2150400c 	cmpcs	r0, ip
    6a7c:	51012920 	tstpl	r1, r0, lsr #18
    6a80:	00007402 	andeq	r7, r0, r2, lsl #8
    6a84:	009a1c25 	addseq	r1, sl, r5, lsr #24
    6a88:	000e3500 	andeq	r3, lr, r0, lsl #10
    6a8c:	db260000 	blle	986a94 <__bss_end__+0x97c6ec>
    6a90:	01000009 	tsteq	r0, r9
    6a94:	002505a1 	eoreq	r0, r5, r1, lsr #11
    6a98:	99cc0000 	stmibls	ip, {}^	; <UNPREDICTABLE>
    6a9c:	00280000 	eoreq	r0, r8, r0
    6aa0:	9c010000 	stcls	0, cr0, [r1], {-0}
    6aa4:	00000bce 	andeq	r0, r0, lr, asr #23
    6aa8:	00067e27 	andeq	r7, r6, r7, lsr #28
    6aac:	0ea30100 	fdveqs	f0, f3, f0
    6ab0:	00000069 	andeq	r0, r0, r9, rrx
    6ab4:	00000ea3 	andeq	r0, r0, r3, lsr #29
    6ab8:	00000e9f 	muleq	r0, pc, lr	; <UNPREDICTABLE>
    6abc:	0009e927 	andeq	lr, r9, r7, lsr #18
    6ac0:	0ea40100 	fdveqs	f0, f4, f0
    6ac4:	00000069 	andeq	r0, r0, r9, rrx
    6ac8:	00000ec5 	andeq	r0, r0, r5, asr #29
    6acc:	00000ec1 	andeq	r0, r0, r1, asr #29
    6ad0:	0099d82a 	addseq	sp, r9, sl, lsr #16
    6ad4:	000e4100 	andeq	r4, lr, r0, lsl #2
    6ad8:	50012900 	andpl	r2, r1, r0, lsl #18
    6adc:	50540c05 	subspl	r0, r4, r5, lsl #24
    6ae0:	00002021 	andeq	r2, r0, r1, lsr #32
    6ae4:	0009c026 	andeq	ip, r9, r6, lsr #32
    6ae8:	05960100 	ldreq	r0, [r6, #256]	; 0x100
    6aec:	00000025 	andeq	r0, r0, r5, lsr #32
    6af0:	00009a40 	andeq	r9, r0, r0, asr #20
    6af4:	00000030 	andeq	r0, r0, r0, lsr r0
    6af8:	0c2f9c01 	stceq	12, cr9, [pc], #-4	; 6afc <__code_start__-0x1504>
    6afc:	24270000 	strtcs	r0, [r7], #-0
    6b00:	0100000a 	tsteq	r0, sl
    6b04:	00690e9a 	mlseq	r9, sl, lr, r0
    6b08:	0ef10000 	cdpeq	0, 15, cr0, cr1, cr0, {0}
    6b0c:	0eed0000 	cdpeq	0, 14, cr0, cr13, cr0, {0}
    6b10:	48250000 	stmdami	r5!, {}	; <UNPREDICTABLE>
    6b14:	3500009a 	strcc	r0, [r0, #-154]	; 0xffffff66
    6b18:	2500000e 	strcs	r0, [r0, #-14]
    6b1c:	00009a4c 	andeq	r9, r0, ip, asr #20
    6b20:	00000abd 			; <UNDEFINED> instruction: 0x00000abd
    6b24:	009a5c28 	addseq	r5, sl, r8, lsr #24
    6b28:	000e4100 	andeq	r4, lr, r0, lsl #2
    6b2c:	000c2500 	andeq	r2, ip, r0, lsl #10
    6b30:	50012900 	andpl	r2, r1, r0, lsl #18
    6b34:	50400c05 	subpl	r0, r0, r5, lsl #24
    6b38:	25002021 	strcs	r2, [r0, #-33]	; 0xffffffdf
    6b3c:	00009a64 	andeq	r9, r0, r4, ror #20
    6b40:	00000e35 	andeq	r0, r0, r5, lsr lr
    6b44:	0aaf2400 	beq	febcfb4c <__bss_end__+0xfebc57a4>
    6b48:	87010000 	strhi	r0, [r1, -r0]
    6b4c:	009ae406 	addseq	lr, sl, r6, lsl #8
    6b50:	00004400 	andeq	r4, r0, r0, lsl #8
    6b54:	c29c0100 	addsgt	r0, ip, #0
    6b58:	2700000c 	strcs	r0, [r0, -ip]
    6b5c:	00000a2f 	andeq	r0, r0, pc, lsr #20
    6b60:	690e8d01 	stmdbvs	lr, {r0, r8, sl, fp, pc}
    6b64:	15000000 	strne	r0, [r0, #-0]
    6b68:	0f00000f 	svceq	0x0000000f
    6b6c:	2500000f 	strcs	r0, [r0, #-15]
    6b70:	00009aec 	andeq	r9, r0, ip, ror #21
    6b74:	00000e35 	andeq	r0, r0, r5, lsr lr
    6b78:	009af025 	addseq	pc, sl, r5, lsr #32
    6b7c:	0009f200 	andeq	pc, r9, r0, lsl #4
    6b80:	9afc2800 	bls	fff10b88 <__bss_end__+0xfff067e0>
    6b84:	0e4d0000 	cdpeq	0, 4, cr0, cr13, cr0, {0}
    6b88:	0c870000 	stceq	0, cr0, [r7], {0}
    6b8c:	01290000 			; <UNDEFINED> instruction: 0x01290000
    6b90:	600c0550 	andvs	r0, ip, r0, asr r5
    6b94:	29202150 	stmdbcs	r0!, {r4, r6, r8, sp}
    6b98:	30015101 	andcc	r5, r1, r1, lsl #2
    6b9c:	9b002500 	blls	ffa4 <__bss_end__+0x5bfc>
    6ba0:	0e350000 	cdpeq	0, 3, cr0, cr5, cr0, {0}
    6ba4:	0c280000 	stceq	0, cr0, [r8], #-0
    6ba8:	4100009b 	swpmi	r0, fp, [r0]	; <UNPREDICTABLE>
    6bac:	a400000e 	strge	r0, [r0], #-14
    6bb0:	2900000c 	stmdbcs	r0, {r2, r3}
    6bb4:	74025001 	strvc	r5, [r2], #-1
    6bb8:	18280000 	stmdane	r8!, {}	; <UNPREDICTABLE>
    6bbc:	4d00009b 	stcmi	0, cr0, [r0, #-620]	; 0xfffffd94
    6bc0:	b800000e 	stmdalt	r0, {r1, r2, r3}
    6bc4:	2900000c 	stmdbcs	r0, {r2, r3}
    6bc8:	74025001 	strvc	r5, [r2], #-1
    6bcc:	1c250000 	stcne	0, cr0, [r5], #-0
    6bd0:	3500009b 	strcc	r0, [r0, #-155]	; 0xffffff65
    6bd4:	0000000e 	andeq	r0, r0, lr
    6bd8:	00082324 	andeq	r2, r8, r4, lsr #6
    6bdc:	066d0100 	strbteq	r0, [sp], -r0, lsl #2
    6be0:	00009910 	andeq	r9, r0, r0, lsl r9
    6be4:	000000bc 	strheq	r0, [r0], -ip
    6be8:	0e299c01 	cdpeq	12, 2, cr9, cr9, cr1, {0}
    6bec:	2f270000 	svccs	0x00270000
    6bf0:	0100000a 	tsteq	r0, sl
    6bf4:	00690e73 	rsbeq	r0, r9, r3, ror lr
    6bf8:	0f4b0000 	svceq	0x004b0000
    6bfc:	0f430000 	svceq	0x00430000
    6c00:	18250000 	stmdane	r5!, {}	; <UNPREDICTABLE>
    6c04:	35000099 	strcc	r0, [r0, #-153]	; 0xffffff67
    6c08:	2800000e 	stmdacs	r0, {r1, r2, r3}
    6c0c:	00009924 	andeq	r9, r0, r4, lsr #18
    6c10:	00000e59 	andeq	r0, r0, r9, asr lr
    6c14:	00000d0d 	andeq	r0, r0, sp, lsl #26
    6c18:	01500129 	cmpeq	r0, r9, lsr #2
    6c1c:	5101293e 	tstpl	r1, lr, lsr r9
    6c20:	28003201 	stmdacs	r0, {r0, r9, ip, sp}
    6c24:	00009930 	andeq	r9, r0, r0, lsr r9
    6c28:	00000e59 	andeq	r0, r0, r9, asr lr
    6c2c:	00000d25 	andeq	r0, r0, r5, lsr #26
    6c30:	01500129 	cmpeq	r0, r9, lsr #2
    6c34:	5101293f 	tstpl	r1, pc, lsr r9
    6c38:	25003201 	strcs	r3, [r0, #-513]	; 0xfffffdff
    6c3c:	00009934 	andeq	r9, r0, r4, lsr r9
    6c40:	00000e35 	andeq	r0, r0, r5, lsr lr
    6c44:	00994028 	addseq	r4, r9, r8, lsr #32
    6c48:	000e4100 	andeq	r4, lr, r0, lsl #2
    6c4c:	000d4200 	andeq	r4, sp, r0, lsl #4
    6c50:	50012900 	andpl	r2, r1, r0, lsl #18
    6c54:	00007402 	andeq	r7, r0, r2, lsl #8
    6c58:	00994c28 	addseq	r4, r9, r8, lsr #24
    6c5c:	000e4d00 	andeq	r4, lr, r0, lsl #26
    6c60:	000d5600 	andeq	r5, sp, r0, lsl #12
    6c64:	50012900 	andpl	r2, r1, r0, lsl #18
    6c68:	00007402 	andeq	r7, r0, r2, lsl #8
    6c6c:	00995025 	addseq	r5, r9, r5, lsr #32
    6c70:	000e3500 	andeq	r3, lr, r0, lsl #10
    6c74:	99602800 	stmdbls	r0!, {fp, sp}^
    6c78:	0e4d0000 	cdpeq	0, 4, cr0, cr13, cr0, {0}
    6c7c:	0d780000 	ldcleq	0, cr0, [r8, #-0]
    6c80:	01290000 			; <UNDEFINED> instruction: 0x01290000
    6c84:	00740250 	rsbseq	r0, r4, r0, asr r2
    6c88:	01510129 	cmpeq	r1, r9, lsr #2
    6c8c:	6c280030 	stcvs	0, cr0, [r8], #-192	; 0xffffff40
    6c90:	4d000099 	stcmi	0, cr0, [r0, #-612]	; 0xfffffd9c
    6c94:	9400000e 	strls	r0, [r0], #-14
    6c98:	2900000d 	stmdbcs	r0, {r0, r2, r3}
    6c9c:	0c055001 	stceq	0, cr5, [r5], {1}
    6ca0:	20215044 	eorcs	r5, r1, r4, asr #32
    6ca4:	01510129 	cmpeq	r1, r9, lsr #2
    6ca8:	78280030 	stmdavc	r8!, {r4, r5}
    6cac:	4d000099 	stcmi	0, cr0, [r0, #-612]	; 0xfffffd9c
    6cb0:	b000000e 	andlt	r0, r0, lr
    6cb4:	2900000d 	stmdbcs	r0, {r0, r2, r3}
    6cb8:	0c055001 	stceq	0, cr5, [r5], {1}
    6cbc:	20215048 	eorcs	r5, r1, r8, asr #32
    6cc0:	01510129 	cmpeq	r1, r9, lsr #2
    6cc4:	84280036 	strthi	r0, [r8], #-54	; 0xffffffca
    6cc8:	4d000099 	stcmi	0, cr0, [r0, #-612]	; 0xfffffd9c
    6ccc:	cc00000e 	stcgt	0, cr0, [r0], {14}
    6cd0:	2900000d 	stmdbcs	r0, {r0, r2, r3}
    6cd4:	0c055001 	stceq	0, cr5, [r5], {1}
    6cd8:	2021504c 	eorcs	r5, r1, ip, asr #32
    6cdc:	01510129 	cmpeq	r1, r9, lsr #2
    6ce0:	90280033 	eorls	r0, r8, r3, lsr r0
    6ce4:	4d000099 	stcmi	0, cr0, [r0, #-612]	; 0xfffffd9c
    6ce8:	e800000e 	stmda	r0, {r1, r2, r3}
    6cec:	2900000d 	stmdbcs	r0, {r0, r2, r3}
    6cf0:	0c055001 	stceq	0, cr5, [r5], {1}
    6cf4:	20215050 	eorcs	r5, r1, r0, asr r0
    6cf8:	01510129 	cmpeq	r1, r9, lsr #2
    6cfc:	9c280030 	stcls	0, cr0, [r8], #-192	; 0xffffff40
    6d00:	4d000099 	stcmi	0, cr0, [r0, #-612]	; 0xfffffd9c
    6d04:	0600000e 	streq	r0, [r0], -lr
    6d08:	2900000e 	stmdbcs	r0, {r1, r2, r3}
    6d0c:	0c055001 	stceq	0, cr5, [r5], {1}
    6d10:	20215068 	eorcs	r5, r1, r8, rrx
    6d14:	03510129 	cmpeq	r1, #1073741834	; 0x4000000a
    6d18:	00010e0a 	andeq	r0, r1, sl, lsl #28
    6d1c:	0099a828 	addseq	sl, r9, r8, lsr #16
    6d20:	000e4d00 	andeq	r4, lr, r0, lsl #26
    6d24:	000e1f00 	andeq	r1, lr, r0, lsl #30
    6d28:	50012900 	andpl	r2, r1, r0, lsl #18
    6d2c:	29007402 	stmdbcs	r0, {r1, sl, ip, sp, lr}
    6d30:	33015101 	movwcc	r5, #4353	; 0x1101
    6d34:	99ac2500 	stmibls	ip!, {r8, sl, sp}
    6d38:	0e350000 	cdpeq	0, 3, cr0, cr5, cr0, {0}
    6d3c:	2c000000 	stccs	0, cr0, [r0], {-0}
    6d40:	000009ca 	andeq	r0, r0, sl, asr #19
    6d44:	000009ca 	andeq	r0, r0, sl, asr #19
    6d48:	2c06e507 	cfstr32cs	mvfx14, [r6], {7}
    6d4c:	00000954 	andeq	r0, r0, r4, asr r9
    6d50:	00000954 	andeq	r0, r0, r4, asr r9
    6d54:	2c068407 	cfstrscs	mvf8, [r6], {7}
    6d58:	00000960 	andeq	r0, r0, r0, ror #18
    6d5c:	00000960 	andeq	r0, r0, r0, ror #18
    6d60:	2c0aa807 	stccs	8, cr10, [sl], {7}
    6d64:	000008df 	ldrdeq	r0, [r0], -pc	; <UNPREDICTABLE>
    6d68:	000008df 	ldrdeq	r0, [r0], -pc	; <UNPREDICTABLE>
    6d6c:	2c06a407 	cfstrscs	mvf10, [r6], {7}
    6d70:	000009ae 	andeq	r0, r0, lr, lsr #19
    6d74:	000009ae 	andeq	r0, r0, lr, lsr #19
    6d78:	00061909 	andeq	r1, r6, r9, lsl #18
    6d7c:	00000dde 	ldrdeq	r0, [r0], -lr
    6d80:	181b0004 	ldmdane	fp, {r2}
    6d84:	01040000 	mrseq	r0, (UNDEF: 4)
    6d88:	0000035a 	andeq	r0, r0, sl, asr r3
    6d8c:	000b8d0c 	andeq	r8, fp, ip, lsl #26
    6d90:	0004c100 	andeq	ip, r4, r0, lsl #2
    6d94:	009b2800 	addseq	r2, fp, r0, lsl #16
    6d98:	00018c00 	andeq	r8, r1, r0, lsl #24
    6d9c:	00169a00 	andseq	r9, r6, r0, lsl #20
    6da0:	07080200 	streq	r0, [r8, -r0, lsl #4]
    6da4:	000001a4 	andeq	r0, r0, r4, lsr #3
    6da8:	ae070402 	cdpge	4, 0, cr0, cr7, cr2, {0}
    6dac:	03000001 	movweq	r0, #1
    6db0:	6e690504 	cdpvs	5, 6, cr0, cr9, cr4, {0}
    6db4:	01020074 	tsteq	r2, r4, ror r0
    6db8:	00005c06 	andeq	r5, r0, r6, lsl #24
    6dbc:	05020200 	streq	r0, [r2, #-512]	; 0xfffffe00
    6dc0:	000001fe 	strdeq	r0, [r0], -lr
    6dc4:	ed050402 	cfstrs	mvf0, [r5, #-8]
    6dc8:	02000001 	andeq	r0, r0, #1, 0
    6dcc:	01e80508 	mvneq	r0, r8, lsl #10
    6dd0:	01020000 	mrseq	r0, (UNDEF: 2)
    6dd4:	00005a08 	andeq	r5, r0, r8, lsl #20
    6dd8:	07020200 	streq	r0, [r2, -r0, lsl #4]
    6ddc:	0000001c 	andeq	r0, r0, ip, lsl r0
    6de0:	a9070402 	stmdbge	r7, {r1, sl}
    6de4:	04000001 	streq	r0, [r0], #-1
    6de8:	05280504 	streq	r0, [r8, #-1284]!	; 0xfffffafc
    6dec:	22020000 	andcs	r0, r2, #0, 0
    6df0:	00007919 	andeq	r7, r0, r9, lsl r9
    6df4:	7f040600 	svcvc	0x00040600
    6df8:	07000000 	streq	r0, [r0, -r0]
    6dfc:	0000063d 	andeq	r0, r0, sp, lsr r6
    6e00:	00056c05 	andeq	r6, r5, r5, lsl #24
    6e04:	0e2c0300 	cdpeq	3, 2, cr0, cr12, cr0, {0}
    6e08:	00000048 	andeq	r0, r0, r8, asr #32
    6e0c:	00064a05 	andeq	r4, r6, r5, lsl #20
    6e10:	0e720300 	cdpeq	3, 7, cr0, cr2, cr0, {0}
    6e14:	00000048 	andeq	r0, r0, r8, asr #32
    6e18:	00053008 	andeq	r3, r5, r8
    6e1c:	015e0400 	cmpeq	lr, r0, lsl #8
    6e20:	00002c17 	andeq	r2, r0, r7, lsl ip
    6e24:	03040900 	movweq	r0, #18688	; 0x4900
    6e28:	00cb03a6 	sbceq	r0, fp, r6, lsr #7
    6e2c:	1b0a0000 	blne	286e34 <__bss_end__+0x27ca8c>
    6e30:	03000005 	movweq	r0, #5
    6e34:	009c0ca8 	addseq	r0, ip, r8, lsr #25
    6e38:	a40a0000 	strge	r0, [sl], #-0
    6e3c:	03000004 	movweq	r0, #4
    6e40:	00cb13a9 	sbceq	r1, fp, r9, lsr #7
    6e44:	0b000000 	bleq	6e4c <__code_start__-0x11b4>
    6e48:	00000056 	andeq	r0, r0, r6, asr r0
    6e4c:	000000db 	ldrdeq	r0, [r0], -fp
    6e50:	00002c0c 	andeq	r2, r0, ip, lsl #24
    6e54:	0d000300 	stceq	3, cr0, [r0, #-0]
    6e58:	09a30308 	stmibeq	r3!, {r3, r8, r9}
    6e5c:	000000ff 	strdeq	r0, [r0], -pc	; <UNPREDICTABLE>
    6e60:	0006350e 	andeq	r3, r6, lr, lsl #10
    6e64:	07a50300 	streq	r0, [r5, r0, lsl #6]!
    6e68:	00000033 	andeq	r0, r0, r3, lsr r0
    6e6c:	067c0e00 	ldrbteq	r0, [ip], -r0, lsl #28
    6e70:	aa030000 	bge	c6e78 <__bss_end__+0xbcad0>
    6e74:	0000a905 	andeq	sl, r0, r5, lsl #18
    6e78:	05000400 	streq	r0, [r0, #-1024]	; 0xfffffc00
    6e7c:	000005b7 			; <UNDEFINED> instruction: 0x000005b7
    6e80:	db03ab03 	blle	f1a94 <__bss_end__+0xe76ec>
    6e84:	05000000 	streq	r0, [r0, #-0]
    6e88:	00000461 	andeq	r0, r0, r1, ror #8
    6e8c:	6d1baf03 	ldcvs	15, cr10, [fp, #-12]
    6e90:	06000000 	streq	r0, [r0], -r0
    6e94:	00011d04 	andeq	r1, r1, r4, lsl #26
    6e98:	08010200 	stmdaeq	r1, {r9}
    6e9c:	00000063 	andeq	r0, r0, r3, rrx
    6ea0:	00011d0f 	andeq	r1, r1, pc, lsl #26
    6ea4:	06920500 	ldreq	r0, [r2], r0, lsl #10
    6ea8:	16050000 	strne	r0, [r5], -r0
    6eac:	00006419 	andeq	r6, r0, r9, lsl r4
    6eb0:	04721000 	ldrbteq	r1, [r2], #-0
    6eb4:	05180000 	ldreq	r0, [r8, #-0]
    6eb8:	018f082f 	orreq	r0, pc, pc, lsr #16
    6ebc:	d80e0000 	stmdale	lr, {}	; <UNPREDICTABLE>
    6ec0:	05000005 	streq	r0, [r0, #-5]
    6ec4:	018f1331 	orreq	r1, pc, r1, lsr r3	; <UNPREDICTABLE>
    6ec8:	11000000 	mrsne	r0, (UNDEF: 0)
    6ecc:	05006b5f 	streq	r6, [r0, #-2911]	; 0xfffff4a1
    6ed0:	00330732 	eorseq	r0, r3, r2, lsr r7
    6ed4:	0e040000 	cdpeq	0, 0, cr0, cr4, cr0, {0}
    6ed8:	00000620 	andeq	r0, r0, r0, lsr #12
    6edc:	330b3205 	movwcc	r3, #45573	; 0xb205
    6ee0:	08000000 	stmdaeq	r0, {}	; <UNPREDICTABLE>
    6ee4:	00045b0e 	andeq	r5, r4, lr, lsl #22
    6ee8:	14320500 	ldrtne	r0, [r2], #-1280	; 0xfffffb00
    6eec:	00000033 	andeq	r0, r0, r3, lsr r0
    6ef0:	06c70e0c 	strbeq	r0, [r7], ip, lsl #28
    6ef4:	32050000 	andcc	r0, r5, #0, 0
    6ef8:	0000331b 	andeq	r3, r0, fp, lsl r3
    6efc:	5f111000 	svcpl	0x00111000
    6f00:	33050078 	movwcc	r0, #20600	; 0x5078
    6f04:	0001950b 	andeq	r9, r1, fp, lsl #10
    6f08:	06001400 	streq	r1, [r0], -r0, lsl #8
    6f0c:	00013504 	andeq	r3, r1, r4, lsl #10
    6f10:	01290b00 			; <UNDEFINED> instruction: 0x01290b00
    6f14:	01a50000 			; <UNDEFINED> instruction: 0x01a50000
    6f18:	2c0c0000 	stccs	0, cr0, [ip], {-0}
    6f1c:	00000000 	andeq	r0, r0, r0
    6f20:	049f1000 	ldreq	r1, [pc], #0	; 6f28 <__code_start__-0x10d8>
    6f24:	05240000 	streq	r0, [r4, #-0]!
    6f28:	02280837 	eoreq	r0, r8, #3604480	; 0x370000
    6f2c:	ce0e0000 	cdpgt	0, 0, cr0, cr14, cr0, {0}
    6f30:	05000002 	streq	r0, [r0, #-2]
    6f34:	00330939 	eorseq	r0, r3, r9, lsr r9
    6f38:	0e000000 	cdpeq	0, 0, cr0, cr0, cr0, {0}
    6f3c:	00000660 	andeq	r0, r0, r0, ror #12
    6f40:	33093a05 	movwcc	r3, #39429	; 0x9a05
    6f44:	04000000 	streq	r0, [r0], #-0
    6f48:	0002e30e 	andeq	lr, r2, lr, lsl #6
    6f4c:	093b0500 	ldmdbeq	fp!, {r8, sl}
    6f50:	00000033 	andeq	r0, r0, r3, lsr r0
    6f54:	07400e08 	strbeq	r0, [r0, -r8, lsl #28]
    6f58:	3c050000 	stccc	0, cr0, [r5], {-0}
    6f5c:	00003309 	andeq	r3, r0, r9, lsl #6
    6f60:	500e0c00 	andpl	r0, lr, r0, lsl #24
    6f64:	05000005 	streq	r0, [r0, #-5]
    6f68:	0033093d 	eorseq	r0, r3, sp, lsr r9
    6f6c:	0e100000 	cdpeq	0, 1, cr0, cr0, cr0, {0}
    6f70:	0000053f 	andeq	r0, r0, pc, lsr r5
    6f74:	33093e05 	movwcc	r3, #40453	; 0x9e05
    6f78:	14000000 	strne	r0, [r0], #-0
    6f7c:	0006cc0e 	andeq	ip, r6, lr, lsl #24
    6f80:	093f0500 	ldmdbeq	pc!, {r8, sl}	; <UNPREDICTABLE>
    6f84:	00000033 	andeq	r0, r0, r3, lsr r0
    6f88:	05990e18 	ldreq	r0, [r9, #3608]	; 0xe18
    6f8c:	40050000 	andmi	r0, r5, r0
    6f90:	00003309 	andeq	r3, r0, r9, lsl #6
    6f94:	070e1c00 	streq	r1, [lr, -r0, lsl #24]
    6f98:	05000007 	streq	r0, [r0, #-7]
    6f9c:	00330941 	eorseq	r0, r3, r1, asr #18
    6fa0:	00200000 	eoreq	r0, r0, r0
    6fa4:	0002f212 	andeq	pc, r2, r2, lsl r2	; <UNPREDICTABLE>
    6fa8:	05010800 	streq	r0, [r1, #-2048]	; 0xfffff800
    6fac:	026d084a 	rsbeq	r0, sp, #4849664	; 0x4a0000
    6fb0:	4e0e0000 	cdpmi	0, 0, cr0, cr14, cr0, {0}
    6fb4:	05000004 	streq	r0, [r0, #-4]
    6fb8:	026d0a4b 	rsbeq	r0, sp, #307200	; 0x4b000
    6fbc:	0e000000 	cdpeq	0, 0, cr0, cr0, cr0, {0}
    6fc0:	0000024c 	andeq	r0, r0, ip, asr #4
    6fc4:	6d094c05 	stcvs	12, cr4, [r9, #-20]	; 0xffffffec
    6fc8:	80000002 	andhi	r0, r0, r2
    6fcc:	00068413 	andeq	r8, r6, r3, lsl r4
    6fd0:	0a4e0500 	beq	13883d8 <__bss_end__+0x137e030>
    6fd4:	00000129 	andeq	r0, r0, r9, lsr #2
    6fd8:	17130100 	ldrne	r0, [r3, -r0, lsl #2]
    6fdc:	05000003 	streq	r0, [r0, #-3]
    6fe0:	01290a51 			; <UNDEFINED> instruction: 0x01290a51
    6fe4:	01040000 	mrseq	r0, (UNDEF: 4)
    6fe8:	006b0b00 	rsbeq	r0, fp, r0, lsl #22
    6fec:	027d0000 	rsbseq	r0, sp, #0, 0
    6ff0:	2c0c0000 	stccs	0, cr0, [ip], {-0}
    6ff4:	1f000000 	svcne	0x00000000
    6ff8:	05591200 	ldrbeq	r1, [r9, #-512]	; 0xfffffe00
    6ffc:	01900000 	orrseq	r0, r0, r0
    7000:	c0085d05 	andgt	r5, r8, r5, lsl #26
    7004:	0e000002 	cdpeq	0, 0, cr0, cr0, cr2, {0}
    7008:	000005d8 	ldrdeq	r0, [r0], -r8
    700c:	c0125e05 	andsgt	r5, r2, r5, lsl #28
    7010:	00000002 	andeq	r0, r0, r2
    7014:	0005f00e 	andeq	pc, r5, lr
    7018:	065f0500 	ldrbeq	r0, [pc], -r0, lsl #10
    701c:	00000033 	andeq	r0, r0, r3, lsr r0
    7020:	04560e04 	ldrbeq	r0, [r6], #-3588	; 0xfffff1fc
    7024:	61050000 	mrsvs	r0, (UNDEF: 5)
    7028:	0002c609 	andeq	ip, r2, r9, lsl #12
    702c:	f20e0800 	vadd.i8	d0, d14, d0
    7030:	05000002 	streq	r0, [r0, #-2]
    7034:	02281e62 	eoreq	r1, r8, #1568	; 0x620
    7038:	00880000 	addeq	r0, r8, r0
    703c:	027d0406 	rsbseq	r0, sp, #100663296	; 0x6000000
    7040:	d60b0000 	strle	r0, [fp], -r0
    7044:	d6000002 	strle	r0, [r0], -r2
    7048:	0c000002 	stceq	0, cr0, [r0], {2}
    704c:	0000002c 	andeq	r0, r0, ip, lsr #32
    7050:	0406001f 	streq	r0, [r6], #-31	; 0xffffffe1
    7054:	000002dc 	ldrdeq	r0, [r0], -ip
    7058:	05a31014 	streq	r1, [r3, #20]!
    705c:	05080000 	streq	r0, [r8, #-0]
    7060:	03050875 	movweq	r0, #22645	; 0x5875
    7064:	dd0e0000 	stcle	0, cr0, [lr, #-0]
    7068:	05000002 	streq	r0, [r0, #-2]
    706c:	03051176 	movweq	r1, #20854	; 0x5176
    7070:	0e000000 	cdpeq	0, 0, cr0, cr0, cr0, {0}
    7074:	00000262 	andeq	r0, r0, r2, ror #4
    7078:	33067705 	movwcc	r7, #26373	; 0x6705
    707c:	04000000 	streq	r0, [r0], #-0
    7080:	56040600 	strpl	r0, [r4], -r0, lsl #12
    7084:	10000000 	andne	r0, r0, r0
    7088:	000005c2 	andeq	r0, r0, r2, asr #11
    708c:	08b50568 	ldmeq	r5!, {r3, r5, r6, r8, sl}
    7090:	0000044e 	andeq	r0, r0, lr, asr #8
    7094:	00705f11 	rsbseq	r5, r0, r1, lsl pc
    7098:	0512b605 	ldreq	fp, [r2, #-1541]	; 0xfffff9fb
    709c:	00000003 	andeq	r0, r0, r3
    70a0:	00725f11 	rsbseq	r5, r2, r1, lsl pc
    70a4:	3307b705 	movwcc	fp, #30469	; 0x7705
    70a8:	04000000 	streq	r0, [r0], #-0
    70ac:	00775f11 	rsbseq	r5, r7, r1, lsl pc
    70b0:	3307b805 	movwcc	fp, #30725	; 0x7805
    70b4:	08000000 	stmdaeq	r0, {}	; <UNPREDICTABLE>
    70b8:	0003100e 	andeq	r1, r3, lr
    70bc:	09b90500 	ldmibeq	r9!, {r8, sl}
    70c0:	00000041 	andeq	r0, r0, r1, asr #32
    70c4:	04bb0e0c 	ldrteq	r0, [fp], #3596	; 0xe0c
    70c8:	ba050000 	blt	1470d0 <__bss_end__+0x13cd28>
    70cc:	00004109 	andeq	r4, r0, r9, lsl #2
    70d0:	5f110e00 	svcpl	0x00110e00
    70d4:	05006662 	streq	r6, [r0, #-1634]	; 0xfffff99e
    70d8:	02dd11bb 	sbcseq	r1, sp, #-1073741778	; 0xc000002e
    70dc:	0e100000 	cdpeq	0, 1, cr0, cr0, cr0, {0}
    70e0:	000002ab 	andeq	r0, r0, fp, lsr #5
    70e4:	3307bc05 	movwcc	fp, #31749	; 0x7c05
    70e8:	18000000 	stmdane	r0, {}	; <UNPREDICTABLE>
    70ec:	0003000e 	andeq	r0, r3, lr
    70f0:	0ac30500 	beq	ff0c84f8 <__bss_end__+0xff0be150>
    70f4:	0000006b 	andeq	r0, r0, fp, rrx
    70f8:	0b110e1c 	bleq	44a970 <__bss_end__+0x4405c8>
    70fc:	c5050000 	strgt	r0, [r5, #-0]
    7100:	0005c01d 	andeq	ip, r5, sp, lsl r0
    7104:	2b0e2000 	blcs	38f10c <__bss_end__+0x384d64>
    7108:	0500000b 	streq	r0, [r0, #-11]
    710c:	05ea1dc7 	strbeq	r1, [sl, #3527]!	; 0xdc7
    7110:	0e240000 	cdpeq	0, 2, cr0, cr4, cr0, {0}
    7114:	00000644 	andeq	r0, r0, r4, asr #12
    7118:	0e0dca05 	vmlaeq.f32	s24, s26, s10
    711c:	28000006 	stmdacs	r0, {r1, r2}
    7120:	0007210e 	andeq	r2, r7, lr, lsl #2
    7124:	09cb0500 	stmibeq	fp, {r8, sl}^
    7128:	00000628 	andeq	r0, r0, r8, lsr #12
    712c:	755f112c 	ldrbvc	r1, [pc, #-300]	; 7008 <__code_start__-0xff8>
    7130:	ce050062 	cdpgt	0, 0, cr0, cr5, cr2, {3}
    7134:	0002dd11 	andeq	sp, r2, r1, lsl sp
    7138:	5f113000 	svcpl	0x00113000
    713c:	05007075 	streq	r7, [r0, #-117]	; 0xffffff8b
    7140:	030512cf 	movweq	r1, #21199	; 0x52cf
    7144:	11380000 	teqne	r8, r0
    7148:	0072755f 	rsbseq	r7, r2, pc, asr r5
    714c:	3307d005 	movwcc	sp, #28677	; 0x7005
    7150:	3c000000 	stccc	0, cr0, [r0], {-0}
    7154:	0002d70e 	andeq	sp, r2, lr, lsl #14
    7158:	11d30500 	bicsne	r0, r3, r0, lsl #10
    715c:	0000062e 	andeq	r0, r0, lr, lsr #12
    7160:	06f90e40 	ldrbteq	r0, [r9], r0, asr #28
    7164:	d4050000 	strle	r0, [r5], #-0
    7168:	00063e11 	andeq	r3, r6, r1, lsl lr
    716c:	5f114300 	svcpl	0x00114300
    7170:	0500626c 	streq	r6, [r0, #-620]	; 0xfffffd94
    7174:	02dd11d7 	sbcseq	r1, sp, #-1073741771	; 0xc0000035
    7178:	0e440000 	cdpeq	0, 4, cr0, cr4, cr0, {0}
    717c:	00000326 	andeq	r0, r0, r6, lsr #6
    7180:	3307da05 	movwcc	sp, #31237	; 0x7a05
    7184:	4c000000 	stcmi	0, cr0, [r0], {-0}
    7188:	0003520e 	andeq	r5, r3, lr, lsl #4
    718c:	0adb0500 	beq	ff6c8594 <__bss_end__+0xff6be1ec>
    7190:	00000084 	andeq	r0, r0, r4, lsl #1
    7194:	0a6d0e50 	beq	1b4aadc <__bss_end__+0x1b40734>
    7198:	de050000 	cdple	0, 0, cr0, cr5, cr0, {0}
    719c:	00046c12 	andeq	r6, r4, r2, lsl ip
    71a0:	3e0e5400 	cfcpyscc	mvf5, mvf14
    71a4:	05000006 	streq	r0, [r0, #-6]
    71a8:	010b0ce2 	smlatteq	fp, r2, ip, r0
    71ac:	0e580000 	cdpeq	0, 5, cr0, cr8, cr0, {0}
    71b0:	000005ca 	andeq	r0, r0, sl, asr #11
    71b4:	ff0ee405 			; <UNDEFINED> instruction: 0xff0ee405
    71b8:	5c000000 	stcpl	0, cr0, [r0], {-0}
    71bc:	0005370e 	andeq	r3, r5, lr, lsl #14
    71c0:	09e50500 	stmibeq	r5!, {r8, sl}^
    71c4:	00000033 	andeq	r0, r0, r3, lsr r0
    71c8:	33150064 	tstcc	r5, #100, 0	; 0x64
    71cc:	6c000000 	stcvs	0, cr0, [r0], {-0}
    71d0:	16000004 	strne	r0, [r0], -r4
    71d4:	0000046c 	andeq	r0, r0, ip, ror #8
    71d8:	00006b16 	andeq	r6, r0, r6, lsl fp
    71dc:	01171600 	tsteq	r7, r0, lsl #12
    71e0:	33160000 	tstcc	r6, #0, 0
    71e4:	00000000 	andeq	r0, r0, r0
    71e8:	04770406 	ldrbteq	r0, [r7], #-1030	; 0xfffffbfa
    71ec:	6c0f0000 	stcvs	0, cr0, [pc], {-0}
    71f0:	17000004 	strne	r0, [r0, -r4]
    71f4:	00000628 	andeq	r0, r0, r8, lsr #12
    71f8:	60050428 	andvs	r0, r5, r8, lsr #8
    71fc:	05c00802 	strbeq	r0, [r0, #2050]	; 0x802
    7200:	92180000 	andsls	r0, r8, #0, 0
    7204:	05000005 	streq	r0, [r0, #-5]
    7208:	33070262 	movwcc	r0, #29282	; 0x7262
    720c:	00000000 	andeq	r0, r0, r0
    7210:	00031f18 	andeq	r1, r3, r8, lsl pc
    7214:	02670500 	rsbeq	r0, r7, #0, 10
    7218:	00069a0b 	andeq	r9, r6, fp, lsl #20
    721c:	ab180400 	blge	608224 <__bss_end__+0x5fde7c>
    7220:	05000004 	streq	r0, [r0, #-4]
    7224:	9a140267 	bls	507bc8 <__bss_end__+0x4fd820>
    7228:	08000006 	stmdaeq	r0, {r1, r2}
    722c:	00046a18 	andeq	r6, r4, r8, lsl sl
    7230:	02670500 	rsbeq	r0, r7, #0, 10
    7234:	00069a1e 	andeq	r9, r6, lr, lsl sl
    7238:	eb180c00 	bl	60a240 <__bss_end__+0x5ffe98>
    723c:	05000005 	streq	r0, [r0, #-5]
    7240:	33080269 	movwcc	r0, #33385	; 0x8269
    7244:	10000000 	andne	r0, r0, r0
    7248:	00027718 	andeq	r7, r2, r8, lsl r7
    724c:	026a0500 	rsbeq	r0, sl, #0, 10
    7250:	00089a08 	andeq	r9, r8, r8, lsl #20
    7254:	07181400 	ldreq	r1, [r8, -r0, lsl #8]
    7258:	05000006 	streq	r0, [r0, #-6]
    725c:	3307026d 	movwcc	r0, #29293	; 0x726d
    7260:	30000000 	andcc	r0, r0, r0
    7264:	0005f518 	andeq	pc, r5, r8, lsl r5	; <UNPREDICTABLE>
    7268:	026e0500 	rsbeq	r0, lr, #0, 10
    726c:	0008af16 	andeq	sl, r8, r6, lsl pc
    7270:	61183400 	tstvs	r8, r0, lsl #8
    7274:	05000005 	streq	r0, [r0, #-5]
    7278:	33070270 	movwcc	r0, #29296	; 0x7270
    727c:	38000000 	stmdacc	r0, {}	; <UNPREDICTABLE>
    7280:	0005fd18 	andeq	pc, r5, r8, lsl sp	; <UNPREDICTABLE>
    7284:	02720500 	rsbseq	r0, r2, #0, 10
    7288:	0008c00a 	andeq	ip, r8, sl
    728c:	13183c00 	tstne	r8, #0, 24
    7290:	05000005 	streq	r0, [r0, #-5]
    7294:	8f130275 	svchi	0x00130275
    7298:	40000001 	andmi	r0, r0, r1
    729c:	00048918 	andeq	r8, r4, r8, lsl r9
    72a0:	02760500 	rsbseq	r0, r6, #0, 10
    72a4:	00003307 	andeq	r3, r0, r7, lsl #6
    72a8:	3b184400 	blcc	6182b0 <__bss_end__+0x60df08>
    72ac:	05000007 	streq	r0, [r0, #-7]
    72b0:	8f130277 	svchi	0x00130277
    72b4:	48000001 	stmdami	r0, {r0}
    72b8:	00057318 	andeq	r7, r5, r8, lsl r3
    72bc:	02780500 	rsbseq	r0, r8, #0, 10
    72c0:	0008c614 	andeq	ip, r8, r4, lsl r6
    72c4:	b3184c00 	tstlt	r8, #0, 24
    72c8:	05000004 	streq	r0, [r0, #-4]
    72cc:	3307027b 	movwcc	r0, #29307	; 0x727b
    72d0:	50000000 	andpl	r0, r0, r0
    72d4:	00034a18 	andeq	r4, r3, r8, lsl sl
    72d8:	027c0500 	rsbseq	r0, ip, #0, 10
    72dc:	00011709 	andeq	r1, r1, r9, lsl #14
    72e0:	8b185400 	blhi	61c2e8 <__bss_end__+0x611f40>
    72e4:	05000005 	streq	r0, [r0, #-5]
    72e8:	7507029f 	strvc	r0, [r7, #-671]	; 0xfffffd61
    72ec:	58000008 	stmdapl	r0, {r3}
    72f0:	00055919 	andeq	r5, r5, r9, lsl r9
    72f4:	02a30500 	adceq	r0, r3, #0, 10
    72f8:	0002c013 	andeq	ip, r2, r3, lsl r0
    72fc:	19014800 	stmdbne	r1, {fp, lr}
    7300:	000004f1 	strdeq	r0, [r0], -r1
    7304:	1202a405 	andne	sl, r2, #83886080	; 0x5000000
    7308:	0000027d 	andeq	r0, r0, sp, ror r2
    730c:	ef19014c 	svc	0x0019014c
    7310:	05000006 	streq	r0, [r0, #-6]
    7314:	d70c02a8 	strle	r0, [ip, -r8, lsr #5]
    7318:	dc000008 	stcle	0, cr0, [r0], {8}
    731c:	03081902 	movweq	r1, #35074	; 0x8902
    7320:	ad050000 	stcge	0, cr0, [r5, #-0]
    7324:	065b1002 	ldrbeq	r1, [fp], -r2
    7328:	02e00000 	rsceq	r0, r0, #0, 0
    732c:	0002ed19 	andeq	lr, r2, r9, lsl sp
    7330:	02af0500 	adceq	r0, pc, #0, 10
    7334:	0008e30a 	andeq	lr, r8, sl, lsl #6
    7338:	0002ec00 	andeq	lr, r2, r0, lsl #24
    733c:	044e0406 	strbeq	r0, [lr], #-1030	; 0xfffffbfa
    7340:	33150000 	tstcc	r5, #0, 0
    7344:	e4000000 	str	r0, [r0], #-0
    7348:	16000005 	strne	r0, [r0], -r5
    734c:	0000046c 	andeq	r0, r0, ip, ror #8
    7350:	00006b16 	andeq	r6, r0, r6, lsl fp
    7354:	05e41600 	strbeq	r1, [r4, #1536]!	; 0x600
    7358:	33160000 	tstcc	r6, #0, 0
    735c:	00000000 	andeq	r0, r0, r0
    7360:	01240406 			; <UNDEFINED> instruction: 0x01240406
    7364:	04060000 	streq	r0, [r6], #-0
    7368:	000005c6 	andeq	r0, r0, r6, asr #11
    736c:	00009015 	andeq	r9, r0, r5, lsl r0
    7370:	00060e00 	andeq	r0, r6, r0, lsl #28
    7374:	046c1600 	strbteq	r1, [ip], #-1536	; 0xfffffa00
    7378:	6b160000 	blvs	587380 <__bss_end__+0x57cfd8>
    737c:	16000000 	strne	r0, [r0], -r0
    7380:	00000090 	muleq	r0, r0, r0
    7384:	00003316 	andeq	r3, r0, r6, lsl r3
    7388:	04060000 	streq	r0, [r6], #-0
    738c:	000005f0 	strdeq	r0, [r0], -r0	; <UNPREDICTABLE>
    7390:	00003315 	andeq	r3, r0, r5, lsl r3
    7394:	00062800 	andeq	r2, r6, r0, lsl #16
    7398:	046c1600 	strbteq	r1, [ip], #-1536	; 0xfffffa00
    739c:	6b160000 	blvs	5873a4 <__bss_end__+0x57cffc>
    73a0:	00000000 	andeq	r0, r0, r0
    73a4:	06140406 	ldreq	r0, [r4], -r6, lsl #8
    73a8:	560b0000 	strpl	r0, [fp], -r0
    73ac:	3e000000 	cdpcc	0, 0, cr0, cr0, cr0, {0}
    73b0:	0c000006 	stceq	0, cr0, [r0], {6}
    73b4:	0000002c 	andeq	r0, r0, ip, lsr #32
    73b8:	560b0002 	strpl	r0, [fp], -r2
    73bc:	4e000000 	cdpmi	0, 0, cr0, cr0, cr0, {0}
    73c0:	0c000006 	stceq	0, cr0, [r0], {6}
    73c4:	0000002c 	andeq	r0, r0, ip, lsr #32
    73c8:	b0080000 	andlt	r0, r8, r0
    73cc:	05000005 	streq	r0, [r0, #-5]
    73d0:	0b1a011f 	bleq	687854 <__bss_end__+0x67d4ac>
    73d4:	1a000003 	bne	73e8 <__code_start__-0xc18>
    73d8:	000006d6 	ldrdeq	r0, [r0], -r6
    73dc:	0123050c 			; <UNDEFINED> instruction: 0x0123050c
    73e0:	00069408 	andeq	r9, r6, r8, lsl #8
    73e4:	05d81800 	ldrbeq	r1, [r8, #2048]	; 0x800
    73e8:	25050000 	strcs	r0, [r5, #-0]
    73ec:	06941101 	ldreq	r1, [r4], r1, lsl #2
    73f0:	18000000 	stmdane	r0, {}	; <UNPREDICTABLE>
    73f4:	000004ea 	andeq	r0, r0, sl, ror #9
    73f8:	07012605 	streq	r2, [r1, -r5, lsl #12]
    73fc:	00000033 	andeq	r0, r0, r3, lsr r0
    7400:	05aa1804 	streq	r1, [sl, #2052]!	; 0x804
    7404:	27050000 	strcs	r0, [r5, -r0]
    7408:	069a0b01 	ldreq	r0, [sl], r1, lsl #22
    740c:	00080000 	andeq	r0, r8, r0
    7410:	065b0406 	ldrbeq	r0, [fp], -r6, lsl #8
    7414:	04060000 	streq	r0, [r6], #-0
    7418:	0000064e 	andeq	r0, r0, lr, asr #12
    741c:	00026f1a 	andeq	r6, r2, sl, lsl pc
    7420:	3f050e00 	svccc	0x00050e00
    7424:	06d90801 	ldrbeq	r0, [r9], r1, lsl #16
    7428:	2f180000 	svccs	0x00180000
    742c:	05000006 	streq	r0, [r0, #-6]
    7430:	d9120140 	ldmdble	r2, {r6, r8}
    7434:	00000006 	andeq	r0, r0, r6
    7438:	00066918 	andeq	r6, r6, r8, lsl r9
    743c:	01410500 	cmpeq	r1, r0, lsl #10
    7440:	0006d912 	andeq	sp, r6, r2, lsl r9
    7444:	8d180600 	ldchi	6, cr0, [r8, #-0]
    7448:	05000006 	streq	r0, [r0, #-6]
    744c:	5d120142 	ldfpls	f0, [r2, #-264]	; 0xfffffef8
    7450:	0c000000 	stceq	0, cr0, [r0], {-0}
    7454:	005d0b00 	subseq	r0, sp, r0, lsl #22
    7458:	06e90000 	strbteq	r0, [r9], r0
    745c:	2c0c0000 	stccs	0, cr0, [ip], {-0}
    7460:	02000000 	andeq	r0, r0, #0, 0
    7464:	05d01b00 	ldrbeq	r1, [r0, #2816]	; 0xb00
    7468:	fe070280 	cdp2	2, 0, cr0, cr7, cr0, {4}
    746c:	18000007 	stmdane	r0, {r0, r1, r2}
    7470:	000006ba 			; <UNDEFINED> instruction: 0x000006ba
    7474:	18028205 	stmdane	r2, {r0, r2, r9, pc}
    7478:	0000002c 	andeq	r0, r0, ip, lsr #32
    747c:	066f1800 	strbteq	r1, [pc], -r0, lsl #16
    7480:	83050000 	movwhi	r0, #20480	; 0x5000
    7484:	01171202 	tsteq	r7, r2, lsl #4
    7488:	18040000 	stmdane	r4, {}	; <UNPREDICTABLE>
    748c:	00000506 	andeq	r0, r0, r6, lsl #10
    7490:	10028405 	andne	r8, r2, r5, lsl #8
    7494:	000007fe 	strdeq	r0, [r0], -lr
    7498:	07121808 	ldreq	r1, [r2, -r8, lsl #16]
    749c:	85050000 	strhi	r0, [r5, #-0]
    74a0:	01a51702 			; <UNDEFINED> instruction: 0x01a51702
    74a4:	18240000 	stmdane	r4!, {}	; <UNPREDICTABLE>
    74a8:	0000047a 	andeq	r0, r0, sl, ror r4
    74ac:	0f028605 	svceq	0x00028605
    74b0:	00000033 	andeq	r0, r0, r3, lsr r0
    74b4:	05d31848 	ldrbeq	r1, [r3, #2120]	; 0x848
    74b8:	87050000 	strhi	r0, [r5, -r0]
    74bc:	00252c02 	eoreq	r2, r5, r2, lsl #24
    74c0:	18500000 	ldmdane	r0, {}^	; <UNPREDICTABLE>
    74c4:	00000728 	andeq	r0, r0, r8, lsr #14
    74c8:	1a028805 	bne	a94e4 <__bss_end__+0x9f13c>
    74cc:	000006a0 	andeq	r0, r0, r0, lsr #13
    74d0:	05de1858 	ldrbeq	r1, [lr, #2136]	; 0x858
    74d4:	89050000 	stmdbhi	r5, {}	; <UNPREDICTABLE>
    74d8:	00ff1602 	rscseq	r1, pc, r2, lsl #12
    74dc:	18680000 	stmdane	r8!, {}^	; <UNPREDICTABLE>
    74e0:	0000072d 	andeq	r0, r0, sp, lsr #14
    74e4:	16028a05 	strne	r8, [r2], -r5, lsl #20
    74e8:	000000ff 	strdeq	r0, [r0], -pc	; <UNPREDICTABLE>
    74ec:	057d1870 	ldrbeq	r1, [sp, #-2160]!	; 0xfffff790
    74f0:	8b050000 	blhi	1474f8 <__bss_end__+0x13d150>
    74f4:	00ff1602 	rscseq	r1, pc, r2, lsl #12
    74f8:	18780000 	ldmdane	r8!, {}^	; <UNPREDICTABLE>
    74fc:	000006e5 	andeq	r0, r0, r5, ror #13
    7500:	10028c05 	andne	r8, r2, r5, lsl #24
    7504:	0000080e 	andeq	r0, r0, lr, lsl #16
    7508:	04fa1880 	ldrbteq	r1, [sl], #2176	; 0x880
    750c:	8d050000 	stchi	0, cr0, [r5, #-0]
    7510:	081e1002 	ldmdaeq	lr, {r1, ip}
    7514:	18880000 	stmne	r8, {}	; <UNPREDICTABLE>
    7518:	0000069a 	muleq	r0, sl, r6
    751c:	0f028e05 	svceq	0x00028e05
    7520:	00000033 	andeq	r0, r0, r3, lsr r0
    7524:	044018a0 	strbeq	r1, [r0], #-2208	; 0xfffff760
    7528:	8f050000 	svchi	0x00050000
    752c:	00ff1602 	rscseq	r1, pc, r2, lsl #12
    7530:	18a40000 	stmiane	r4!, {}	; <UNPREDICTABLE>
    7534:	000002bf 			; <UNDEFINED> instruction: 0x000002bf
    7538:	16029005 	strne	r9, [r2], -r5
    753c:	000000ff 	strdeq	r0, [r0], -pc	; <UNPREDICTABLE>
    7540:	042f18ac 	strteq	r1, [pc], #-2220	; 7548 <__code_start__-0xab8>
    7544:	91050000 	mrsls	r0, (UNDEF: 5)
    7548:	00ff1602 	rscseq	r1, pc, r2, lsl #12
    754c:	18b40000 	ldmne	r4!, {}	; <UNPREDICTABLE>
    7550:	0000028b 	andeq	r0, r0, fp, lsl #5
    7554:	16029205 	strne	r9, [r2], -r5, lsl #4
    7558:	000000ff 	strdeq	r0, [r0], -pc	; <UNPREDICTABLE>
    755c:	029a18bc 	addseq	r1, sl, #188, 16	; 0xbc0000
    7560:	93050000 	movwls	r0, #20480	; 0x5000
    7564:	00ff1602 	rscseq	r1, pc, r2, lsl #12
    7568:	18c40000 	stmiane	r4, {}^	; <UNPREDICTABLE>
    756c:	00000590 	muleq	r0, r0, r5
    7570:	08029405 	stmdaeq	r2, {r0, r2, sl, ip, pc}
    7574:	00000033 	andeq	r0, r0, r3, lsr r0
    7578:	1d0b00cc 	stcne	0, cr0, [fp, #-816]	; 0xfffffcd0
    757c:	0e000001 	cdpeq	0, 0, cr0, cr0, cr1, {0}
    7580:	0c000008 	stceq	0, cr0, [r0], {8}
    7584:	0000002c 	andeq	r0, r0, ip, lsr #32
    7588:	1d0b0019 	stcne	0, cr0, [fp, #-100]	; 0xffffff9c
    758c:	1e000001 	cdpne	0, 0, cr0, cr0, cr1, {0}
    7590:	0c000008 	stceq	0, cr0, [r0], {8}
    7594:	0000002c 	andeq	r0, r0, ip, lsr #32
    7598:	1d0b0007 	stcne	0, cr0, [fp, #-28]	; 0xffffffe4
    759c:	2e000001 	cdpcs	0, 0, cr0, cr0, cr1, {0}
    75a0:	0c000008 	stceq	0, cr0, [r0], {8}
    75a4:	0000002c 	andeq	r0, r0, ip, lsr #32
    75a8:	f01b0017 			; <UNDEFINED> instruction: 0xf01b0017
    75ac:	07029905 	streq	r9, [r2, -r5, lsl #18]
    75b0:	00000855 	andeq	r0, r0, r5, asr r8
    75b4:	00054918 	andeq	r4, r5, r8, lsl r9
    75b8:	029c0500 	addseq	r0, ip, #0, 10
    75bc:	0008551b 	andeq	r5, r8, fp, lsl r5
    75c0:	dc180000 	ldcle	0, cr0, [r8], {-0}
    75c4:	05000006 	streq	r0, [r0, #-6]
    75c8:	6518029d 	ldrvs	r0, [r8, #-669]	; 0xfffffd63
    75cc:	78000008 	stmdavc	r0, {r3}
    75d0:	03050b00 	movweq	r0, #23296	; 0x5b00
    75d4:	08650000 	stmdaeq	r5!, {}^	; <UNPREDICTABLE>
    75d8:	2c0c0000 	stccs	0, cr0, [ip], {-0}
    75dc:	1d000000 	stcne	0, cr0, [r0, #-0]
    75e0:	002c0b00 	eoreq	r0, ip, r0, lsl #22
    75e4:	08750000 	ldmdaeq	r5!, {}^	; <UNPREDICTABLE>
    75e8:	2c0c0000 	stccs	0, cr0, [ip], {-0}
    75ec:	1d000000 	stcne	0, cr0, [r0, #-0]
    75f0:	05f01c00 	ldrbeq	r1, [r0, #3072]!	; 0xc00
    75f4:	9a03027e 	bls	c7ff4 <__bss_end__+0xbdc4c>
    75f8:	1d000008 	stcne	0, cr0, [r0, #-32]	; 0xffffffe0
    75fc:	00000628 	andeq	r0, r0, r8, lsr #12
    7600:	0b029505 	bleq	aca1c <__bss_end__+0xa2674>
    7604:	000006e9 	andeq	r0, r0, r9, ror #13
    7608:	0006ff1d 	andeq	pc, r6, sp, lsl pc	; <UNPREDICTABLE>
    760c:	029e0500 	addseq	r0, lr, #0, 10
    7610:	00082e0b 	andeq	r2, r8, fp, lsl #28
    7614:	1d0b0000 	stcne	0, cr0, [fp, #-0]
    7618:	aa000001 	bge	7624 <__code_start__-0x9dc>
    761c:	0c000008 	stceq	0, cr0, [r0], {8}
    7620:	0000002c 	andeq	r0, r0, ip, lsr #32
    7624:	b4070018 	strlt	r0, [r7], #-24	; 0xffffffe8
    7628:	06000002 	streq	r0, [r0], -r2
    762c:	0008aa04 	andeq	sl, r8, r4, lsl #20
    7630:	08c01e00 	stmiaeq	r0, {r9, sl, fp, ip}^
    7634:	6c160000 	ldcvs	0, cr0, [r6], {-0}
    7638:	00000004 	andeq	r0, r0, r4
    763c:	08b50406 	ldmeq	r5!, {r1, r2, sl}
    7640:	04060000 	streq	r0, [r6], #-0
    7644:	0000018f 	andeq	r0, r0, pc, lsl #3
    7648:	0008d71e 	andeq	sp, r8, lr, lsl r7
    764c:	00331600 	eorseq	r1, r3, r0, lsl #12
    7650:	06000000 	streq	r0, [r0], -r0
    7654:	0008dd04 	andeq	sp, r8, r4, lsl #26
    7658:	cc040600 	stcgt	6, cr0, [r4], {-0}
    765c:	0b000008 	bleq	7684 <__code_start__-0x97c>
    7660:	0000064e 	andeq	r0, r0, lr, asr #12
    7664:	000008f3 	strdeq	r0, [r0], -r3
    7668:	00002c0c 	andeq	r2, r0, ip, lsl #24
    766c:	1f000200 	svcne	0x00000200
    7670:	000006ae 	andeq	r0, r0, lr, lsr #13
    7674:	17032e05 	strne	r2, [r3, -r5, lsl #28]
    7678:	0000046c 	andeq	r0, r0, ip, ror #8
    767c:	0006a71f 	andeq	sl, r6, pc, lsl r7
    7680:	032f0500 			; <UNDEFINED> instruction: 0x032f0500
    7684:	0004721d 	andeq	r7, r4, sp, lsl r2
    7688:	06520500 	ldrbeq	r0, [r2], -r0, lsl #10
    768c:	21060000 	mrscs	r0, (UNDEF: 6)
    7690:	0009190f 	andeq	r1, r9, pc, lsl #18
    7694:	1f040600 	svcne	0x00040600
    7698:	15000009 	strne	r0, [r0, #-9]
    769c:	00000033 	andeq	r0, r0, r3, lsr r0
    76a0:	0000092e 	andeq	r0, r0, lr, lsr #18
    76a4:	00003316 	andeq	r3, r0, r6, lsl r3
    76a8:	93200000 	nopls	{0}	; <UNPREDICTABLE>
    76ac:	06000004 	streq	r0, [r0], -r4
    76b0:	090d1623 	stmdbeq	sp, {r0, r1, r5, r9, sl, ip}
    76b4:	07210000 	streq	r0, [r1, -r0]!
    76b8:	00005601 	andeq	r5, r0, r1, lsl #12
    76bc:	0e0c0700 	cdpeq	7, 0, cr0, cr12, cr0, {0}
    76c0:	00000979 	andeq	r0, r0, r9, ror r9
    76c4:	00098222 	andeq	r8, r9, r2, lsr #4
    76c8:	45220000 	strmi	r0, [r2, #-0]!
    76cc:	0100000a 	tsteq	r0, sl
    76d0:	000a7322 	andeq	r7, sl, r2, lsr #6
    76d4:	9f220400 	svcls	0x00220400
    76d8:	05000009 	streq	r0, [r0, #-9]
    76dc:	000a5622 	andeq	r5, sl, r2, lsr #12
    76e0:	82220600 	eorhi	r0, r2, #0, 12
    76e4:	0700000a 	streq	r0, [r0, -sl]
    76e8:	000a9122 	andeq	r9, sl, r2, lsr #2
    76ec:	a0220300 	eorge	r0, r2, r0, lsl #6
    76f0:	0200000a 	andeq	r0, r0, #10, 0
    76f4:	0b810500 	bleq	fe048afc <__bss_end__+0xfe03e754>
    76f8:	15070000 	strne	r0, [r7, #-0]
    76fc:	00093a03 	andeq	r3, r9, r3, lsl #20
    7700:	04072100 	streq	r2, [r7], #-256	; 0xffffff00
    7704:	0000002c 	andeq	r0, r0, ip, lsr #32
    7708:	be062001 	cdplt	0, 0, cr2, cr6, cr1, {0}
    770c:	22000009 	andcs	r0, r0, #9, 0
    7710:	00000af5 	strdeq	r0, [r0], -r5
    7714:	0ad52335 	beq	ff5503f0 <__bss_end__+0xff546048>
    7718:	00000000 	andeq	r0, r0, r0
    771c:	32232020 	eorcc	r2, r3, #32, 0
    7720:	1c00000b 	stcne	0, cr0, [r0], {11}
    7724:	23202000 	nopcs	{0}	; <UNPREDICTABLE>
    7728:	00000b98 	muleq	r0, r8, fp
    772c:	20200028 	eorcs	r0, r0, r8, lsr #32
    7730:	000b3c23 	andeq	r3, fp, r3, lsr #24
    7734:	20003400 	andcs	r3, r0, r0, lsl #8
    7738:	17240020 	strne	r0, [r4, -r0, lsr #32]!
    773c:	0100000b 	tsteq	r0, fp
    7740:	9ca40693 	stcls	6, cr0, [r4], #588	; 0x24c
    7744:	00100000 	andseq	r0, r0, r0
    7748:	9c010000 	stcls	0, cr0, [r1], {-0}
    774c:	000009ff 	strdeq	r0, [r0], -pc	; <UNPREDICTABLE>
    7750:	6e697025 	cdpvs	0, 6, cr7, cr9, cr5, {1}
    7754:	1f930100 	svcne	0x00930100
    7758:	0000002c 	andeq	r0, r0, ip, lsr #32
    775c:	00000f8c 	andeq	r0, r0, ip, lsl #31
    7760:	00000f88 	andeq	r0, r0, r8, lsl #31
    7764:	009cb026 	addseq	fp, ip, r6, lsr #32
    7768:	000a4000 	andeq	r4, sl, r0
    776c:	50012700 	andpl	r2, r1, r0, lsl #14
    7770:	5001f303 	andpl	pc, r1, r3, lsl #6
    7774:	01510127 	cmpeq	r1, r7, lsr #2
    7778:	24000031 	strcs	r0, [r0], #-49	; 0xffffffcf
    777c:	00000b46 	andeq	r0, r0, r6, asr #22
    7780:	94068f01 	strls	r8, [r6], #-3841	; 0xfffff0ff
    7784:	1000009c 	mulne	r0, ip, r0
    7788:	01000000 	mrseq	r0, (UNDEF: 0)
    778c:	000a409c 	muleq	sl, ip, r0
    7790:	69702500 	ldmdbvs	r0!, {r8, sl, sp}^
    7794:	8f01006e 	svchi	0x0001006e
    7798:	00002c1e 	andeq	r2, r0, lr, lsl ip
    779c:	000fb100 	andeq	fp, pc, r0, lsl #2
    77a0:	000fad00 	andeq	sl, pc, r0, lsl #26
    77a4:	9ca02600 	stcls	6, cr2, [r0]
    77a8:	0a400000 	beq	10077b0 <__bss_end__+0xffd408>
    77ac:	01270000 			; <UNDEFINED> instruction: 0x01270000
    77b0:	01f30350 	mvnseq	r0, r0, asr r3
    77b4:	51012750 	tstpl	r1, r0, asr r7
    77b8:	00003001 	andeq	r3, r0, r1
    77bc:	0009ae24 	andeq	sl, r9, r4, lsr #28
    77c0:	067f0100 	ldrbteq	r0, [pc], -r0, lsl #2
    77c4:	00009c14 	andeq	r9, r0, r4, lsl ip
    77c8:	00000080 	andeq	r0, r0, r0, lsl #1
    77cc:	0b279c01 	bleq	9ee7d8 <__bss_end__+0x9e4430>
    77d0:	70250000 	eorvc	r0, r5, r0
    77d4:	01006e69 	tsteq	r0, r9, ror #28
    77d8:	002c217f 	eoreq	r2, ip, pc, ror r1
    77dc:	0fe00000 	svceq	0x00e00000
    77e0:	0fd20000 	svceq	0x00d20000
    77e4:	f4280000 	vld4.8	{d0-d3}, [r8], r0
    77e8:	01000006 	tsteq	r0, r6
    77ec:	0979327f 	ldmdbeq	r9!, {r0, r1, r2, r3, r4, r5, r6, r9, ip, sp}^
    77f0:	10440000 	subne	r0, r4, r0
    77f4:	10380000 	eorsne	r0, r8, r0
    77f8:	73290000 			; <UNDEFINED> instruction: 0x73290000
    77fc:	01006c65 	tsteq	r0, r5, ror #24
    7800:	002c0e86 	eoreq	r0, ip, r6, lsl #29
    7804:	109d0000 	addsne	r0, sp, r0
    7808:	10970000 	addsne	r0, r7, r0
    780c:	552a0000 	strpl	r0, [sl, #-0]!
    7810:	0100000b 	tsteq	r0, fp
    7814:	002c0e87 	eoreq	r0, ip, r7, lsl #29
    7818:	11030000 	mrsne	r0, (UNDEF: 3)
    781c:	11010000 	mrsne	r0, (UNDEF: 1)
    7820:	7e2a0000 	cdpvc	0, 2, cr0, cr10, cr0, {0}
    7824:	01000006 	tsteq	r0, r6
    7828:	002c1288 	eoreq	r1, ip, r8, lsl #5
    782c:	111e0000 	tstne	lr, r0
    7830:	11160000 	tstne	r6, r0
    7834:	022a0000 	eoreq	r0, sl, #0, 0
    7838:	0100000b 	tsteq	r0, fp
    783c:	002c0e89 	eoreq	r0, ip, r9, lsl #29
    7840:	115c0000 	cmpne	ip, r0
    7844:	115a0000 	cmpne	sl, r0
    7848:	502b0000 	eorpl	r0, fp, r0
    784c:	c900009c 	stmdbgt	r0, {r2, r3, r4, r7}
    7850:	e200000d 	and	r0, r0, #13, 0
    7854:	2700000a 	strcs	r0, [r0, -sl]
    7858:	77025001 	strvc	r5, [r2, -r1]
    785c:	702b0000 	eorvc	r0, fp, r0
    7860:	d500009c 	strle	r0, [r0, #-156]	; 0xffffff64
    7864:	f600000d 			; <UNDEFINED> instruction: 0xf600000d
    7868:	2700000a 	strcs	r0, [r0, -sl]
    786c:	77025001 	strvc	r5, [r2, -r1]
    7870:	802b0000 	eorhi	r0, fp, r0
    7874:	9d00009c 	stcls	0, cr0, [r0, #-624]	; 0xfffffd90
    7878:	1300000d 	movwne	r0, #13
    787c:	2700000b 	strcs	r0, [r0, -fp]
    7880:	03055001 	movweq	r5, #20481	; 0x5001
    7884:	0000a368 	andeq	sl, r0, r8, ror #6
    7888:	02510127 	subseq	r0, r1, #-1073741815	; 0xc0000009
    788c:	26000074 			; <UNDEFINED> instruction: 0x26000074
    7890:	00009c88 	andeq	r9, r0, r8, lsl #25
    7894:	00000d9d 	muleq	r0, sp, sp
    7898:	05500127 	ldrbeq	r0, [r0, #-295]	; 0xfffffed9
    789c:	00a37803 	adceq	r7, r3, r3, lsl #16
    78a0:	2c000000 	stccs	0, cr0, [r0], {-0}
    78a4:	00000b0d 	andeq	r0, r0, sp, lsl #22
    78a8:	33056e01 	movwcc	r6, #24065	; 0x5e01
    78ac:	cc000000 	stcgt	0, cr0, [r0], {-0}
    78b0:	4800009b 	stmdami	r0, {r0, r1, r3, r4, r7}
    78b4:	01000000 	mrseq	r0, (UNDEF: 0)
    78b8:	000bee9c 	muleq	fp, ip, lr
    78bc:	69702500 	ldmdbvs	r0!, {r8, sl, sp}^
    78c0:	6e01006e 	cdpvs	0, 0, cr0, cr1, cr14, {3}
    78c4:	00002c18 	andeq	r2, r0, r8, lsl ip
    78c8:	00117700 	andseq	r7, r1, r0, lsl #14
    78cc:	00116f00 	andseq	r6, r1, r0, lsl #30
    78d0:	00762900 	rsbseq	r2, r6, r0, lsl #18
    78d4:	2c0e6f01 	stccs	15, cr6, [lr], {1}
    78d8:	b3000000 	movwlt	r0, #0
    78dc:	ab000011 	blge	7928 <__code_start__-0x6d8>
    78e0:	2a000011 	bcs	792c <__code_start__-0x6d4>
    78e4:	00000b76 	andeq	r0, r0, r6, ror fp
    78e8:	2c0e7401 	cfstrscs	mvf7, [lr], {1}
    78ec:	f4000000 	vst4.8	{d0-d3}, [r0], r0
    78f0:	ee000011 	mcr	0, 0, r0, cr0, cr1, {0}
    78f4:	2a000011 	bcs	7940 <__code_start__-0x6c0>
    78f8:	0000067e 	andeq	r0, r0, lr, ror r6
    78fc:	2c127501 	cfldr32cs	mvfx7, [r2], {1}
    7900:	2e000000 	cdpcs	0, 0, cr0, cr0, cr0, {0}
    7904:	2c000012 	stccs	0, cr0, [r0], {18}
    7908:	2a000012 	bcs	7958 <__code_start__-0x6a8>
    790c:	00000b02 	andeq	r0, r0, r2, lsl #22
    7910:	2c0e7601 	stccs	6, cr7, [lr], {1}
    7914:	43000000 	movwmi	r0, #0
    7918:	41000012 	tstmi	r0, r2, lsl r0
    791c:	2a000012 	bcs	796c <__code_start__-0x694>
    7920:	00000b08 	andeq	r0, r0, r8, lsl #22
    7924:	2c127701 	ldccs	7, cr7, [r2], {1}
    7928:	58000000 	stmdapl	r0, {}	; <UNPREDICTABLE>
    792c:	56000012 			; <UNDEFINED> instruction: 0x56000012
    7930:	2b000012 	blcs	7980 <__code_start__-0x680>
    7934:	00009bec 	andeq	r9, r0, ip, ror #23
    7938:	00000dc9 	andeq	r0, r0, r9, asr #27
    793c:	00000bd4 	ldrdeq	r0, [r0], -r4
    7940:	0b500127 	bleq	1407de4 <__bss_end__+0x13fda3c>
    7944:	25350074 	ldrcs	r0, [r5, #-116]!	; 0xffffff8c
    7948:	a0808d23 	addge	r8, r0, r3, lsr #26
    794c:	00243240 	eoreq	r3, r4, r0, asr #4
    7950:	009c0c26 	addseq	r0, ip, r6, lsr #24
    7954:	000d9d00 	andeq	r9, sp, r0, lsl #26
    7958:	50012700 	andpl	r2, r1, r0, lsl #14
    795c:	a3680305 	cmnge	r8, #335544320	; 0x14000000
    7960:	01270000 			; <UNDEFINED> instruction: 0x01270000
    7964:	00740251 	rsbseq	r0, r4, r1, asr r2
    7968:	27240000 	strcs	r0, [r4, -r0]!
    796c:	0100000b 	tsteq	r0, fp
    7970:	9bb00662 	blls	fec09300 <__bss_end__+0xfebfef58>
    7974:	001c0000 	andseq	r0, ip, r0
    7978:	9c010000 	stcls	0, cr0, [r1], {-0}
    797c:	00000c49 	andeq	r0, r0, r9, asr #24
    7980:	6e697025 	cdpvs	0, 6, cr7, cr9, cr5, {1}
    7984:	1a620100 	bne	1887d8c <__bss_end__+0x187d9e4>
    7988:	0000002c 	andeq	r0, r0, ip, lsr #32
    798c:	00001277 	andeq	r1, r0, r7, ror r2
    7990:	0000126f 	andeq	r1, r0, pc, ror #4
    7994:	01007625 	tsteq	r0, r5, lsr #12
    7998:	002c2862 	eoreq	r2, ip, r2, ror #16
    799c:	12b90000 	adcsne	r0, r9, #0, 0
    79a0:	12b10000 	adcsne	r0, r1, #0, 0
    79a4:	c02b0000 	eorgt	r0, fp, r0
    79a8:	f300009b 	vqadd.u8	d0, d16, d11
    79ac:	3f00000c 	svccc	0x0000000c
    79b0:	2700000c 	strcs	r0, [r0, -ip]
    79b4:	f3035001 	vhadd.u8	d5, d3, d1
    79b8:	2d005001 	stccs	0, cr5, [r0, #-4]
    79bc:	00009bc8 	andeq	r9, r0, r8, asr #23
    79c0:	00000c49 	andeq	r0, r0, r9, asr #24
    79c4:	0ae82400 	beq	ffa109cc <__bss_end__+0xffa06624>
    79c8:	52010000 	andpl	r0, r1, #0, 0
    79cc:	009b7006 	addseq	r7, fp, r6
    79d0:	00004000 	andeq	r4, r0, r0
    79d4:	f39c0100 	vaddw.u16	q0, q6, d0
    79d8:	2500000c 	strcs	r0, [r0, #-12]
    79dc:	006e6970 	rsbeq	r6, lr, r0, ror r9
    79e0:	2c1c5201 	lfmcs	f5, 4, [ip], {1}
    79e4:	fd000000 	stc2	0, cr0, [r0, #-0]
    79e8:	f3000012 	vqadd.u8	d0, d0, d2
    79ec:	2a000012 	bcs	7a3c <__code_start__-0x5c4>
    79f0:	00000aca 	andeq	r0, r0, sl, asr #21
    79f4:	2c0e5a01 			; <UNDEFINED> instruction: 0x2c0e5a01
    79f8:	48000000 	stmdami	r0, {}	; <UNPREDICTABLE>
    79fc:	42000013 	andmi	r0, r0, #19, 0
    7a00:	2a000013 	bcs	7a54 <__code_start__-0x5ac>
    7a04:	00000b02 	andeq	r0, r0, r2, lsl #22
    7a08:	2c0e5b01 			; <UNDEFINED> instruction: 0x2c0e5b01
    7a0c:	87000000 	strhi	r0, [r0, -r0]
    7a10:	81000013 	tsthi	r0, r3, lsl r0
    7a14:	2a000013 	bcs	7a68 <__code_start__-0x598>
    7a18:	0000067e 	andeq	r0, r0, lr, ror r6
    7a1c:	2c125c01 	ldccs	12, cr5, [r2], {1}
    7a20:	bf000000 	svclt	0x00000000
    7a24:	b9000013 	stmdblt	r0, {r0, r1, r4}
    7a28:	2b000013 	blcs	7a7c <__code_start__-0x584>
    7a2c:	00009b98 	muleq	r0, r8, fp
    7a30:	00000dd5 	ldrdeq	r0, [r0], -r5
    7a34:	00000cd8 	ldrdeq	r0, [r0], -r8
    7a38:	0c500127 	ldfeqe	f0, [r0], {39}	; 0x27
    7a3c:	355001f3 	ldrbcc	r0, [r0, #-499]	; 0xfffffe0d
    7a40:	808a2325 	addhi	r2, sl, r5, lsr #6
    7a44:	243240a0 	ldrtcs	r4, [r2], #-160	; 0xffffff60
    7a48:	07510127 	ldrbeq	r0, [r1, -r7, lsr #2]
    7a4c:	5001f331 	andpl	pc, r1, r1, lsr r3	; <UNPREDICTABLE>
    7a50:	00241a4f 	eoreq	r1, r4, pc, asr #20
    7a54:	009ba826 	addseq	sl, fp, r6, lsr #16
    7a58:	000d9d00 	andeq	r9, sp, r0, lsl #26
    7a5c:	50012700 	andpl	r2, r1, r0, lsl #14
    7a60:	a3680305 	cmnge	r8, #335544320	; 0x14000000
    7a64:	01270000 			; <UNDEFINED> instruction: 0x01270000
    7a68:	01f30351 	mvnseq	r0, r1, asr r3
    7a6c:	24000050 	strcs	r0, [r0], #-80	; 0xffffffb0
    7a70:	00000b6a 	andeq	r0, r0, sl, ror #22
    7a74:	30064201 	andcc	r4, r6, r1, lsl #4
    7a78:	4000009b 	mulmi	r0, fp, r0
    7a7c:	01000000 	mrseq	r0, (UNDEF: 0)
    7a80:	000d9d9c 	muleq	sp, ip, sp
    7a84:	69702500 	ldmdbvs	r0!, {r8, sl, sp}^
    7a88:	4201006e 	andmi	r0, r1, #110, 0	; 0x6e
    7a8c:	00002c1b 	andeq	r2, r0, fp, lsl ip
    7a90:	0013fd00 	andseq	pc, r3, r0, lsl #26
    7a94:	0013f300 	andseq	pc, r3, r0, lsl #6
    7a98:	0adf2a00 	beq	ff7d22a0 <__bss_end__+0xff7c7ef8>
    7a9c:	4a010000 	bmi	47aa4 <__bss_end__+0x3d6fc>
    7aa0:	00002c0e 	andeq	r2, r0, lr, lsl #24
    7aa4:	00144800 	andseq	r4, r4, r0, lsl #16
    7aa8:	00144200 	andseq	r4, r4, r0, lsl #4
    7aac:	0b022a00 	bleq	922b4 <__bss_end__+0x87f0c>
    7ab0:	4b010000 	blmi	47ab8 <__bss_end__+0x3d710>
    7ab4:	00002c0e 	andeq	r2, r0, lr, lsl #24
    7ab8:	00148700 	andseq	r8, r4, r0, lsl #14
    7abc:	00148100 	andseq	r8, r4, r0, lsl #2
    7ac0:	067e2a00 	ldrbteq	r2, [lr], -r0, lsl #20
    7ac4:	4c010000 	stcmi	0, cr0, [r1], {-0}
    7ac8:	00002c12 	andeq	r2, r0, r2, lsl ip
    7acc:	0014bf00 	andseq	fp, r4, r0, lsl #30
    7ad0:	0014b900 	andseq	fp, r4, r0, lsl #18
    7ad4:	9b582b00 	blls	16126dc <__bss_end__+0x1608334>
    7ad8:	0dd50000 	ldcleq	0, cr0, [r5]
    7adc:	0d820000 	stceq	0, cr0, [r2]
    7ae0:	01270000 			; <UNDEFINED> instruction: 0x01270000
    7ae4:	01f30c50 	mvnseq	r0, r0, asr ip
    7ae8:	23253550 			; <UNDEFINED> instruction: 0x23253550
    7aec:	40a08087 	adcmi	r8, r0, r7, lsl #1
    7af0:	01272432 			; <UNDEFINED> instruction: 0x01272432
    7af4:	f3310751 	vaba.u<illegal width 64>	q0, <illegal reg q0.5>, <illegal reg q0.5>
    7af8:	1a4f5001 	bne	13dbb04 <__bss_end__+0x13d175c>
    7afc:	68260024 	stmdavs	r6!, {r2, r5}
    7b00:	9d00009b 	stcls	0, cr0, [r0, #-620]	; 0xfffffd94
    7b04:	2700000d 	strcs	r0, [r0, -sp]
    7b08:	03055001 	movweq	r5, #20481	; 0x5001
    7b0c:	0000a368 	andeq	sl, r0, r8, ror #6
    7b10:	03510127 	cmpeq	r1, #-1073741815	; 0xc0000009
    7b14:	005001f3 	ldrsheq	r0, [r0], #-19	; 0xffffffed
    7b18:	0b5f2400 	bleq	17d0b20 <__bss_end__+0x17c6778>
    7b1c:	15010000 	strne	r0, [r1, #-0]
    7b20:	009b2806 	addseq	r2, fp, r6, lsl #16
    7b24:	00000800 	andeq	r0, r0, r0, lsl #16
    7b28:	c99c0100 	ldmibgt	ip, {r8}
    7b2c:	2500000d 	strcs	r0, [r0, #-13]
    7b30:	0067736d 	rsbeq	r7, r7, sp, ror #6
    7b34:	e41d1501 	ldr	r1, [sp], #-1281	; 0xfffffaff
    7b38:	f5000005 			; <UNDEFINED> instruction: 0xf5000005
    7b3c:	f3000014 	vqadd.u8	d0, d0, d4
    7b40:	2e000014 	mcrcs	0, 0, r0, cr0, cr4, {0}
    7b44:	09602f00 	stmdbeq	r0!, {r8, r9, sl, fp, sp}^
    7b48:	09600000 	stmdbeq	r0!, {}^	; <UNPREDICTABLE>
    7b4c:	a8060000 	stmdage	r6, {}	; <UNPREDICTABLE>
    7b50:	08df2f0a 	ldmeq	pc, {r1, r3, r8, r9, sl, fp, sp}^	; <UNPREDICTABLE>
    7b54:	08df0000 	ldmeq	pc, {}^	; <UNPREDICTABLE>
    7b58:	a4060000 	strge	r0, [r6], #-0
    7b5c:	09600006 	stmdbeq	r0!, {r1, r2}^
    7b60:	00040000 	andeq	r0, r4, r0
    7b64:	00001ac6 	andeq	r1, r0, r6, asr #21
    7b68:	035a0104 	cmpeq	sl, #1
    7b6c:	a20c0000 	andge	r0, ip, #0, 0
    7b70:	c100000b 	tstgt	r0, fp
    7b74:	b4000004 	strlt	r0, [r0], #-4
    7b78:	3400009c 	strcc	r0, [r0], #-156	; 0xffffff64
    7b7c:	6a000000 	bvs	7b84 <__code_start__-0x47c>
    7b80:	02000019 	andeq	r0, r0, #25, 0
    7b84:	6e690504 	cdpvs	5, 6, cr0, cr9, cr4, {0}
    7b88:	04030074 	streq	r0, [r3], #-116	; 0xffffff8c
    7b8c:	0001ae07 	andeq	sl, r1, r7, lsl #28
    7b90:	06010300 	streq	r0, [r1], -r0, lsl #6
    7b94:	0000005c 	andeq	r0, r0, ip, asr r0
    7b98:	fe050203 	cdp2	2, 0, cr0, cr5, cr3, {0}
    7b9c:	03000001 	movweq	r0, #1
    7ba0:	01ed0504 	mvneq	r0, r4, lsl #10
    7ba4:	08030000 	stmdaeq	r3, {}	; <UNPREDICTABLE>
    7ba8:	0001e805 	andeq	lr, r1, r5, lsl #16
    7bac:	08010300 	stmdaeq	r1, {r8, r9}
    7bb0:	0000005a 	andeq	r0, r0, sl, asr r0
    7bb4:	1c070203 	sfmne	f0, 4, [r7], {3}
    7bb8:	03000000 	movweq	r0, #0
    7bbc:	01a90704 			; <UNDEFINED> instruction: 0x01a90704
    7bc0:	08030000 	stmdaeq	r3, {}	; <UNPREDICTABLE>
    7bc4:	0001a407 	andeq	sl, r1, r7, lsl #8
    7bc8:	05040400 	streq	r0, [r4, #-1024]	; 0xfffffc00
    7bcc:	00000528 	andeq	r0, r0, r8, lsr #10
    7bd0:	79192202 	ldmdbvc	r9, {r1, r9, sp}
    7bd4:	06000000 	streq	r0, [r0], -r0
    7bd8:	00007f04 	andeq	r7, r0, r4, lsl #30
    7bdc:	063d0700 	ldrteq	r0, [sp], -r0, lsl #14
    7be0:	6c050000 	stcvs	0, cr0, [r5], {-0}
    7be4:	03000005 	movweq	r0, #5
    7be8:	00410e2c 	subeq	r0, r1, ip, lsr #28
    7bec:	4a050000 	bmi	147bf4 <__bss_end__+0x13d84c>
    7bf0:	03000006 	movweq	r0, #6
    7bf4:	00410e72 	subeq	r0, r1, r2, ror lr
    7bf8:	30080000 	andcc	r0, r8, r0
    7bfc:	04000005 	streq	r0, [r0], #-5
    7c00:	2c17015e 	ldfcss	f0, [r7], {94}	; 0x5e
    7c04:	09000000 	stmdbeq	r0, {}	; <UNPREDICTABLE>
    7c08:	03a60304 			; <UNDEFINED> instruction: 0x03a60304
    7c0c:	000000cb 	andeq	r0, r0, fp, asr #1
    7c10:	00051b0a 	andeq	r1, r5, sl, lsl #22
    7c14:	0ca80300 	stceq	3, cr0, [r8]
    7c18:	0000009c 	muleq	r0, ip, r0
    7c1c:	0004a40a 	andeq	sl, r4, sl, lsl #8
    7c20:	13a90300 			; <UNDEFINED> instruction: 0x13a90300
    7c24:	000000cb 	andeq	r0, r0, fp, asr #1
    7c28:	004f0b00 	subeq	r0, pc, r0, lsl #22
    7c2c:	00db0000 	sbcseq	r0, fp, r0
    7c30:	2c0c0000 	stccs	0, cr0, [ip], {-0}
    7c34:	03000000 	movweq	r0, #0
    7c38:	03080d00 	movweq	r0, #36096	; 0x8d00
    7c3c:	00ff09a3 	rscseq	r0, pc, r3, lsr #19
    7c40:	350e0000 	strcc	r0, [lr, #-0]
    7c44:	03000006 	movweq	r0, #6
    7c48:	002507a5 	eoreq	r0, r5, r5, lsr #15
    7c4c:	0e000000 	cdpeq	0, 0, cr0, cr0, cr0, {0}
    7c50:	0000067c 	andeq	r0, r0, ip, ror r6
    7c54:	a905aa03 	stmdbge	r5, {r0, r1, r9, fp, sp, pc}
    7c58:	04000000 	streq	r0, [r0], #-0
    7c5c:	05b70500 	ldreq	r0, [r7, #1280]!	; 0x500
    7c60:	ab030000 	blge	c7c68 <__bss_end__+0xbd8c0>
    7c64:	0000db03 	andeq	sp, r0, r3, lsl #22
    7c68:	04610500 	strbteq	r0, [r1], #-1280	; 0xfffffb00
    7c6c:	af030000 	svcge	0x00030000
    7c70:	00006d1b 	andeq	r6, r0, fp, lsl sp
    7c74:	1d040600 	stcne	6, cr0, [r4, #-0]
    7c78:	03000001 	movweq	r0, #1
    7c7c:	00630801 	rsbeq	r0, r3, r1, lsl #16
    7c80:	1d0f0000 	stcne	0, cr0, [pc, #-0]	; 7c88 <__code_start__-0x378>
    7c84:	05000001 	streq	r0, [r0, #-1]
    7c88:	00000692 	muleq	r0, r2, r6
    7c8c:	5d191605 	ldcpl	6, cr1, [r9, #-20]	; 0xffffffec
    7c90:	10000000 	andne	r0, r0, r0
    7c94:	00000472 	andeq	r0, r0, r2, ror r4
    7c98:	082f0518 	stmdaeq	pc!, {r3, r4, r8, sl}	; <UNPREDICTABLE>
    7c9c:	0000018f 	andeq	r0, r0, pc, lsl #3
    7ca0:	0005d80e 	andeq	sp, r5, lr, lsl #16
    7ca4:	13310500 	teqne	r1, #0, 10
    7ca8:	0000018f 	andeq	r0, r0, pc, lsl #3
    7cac:	6b5f1100 	blvs	17cc0b4 <__bss_end__+0x17c1d0c>
    7cb0:	07320500 	ldreq	r0, [r2, -r0, lsl #10]!
    7cb4:	00000025 	andeq	r0, r0, r5, lsr #32
    7cb8:	06200e04 	strteq	r0, [r0], -r4, lsl #28
    7cbc:	32050000 	andcc	r0, r5, #0, 0
    7cc0:	0000250b 	andeq	r2, r0, fp, lsl #10
    7cc4:	5b0e0800 	blpl	389ccc <__bss_end__+0x37f924>
    7cc8:	05000004 	streq	r0, [r0, #-4]
    7ccc:	00251432 	eoreq	r1, r5, r2, lsr r4
    7cd0:	0e0c0000 	cdpeq	0, 0, cr0, cr12, cr0, {0}
    7cd4:	000006c7 	andeq	r0, r0, r7, asr #13
    7cd8:	251b3205 	ldrcs	r3, [fp, #-517]	; 0xfffffdfb
    7cdc:	10000000 	andne	r0, r0, r0
    7ce0:	00785f11 	rsbseq	r5, r8, r1, lsl pc
    7ce4:	950b3305 	strls	r3, [fp, #-773]	; 0xfffffcfb
    7ce8:	14000001 	strne	r0, [r0], #-1
    7cec:	35040600 	strcc	r0, [r4, #-1536]	; 0xfffffa00
    7cf0:	0b000001 	bleq	7cfc <__code_start__-0x304>
    7cf4:	00000129 	andeq	r0, r0, r9, lsr #2
    7cf8:	000001a5 	andeq	r0, r0, r5, lsr #3
    7cfc:	00002c0c 	andeq	r2, r0, ip, lsl #24
    7d00:	10000000 	andne	r0, r0, r0
    7d04:	0000049f 	muleq	r0, pc, r4	; <UNPREDICTABLE>
    7d08:	08370524 	ldmdaeq	r7!, {r2, r5, r8, sl}
    7d0c:	00000228 	andeq	r0, r0, r8, lsr #4
    7d10:	0002ce0e 	andeq	ip, r2, lr, lsl #28
    7d14:	09390500 	ldmdbeq	r9!, {r8, sl}
    7d18:	00000025 	andeq	r0, r0, r5, lsr #32
    7d1c:	06600e00 	strbteq	r0, [r0], -r0, lsl #28
    7d20:	3a050000 	bcc	147d28 <__bss_end__+0x13d980>
    7d24:	00002509 	andeq	r2, r0, r9, lsl #10
    7d28:	e30e0400 	movw	r0, #58368	; 0xe400
    7d2c:	05000002 	streq	r0, [r0, #-2]
    7d30:	0025093b 	eoreq	r0, r5, fp, lsr r9
    7d34:	0e080000 	cdpeq	0, 0, cr0, cr8, cr0, {0}
    7d38:	00000740 	andeq	r0, r0, r0, asr #14
    7d3c:	25093c05 	strcs	r3, [r9, #-3077]	; 0xfffff3fb
    7d40:	0c000000 	stceq	0, cr0, [r0], {-0}
    7d44:	0005500e 	andeq	r5, r5, lr
    7d48:	093d0500 	ldmdbeq	sp!, {r8, sl}
    7d4c:	00000025 	andeq	r0, r0, r5, lsr #32
    7d50:	053f0e10 	ldreq	r0, [pc, #-3600]!	; 6f48 <__code_start__-0x10b8>
    7d54:	3e050000 	cdpcc	0, 0, cr0, cr5, cr0, {0}
    7d58:	00002509 	andeq	r2, r0, r9, lsl #10
    7d5c:	cc0e1400 	cfstrsgt	mvf1, [lr], {-0}
    7d60:	05000006 	streq	r0, [r0, #-6]
    7d64:	0025093f 	eoreq	r0, r5, pc, lsr r9
    7d68:	0e180000 	cdpeq	0, 1, cr0, cr8, cr0, {0}
    7d6c:	00000599 	muleq	r0, r9, r5
    7d70:	25094005 	strcs	r4, [r9, #-5]
    7d74:	1c000000 	stcne	0, cr0, [r0], {-0}
    7d78:	0007070e 	andeq	r0, r7, lr, lsl #14
    7d7c:	09410500 	stmdbeq	r1, {r8, sl}^
    7d80:	00000025 	andeq	r0, r0, r5, lsr #32
    7d84:	f2120020 	vhadd.s16	d0, d2, d16
    7d88:	08000002 	stmdaeq	r0, {r1}
    7d8c:	084a0501 	stmdaeq	sl, {r0, r8, sl}^
    7d90:	0000026d 	andeq	r0, r0, sp, ror #4
    7d94:	00044e0e 	andeq	r4, r4, lr, lsl #28
    7d98:	0a4b0500 	beq	12c91a0 <__bss_end__+0x12bedf8>
    7d9c:	0000026d 	andeq	r0, r0, sp, ror #4
    7da0:	024c0e00 	subeq	r0, ip, #0, 28
    7da4:	4c050000 	stcmi	0, cr0, [r5], {-0}
    7da8:	00026d09 	andeq	r6, r2, r9, lsl #26
    7dac:	84138000 	ldrhi	r8, [r3], #-0
    7db0:	05000006 	streq	r0, [r0, #-6]
    7db4:	01290a4e 			; <UNDEFINED> instruction: 0x01290a4e
    7db8:	01000000 	mrseq	r0, (UNDEF: 0)
    7dbc:	00031713 	andeq	r1, r3, r3, lsl r7
    7dc0:	0a510500 	beq	14491c8 <__bss_end__+0x143ee20>
    7dc4:	00000129 	andeq	r0, r0, r9, lsr #2
    7dc8:	0b000104 	bleq	81e0 <fill_table+0x20>
    7dcc:	0000006b 	andeq	r0, r0, fp, rrx
    7dd0:	0000027d 	andeq	r0, r0, sp, ror r2
    7dd4:	00002c0c 	andeq	r2, r0, ip, lsl #24
    7dd8:	12001f00 	andne	r1, r0, #0, 30
    7ddc:	00000559 	andeq	r0, r0, r9, asr r5
    7de0:	5d050190 	stfpls	f0, [r5, #-576]	; 0xfffffdc0
    7de4:	0002c008 	andeq	ip, r2, r8
    7de8:	05d80e00 	ldrbeq	r0, [r8, #3584]	; 0xe00
    7dec:	5e050000 	cdppl	0, 0, cr0, cr5, cr0, {0}
    7df0:	0002c012 	andeq	ip, r2, r2, lsl r0
    7df4:	f00e0000 			; <UNDEFINED> instruction: 0xf00e0000
    7df8:	05000005 	streq	r0, [r0, #-5]
    7dfc:	0025065f 	eoreq	r0, r5, pc, asr r6
    7e00:	0e040000 	cdpeq	0, 0, cr0, cr4, cr0, {0}
    7e04:	00000456 	andeq	r0, r0, r6, asr r4
    7e08:	c6096105 	strgt	r6, [r9], -r5, lsl #2
    7e0c:	08000002 	stmdaeq	r0, {r1}
    7e10:	0002f20e 	andeq	pc, r2, lr, lsl #4
    7e14:	1e620500 	cdpne	5, 6, cr0, cr2, cr0, {0}
    7e18:	00000228 	andeq	r0, r0, r8, lsr #4
    7e1c:	04060088 	streq	r0, [r6], #-136	; 0xffffff78
    7e20:	0000027d 	andeq	r0, r0, sp, ror r2
    7e24:	0002d60b 	andeq	sp, r2, fp, lsl #12
    7e28:	0002d600 	andeq	sp, r2, r0, lsl #12
    7e2c:	002c0c00 	eoreq	r0, ip, r0, lsl #24
    7e30:	001f0000 	andseq	r0, pc, r0
    7e34:	02dc0406 	sbcseq	r0, ip, #100663296	; 0x6000000
    7e38:	10140000 	andsne	r0, r4, r0
    7e3c:	000005a3 	andeq	r0, r0, r3, lsr #11
    7e40:	08750508 	ldmdaeq	r5!, {r3, r8, sl}^
    7e44:	00000305 	andeq	r0, r0, r5, lsl #6
    7e48:	0002dd0e 	andeq	sp, r2, lr, lsl #26
    7e4c:	11760500 	cmnne	r6, r0, lsl #10
    7e50:	00000305 	andeq	r0, r0, r5, lsl #6
    7e54:	02620e00 	rsbeq	r0, r2, #0, 28
    7e58:	77050000 	strvc	r0, [r5, -r0]
    7e5c:	00002506 	andeq	r2, r0, r6, lsl #10
    7e60:	06000400 	streq	r0, [r0], -r0, lsl #8
    7e64:	00004f04 	andeq	r4, r0, r4, lsl #30
    7e68:	05c21000 	strbeq	r1, [r2]
    7e6c:	05680000 	strbeq	r0, [r8, #-0]!
    7e70:	044e08b5 	strbeq	r0, [lr], #-2229	; 0xfffff74b
    7e74:	5f110000 	svcpl	0x00110000
    7e78:	b6050070 			; <UNDEFINED> instruction: 0xb6050070
    7e7c:	00030512 	andeq	r0, r3, r2, lsl r5
    7e80:	5f110000 	svcpl	0x00110000
    7e84:	b7050072 	smlsdxlt	r5, r2, r0, r0
    7e88:	00002507 	andeq	r2, r0, r7, lsl #10
    7e8c:	5f110400 	svcpl	0x00110400
    7e90:	b8050077 	stmdalt	r5, {r0, r1, r2, r4, r5, r6}
    7e94:	00002507 	andeq	r2, r0, r7, lsl #10
    7e98:	100e0800 	andne	r0, lr, r0, lsl #16
    7e9c:	05000003 	streq	r0, [r0, #-3]
    7ea0:	003a09b9 	ldrhteq	r0, [sl], -r9
    7ea4:	0e0c0000 	cdpeq	0, 0, cr0, cr12, cr0, {0}
    7ea8:	000004bb 			; <UNDEFINED> instruction: 0x000004bb
    7eac:	3a09ba05 	bcc	2766c8 <__bss_end__+0x26c320>
    7eb0:	0e000000 	cdpeq	0, 0, cr0, cr0, cr0, {0}
    7eb4:	66625f11 	uqadd16vs	r5, r2, r1
    7eb8:	11bb0500 			; <UNDEFINED> instruction: 0x11bb0500
    7ebc:	000002dd 	ldrdeq	r0, [r0], -sp
    7ec0:	02ab0e10 	adceq	r0, fp, #16, 28	; 0x100
    7ec4:	bc050000 	stclt	0, cr0, [r5], {-0}
    7ec8:	00002507 	andeq	r2, r0, r7, lsl #10
    7ecc:	000e1800 	andeq	r1, lr, r0, lsl #16
    7ed0:	05000003 	streq	r0, [r0, #-3]
    7ed4:	006b0ac3 	rsbeq	r0, fp, r3, asr #21
    7ed8:	0e1c0000 	cdpeq	0, 1, cr0, cr12, cr0, {0}
    7edc:	00000b11 	andeq	r0, r0, r1, lsl fp
    7ee0:	c01dc505 	andsgt	ip, sp, r5, lsl #10
    7ee4:	20000005 	andcs	r0, r0, r5
    7ee8:	000b2b0e 	andeq	r2, fp, lr, lsl #22
    7eec:	1dc70500 	cfstr64ne	mvdx0, [r7]
    7ef0:	000005ea 	andeq	r0, r0, sl, ror #11
    7ef4:	06440e24 	strbeq	r0, [r4], -r4, lsr #28
    7ef8:	ca050000 	bgt	147f00 <__bss_end__+0x13db58>
    7efc:	00060e0d 	andeq	r0, r6, sp, lsl #28
    7f00:	210e2800 	tstcs	lr, r0, lsl #16
    7f04:	05000007 	streq	r0, [r0, #-7]
    7f08:	062809cb 	strteq	r0, [r8], -fp, asr #19
    7f0c:	112c0000 			; <UNDEFINED> instruction: 0x112c0000
    7f10:	0062755f 	rsbeq	r7, r2, pc, asr r5
    7f14:	dd11ce05 	ldcle	14, cr12, [r1, #-20]	; 0xffffffec
    7f18:	30000002 	andcc	r0, r0, r2
    7f1c:	70755f11 	rsbsvc	r5, r5, r1, lsl pc
    7f20:	12cf0500 	sbcne	r0, pc, #0, 10
    7f24:	00000305 	andeq	r0, r0, r5, lsl #6
    7f28:	755f1138 	ldrbvc	r1, [pc, #-312]	; 7df8 <__code_start__-0x208>
    7f2c:	d0050072 	andle	r0, r5, r2, ror r0
    7f30:	00002507 	andeq	r2, r0, r7, lsl #10
    7f34:	d70e3c00 	strle	r3, [lr, -r0, lsl #24]
    7f38:	05000002 	streq	r0, [r0, #-2]
    7f3c:	062e11d3 			; <UNDEFINED> instruction: 0x062e11d3
    7f40:	0e400000 	cdpeq	0, 4, cr0, cr0, cr0, {0}
    7f44:	000006f9 	strdeq	r0, [r0], -r9
    7f48:	3e11d405 	cfmulscc	mvf13, mvf1, mvf5
    7f4c:	43000006 	movwmi	r0, #6
    7f50:	626c5f11 	rsbvs	r5, ip, #68	; 0x44
    7f54:	11d70500 	bicsne	r0, r7, r0, lsl #10
    7f58:	000002dd 	ldrdeq	r0, [r0], -sp
    7f5c:	03260e44 			; <UNDEFINED> instruction: 0x03260e44
    7f60:	da050000 	ble	147f68 <__bss_end__+0x13dbc0>
    7f64:	00002507 	andeq	r2, r0, r7, lsl #10
    7f68:	520e4c00 	andpl	r4, lr, #0, 24
    7f6c:	05000003 	streq	r0, [r0, #-3]
    7f70:	00840adb 	ldrdeq	r0, [r4], fp
    7f74:	0e500000 	cdpeq	0, 5, cr0, cr0, cr0, {0}
    7f78:	00000a6d 	andeq	r0, r0, sp, ror #20
    7f7c:	6c12de05 	ldcvs	14, cr13, [r2], {5}
    7f80:	54000004 	strpl	r0, [r0], #-4
    7f84:	00063e0e 	andeq	r3, r6, lr, lsl #28
    7f88:	0ce20500 	cfstr64eq	mvdx0, [r2]
    7f8c:	0000010b 	andeq	r0, r0, fp, lsl #2
    7f90:	05ca0e58 	strbeq	r0, [sl, #3672]	; 0xe58
    7f94:	e4050000 	str	r0, [r5], #-0
    7f98:	0000ff0e 	andeq	pc, r0, lr, lsl #30
    7f9c:	370e5c00 	strcc	r5, [lr, -r0, lsl #24]
    7fa0:	05000005 	streq	r0, [r0, #-5]
    7fa4:	002509e5 	eoreq	r0, r5, r5, ror #19
    7fa8:	00640000 	rsbeq	r0, r4, r0
    7fac:	00002515 	andeq	r2, r0, r5, lsl r5
    7fb0:	00046c00 	andeq	r6, r4, r0, lsl #24
    7fb4:	046c1600 	strbteq	r1, [ip], #-1536	; 0xfffffa00
    7fb8:	6b160000 	blvs	587fc0 <__bss_end__+0x57dc18>
    7fbc:	16000000 	strne	r0, [r0], -r0
    7fc0:	00000117 	andeq	r0, r0, r7, lsl r1
    7fc4:	00002516 	andeq	r2, r0, r6, lsl r5
    7fc8:	04060000 	streq	r0, [r6], #-0
    7fcc:	00000477 	andeq	r0, r0, r7, ror r4
    7fd0:	00046c0f 	andeq	r6, r4, pc, lsl #24
    7fd4:	06281700 	strteq	r1, [r8], -r0, lsl #14
    7fd8:	04280000 	strteq	r0, [r8], #-0
    7fdc:	08026005 	stmdaeq	r2, {r0, r2, sp, lr}
    7fe0:	000005c0 	andeq	r0, r0, r0, asr #11
    7fe4:	00059218 	andeq	r9, r5, r8, lsl r2
    7fe8:	02620500 	rsbeq	r0, r2, #0, 10
    7fec:	00002507 	andeq	r2, r0, r7, lsl #10
    7ff0:	1f180000 	svcne	0x00180000
    7ff4:	05000003 	streq	r0, [r0, #-3]
    7ff8:	9a0b0267 	bls	2c899c <__bss_end__+0x2be5f4>
    7ffc:	04000006 	streq	r0, [r0], #-6
    8000:	0004ab18 	andeq	sl, r4, r8, lsl fp
    8004:	02670500 	rsbeq	r0, r7, #0, 10
    8008:	00069a14 	andeq	r9, r6, r4, lsl sl
    800c:	6a180800 	bvs	60a014 <__bss_end__+0x5ffc6c>
    8010:	05000004 	streq	r0, [r0, #-4]
    8014:	9a1e0267 	bls	7889b8 <__bss_end__+0x77e610>
    8018:	0c000006 	stceq	0, cr0, [r0], {6}
    801c:	0005eb18 	andeq	lr, r5, r8, lsl fp
    8020:	02690500 	rsbeq	r0, r9, #0, 10
    8024:	00002508 	andeq	r2, r0, r8, lsl #10
    8028:	77181000 	ldrvc	r1, [r8, -r0]
    802c:	05000002 	streq	r0, [r0, #-2]
    8030:	9a08026a 	bls	2089e0 <__bss_end__+0x1fe638>
    8034:	14000008 	strne	r0, [r0], #-8
    8038:	00060718 	andeq	r0, r6, r8, lsl r7
    803c:	026d0500 	rsbeq	r0, sp, #0, 10
    8040:	00002507 	andeq	r2, r0, r7, lsl #10
    8044:	f5183000 			; <UNDEFINED> instruction: 0xf5183000
    8048:	05000005 	streq	r0, [r0, #-5]
    804c:	af16026e 	svcge	0x0016026e
    8050:	34000008 	strcc	r0, [r0], #-8
    8054:	00056118 	andeq	r6, r5, r8, lsl r1
    8058:	02700500 	rsbseq	r0, r0, #0, 10
    805c:	00002507 	andeq	r2, r0, r7, lsl #10
    8060:	fd183800 	ldc2	8, cr3, [r8, #-0]
    8064:	05000005 	streq	r0, [r0, #-5]
    8068:	c00a0272 	andgt	r0, sl, r2, ror r2
    806c:	3c000008 	stccc	0, cr0, [r0], {8}
    8070:	00051318 	andeq	r1, r5, r8, lsl r3
    8074:	02750500 	rsbseq	r0, r5, #0, 10
    8078:	00018f13 	andeq	r8, r1, r3, lsl pc
    807c:	89184000 	ldmdbhi	r8, {lr}
    8080:	05000004 	streq	r0, [r0, #-4]
    8084:	25070276 	strcs	r0, [r7, #-630]	; 0xfffffd8a
    8088:	44000000 	strmi	r0, [r0], #-0
    808c:	00073b18 	andeq	r3, r7, r8, lsl fp
    8090:	02770500 	rsbseq	r0, r7, #0, 10
    8094:	00018f13 	andeq	r8, r1, r3, lsl pc
    8098:	73184800 	tstvc	r8, #0, 16
    809c:	05000005 	streq	r0, [r0, #-5]
    80a0:	c6140278 			; <UNDEFINED> instruction: 0xc6140278
    80a4:	4c000008 	stcmi	0, cr0, [r0], {8}
    80a8:	0004b318 	andeq	fp, r4, r8, lsl r3
    80ac:	027b0500 	rsbseq	r0, fp, #0, 10
    80b0:	00002507 	andeq	r2, r0, r7, lsl #10
    80b4:	4a185000 	bmi	61c0bc <__bss_end__+0x611d14>
    80b8:	05000003 	streq	r0, [r0, #-3]
    80bc:	1709027c 	smlsdxne	r9, ip, r2, r0
    80c0:	54000001 	strpl	r0, [r0], #-1
    80c4:	00058b18 	andeq	r8, r5, r8, lsl fp
    80c8:	029f0500 	addseq	r0, pc, #0, 10
    80cc:	00087507 	andeq	r7, r8, r7, lsl #10
    80d0:	59195800 	ldmdbpl	r9, {fp, ip, lr}
    80d4:	05000005 	streq	r0, [r0, #-5]
    80d8:	c01302a3 	andsgt	r0, r3, r3, lsr #5
    80dc:	48000002 	stmdami	r0, {r1}
    80e0:	04f11901 	ldrbteq	r1, [r1], #2305	; 0x901
    80e4:	a4050000 	strge	r0, [r5], #-0
    80e8:	027d1202 	rsbseq	r1, sp, #536870912	; 0x20000000
    80ec:	014c0000 	mrseq	r0, (UNDEF: 76)
    80f0:	0006ef19 	andeq	lr, r6, r9, lsl pc
    80f4:	02a80500 	adceq	r0, r8, #0, 10
    80f8:	0008d70c 	andeq	sp, r8, ip, lsl #14
    80fc:	1902dc00 	stmdbne	r2, {sl, fp, ip, lr, pc}
    8100:	00000308 	andeq	r0, r0, r8, lsl #6
    8104:	1002ad05 	andne	sl, r2, r5, lsl #26
    8108:	0000065b 	andeq	r0, r0, fp, asr r6
    810c:	ed1902e0 	lfm	f0, 4, [r9, #-896]	; 0xfffffc80
    8110:	05000002 	streq	r0, [r0, #-2]
    8114:	e30a02af 	movw	r0, #41647	; 0xa2af
    8118:	ec000008 	stc	0, cr0, [r0], {8}
    811c:	04060002 	streq	r0, [r6], #-2
    8120:	0000044e 	andeq	r0, r0, lr, asr #8
    8124:	00002515 	andeq	r2, r0, r5, lsl r5
    8128:	0005e400 	andeq	lr, r5, r0, lsl #8
    812c:	046c1600 	strbteq	r1, [ip], #-1536	; 0xfffffa00
    8130:	6b160000 	blvs	588138 <__bss_end__+0x57dd90>
    8134:	16000000 	strne	r0, [r0], -r0
    8138:	000005e4 	andeq	r0, r0, r4, ror #11
    813c:	00002516 	andeq	r2, r0, r6, lsl r5
    8140:	04060000 	streq	r0, [r6], #-0
    8144:	00000124 	andeq	r0, r0, r4, lsr #2
    8148:	05c60406 	strbeq	r0, [r6, #1030]	; 0x406
    814c:	90150000 	andsls	r0, r5, r0
    8150:	0e000000 	cdpeq	0, 0, cr0, cr0, cr0, {0}
    8154:	16000006 	strne	r0, [r0], -r6
    8158:	0000046c 	andeq	r0, r0, ip, ror #8
    815c:	00006b16 	andeq	r6, r0, r6, lsl fp
    8160:	00901600 	addseq	r1, r0, r0, lsl #12
    8164:	25160000 	ldrcs	r0, [r6, #-0]
    8168:	00000000 	andeq	r0, r0, r0
    816c:	05f00406 	ldrbeq	r0, [r0, #1030]!	; 0x406
    8170:	25150000 	ldrcs	r0, [r5, #-0]
    8174:	28000000 	stmdacs	r0, {}	; <UNPREDICTABLE>
    8178:	16000006 	strne	r0, [r0], -r6
    817c:	0000046c 	andeq	r0, r0, ip, ror #8
    8180:	00006b16 	andeq	r6, r0, r6, lsl fp
    8184:	04060000 	streq	r0, [r6], #-0
    8188:	00000614 	andeq	r0, r0, r4, lsl r6
    818c:	00004f0b 	andeq	r4, r0, fp, lsl #30
    8190:	00063e00 	andeq	r3, r6, r0, lsl #28
    8194:	002c0c00 	eoreq	r0, ip, r0, lsl #24
    8198:	00020000 	andeq	r0, r2, r0
    819c:	00004f0b 	andeq	r4, r0, fp, lsl #30
    81a0:	00064e00 	andeq	r4, r6, r0, lsl #28
    81a4:	002c0c00 	eoreq	r0, ip, r0, lsl #24
    81a8:	00000000 	andeq	r0, r0, r0
    81ac:	0005b008 	andeq	fp, r5, r8
    81b0:	011f0500 	tsteq	pc, r0, lsl #10
    81b4:	00030b1a 	andeq	r0, r3, sl, lsl fp
    81b8:	06d61a00 	ldrbeq	r1, [r6], r0, lsl #20
    81bc:	050c0000 	streq	r0, [ip, #-0]
    81c0:	94080123 	strls	r0, [r8], #-291	; 0xfffffedd
    81c4:	18000006 	stmdane	r0, {r1, r2}
    81c8:	000005d8 	ldrdeq	r0, [r0], -r8
    81cc:	11012505 	tstne	r1, r5, lsl #10
    81d0:	00000694 	muleq	r0, r4, r6
    81d4:	04ea1800 	strbteq	r1, [sl], #2048	; 0x800
    81d8:	26050000 	strcs	r0, [r5], -r0
    81dc:	00250701 	eoreq	r0, r5, r1, lsl #14
    81e0:	18040000 	stmdane	r4, {}	; <UNPREDICTABLE>
    81e4:	000005aa 	andeq	r0, r0, sl, lsr #11
    81e8:	0b012705 	bleq	51e04 <__bss_end__+0x47a5c>
    81ec:	0000069a 	muleq	r0, sl, r6
    81f0:	04060008 	streq	r0, [r6], #-8
    81f4:	0000065b 	andeq	r0, r0, fp, asr r6
    81f8:	064e0406 	strbeq	r0, [lr], -r6, lsl #8
    81fc:	6f1a0000 	svcvs	0x001a0000
    8200:	0e000002 	cdpeq	0, 0, cr0, cr0, cr2, {0}
    8204:	08013f05 	stmdaeq	r1, {r0, r2, r8, r9, sl, fp, ip, sp}
    8208:	000006d9 	ldrdeq	r0, [r0], -r9
    820c:	00062f18 	andeq	r2, r6, r8, lsl pc
    8210:	01400500 	cmpeq	r0, r0, lsl #10
    8214:	0006d912 	andeq	sp, r6, r2, lsl r9
    8218:	69180000 	ldmdbvs	r8, {}	; <UNPREDICTABLE>
    821c:	05000006 	streq	r0, [r0, #-6]
    8220:	d9120141 	ldmdble	r2, {r0, r6, r8}
    8224:	06000006 	streq	r0, [r0], -r6
    8228:	00068d18 	andeq	r8, r6, r8, lsl sp
    822c:	01420500 	cmpeq	r2, r0, lsl #10
    8230:	00005612 	andeq	r5, r0, r2, lsl r6
    8234:	0b000c00 	bleq	b23c <__bss_end__+0xe94>
    8238:	00000056 	andeq	r0, r0, r6, asr r0
    823c:	000006e9 	andeq	r0, r0, r9, ror #13
    8240:	00002c0c 	andeq	r2, r0, ip, lsl #24
    8244:	1b000200 	blne	8a4c <flat_world+0x38>
    8248:	028005d0 	addeq	r0, r0, #208, 10	; 0x34000000
    824c:	0007fe07 	andeq	pc, r7, r7, lsl #28
    8250:	06ba1800 	ldrteq	r1, [sl], r0, lsl #16
    8254:	82050000 	andhi	r0, r5, #0, 0
    8258:	002c1802 	eoreq	r1, ip, r2, lsl #16
    825c:	18000000 	stmdane	r0, {}	; <UNPREDICTABLE>
    8260:	0000066f 	andeq	r0, r0, pc, ror #12
    8264:	12028305 	andne	r8, r2, #335544320	; 0x14000000
    8268:	00000117 	andeq	r0, r0, r7, lsl r1
    826c:	05061804 	streq	r1, [r6, #-2052]	; 0xfffff7fc
    8270:	84050000 	strhi	r0, [r5], #-0
    8274:	07fe1002 	ldrbeq	r1, [lr, r2]!
    8278:	18080000 	stmdane	r8, {}	; <UNPREDICTABLE>
    827c:	00000712 	andeq	r0, r0, r2, lsl r7
    8280:	17028505 	strne	r8, [r2, -r5, lsl #10]
    8284:	000001a5 	andeq	r0, r0, r5, lsr #3
    8288:	047a1824 	ldrbteq	r1, [sl], #-2084	; 0xfffff7dc
    828c:	86050000 	strhi	r0, [r5], -r0
    8290:	00250f02 	eoreq	r0, r5, r2, lsl #30
    8294:	18480000 	stmdane	r8, {}^	; <UNPREDICTABLE>
    8298:	000005d3 	ldrdeq	r0, [r0], -r3
    829c:	2c028705 	stccs	7, cr8, [r2], {5}
    82a0:	00000064 	andeq	r0, r0, r4, rrx
    82a4:	07281850 			; <UNDEFINED> instruction: 0x07281850
    82a8:	88050000 	stmdahi	r5, {}	; <UNPREDICTABLE>
    82ac:	06a01a02 	strteq	r1, [r0], r2, lsl #20
    82b0:	18580000 	ldmdane	r8, {}^	; <UNPREDICTABLE>
    82b4:	000005de 	ldrdeq	r0, [r0], -lr
    82b8:	16028905 	strne	r8, [r2], -r5, lsl #18
    82bc:	000000ff 	strdeq	r0, [r0], -pc	; <UNPREDICTABLE>
    82c0:	072d1868 	streq	r1, [sp, -r8, ror #16]!
    82c4:	8a050000 	bhi	1482cc <__bss_end__+0x13df24>
    82c8:	00ff1602 	rscseq	r1, pc, r2, lsl #12
    82cc:	18700000 	ldmdane	r0!, {}^	; <UNPREDICTABLE>
    82d0:	0000057d 	andeq	r0, r0, sp, ror r5
    82d4:	16028b05 	strne	r8, [r2], -r5, lsl #22
    82d8:	000000ff 	strdeq	r0, [r0], -pc	; <UNPREDICTABLE>
    82dc:	06e51878 	uxtabeq	r1, r5, r8, ror #16
    82e0:	8c050000 	stchi	0, cr0, [r5], {-0}
    82e4:	080e1002 	stmdaeq	lr, {r1, ip}
    82e8:	18800000 	stmne	r0, {}	; <UNPREDICTABLE>
    82ec:	000004fa 	strdeq	r0, [r0], -sl
    82f0:	10028d05 	andne	r8, r2, r5, lsl #26
    82f4:	0000081e 	andeq	r0, r0, lr, lsl r8
    82f8:	069a1888 	ldreq	r1, [sl], r8, lsl #17
    82fc:	8e050000 	cdphi	0, 0, cr0, cr5, cr0, {0}
    8300:	00250f02 	eoreq	r0, r5, r2, lsl #30
    8304:	18a00000 	stmiane	r0!, {}	; <UNPREDICTABLE>
    8308:	00000440 	andeq	r0, r0, r0, asr #8
    830c:	16028f05 	strne	r8, [r2], -r5, lsl #30
    8310:	000000ff 	strdeq	r0, [r0], -pc	; <UNPREDICTABLE>
    8314:	02bf18a4 	adcseq	r1, pc, #164, 16	; 0xa40000
    8318:	90050000 	andls	r0, r5, r0
    831c:	00ff1602 	rscseq	r1, pc, r2, lsl #12
    8320:	18ac0000 	stmiane	ip!, {}	; <UNPREDICTABLE>
    8324:	0000042f 	andeq	r0, r0, pc, lsr #8
    8328:	16029105 	strne	r9, [r2], -r5, lsl #2
    832c:	000000ff 	strdeq	r0, [r0], -pc	; <UNPREDICTABLE>
    8330:	028b18b4 	addeq	r1, fp, #180, 16	; 0xb40000
    8334:	92050000 	andls	r0, r5, #0, 0
    8338:	00ff1602 	rscseq	r1, pc, r2, lsl #12
    833c:	18bc0000 	ldmne	ip!, {}	; <UNPREDICTABLE>
    8340:	0000029a 	muleq	r0, sl, r2
    8344:	16029305 	strne	r9, [r2], -r5, lsl #6
    8348:	000000ff 	strdeq	r0, [r0], -pc	; <UNPREDICTABLE>
    834c:	059018c4 	ldreq	r1, [r0, #2244]	; 0x8c4
    8350:	94050000 	strls	r0, [r5], #-0
    8354:	00250802 	eoreq	r0, r5, r2, lsl #16
    8358:	00cc0000 	sbceq	r0, ip, r0
    835c:	00011d0b 	andeq	r1, r1, fp, lsl #26
    8360:	00080e00 	andeq	r0, r8, r0, lsl #28
    8364:	002c0c00 	eoreq	r0, ip, r0, lsl #24
    8368:	00190000 	andseq	r0, r9, r0
    836c:	00011d0b 	andeq	r1, r1, fp, lsl #26
    8370:	00081e00 	andeq	r1, r8, r0, lsl #28
    8374:	002c0c00 	eoreq	r0, ip, r0, lsl #24
    8378:	00070000 	andeq	r0, r7, r0
    837c:	00011d0b 	andeq	r1, r1, fp, lsl #26
    8380:	00082e00 	andeq	r2, r8, r0, lsl #28
    8384:	002c0c00 	eoreq	r0, ip, r0, lsl #24
    8388:	00170000 	andseq	r0, r7, r0
    838c:	9905f01b 	stmdbls	r5, {r0, r1, r3, r4, ip, sp, lr, pc}
    8390:	08550702 	ldmdaeq	r5, {r1, r8, r9, sl}^
    8394:	49180000 	ldmdbmi	r8, {}	; <UNPREDICTABLE>
    8398:	05000005 	streq	r0, [r0, #-5]
    839c:	551b029c 	ldrpl	r0, [fp, #-668]	; 0xfffffd64
    83a0:	00000008 	andeq	r0, r0, r8
    83a4:	0006dc18 	andeq	sp, r6, r8, lsl ip
    83a8:	029d0500 	addseq	r0, sp, #0, 10
    83ac:	00086518 	andeq	r6, r8, r8, lsl r5
    83b0:	0b007800 	bleq	263b8 <__bss_end__+0x1c010>
    83b4:	00000305 	andeq	r0, r0, r5, lsl #6
    83b8:	00000865 	andeq	r0, r0, r5, ror #16
    83bc:	00002c0c 	andeq	r2, r0, ip, lsl #24
    83c0:	0b001d00 	bleq	f7c8 <__bss_end__+0x5420>
    83c4:	0000002c 	andeq	r0, r0, ip, lsr #32
    83c8:	00000875 	andeq	r0, r0, r5, ror r8
    83cc:	00002c0c 	andeq	r2, r0, ip, lsl #24
    83d0:	1c001d00 	stcne	13, cr1, [r0], {-0}
    83d4:	027e05f0 	rsbseq	r0, lr, #240, 10	; 0x3c000000
    83d8:	00089a03 	andeq	r9, r8, r3, lsl #20
    83dc:	06281d00 	strteq	r1, [r8], -r0, lsl #26
    83e0:	95050000 	strls	r0, [r5, #-0]
    83e4:	06e90b02 	strbteq	r0, [r9], r2, lsl #22
    83e8:	ff1d0000 			; <UNDEFINED> instruction: 0xff1d0000
    83ec:	05000006 	streq	r0, [r0, #-6]
    83f0:	2e0b029e 	mcrcs	2, 0, r0, cr11, cr14, {4}
    83f4:	00000008 	andeq	r0, r0, r8
    83f8:	00011d0b 	andeq	r1, r1, fp, lsl #26
    83fc:	0008aa00 	andeq	sl, r8, r0, lsl #20
    8400:	002c0c00 	eoreq	r0, ip, r0, lsl #24
    8404:	00180000 	andseq	r0, r8, r0
    8408:	0002b407 	andeq	fp, r2, r7, lsl #8
    840c:	aa040600 	bge	109c14 <__bss_end__+0xff86c>
    8410:	1e000008 	cdpne	0, 0, cr0, cr0, cr8, {0}
    8414:	000008c0 	andeq	r0, r0, r0, asr #17
    8418:	00046c16 	andeq	r6, r4, r6, lsl ip
    841c:	04060000 	streq	r0, [r6], #-0
    8420:	000008b5 			; <UNDEFINED> instruction: 0x000008b5
    8424:	018f0406 	orreq	r0, pc, r6, lsl #8
    8428:	d71e0000 	ldrle	r0, [lr, -r0]
    842c:	16000008 	strne	r0, [r0], -r8
    8430:	00000025 	andeq	r0, r0, r5, lsr #32
    8434:	dd040600 	stcle	6, cr0, [r4, #-0]
    8438:	06000008 	streq	r0, [r0], -r8
    843c:	0008cc04 	andeq	ip, r8, r4, lsl #24
    8440:	064e0b00 	strbeq	r0, [lr], -r0, lsl #22
    8444:	08f30000 	ldmeq	r3!, {}^	; <UNPREDICTABLE>
    8448:	2c0c0000 	stccs	0, cr0, [ip], {-0}
    844c:	02000000 	andeq	r0, r0, #0, 0
    8450:	06ae1f00 	strteq	r1, [lr], r0, lsl #30
    8454:	2e050000 	cdpcs	0, 0, cr0, cr5, cr0, {0}
    8458:	046c1703 	strbteq	r1, [ip], #-1795	; 0xfffff8fd
    845c:	a71f0000 	ldrge	r0, [pc, -r0]
    8460:	05000006 	streq	r0, [r0, #-6]
    8464:	721d032f 	andsvc	r0, sp, #-1140850688	; 0xbc000000
    8468:	05000004 	streq	r0, [r0, #-4]
    846c:	00000652 	andeq	r0, r0, r2, asr r6
    8470:	190f2106 	stmdbne	pc, {r1, r2, r8, sp}	; <UNPREDICTABLE>
    8474:	06000009 	streq	r0, [r0], -r9
    8478:	00091f04 	andeq	r1, r9, r4, lsl #30
    847c:	00251500 	eoreq	r1, r5, r0, lsl #10
    8480:	092e0000 	stmdbeq	lr!, {}	; <UNPREDICTABLE>
    8484:	25160000 	ldrcs	r0, [r6, #-0]
    8488:	00000000 	andeq	r0, r0, r0
    848c:	00049320 	andeq	r9, r4, r0, lsr #6
    8490:	16230600 	strtne	r0, [r3], -r0, lsl #12
    8494:	0000090d 	andeq	r0, r0, sp, lsl #18
    8498:	00080221 	andeq	r0, r8, r1, lsr #4
    849c:	05030100 	streq	r0, [r3, #-256]	; 0xffffff00
    84a0:	00000025 	andeq	r0, r0, r5, lsr #32
    84a4:	00009cb4 			; <UNDEFINED> instruction: 0x00009cb4
    84a8:	00000034 	andeq	r0, r0, r4, lsr r0
    84ac:	70229c01 	eorvc	r9, r2, r1, lsl #24
    84b0:	16030100 	strne	r0, [r3], -r0, lsl #2
    84b4:	000005e4 	andeq	r0, r0, r4, ror #11
    84b8:	0000150d 	andeq	r1, r0, sp, lsl #10
    84bc:	00001509 	andeq	r1, r0, r9, lsl #10
    84c0:	00340000 	eorseq	r0, r4, r0
    84c4:	00040000 	andeq	r0, r4, r0
    84c8:	00001cab 	andeq	r1, r0, fp, lsr #25
    84cc:	035a0104 	cmpeq	sl, #1
    84d0:	b00c0000 	andlt	r0, ip, r0
    84d4:	c700000b 	strgt	r0, [r0, -fp]
    84d8:	0000000b 	andeq	r0, r0, fp
    84dc:	0400009d 	streq	r0, [r0], #-157	; 0xffffff63
    84e0:	c6000000 	strgt	r0, [r0], -r0
    84e4:	0200001a 	andeq	r0, r0, #26, 0
    84e8:	000009ca 	andeq	r0, r0, sl, asr #19
    84ec:	00060201 	andeq	r0, r6, r1, lsl #4
    84f0:	0400009d 	streq	r0, [r0], #-157	; 0xffffff63
    84f4:	01000000 	mrseq	r0, (UNDEF: 0)
    84f8:	Address 0x00000000000084f8 is out of bounds.


Disassembly of section .debug_abbrev:

00000000 <.debug_abbrev>:
       0:	25011101 	strcs	r1, [r1, #-257]	; 0xfffffeff
       4:	030b130e 	movweq	r1, #45838	; 0xb30e
       8:	110e1b0e 	tstne	lr, lr, lsl #22
       c:	10061201 	andne	r1, r6, r1, lsl #4
      10:	02000017 	andeq	r0, r0, #23, 0
      14:	0b0b0024 	bleq	2c00ac <__bss_end__+0x2b5d04>
      18:	08030b3e 	stmdaeq	r3, {r1, r2, r3, r4, r5, r8, r9, fp}
      1c:	24030000 	strcs	r0, [r3], #-0
      20:	3e0b0b00 	vmlacc.f64	d0, d11, d0
      24:	000e030b 	andeq	r0, lr, fp, lsl #6
      28:	00160400 	andseq	r0, r6, r0, lsl #8
      2c:	0b3a0e03 	bleq	e83840 <__bss_end__+0xe79498>
      30:	0b390b3b 	bleq	e42d24 <__bss_end__+0xe3897c>
      34:	00001349 	andeq	r1, r0, r9, asr #6
      38:	49002605 	stmdbmi	r0, {r0, r2, r9, sl, sp}
      3c:	06000013 			; <UNDEFINED> instruction: 0x06000013
      40:	0b0b000f 	bleq	2c0084 <__bss_end__+0x2b5cdc>
      44:	04070000 	streq	r0, [r7], #-0
      48:	0b0b3e01 	bleq	2cf854 <__bss_end__+0x2c54ac>
      4c:	3a13490b 	bcc	4d2480 <__bss_end__+0x4c80d8>
      50:	390b3b0b 	stmdbcc	fp, {r0, r1, r3, r8, r9, fp, ip, sp}
      54:	0013010b 	andseq	r0, r3, fp, lsl #2
      58:	00280800 	eoreq	r0, r8, r0, lsl #16
      5c:	061c0e03 	ldreq	r0, [ip], -r3, lsl #28
      60:	34090000 	strcc	r0, [r9], #-0
      64:	3a0e0300 	bcc	380c6c <__bss_end__+0x3768c4>
      68:	390b3b0b 	stmdbcc	fp, {r0, r1, r3, r8, r9, fp, ip, sp}
      6c:	0213490b 	andseq	r4, r3, #180224	; 0x2c000
      70:	0a000018 	beq	d8 <__code_start__-0x7f28>
      74:	193f002e 	ldmdbne	pc!, {r1, r2, r3, r5}	; <UNPREDICTABLE>
      78:	0b3a0e03 	bleq	e8388c <__bss_end__+0xe794e4>
      7c:	0b390b3b 	bleq	e42d70 <__bss_end__+0xe389c8>
      80:	01111927 	tsteq	r1, r7, lsr #18
      84:	18400612 	stmdane	r0, {r1, r4, r9, sl}^
      88:	00194297 	mulseq	r9, r7, r2
      8c:	012e0b00 			; <UNDEFINED> instruction: 0x012e0b00
      90:	0e03193f 			; <UNDEFINED> instruction: 0x0e03193f
      94:	0b3b0b3a 	bleq	ec2d84 <__bss_end__+0xeb89dc>
      98:	19270b39 	stmdbne	r7!, {r0, r3, r4, r5, r8, r9, fp}
      9c:	01111349 	tsteq	r1, r9, asr #6
      a0:	18400612 	stmdane	r0, {r1, r4, r9, sl}^
      a4:	01194297 			; <UNDEFINED> instruction: 0x01194297
      a8:	0c000013 	stceq	0, cr0, [r0], {19}
      ac:	0e030005 	cdpeq	0, 0, cr0, cr3, cr5, {0}
      b0:	0b3b0b3a 	bleq	ec2da0 <__bss_end__+0xeb89f8>
      b4:	13490b39 	movtne	r0, #39737	; 0x9b39
      b8:	42b71702 	adcsmi	r1, r7, #524288	; 0x80000
      bc:	0d000017 	stceq	0, cr0, [r0, #-92]	; 0xffffffa4
      c0:	0e030034 	mcreq	0, 0, r0, cr3, cr4, {1}
      c4:	19341349 	ldmdbne	r4!, {r0, r3, r6, r8, r9, ip}
      c8:	00001802 	andeq	r1, r0, r2, lsl #16
      cc:	0300340e 	movweq	r3, #1038	; 0x40e
      d0:	3b0b3a08 	blcc	2ce8f8 <__bss_end__+0x2c4550>
      d4:	490b390b 	stmdbmi	fp, {r0, r1, r3, r8, fp, ip, sp}
      d8:	b7170213 			; <UNDEFINED> instruction: 0xb7170213
      dc:	00001742 	andeq	r1, r0, r2, asr #14
      e0:	31011d0f 	tstcc	r1, pc, lsl #26
      e4:	b8015213 	stmdalt	r1, {r0, r1, r4, r9, ip, lr}
      e8:	01110b42 	tsteq	r1, r2, asr #22
      ec:	0b580612 	bleq	160193c <__bss_end__+0x15f7594>
      f0:	0b570b59 	bleq	15c2e5c <__bss_end__+0x15b8ab4>
      f4:	00001301 	andeq	r1, r0, r1, lsl #6
      f8:	31000510 	tstcc	r0, r0, lsl r5
      fc:	b7170213 			; <UNDEFINED> instruction: 0xb7170213
     100:	00001742 	andeq	r1, r0, r2, asr #14
     104:	31011d11 	tstcc	r1, r1, lsl sp
     108:	b8015213 	stmdalt	r1, {r0, r1, r4, r9, ip, lr}
     10c:	17550b42 	ldrbne	r0, [r5, -r2, asr #22]
     110:	0b590b58 	bleq	1642e78 <__bss_end__+0x1638ad0>
     114:	13010b57 	movwne	r0, #6999	; 0x1b57
     118:	0b120000 	bleq	480120 <__bss_end__+0x475d78>
     11c:	00175501 	andseq	r5, r7, r1, lsl #10
     120:	82891300 	addhi	r1, r9, #0, 6
     124:	01110101 	tsteq	r1, r1, lsl #2
     128:	13011331 	movwne	r1, #4913	; 0x1331
     12c:	8a140000 	bhi	500134 <__bss_end__+0x4f5d8c>
     130:	02000182 	andeq	r0, r0, #-2147483616	; 0x80000020
     134:	18429118 	stmdane	r2, {r3, r4, r8, ip, pc}^
     138:	89150000 	ldmdbhi	r5, {}	; <UNPREDICTABLE>
     13c:	11000182 	smlabbne	r0, r2, r1, r0
     140:	00133101 	andseq	r3, r3, r1, lsl #2
     144:	01011600 	tsteq	r1, r0, lsl #12
     148:	13011349 	movwne	r1, #4937	; 0x1349
     14c:	21170000 	tstcs	r7, r0
     150:	2f134900 	svccs	0x00134900
     154:	1800000b 	stmdane	r0, {r0, r1, r3}
     158:	0e030034 	mcreq	0, 0, r0, cr3, cr4, {1}
     15c:	0b3b0b3a 	bleq	ec2e4c <__bss_end__+0xeb8aa4>
     160:	13490b39 	movtne	r0, #39737	; 0x9b39
     164:	42b71702 	adcsmi	r1, r7, #524288	; 0x80000
     168:	19000017 	stmdbne	r0, {r0, r1, r2, r4}
     16c:	1755000b 	ldrbne	r0, [r5, -fp]
     170:	2e1a0000 	cdpcs	0, 1, cr0, cr10, cr0, {0}
     174:	03193f01 	tsteq	r9, #1, 30
     178:	3b0b3a0e 	blcc	2ce9b8 <__bss_end__+0x2c4610>
     17c:	270b390b 	strcs	r3, [fp, -fp, lsl #18]
     180:	12011119 	andne	r1, r1, #1073741830	; 0x40000006
     184:	97184006 	ldrls	r4, [r8, -r6]
     188:	13011942 	movwne	r1, #6466	; 0x1942
     18c:	341b0000 	ldrcc	r0, [fp], #-0
     190:	3a080300 	bcc	200d98 <__bss_end__+0x1f69f0>
     194:	390b3b0b 	stmdbcc	fp, {r0, r1, r3, r8, r9, fp, ip, sp}
     198:	1c13490b 			; <UNDEFINED> instruction: 0x1c13490b
     19c:	1c000006 	stcne	0, cr0, [r0], {6}
     1a0:	193f002e 	ldmdbne	pc!, {r1, r2, r3, r5}	; <UNPREDICTABLE>
     1a4:	0b3a0e03 	bleq	e839b8 <__bss_end__+0xe79610>
     1a8:	0b390b3b 	bleq	e42e9c <__bss_end__+0xe38af4>
     1ac:	13491927 	movtne	r1, #39207	; 0x9927
     1b0:	06120111 			; <UNDEFINED> instruction: 0x06120111
     1b4:	42971840 	addsmi	r1, r7, #64, 16	; 0x400000
     1b8:	1d000019 	stcne	0, cr0, [r0, #-100]	; 0xffffff9c
     1bc:	0e03012e 	adfeqsp	f0, f3, #0.5
     1c0:	0b3b0b3a 	bleq	ec2eb0 <__bss_end__+0xeb8b08>
     1c4:	19270b39 	stmdbne	r7!, {r0, r3, r4, r5, r8, r9, fp}
     1c8:	0b201349 	bleq	804ef4 <__bss_end__+0x7fab4c>
     1cc:	00001301 	andeq	r1, r0, r1, lsl #6
     1d0:	0300051e 	movweq	r0, #1310	; 0x51e
     1d4:	3b0b3a08 	blcc	2ce9fc <__bss_end__+0x2c4654>
     1d8:	490b390b 	stmdbmi	fp, {r0, r1, r3, r8, fp, ip, sp}
     1dc:	1f000013 	svcne	0x00000013
     1e0:	193f002e 	ldmdbne	pc!, {r1, r2, r3, r5}	; <UNPREDICTABLE>
     1e4:	0e6e193c 			; <UNDEFINED> instruction: 0x0e6e193c
     1e8:	0b3a0e03 	bleq	e839fc <__bss_end__+0xe79654>
     1ec:	0b390b3b 	bleq	e42ee0 <__bss_end__+0xe38b38>
     1f0:	2e200000 	cdpcs	0, 2, cr0, cr0, cr0, {0}
     1f4:	3c193f00 	ldccc	15, cr3, [r9], {-0}
     1f8:	030e6e19 	movweq	r6, #60953	; 0xee19
     1fc:	3b0b3a0e 	blcc	2cea3c <__bss_end__+0x2c4694>
     200:	000b3905 	andeq	r3, fp, r5, lsl #18
     204:	11010000 	mrsne	r0, (UNDEF: 1)
     208:	130e2501 	movwne	r2, #58625	; 0xe501
     20c:	1b0e030b 	blne	380e40 <__bss_end__+0x376a98>
     210:	1201110e 	andne	r1, r1, #-2147483645	; 0x80000003
     214:	00171006 	andseq	r1, r7, r6
     218:	00240200 	eoreq	r0, r4, r0, lsl #4
     21c:	0b3e0b0b 	bleq	f82e50 <__bss_end__+0xf78aa8>
     220:	00000803 	andeq	r0, r0, r3, lsl #16
     224:	03001603 	movweq	r1, #1539	; 0x603
     228:	3b0b3a0e 	blcc	2cea68 <__bss_end__+0x2c46c0>
     22c:	490b390b 	stmdbmi	fp, {r0, r1, r3, r8, fp, ip, sp}
     230:	04000013 	streq	r0, [r0], #-19	; 0xffffffed
     234:	0b0b0024 	bleq	2c02cc <__bss_end__+0x2b5f24>
     238:	0e030b3e 	vmoveq.16	d3[0], r0
     23c:	26050000 	strcs	r0, [r5], -r0
     240:	00134900 	andseq	r4, r3, r0, lsl #18
     244:	000f0600 	andeq	r0, pc, r0, lsl #12
     248:	00000b0b 	andeq	r0, r0, fp, lsl #22
     24c:	0b000f07 	bleq	3e70 <__code_start__-0x4190>
     250:	0013490b 	andseq	r4, r3, fp, lsl #18
     254:	00130800 	andseq	r0, r3, r0, lsl #16
     258:	193c0e03 	ldmdbne	ip!, {r0, r1, r9, sl, fp}
     25c:	16090000 	strne	r0, [r9], -r0
     260:	3a0e0300 	bcc	380e68 <__bss_end__+0x376ac0>
     264:	39053b0b 	stmdbcc	r5, {r0, r1, r3, r8, r9, fp, ip, sp}
     268:	0013490b 	andseq	r4, r3, fp, lsl #18
     26c:	01170a00 	tsteq	r7, r0, lsl #20
     270:	0b3a0b0b 	bleq	e82ea4 <__bss_end__+0xe78afc>
     274:	0b390b3b 	bleq	e42f68 <__bss_end__+0xe38bc0>
     278:	00001301 	andeq	r1, r0, r1, lsl #6
     27c:	03000d0b 	movweq	r0, #3339	; 0xd0b
     280:	3b0b3a0e 	blcc	2ceac0 <__bss_end__+0x2c4718>
     284:	490b390b 	stmdbmi	fp, {r0, r1, r3, r8, fp, ip, sp}
     288:	0c000013 	stceq	0, cr0, [r0], {19}
     28c:	13490101 	movtne	r0, #37121	; 0x9101
     290:	00001301 	andeq	r1, r0, r1, lsl #6
     294:	4900210d 	stmdbmi	r0, {r0, r2, r3, r8, sp}
     298:	000b2f13 	andeq	r2, fp, r3, lsl pc
     29c:	01130e00 	tsteq	r3, r0, lsl #28
     2a0:	0b3a0b0b 	bleq	e82ed4 <__bss_end__+0xe78b2c>
     2a4:	0b390b3b 	bleq	e42f98 <__bss_end__+0xe38bf0>
     2a8:	00001301 	andeq	r1, r0, r1, lsl #6
     2ac:	03000d0f 	movweq	r0, #3343	; 0xd0f
     2b0:	3b0b3a0e 	blcc	2ceaf0 <__bss_end__+0x2c4748>
     2b4:	490b390b 	stmdbmi	fp, {r0, r1, r3, r8, fp, ip, sp}
     2b8:	000b3813 	andeq	r3, fp, r3, lsl r8
     2bc:	01131000 	tsteq	r3, r0
     2c0:	0b0b0e03 	bleq	2c3ad4 <__bss_end__+0x2b972c>
     2c4:	0b3b0b3a 	bleq	ec2fb4 <__bss_end__+0xeb8c0c>
     2c8:	13010b39 	movwne	r0, #6969	; 0x1b39
     2cc:	0d110000 	ldceq	0, cr0, [r1, #-0]
     2d0:	3a080300 	bcc	200ed8 <__bss_end__+0x1f6b30>
     2d4:	390b3b0b 	stmdbcc	fp, {r0, r1, r3, r8, r9, fp, ip, sp}
     2d8:	3813490b 	ldmdacc	r3, {r0, r1, r3, r8, fp, lr}
     2dc:	1200000b 	andne	r0, r0, #11, 0
     2e0:	0e030113 	mcreq	1, 0, r0, cr3, cr3, {0}
     2e4:	0b3a050b 	bleq	e81718 <__bss_end__+0xe77370>
     2e8:	0b390b3b 	bleq	e42fdc <__bss_end__+0xe38c34>
     2ec:	00001301 	andeq	r1, r0, r1, lsl #6
     2f0:	03000d13 	movweq	r0, #3347	; 0xd13
     2f4:	3b0b3a0e 	blcc	2ceb34 <__bss_end__+0x2c478c>
     2f8:	490b390b 	stmdbmi	fp, {r0, r1, r3, r8, fp, ip, sp}
     2fc:	00053813 	andeq	r3, r5, r3, lsl r8
     300:	00151400 	andseq	r1, r5, r0, lsl #8
     304:	00001927 	andeq	r1, r0, r7, lsr #18
     308:	27011515 	smladcs	r1, r5, r5, r1
     30c:	01134919 	tsteq	r3, r9, lsl r9
     310:	16000013 			; <UNDEFINED> instruction: 0x16000013
     314:	13490005 	movtne	r0, #36869	; 0x9005
     318:	13170000 	tstne	r7, #0, 0
     31c:	0b0e0301 	bleq	380f28 <__bss_end__+0x376b80>
     320:	3b0b3a05 	blcc	2ceb3c <__bss_end__+0x2c4794>
     324:	010b3905 	tsteq	fp, r5, lsl #18
     328:	18000013 	stmdane	r0, {r0, r1, r4}
     32c:	0e03000d 	cdpeq	0, 0, cr0, cr3, cr13, {0}
     330:	053b0b3a 	ldreq	r0, [fp, #-2874]!	; 0xfffff4c6
     334:	13490b39 	movtne	r0, #39737	; 0x9b39
     338:	00000b38 	andeq	r0, r0, r8, lsr fp
     33c:	03000d19 	movweq	r0, #3353	; 0xd19
     340:	3b0b3a0e 	blcc	2ceb80 <__bss_end__+0x2c47d8>
     344:	490b3905 	stmdbmi	fp, {r0, r2, r8, fp, ip, sp}
     348:	00053813 	andeq	r3, r5, r3, lsl r8
     34c:	01131a00 	tsteq	r3, r0, lsl #20
     350:	0b0b0e03 	bleq	2c3b64 <__bss_end__+0x2b97bc>
     354:	053b0b3a 	ldreq	r0, [fp, #-2874]!	; 0xfffff4c6
     358:	13010b39 	movwne	r0, #6969	; 0x1b39
     35c:	131b0000 	tstne	fp, #0, 0
     360:	3a0b0b01 	bcc	2c2f6c <__bss_end__+0x2b8bc4>
     364:	39053b0b 	stmdbcc	r5, {r0, r1, r3, r8, r9, fp, ip, sp}
     368:	0013010b 	andseq	r0, r3, fp, lsl #2
     36c:	01171c00 	tsteq	r7, r0, lsl #24
     370:	0b3a0b0b 	bleq	e82fa4 <__bss_end__+0xe78bfc>
     374:	0b39053b 	bleq	e41868 <__bss_end__+0xe374c0>
     378:	00001301 	andeq	r1, r0, r1, lsl #6
     37c:	03000d1d 	movweq	r0, #3357	; 0xd1d
     380:	3b0b3a0e 	blcc	2cebc0 <__bss_end__+0x2c4818>
     384:	490b3905 	stmdbmi	fp, {r0, r2, r8, fp, ip, sp}
     388:	1e000013 	mcrne	0, 0, r0, cr0, cr3, {0}
     38c:	19270115 	stmdbne	r7!, {r0, r2, r4, r8}
     390:	00001301 	andeq	r1, r0, r1, lsl #6
     394:	0300341f 	movweq	r3, #1055	; 0x41f
     398:	3b0b3a0e 	blcc	2cebd8 <__bss_end__+0x2c4830>
     39c:	490b3905 	stmdbmi	fp, {r0, r2, r8, fp, ip, sp}
     3a0:	3c193f13 	ldccc	15, cr3, [r9], {19}
     3a4:	20000019 	andcs	r0, r0, r9, lsl r0
     3a8:	0e030034 	mcreq	0, 0, r0, cr3, cr4, {1}
     3ac:	0b3b0b3a 	bleq	ec309c <__bss_end__+0xeb8cf4>
     3b0:	13490b39 	movtne	r0, #39737	; 0x9b39
     3b4:	193c193f 	ldmdbne	ip!, {r0, r1, r2, r3, r4, r5, r8, fp, ip}
     3b8:	2e210000 	cdpcs	0, 2, cr0, cr1, cr0, {0}
     3bc:	03193f00 	tsteq	r9, #0, 30
     3c0:	3b0b3a0e 	blcc	2cec00 <__bss_end__+0x2c4858>
     3c4:	270b390b 	strcs	r3, [fp, -fp, lsl #18]
     3c8:	12011119 	andne	r1, r1, #1073741830	; 0x40000006
     3cc:	97184006 	ldrls	r4, [r8, -r6]
     3d0:	00001942 	andeq	r1, r0, r2, asr #18
     3d4:	3f012e22 	svccc	0x00012e22
     3d8:	3a0e0319 	bcc	381044 <__bss_end__+0x376c9c>
     3dc:	390b3b0b 	stmdbcc	fp, {r0, r1, r3, r8, r9, fp, ip, sp}
     3e0:	4919270b 	ldmdbmi	r9, {r0, r1, r3, r8, r9, sl, sp}
     3e4:	12011113 	andne	r1, r1, #-1073741820	; 0xc0000004
     3e8:	97184006 	ldrls	r4, [r8, -r6]
     3ec:	13011942 	movwne	r1, #6466	; 0x1942
     3f0:	05230000 	streq	r0, [r3, #-0]!
     3f4:	3a080300 	bcc	200ffc <__bss_end__+0x1f6c54>
     3f8:	390b3b0b 	stmdbcc	fp, {r0, r1, r3, r8, r9, fp, ip, sp}
     3fc:	0213490b 	andseq	r4, r3, #180224	; 0x2c000
     400:	24000018 	strcs	r0, [r0], #-24	; 0xffffffe8
     404:	0e030005 	cdpeq	0, 0, cr0, cr3, cr5, {0}
     408:	0b3b0b3a 	bleq	ec30f8 <__bss_end__+0xeb8d50>
     40c:	13490b39 	movtne	r0, #39737	; 0x9b39
     410:	42b71702 	adcsmi	r1, r7, #524288	; 0x80000
     414:	25000017 	strcs	r0, [r0, #-23]	; 0xffffffe9
     418:	1755010b 	ldrbne	r0, [r5, -fp, lsl #2]
     41c:	00001301 	andeq	r1, r0, r1, lsl #6
     420:	03003426 	movweq	r3, #1062	; 0x426
     424:	3b0b3a08 	blcc	2cec4c <__bss_end__+0x2c48a4>
     428:	490b390b 	stmdbmi	fp, {r0, r1, r3, r8, fp, ip, sp}
     42c:	b7170213 			; <UNDEFINED> instruction: 0xb7170213
     430:	00001742 	andeq	r1, r0, r2, asr #14
     434:	55010b27 	strpl	r0, [r1, #-2855]	; 0xfffff4d9
     438:	28000017 	stmdacs	r0, {r0, r1, r2, r4}
     43c:	0111010b 	tsteq	r1, fp, lsl #2
     440:	13010612 	movwne	r0, #5650	; 0x1612
     444:	0b290000 	bleq	a4044c <__bss_end__+0xa360a4>
     448:	12011101 	andne	r1, r1, #1073741824	; 0x40000000
     44c:	2a000006 	bcs	46c <__code_start__-0x7b94>
     450:	08030034 	stmdaeq	r3, {r2, r4, r5}
     454:	0b3b0b3a 	bleq	ec3144 <__bss_end__+0xeb8d9c>
     458:	13490b39 	movtne	r0, #39737	; 0x9b39
     45c:	262b0000 	strtcs	r0, [fp], -r0
     460:	2c000000 	stccs	0, cr0, [r0], {-0}
     464:	193f012e 	ldmdbne	pc!, {r1, r2, r3, r5, r8}	; <UNPREDICTABLE>
     468:	0b3a0e03 	bleq	e83c7c <__bss_end__+0xe798d4>
     46c:	0b390b3b 	bleq	e43160 <__bss_end__+0xe38db8>
     470:	01111927 	tsteq	r1, r7, lsr #18
     474:	18400612 	stmdane	r0, {r1, r4, r9, sl}^
     478:	01194297 			; <UNDEFINED> instruction: 0x01194297
     47c:	2d000013 	stccs	0, cr0, [r0, #-76]	; 0xffffffb4
     480:	08030005 	stmdaeq	r3, {r0, r2}
     484:	0b3b0b3a 	bleq	ec3174 <__bss_end__+0xeb8dcc>
     488:	13490b39 	movtne	r0, #39737	; 0x9b39
     48c:	42b71702 	adcsmi	r1, r7, #524288	; 0x80000
     490:	2e000017 	mcrcs	0, 0, r0, cr0, cr7, {0}
     494:	08030113 	stmdaeq	r3, {r0, r1, r4, r8}
     498:	0b3a0b0b 	bleq	e830cc <__bss_end__+0xe78d24>
     49c:	0b390b3b 	bleq	e43190 <__bss_end__+0xe38de8>
     4a0:	00001301 	andeq	r1, r0, r1, lsl #6
     4a4:	0300342f 	movweq	r3, #1071	; 0x42f
     4a8:	3413490e 	ldrcc	r4, [r3], #-2318	; 0xfffff6f2
     4ac:	00180219 	andseq	r0, r8, r9, lsl r2
     4b0:	82893000 	addhi	r3, r9, #0, 0
     4b4:	01110101 	tsteq	r1, r1, lsl #2
     4b8:	13011331 	movwne	r1, #4913	; 0x1331
     4bc:	8a310000 	bhi	c404c4 <__bss_end__+0xc3611c>
     4c0:	02000182 	andeq	r0, r0, #-2147483616	; 0x80000020
     4c4:	18429118 	stmdane	r2, {r3, r4, r8, ip, pc}^
     4c8:	89320000 	ldmdbhi	r2!, {}	; <UNPREDICTABLE>
     4cc:	11000182 	smlabbne	r0, r2, r1, r0
     4d0:	00133101 	andseq	r3, r3, r1, lsl #2
     4d4:	002e3300 	eoreq	r3, lr, r0, lsl #6
     4d8:	193c193f 	ldmdbne	ip!, {r0, r1, r2, r3, r4, r5, r8, fp, ip}
     4dc:	0e030e6e 	cdpeq	14, 0, cr0, cr3, cr14, {3}
     4e0:	0b3b0b3a 	bleq	ec31d0 <__bss_end__+0xeb8e28>
     4e4:	00000b39 	andeq	r0, r0, r9, lsr fp
     4e8:	01110100 	tsteq	r1, r0, lsl #2
     4ec:	0b130e25 	bleq	4c3d88 <__bss_end__+0x4b99e0>
     4f0:	0e1b0e03 	cdpeq	14, 1, cr0, cr11, cr3, {0}
     4f4:	06120111 			; <UNDEFINED> instruction: 0x06120111
     4f8:	00001710 	andeq	r1, r0, r0, lsl r7
     4fc:	0b002402 	bleq	950c <vprintk+0x30>
     500:	030b3e0b 	movweq	r3, #48651	; 0xbe0b
     504:	03000008 	movweq	r0, #8
     508:	0e030016 	mcreq	0, 0, r0, cr3, cr6, {0}
     50c:	0b3b0b3a 	bleq	ec31fc <__bss_end__+0xeb8e54>
     510:	13490b39 	movtne	r0, #39737	; 0x9b39
     514:	24040000 	strcs	r0, [r4], #-0
     518:	3e0b0b00 	vmlacc.f64	d0, d11, d0
     51c:	000e030b 	andeq	r0, lr, fp, lsl #6
     520:	000f0500 	andeq	r0, pc, r0, lsl #10
     524:	00000b0b 	andeq	r0, r0, fp, lsl #22
     528:	0b000f06 	bleq	4148 <__code_start__-0x3eb8>
     52c:	0013490b 	andseq	r4, r3, fp, lsl #18
     530:	00130700 	andseq	r0, r3, r0, lsl #14
     534:	193c0e03 	ldmdbne	ip!, {r0, r1, r9, sl, fp}
     538:	16080000 	strne	r0, [r8], -r0
     53c:	3a0e0300 	bcc	381144 <__bss_end__+0x376d9c>
     540:	39053b0b 	stmdbcc	r5, {r0, r1, r3, r8, r9, fp, ip, sp}
     544:	0013490b 	andseq	r4, r3, fp, lsl #18
     548:	01170900 	tsteq	r7, r0, lsl #18
     54c:	0b3a0b0b 	bleq	e83180 <__bss_end__+0xe78dd8>
     550:	0b390b3b 	bleq	e43244 <__bss_end__+0xe38e9c>
     554:	00001301 	andeq	r1, r0, r1, lsl #6
     558:	03000d0a 	movweq	r0, #3338	; 0xd0a
     55c:	3b0b3a0e 	blcc	2ced9c <__bss_end__+0x2c49f4>
     560:	490b390b 	stmdbmi	fp, {r0, r1, r3, r8, fp, ip, sp}
     564:	0b000013 	bleq	5b8 <__code_start__-0x7a48>
     568:	13490101 	movtne	r0, #37121	; 0x9101
     56c:	00001301 	andeq	r1, r0, r1, lsl #6
     570:	4900210c 	stmdbmi	r0, {r2, r3, r8, sp}
     574:	000b2f13 	andeq	r2, fp, r3, lsl pc
     578:	01130d00 	tsteq	r3, r0, lsl #26
     57c:	0b3a0b0b 	bleq	e831b0 <__bss_end__+0xe78e08>
     580:	0b390b3b 	bleq	e43274 <__bss_end__+0xe38ecc>
     584:	00001301 	andeq	r1, r0, r1, lsl #6
     588:	03000d0e 	movweq	r0, #3342	; 0xd0e
     58c:	3b0b3a0e 	blcc	2cedcc <__bss_end__+0x2c4a24>
     590:	490b390b 	stmdbmi	fp, {r0, r1, r3, r8, fp, ip, sp}
     594:	000b3813 	andeq	r3, fp, r3, lsl r8
     598:	00260f00 	eoreq	r0, r6, r0, lsl #30
     59c:	00001349 	andeq	r1, r0, r9, asr #6
     5a0:	03011310 	movweq	r1, #4880	; 0x1310
     5a4:	3a0b0b0e 	bcc	2c31e4 <__bss_end__+0x2b8e3c>
     5a8:	390b3b0b 	stmdbcc	fp, {r0, r1, r3, r8, r9, fp, ip, sp}
     5ac:	0013010b 	andseq	r0, r3, fp, lsl #2
     5b0:	000d1100 	andeq	r1, sp, r0, lsl #2
     5b4:	0b3a0803 	bleq	e825c8 <__bss_end__+0xe78220>
     5b8:	0b390b3b 	bleq	e432ac <__bss_end__+0xe38f04>
     5bc:	0b381349 	bleq	e052e8 <__bss_end__+0xdfaf40>
     5c0:	13120000 	tstne	r2, #0, 0
     5c4:	0b0e0301 	bleq	3811d0 <__bss_end__+0x376e28>
     5c8:	3b0b3a05 	blcc	2cede4 <__bss_end__+0x2c4a3c>
     5cc:	010b390b 	tsteq	fp, fp, lsl #18
     5d0:	13000013 	movwne	r0, #19
     5d4:	0e03000d 	cdpeq	0, 0, cr0, cr3, cr13, {0}
     5d8:	0b3b0b3a 	bleq	ec32c8 <__bss_end__+0xeb8f20>
     5dc:	13490b39 	movtne	r0, #39737	; 0x9b39
     5e0:	00000538 	andeq	r0, r0, r8, lsr r5
     5e4:	27001514 	smladcs	r0, r4, r5, r1
     5e8:	15000019 	strne	r0, [r0, #-25]	; 0xffffffe7
     5ec:	19270115 	stmdbne	r7!, {r0, r2, r4, r8}
     5f0:	13011349 	movwne	r1, #4937	; 0x1349
     5f4:	05160000 	ldreq	r0, [r6, #-0]
     5f8:	00134900 	andseq	r4, r3, r0, lsl #18
     5fc:	01131700 	tsteq	r3, r0, lsl #14
     600:	050b0e03 	streq	r0, [fp, #-3587]	; 0xfffff1fd
     604:	053b0b3a 	ldreq	r0, [fp, #-2874]!	; 0xfffff4c6
     608:	13010b39 	movwne	r0, #6969	; 0x1b39
     60c:	0d180000 	ldceq	0, cr0, [r8, #-0]
     610:	3a0e0300 	bcc	381218 <__bss_end__+0x376e70>
     614:	39053b0b 	stmdbcc	r5, {r0, r1, r3, r8, r9, fp, ip, sp}
     618:	3813490b 	ldmdacc	r3, {r0, r1, r3, r8, fp, lr}
     61c:	1900000b 	stmdbne	r0, {r0, r1, r3}
     620:	0e03000d 	cdpeq	0, 0, cr0, cr3, cr13, {0}
     624:	053b0b3a 	ldreq	r0, [fp, #-2874]!	; 0xfffff4c6
     628:	13490b39 	movtne	r0, #39737	; 0x9b39
     62c:	00000538 	andeq	r0, r0, r8, lsr r5
     630:	0301131a 	movweq	r1, #4890	; 0x131a
     634:	3a0b0b0e 	bcc	2c3274 <__bss_end__+0x2b8ecc>
     638:	39053b0b 	stmdbcc	r5, {r0, r1, r3, r8, r9, fp, ip, sp}
     63c:	0013010b 	andseq	r0, r3, fp, lsl #2
     640:	01131b00 	tsteq	r3, r0, lsl #22
     644:	0b3a0b0b 	bleq	e83278 <__bss_end__+0xe78ed0>
     648:	0b39053b 	bleq	e41b3c <__bss_end__+0xe37794>
     64c:	00001301 	andeq	r1, r0, r1, lsl #6
     650:	0b01171c 	bleq	462c8 <__bss_end__+0x3bf20>
     654:	3b0b3a0b 	blcc	2cee88 <__bss_end__+0x2c4ae0>
     658:	010b3905 	tsteq	fp, r5, lsl #18
     65c:	1d000013 	stcne	0, cr0, [r0, #-76]	; 0xffffffb4
     660:	0e03000d 	cdpeq	0, 0, cr0, cr3, cr13, {0}
     664:	053b0b3a 	ldreq	r0, [fp, #-2874]!	; 0xfffff4c6
     668:	13490b39 	movtne	r0, #39737	; 0x9b39
     66c:	151e0000 	ldrne	r0, [lr, #-0]
     670:	01192701 	tsteq	r9, r1, lsl #14
     674:	1f000013 	svcne	0x00000013
     678:	0e030034 	mcreq	0, 0, r0, cr3, cr4, {1}
     67c:	053b0b3a 	ldreq	r0, [fp, #-2874]!	; 0xfffff4c6
     680:	13490b39 	movtne	r0, #39737	; 0x9b39
     684:	193c193f 	ldmdbne	ip!, {r0, r1, r2, r3, r4, r5, r8, fp, ip}
     688:	34200000 	strtcc	r0, [r0], #-0
     68c:	3a0e0300 	bcc	381294 <__bss_end__+0x376eec>
     690:	390b3b0b 	stmdbcc	fp, {r0, r1, r3, r8, r9, fp, ip, sp}
     694:	3f13490b 	svccc	0x0013490b
     698:	00193c19 	andseq	r3, r9, r9, lsl ip
     69c:	012e2100 			; <UNDEFINED> instruction: 0x012e2100
     6a0:	0e03193f 			; <UNDEFINED> instruction: 0x0e03193f
     6a4:	0b3b0b3a 	bleq	ec3394 <__bss_end__+0xeb8fec>
     6a8:	19270b39 	stmdbne	r7!, {r0, r3, r4, r5, r8, r9, fp}
     6ac:	01111349 	tsteq	r1, r9, asr #6
     6b0:	18400612 	stmdane	r0, {r1, r4, r9, sl}^
     6b4:	01194297 			; <UNDEFINED> instruction: 0x01194297
     6b8:	22000013 	andcs	r0, r0, #19, 0
     6bc:	08030005 	stmdaeq	r3, {r0, r2}
     6c0:	0b3b0b3a 	bleq	ec33b0 <__bss_end__+0xeb9008>
     6c4:	13490b39 	movtne	r0, #39737	; 0x9b39
     6c8:	42b71702 	adcsmi	r1, r7, #524288	; 0x80000
     6cc:	23000017 	movwcs	r0, #23
     6d0:	08030005 	stmdaeq	r3, {r0, r2}
     6d4:	0b3b0b3a 	bleq	ec33c4 <__bss_end__+0xeb901c>
     6d8:	13490b39 	movtne	r0, #39737	; 0x9b39
     6dc:	00001802 	andeq	r1, r0, r2, lsl #16
     6e0:	03003424 	movweq	r3, #1060	; 0x424
     6e4:	3b0b3a08 	blcc	2cef0c <__bss_end__+0x2c4b64>
     6e8:	490b390b 	stmdbmi	fp, {r0, r1, r3, r8, fp, ip, sp}
     6ec:	b7170213 			; <UNDEFINED> instruction: 0xb7170213
     6f0:	00001742 	andeq	r1, r0, r2, asr #14
     6f4:	55010b25 	strpl	r0, [r1, #-2853]	; 0xfffff4db
     6f8:	00130117 	andseq	r0, r3, r7, lsl r1
     6fc:	010b2600 	tsteq	fp, r0, lsl #12
     700:	06120111 			; <UNDEFINED> instruction: 0x06120111
     704:	01000000 	mrseq	r0, (UNDEF: 0)
     708:	0e250111 	mcreq	1, 1, r0, cr5, cr1, {0}
     70c:	0e030b13 	vmoveq.32	d3[0], r0
     710:	01110e1b 	tsteq	r1, fp, lsl lr
     714:	17100612 			; <UNDEFINED> instruction: 0x17100612
     718:	24020000 	strcs	r0, [r2], #-0
     71c:	3e0b0b00 	vmlacc.f64	d0, d11, d0
     720:	0008030b 	andeq	r0, r8, fp, lsl #6
     724:	00240300 	eoreq	r0, r4, r0, lsl #6
     728:	0b3e0b0b 	bleq	f8335c <__bss_end__+0xf78fb4>
     72c:	00000e03 	andeq	r0, r0, r3, lsl #28
     730:	03001604 	movweq	r1, #1540	; 0x604
     734:	3b0b3a0e 	blcc	2cef74 <__bss_end__+0x2c4bcc>
     738:	490b390b 	stmdbmi	fp, {r0, r1, r3, r8, fp, ip, sp}
     73c:	05000013 	streq	r0, [r0, #-19]	; 0xffffffed
     740:	0e030113 	mcreq	1, 0, r0, cr3, cr3, {0}
     744:	0b3a0b0b 	bleq	e83378 <__bss_end__+0xe78fd0>
     748:	13010b3b 	movwne	r0, #6971	; 0x1b3b
     74c:	0d060000 	stceq	0, cr0, [r6, #-0]
     750:	490e0300 	stmdbmi	lr, {r8, r9}
     754:	340b3813 	strcc	r3, [fp], #-2067	; 0xfffff7ed
     758:	07000019 	smladeq	r0, r9, r0, r0
     75c:	0b0b000f 	bleq	2c07a0 <__bss_end__+0x2b63f8>
     760:	0f080000 	svceq	0x00080000
     764:	490b0b00 	stmdbmi	fp, {r8, r9, fp}
     768:	09000013 	stmdbeq	r0, {r0, r1, r4}
     76c:	0e030013 	mcreq	0, 0, r0, cr3, cr3, {0}
     770:	0000193c 	andeq	r1, r0, ip, lsr r9
     774:	0300160a 	movweq	r1, #1546	; 0x60a
     778:	3b0b3a0e 	blcc	2cefb8 <__bss_end__+0x2c4c10>
     77c:	490b3905 	stmdbmi	fp, {r0, r2, r8, fp, ip, sp}
     780:	0b000013 	bleq	7d4 <__code_start__-0x782c>
     784:	0b0b0117 	bleq	2c0be8 <__bss_end__+0x2b6840>
     788:	0b3b0b3a 	bleq	ec3478 <__bss_end__+0xeb90d0>
     78c:	13010b39 	movwne	r0, #6969	; 0x1b39
     790:	0d0c0000 	stceq	0, cr0, [ip, #-0]
     794:	3a0e0300 	bcc	38139c <__bss_end__+0x376ff4>
     798:	390b3b0b 	stmdbcc	fp, {r0, r1, r3, r8, r9, fp, ip, sp}
     79c:	0013490b 	andseq	r4, r3, fp, lsl #18
     7a0:	01010d00 	tsteq	r1, r0, lsl #26
     7a4:	13011349 	movwne	r1, #4937	; 0x1349
     7a8:	210e0000 	mrscs	r0, (UNDEF: 14)
     7ac:	2f134900 	svccs	0x00134900
     7b0:	0f00000b 	svceq	0x0000000b
     7b4:	0b0b0113 	bleq	2c0c08 <__bss_end__+0x2b6860>
     7b8:	0b3b0b3a 	bleq	ec34a8 <__bss_end__+0xeb9100>
     7bc:	13010b39 	movwne	r0, #6969	; 0x1b39
     7c0:	0d100000 	ldceq	0, cr0, [r0, #-0]
     7c4:	3a0e0300 	bcc	3813cc <__bss_end__+0x377024>
     7c8:	390b3b0b 	stmdbcc	fp, {r0, r1, r3, r8, r9, fp, ip, sp}
     7cc:	3813490b 	ldmdacc	r3, {r0, r1, r3, r8, fp, lr}
     7d0:	1100000b 	tstne	r0, fp
     7d4:	13490026 	movtne	r0, #36902	; 0x9026
     7d8:	13120000 	tstne	r2, #0, 0
     7dc:	0b0e0301 	bleq	3813e8 <__bss_end__+0x377040>
     7e0:	3b0b3a0b 	blcc	2cf014 <__bss_end__+0x2c4c6c>
     7e4:	010b390b 	tsteq	fp, fp, lsl #18
     7e8:	13000013 	movwne	r0, #19
     7ec:	0803000d 	stmdaeq	r3, {r0, r2, r3}
     7f0:	0b3b0b3a 	bleq	ec34e0 <__bss_end__+0xeb9138>
     7f4:	13490b39 	movtne	r0, #39737	; 0x9b39
     7f8:	00000b38 	andeq	r0, r0, r8, lsr fp
     7fc:	03011314 	movweq	r1, #4884	; 0x1314
     800:	3a050b0e 	bcc	143440 <__bss_end__+0x139098>
     804:	390b3b0b 	stmdbcc	fp, {r0, r1, r3, r8, r9, fp, ip, sp}
     808:	0013010b 	andseq	r0, r3, fp, lsl #2
     80c:	000d1500 	andeq	r1, sp, r0, lsl #10
     810:	0b3a0e03 	bleq	e84024 <__bss_end__+0xe79c7c>
     814:	0b390b3b 	bleq	e43508 <__bss_end__+0xe39160>
     818:	05381349 	ldreq	r1, [r8, #-841]!	; 0xfffffcb7
     81c:	15160000 	ldrne	r0, [r6, #-0]
     820:	00192700 	andseq	r2, r9, r0, lsl #14
     824:	01151700 	tsteq	r5, r0, lsl #14
     828:	13491927 	movtne	r1, #39207	; 0x9927
     82c:	00001301 	andeq	r1, r0, r1, lsl #6
     830:	49000518 	stmdbmi	r0, {r3, r4, r8, sl}
     834:	19000013 	stmdbne	r0, {r0, r1, r4}
     838:	0e030113 	mcreq	1, 0, r0, cr3, cr3, {0}
     83c:	0b3a050b 	bleq	e81c70 <__bss_end__+0xe778c8>
     840:	0b39053b 	bleq	e41d34 <__bss_end__+0xe3798c>
     844:	00001301 	andeq	r1, r0, r1, lsl #6
     848:	03000d1a 	movweq	r0, #3354	; 0xd1a
     84c:	3b0b3a0e 	blcc	2cf08c <__bss_end__+0x2c4ce4>
     850:	490b3905 	stmdbmi	fp, {r0, r2, r8, fp, ip, sp}
     854:	000b3813 	andeq	r3, fp, r3, lsl r8
     858:	000d1b00 	andeq	r1, sp, r0, lsl #22
     85c:	0b3a0e03 	bleq	e84070 <__bss_end__+0xe79cc8>
     860:	0b39053b 	bleq	e41d54 <__bss_end__+0xe379ac>
     864:	05381349 	ldreq	r1, [r8, #-841]!	; 0xfffffcb7
     868:	131c0000 	tstne	ip, #0, 0
     86c:	0b0e0301 	bleq	381478 <__bss_end__+0x3770d0>
     870:	3b0b3a0b 	blcc	2cf0a4 <__bss_end__+0x2c4cfc>
     874:	010b3905 	tsteq	fp, r5, lsl #18
     878:	1d000013 	stcne	0, cr0, [r0, #-76]	; 0xffffffb4
     87c:	0b0b0113 	bleq	2c0cd0 <__bss_end__+0x2b6928>
     880:	053b0b3a 	ldreq	r0, [fp, #-2874]!	; 0xfffff4c6
     884:	13010b39 	movwne	r0, #6969	; 0x1b39
     888:	171e0000 	ldrne	r0, [lr, -r0]
     88c:	3a0b0b01 	bcc	2c3498 <__bss_end__+0x2b90f0>
     890:	39053b0b 	stmdbcc	r5, {r0, r1, r3, r8, r9, fp, ip, sp}
     894:	0013010b 	andseq	r0, r3, fp, lsl #2
     898:	000d1f00 	andeq	r1, sp, r0, lsl #30
     89c:	0b3a0e03 	bleq	e840b0 <__bss_end__+0xe79d08>
     8a0:	0b39053b 	bleq	e41d94 <__bss_end__+0xe379ec>
     8a4:	00001349 	andeq	r1, r0, r9, asr #6
     8a8:	27011520 	strcs	r1, [r1, -r0, lsr #10]
     8ac:	00130119 	andseq	r0, r3, r9, lsl r1
     8b0:	00342100 	eorseq	r2, r4, r0, lsl #2
     8b4:	0b3a0e03 	bleq	e840c8 <__bss_end__+0xe79d20>
     8b8:	0b39053b 	bleq	e41dac <__bss_end__+0xe37a04>
     8bc:	193f1349 	ldmdbne	pc!, {r0, r3, r6, r8, r9, ip}	; <UNPREDICTABLE>
     8c0:	0000193c 	andeq	r1, r0, ip, lsr r9
     8c4:	03003422 	movweq	r3, #1058	; 0x422
     8c8:	3b0b3a0e 	blcc	2cf108 <__bss_end__+0x2c4d60>
     8cc:	490b390b 	stmdbmi	fp, {r0, r1, r3, r8, fp, ip, sp}
     8d0:	3c193f13 	ldccc	15, cr3, [r9], {19}
     8d4:	23000019 	movwcs	r0, #25
     8d8:	193f012e 	ldmdbne	pc!, {r1, r2, r3, r5, r8}	; <UNPREDICTABLE>
     8dc:	0b3a0e03 	bleq	e840f0 <__bss_end__+0xe79d48>
     8e0:	0b390b3b 	bleq	e435d4 <__bss_end__+0xe3922c>
     8e4:	13491927 	movtne	r1, #39207	; 0x9927
     8e8:	06120111 			; <UNDEFINED> instruction: 0x06120111
     8ec:	42971840 	addsmi	r1, r7, #64, 16	; 0x400000
     8f0:	00130119 	andseq	r0, r3, r9, lsl r1
     8f4:	00052400 	andeq	r2, r5, r0, lsl #8
     8f8:	0b3a0803 	bleq	e8290c <__bss_end__+0xe78564>
     8fc:	0b390b3b 	bleq	e435f0 <__bss_end__+0xe39248>
     900:	18021349 	stmdane	r2, {r0, r3, r6, r8, r9, ip}
     904:	18250000 	stmdane	r5!, {}	; <UNPREDICTABLE>
     908:	26000000 	strcs	r0, [r0], -r0
     90c:	0e030034 	mcreq	0, 0, r0, cr3, cr4, {1}
     910:	0b3b0b3a 	bleq	ec3600 <__bss_end__+0xeb9258>
     914:	13490b39 	movtne	r0, #39737	; 0x9b39
     918:	00001802 	andeq	r1, r0, r2, lsl #16
     91c:	03003427 	movweq	r3, #1063	; 0x427
     920:	3b0b3a08 	blcc	2cf148 <__bss_end__+0x2c4da0>
     924:	490b390b 	stmdbmi	fp, {r0, r1, r3, r8, fp, ip, sp}
     928:	b7170213 			; <UNDEFINED> instruction: 0xb7170213
     92c:	00001742 	andeq	r1, r0, r2, asr #14
     930:	01828928 	orreq	r8, r2, r8, lsr #18
     934:	31011101 	tstcc	r1, r1, lsl #2
     938:	29000013 	stmdbcs	r0, {r0, r1, r4}
     93c:	0001828a 	andeq	r8, r1, sl, lsl #5
     940:	42911802 	addsmi	r1, r1, #131072	; 0x20000
     944:	2a000018 	bcs	9ac <__code_start__-0x7654>
     948:	193f012e 	ldmdbne	pc!, {r1, r2, r3, r5, r8}	; <UNPREDICTABLE>
     94c:	0b3a0e03 	bleq	e84160 <__bss_end__+0xe79db8>
     950:	0b390b3b 	bleq	e43644 <__bss_end__+0xe3929c>
     954:	13491927 	movtne	r1, #39207	; 0x9927
     958:	06120111 			; <UNDEFINED> instruction: 0x06120111
     95c:	42961840 	addsmi	r1, r6, #64, 16	; 0x400000
     960:	00130119 	andseq	r0, r3, r9, lsl r1
     964:	00052b00 	andeq	r2, r5, r0, lsl #22
     968:	0b3a0803 	bleq	e8297c <__bss_end__+0xe785d4>
     96c:	0b390b3b 	bleq	e43660 <__bss_end__+0xe392b8>
     970:	17021349 	strne	r1, [r2, -r9, asr #6]
     974:	001742b7 			; <UNDEFINED> instruction: 0x001742b7
     978:	00342c00 	eorseq	r2, r4, r0, lsl #24
     97c:	13490e03 	movtne	r0, #40451	; 0x9e03
     980:	18021934 	stmdane	r2, {r2, r4, r5, r8, fp, ip}
     984:	0b2d0000 	bleq	b4098c <__bss_end__+0xb365e4>
     988:	00175501 	andseq	r5, r7, r1, lsl #10
     98c:	00342e00 	eorseq	r2, r4, r0, lsl #28
     990:	0b3a0803 	bleq	e829a4 <__bss_end__+0xe785fc>
     994:	0b390b3b 	bleq	e43688 <__bss_end__+0xe392e0>
     998:	00001349 	andeq	r1, r0, r9, asr #6
     99c:	0300342f 	movweq	r3, #1071	; 0x42f
     9a0:	3b0b3a08 	blcc	2cf1c8 <__bss_end__+0x2c4e20>
     9a4:	490b390b 	stmdbmi	fp, {r0, r1, r3, r8, fp, ip, sp}
     9a8:	00180213 	andseq	r0, r8, r3, lsl r2
     9ac:	82893000 	addhi	r3, r9, #0, 0
     9b0:	01110101 	tsteq	r1, r1, lsl #2
     9b4:	13011331 	movwne	r1, #4913	; 0x1331
     9b8:	89310000 	ldmdbhi	r1!, {}	; <UNPREDICTABLE>
     9bc:	11010182 	smlabbne	r1, r2, r1, r0
     9c0:	00130101 	andseq	r0, r3, r1, lsl #2
     9c4:	82893200 	addhi	r3, r9, #0, 4
     9c8:	01110001 	tsteq	r1, r1
     9cc:	00001331 	andeq	r1, r0, r1, lsr r3
     9d0:	03012e33 	movweq	r2, #7731	; 0x1e33
     9d4:	3b0b3a0e 	blcc	2cf214 <__bss_end__+0x2c4e6c>
     9d8:	270b390b 	strcs	r3, [fp, -fp, lsl #18]
     9dc:	12011119 	andne	r1, r1, #1073741830	; 0x40000006
     9e0:	96184006 	ldrls	r4, [r8], -r6
     9e4:	13011942 	movwne	r1, #6466	; 0x1942
     9e8:	05340000 	ldreq	r0, [r4, #-0]!
     9ec:	3a0e0300 	bcc	3815f4 <__bss_end__+0x37724c>
     9f0:	390b3b0b 	stmdbcc	fp, {r0, r1, r3, r8, r9, fp, ip, sp}
     9f4:	0213490b 	andseq	r4, r3, #180224	; 0x2c000
     9f8:	1742b717 	smlaldne	fp, r2, r7, r7
     9fc:	2e350000 	cdpcs	0, 3, cr0, cr5, cr0, {0}
     a00:	3c193f00 	ldccc	15, cr3, [r9], {-0}
     a04:	030e6e19 	movweq	r6, #60953	; 0xee19
     a08:	3b0b3a0e 	blcc	2cf248 <__bss_end__+0x2c4ea0>
     a0c:	000b390b 	andeq	r3, fp, fp, lsl #18
     a10:	11010000 	mrsne	r0, (UNDEF: 1)
     a14:	130e2501 	movwne	r2, #58625	; 0xe501
     a18:	1b0e030b 	blne	38164c <__bss_end__+0x3772a4>
     a1c:	1201110e 	andne	r1, r1, #-2147483645	; 0x80000003
     a20:	00171006 	andseq	r1, r7, r6
     a24:	00240200 	eoreq	r0, r4, r0, lsl #4
     a28:	0b3e0b0b 	bleq	f8365c <__bss_end__+0xf792b4>
     a2c:	00000803 	andeq	r0, r0, r3, lsl #16
     a30:	0b002403 	bleq	9a44 <uart_get8+0x4>
     a34:	030b3e0b 	movweq	r3, #48651	; 0xbe0b
     a38:	0400000e 	streq	r0, [r0], #-14
     a3c:	0b0b000f 	bleq	2c0a80 <__bss_end__+0x2b66d8>
     a40:	16050000 	strne	r0, [r5], -r0
     a44:	3a0e0300 	bcc	38164c <__bss_end__+0x3772a4>
     a48:	390b3b0b 	stmdbcc	fp, {r0, r1, r3, r8, r9, fp, ip, sp}
     a4c:	0013490b 	andseq	r4, r3, fp, lsl #18
     a50:	000f0600 	andeq	r0, pc, r0, lsl #12
     a54:	13490b0b 	movtne	r0, #39691	; 0x9b0b
     a58:	13070000 	movwne	r0, #28672	; 0x7000
     a5c:	3c0e0300 	stccc	3, cr0, [lr], {-0}
     a60:	08000019 	stmdaeq	r0, {r0, r3, r4}
     a64:	0e030016 	mcreq	0, 0, r0, cr3, cr6, {0}
     a68:	053b0b3a 	ldreq	r0, [fp, #-2874]!	; 0xfffff4c6
     a6c:	13490b39 	movtne	r0, #39737	; 0x9b39
     a70:	17090000 	strne	r0, [r9, -r0]
     a74:	3a0b0b01 	bcc	2c3680 <__bss_end__+0x2b92d8>
     a78:	390b3b0b 	stmdbcc	fp, {r0, r1, r3, r8, r9, fp, ip, sp}
     a7c:	0013010b 	andseq	r0, r3, fp, lsl #2
     a80:	000d0a00 	andeq	r0, sp, r0, lsl #20
     a84:	0b3a0e03 	bleq	e84298 <__bss_end__+0xe79ef0>
     a88:	0b390b3b 	bleq	e4377c <__bss_end__+0xe393d4>
     a8c:	00001349 	andeq	r1, r0, r9, asr #6
     a90:	4901010b 	stmdbmi	r1, {r0, r1, r3, r8}
     a94:	00130113 	andseq	r0, r3, r3, lsl r1
     a98:	00210c00 	eoreq	r0, r1, r0, lsl #24
     a9c:	0b2f1349 	bleq	bc57c8 <__bss_end__+0xbbb420>
     aa0:	130d0000 	movwne	r0, #53248	; 0xd000
     aa4:	3a0b0b01 	bcc	2c36b0 <__bss_end__+0x2b9308>
     aa8:	390b3b0b 	stmdbcc	fp, {r0, r1, r3, r8, r9, fp, ip, sp}
     aac:	0013010b 	andseq	r0, r3, fp, lsl #2
     ab0:	000d0e00 	andeq	r0, sp, r0, lsl #28
     ab4:	0b3a0e03 	bleq	e842c8 <__bss_end__+0xe79f20>
     ab8:	0b390b3b 	bleq	e437ac <__bss_end__+0xe39404>
     abc:	0b381349 	bleq	e057e8 <__bss_end__+0xdfb440>
     ac0:	260f0000 	strcs	r0, [pc], -r0
     ac4:	00134900 	andseq	r4, r3, r0, lsl #18
     ac8:	01131000 	tsteq	r3, r0
     acc:	0b0b0e03 	bleq	2c42e0 <__bss_end__+0x2b9f38>
     ad0:	0b3b0b3a 	bleq	ec37c0 <__bss_end__+0xeb9418>
     ad4:	13010b39 	movwne	r0, #6969	; 0x1b39
     ad8:	0d110000 	ldceq	0, cr0, [r1, #-0]
     adc:	3a080300 	bcc	2016e4 <__bss_end__+0x1f733c>
     ae0:	390b3b0b 	stmdbcc	fp, {r0, r1, r3, r8, r9, fp, ip, sp}
     ae4:	3813490b 	ldmdacc	r3, {r0, r1, r3, r8, fp, lr}
     ae8:	1200000b 	andne	r0, r0, #11, 0
     aec:	0e030113 	mcreq	1, 0, r0, cr3, cr3, {0}
     af0:	0b3a050b 	bleq	e81f24 <__bss_end__+0xe77b7c>
     af4:	0b390b3b 	bleq	e437e8 <__bss_end__+0xe39440>
     af8:	00001301 	andeq	r1, r0, r1, lsl #6
     afc:	03000d13 	movweq	r0, #3347	; 0xd13
     b00:	3b0b3a0e 	blcc	2cf340 <__bss_end__+0x2c4f98>
     b04:	490b390b 	stmdbmi	fp, {r0, r1, r3, r8, fp, ip, sp}
     b08:	00053813 	andeq	r3, r5, r3, lsl r8
     b0c:	00151400 	andseq	r1, r5, r0, lsl #8
     b10:	00001927 	andeq	r1, r0, r7, lsr #18
     b14:	27011515 	smladcs	r1, r5, r5, r1
     b18:	01134919 	tsteq	r3, r9, lsl r9
     b1c:	16000013 			; <UNDEFINED> instruction: 0x16000013
     b20:	13490005 	movtne	r0, #36869	; 0x9005
     b24:	13170000 	tstne	r7, #0, 0
     b28:	0b0e0301 	bleq	381734 <__bss_end__+0x37738c>
     b2c:	3b0b3a05 	blcc	2cf348 <__bss_end__+0x2c4fa0>
     b30:	010b3905 	tsteq	fp, r5, lsl #18
     b34:	18000013 	stmdane	r0, {r0, r1, r4}
     b38:	0e03000d 	cdpeq	0, 0, cr0, cr3, cr13, {0}
     b3c:	053b0b3a 	ldreq	r0, [fp, #-2874]!	; 0xfffff4c6
     b40:	13490b39 	movtne	r0, #39737	; 0x9b39
     b44:	00000b38 	andeq	r0, r0, r8, lsr fp
     b48:	03000d19 	movweq	r0, #3353	; 0xd19
     b4c:	3b0b3a0e 	blcc	2cf38c <__bss_end__+0x2c4fe4>
     b50:	490b3905 	stmdbmi	fp, {r0, r2, r8, fp, ip, sp}
     b54:	00053813 	andeq	r3, r5, r3, lsl r8
     b58:	01131a00 	tsteq	r3, r0, lsl #20
     b5c:	0b0b0e03 	bleq	2c4370 <__bss_end__+0x2b9fc8>
     b60:	053b0b3a 	ldreq	r0, [fp, #-2874]!	; 0xfffff4c6
     b64:	13010b39 	movwne	r0, #6969	; 0x1b39
     b68:	131b0000 	tstne	fp, #0, 0
     b6c:	3a0b0b01 	bcc	2c3778 <__bss_end__+0x2b93d0>
     b70:	39053b0b 	stmdbcc	r5, {r0, r1, r3, r8, r9, fp, ip, sp}
     b74:	0013010b 	andseq	r0, r3, fp, lsl #2
     b78:	01171c00 	tsteq	r7, r0, lsl #24
     b7c:	0b3a0b0b 	bleq	e837b0 <__bss_end__+0xe79408>
     b80:	0b39053b 	bleq	e42074 <__bss_end__+0xe37ccc>
     b84:	00001301 	andeq	r1, r0, r1, lsl #6
     b88:	03000d1d 	movweq	r0, #3357	; 0xd1d
     b8c:	3b0b3a0e 	blcc	2cf3cc <__bss_end__+0x2c5024>
     b90:	490b3905 	stmdbmi	fp, {r0, r2, r8, fp, ip, sp}
     b94:	1e000013 	mcrne	0, 0, r0, cr0, cr3, {0}
     b98:	19270115 	stmdbne	r7!, {r0, r2, r4, r8}
     b9c:	00001301 	andeq	r1, r0, r1, lsl #6
     ba0:	0300341f 	movweq	r3, #1055	; 0x41f
     ba4:	3b0b3a0e 	blcc	2cf3e4 <__bss_end__+0x2c503c>
     ba8:	490b3905 	stmdbmi	fp, {r0, r2, r8, fp, ip, sp}
     bac:	3c193f13 	ldccc	15, cr3, [r9], {19}
     bb0:	20000019 	andcs	r0, r0, r9, lsl r0
     bb4:	0e030034 	mcreq	0, 0, r0, cr3, cr4, {1}
     bb8:	0b3b0b3a 	bleq	ec38a8 <__bss_end__+0xeb9500>
     bbc:	13490b39 	movtne	r0, #39737	; 0x9b39
     bc0:	193c193f 	ldmdbne	ip!, {r0, r1, r2, r3, r4, r5, r8, fp, ip}
     bc4:	34210000 	strtcc	r0, [r1], #-0
     bc8:	3a134700 	bcc	4d27d0 <__bss_end__+0x4c8428>
     bcc:	390b3b0b 	stmdbcc	fp, {r0, r1, r3, r8, r9, fp, ip, sp}
     bd0:	0018020b 	andseq	r0, r8, fp, lsl #4
     bd4:	012e2200 			; <UNDEFINED> instruction: 0x012e2200
     bd8:	0e03193f 			; <UNDEFINED> instruction: 0x0e03193f
     bdc:	0b3b0b3a 	bleq	ec38cc <__bss_end__+0xeb9524>
     be0:	19270b39 	stmdbne	r7!, {r0, r3, r4, r5, r8, r9, fp}
     be4:	01111349 	tsteq	r1, r9, asr #6
     be8:	18400612 	stmdane	r0, {r1, r4, r9, sl}^
     bec:	01194297 			; <UNDEFINED> instruction: 0x01194297
     bf0:	23000013 	movwcs	r0, #19
     bf4:	0e030005 	cdpeq	0, 0, cr0, cr3, cr5, {0}
     bf8:	0b3b0b3a 	bleq	ec38e8 <__bss_end__+0xeb9540>
     bfc:	13490b39 	movtne	r0, #39737	; 0x9b39
     c00:	42b71702 	adcsmi	r1, r7, #524288	; 0x80000
     c04:	24000017 	strcs	r0, [r0], #-23	; 0xffffffe9
     c08:	08030034 	stmdaeq	r3, {r2, r4, r5}
     c0c:	0b3b0b3a 	bleq	ec38fc <__bss_end__+0xeb9554>
     c10:	13490b39 	movtne	r0, #39737	; 0x9b39
     c14:	42b71702 	adcsmi	r1, r7, #524288	; 0x80000
     c18:	25000017 	strcs	r0, [r0, #-23]	; 0xffffffe9
     c1c:	0e03012e 	adfeqsp	f0, f3, #0.5
     c20:	0b3b0b3a 	bleq	ec3910 <__bss_end__+0xeb9568>
     c24:	19270b39 	stmdbne	r7!, {r0, r3, r4, r5, r8, r9, fp}
     c28:	01111349 	tsteq	r1, r9, asr #6
     c2c:	18400612 	stmdane	r0, {r1, r4, r9, sl}^
     c30:	01194297 			; <UNDEFINED> instruction: 0x01194297
     c34:	26000013 			; <UNDEFINED> instruction: 0x26000013
     c38:	08030005 	stmdaeq	r3, {r0, r2}
     c3c:	0b3b0b3a 	bleq	ec392c <__bss_end__+0xeb9584>
     c40:	13490b39 	movtne	r0, #39737	; 0x9b39
     c44:	42b71702 	adcsmi	r1, r7, #524288	; 0x80000
     c48:	27000017 	smladcs	r0, r7, r0, r0
     c4c:	01018289 	smlabbeq	r1, r9, r2, r8
     c50:	13310111 	teqne	r1, #1073741828	; 0x40000004
     c54:	8a280000 	bhi	a00c5c <__bss_end__+0x9f68b4>
     c58:	02000182 	andeq	r0, r0, #-2147483616	; 0x80000020
     c5c:	18429118 	stmdane	r2, {r3, r4, r8, ip, pc}^
     c60:	2e290000 	cdpcs	0, 2, cr0, cr9, cr0, {0}
     c64:	3c193f00 	ldccc	15, cr3, [r9], {-0}
     c68:	030e6e19 	movweq	r6, #60953	; 0xee19
     c6c:	3b0b3a0e 	blcc	2cf4ac <__bss_end__+0x2c5104>
     c70:	000b390b 	andeq	r3, fp, fp, lsl #18
     c74:	11010000 	mrsne	r0, (UNDEF: 1)
     c78:	130e2501 	movwne	r2, #58625	; 0xe501
     c7c:	1b0e030b 	blne	3818b0 <__bss_end__+0x377508>
     c80:	1201110e 	andne	r1, r1, #-2147483645	; 0x80000003
     c84:	00171006 	andseq	r1, r7, r6
     c88:	00240200 	eoreq	r0, r4, r0, lsl #4
     c8c:	0b3e0b0b 	bleq	f838c0 <__bss_end__+0xf79518>
     c90:	00000803 	andeq	r0, r0, r3, lsl #16
     c94:	0b002403 	bleq	9ca8 <gpio_set_output+0x4>
     c98:	030b3e0b 	movweq	r3, #48651	; 0xbe0b
     c9c:	0400000e 	streq	r0, [r0], #-14
     ca0:	0b0b000f 	bleq	2c0ce4 <__bss_end__+0x2b693c>
     ca4:	16050000 	strne	r0, [r5], -r0
     ca8:	3a0e0300 	bcc	3818b0 <__bss_end__+0x377508>
     cac:	390b3b0b 	stmdbcc	fp, {r0, r1, r3, r8, r9, fp, ip, sp}
     cb0:	0013490b 	andseq	r4, r3, fp, lsl #18
     cb4:	000f0600 	andeq	r0, pc, r0, lsl #12
     cb8:	13490b0b 	movtne	r0, #39691	; 0x9b0b
     cbc:	13070000 	movwne	r0, #28672	; 0x7000
     cc0:	3c0e0300 	stccc	3, cr0, [lr], {-0}
     cc4:	08000019 	stmdaeq	r0, {r0, r3, r4}
     cc8:	0e030016 	mcreq	0, 0, r0, cr3, cr6, {0}
     ccc:	053b0b3a 	ldreq	r0, [fp, #-2874]!	; 0xfffff4c6
     cd0:	13490b39 	movtne	r0, #39737	; 0x9b39
     cd4:	17090000 	strne	r0, [r9, -r0]
     cd8:	3a0b0b01 	bcc	2c38e4 <__bss_end__+0x2b953c>
     cdc:	390b3b0b 	stmdbcc	fp, {r0, r1, r3, r8, r9, fp, ip, sp}
     ce0:	0013010b 	andseq	r0, r3, fp, lsl #2
     ce4:	000d0a00 	andeq	r0, sp, r0, lsl #20
     ce8:	0b3a0e03 	bleq	e844fc <__bss_end__+0xe7a154>
     cec:	0b390b3b 	bleq	e439e0 <__bss_end__+0xe39638>
     cf0:	00001349 	andeq	r1, r0, r9, asr #6
     cf4:	4901010b 	stmdbmi	r1, {r0, r1, r3, r8}
     cf8:	00130113 	andseq	r0, r3, r3, lsl r1
     cfc:	00210c00 	eoreq	r0, r1, r0, lsl #24
     d00:	0b2f1349 	bleq	bc5a2c <__bss_end__+0xbbb684>
     d04:	130d0000 	movwne	r0, #53248	; 0xd000
     d08:	3a0b0b01 	bcc	2c3914 <__bss_end__+0x2b956c>
     d0c:	390b3b0b 	stmdbcc	fp, {r0, r1, r3, r8, r9, fp, ip, sp}
     d10:	0013010b 	andseq	r0, r3, fp, lsl #2
     d14:	000d0e00 	andeq	r0, sp, r0, lsl #28
     d18:	0b3a0e03 	bleq	e8452c <__bss_end__+0xe7a184>
     d1c:	0b390b3b 	bleq	e43a10 <__bss_end__+0xe39668>
     d20:	0b381349 	bleq	e05a4c <__bss_end__+0xdfb6a4>
     d24:	260f0000 	strcs	r0, [pc], -r0
     d28:	00134900 	andseq	r4, r3, r0, lsl #18
     d2c:	01131000 	tsteq	r3, r0
     d30:	0b0b0e03 	bleq	2c4544 <__bss_end__+0x2ba19c>
     d34:	0b3b0b3a 	bleq	ec3a24 <__bss_end__+0xeb967c>
     d38:	13010b39 	movwne	r0, #6969	; 0x1b39
     d3c:	0d110000 	ldceq	0, cr0, [r1, #-0]
     d40:	3a080300 	bcc	201948 <__bss_end__+0x1f75a0>
     d44:	390b3b0b 	stmdbcc	fp, {r0, r1, r3, r8, r9, fp, ip, sp}
     d48:	3813490b 	ldmdacc	r3, {r0, r1, r3, r8, fp, lr}
     d4c:	1200000b 	andne	r0, r0, #11, 0
     d50:	0e030113 	mcreq	1, 0, r0, cr3, cr3, {0}
     d54:	0b3a050b 	bleq	e82188 <__bss_end__+0xe77de0>
     d58:	0b390b3b 	bleq	e43a4c <__bss_end__+0xe396a4>
     d5c:	00001301 	andeq	r1, r0, r1, lsl #6
     d60:	03000d13 	movweq	r0, #3347	; 0xd13
     d64:	3b0b3a0e 	blcc	2cf5a4 <__bss_end__+0x2c51fc>
     d68:	490b390b 	stmdbmi	fp, {r0, r1, r3, r8, fp, ip, sp}
     d6c:	00053813 	andeq	r3, r5, r3, lsl r8
     d70:	00151400 	andseq	r1, r5, r0, lsl #8
     d74:	00001927 	andeq	r1, r0, r7, lsr #18
     d78:	27011515 	smladcs	r1, r5, r5, r1
     d7c:	01134919 	tsteq	r3, r9, lsl r9
     d80:	16000013 			; <UNDEFINED> instruction: 0x16000013
     d84:	13490005 	movtne	r0, #36869	; 0x9005
     d88:	13170000 	tstne	r7, #0, 0
     d8c:	0b0e0301 	bleq	381998 <__bss_end__+0x3775f0>
     d90:	3b0b3a05 	blcc	2cf5ac <__bss_end__+0x2c5204>
     d94:	010b3905 	tsteq	fp, r5, lsl #18
     d98:	18000013 	stmdane	r0, {r0, r1, r4}
     d9c:	0e03000d 	cdpeq	0, 0, cr0, cr3, cr13, {0}
     da0:	053b0b3a 	ldreq	r0, [fp, #-2874]!	; 0xfffff4c6
     da4:	13490b39 	movtne	r0, #39737	; 0x9b39
     da8:	00000b38 	andeq	r0, r0, r8, lsr fp
     dac:	03000d19 	movweq	r0, #3353	; 0xd19
     db0:	3b0b3a0e 	blcc	2cf5f0 <__bss_end__+0x2c5248>
     db4:	490b3905 	stmdbmi	fp, {r0, r2, r8, fp, ip, sp}
     db8:	00053813 	andeq	r3, r5, r3, lsl r8
     dbc:	01131a00 	tsteq	r3, r0, lsl #20
     dc0:	0b0b0e03 	bleq	2c45d4 <__bss_end__+0x2ba22c>
     dc4:	053b0b3a 	ldreq	r0, [fp, #-2874]!	; 0xfffff4c6
     dc8:	13010b39 	movwne	r0, #6969	; 0x1b39
     dcc:	131b0000 	tstne	fp, #0, 0
     dd0:	3a0b0b01 	bcc	2c39dc <__bss_end__+0x2b9634>
     dd4:	39053b0b 	stmdbcc	r5, {r0, r1, r3, r8, r9, fp, ip, sp}
     dd8:	0013010b 	andseq	r0, r3, fp, lsl #2
     ddc:	01171c00 	tsteq	r7, r0, lsl #24
     de0:	0b3a0b0b 	bleq	e83a14 <__bss_end__+0xe7966c>
     de4:	0b39053b 	bleq	e422d8 <__bss_end__+0xe37f30>
     de8:	00001301 	andeq	r1, r0, r1, lsl #6
     dec:	03000d1d 	movweq	r0, #3357	; 0xd1d
     df0:	3b0b3a0e 	blcc	2cf630 <__bss_end__+0x2c5288>
     df4:	490b3905 	stmdbmi	fp, {r0, r2, r8, fp, ip, sp}
     df8:	1e000013 	mcrne	0, 0, r0, cr0, cr3, {0}
     dfc:	19270115 	stmdbne	r7!, {r0, r2, r4, r8}
     e00:	00001301 	andeq	r1, r0, r1, lsl #6
     e04:	0300341f 	movweq	r3, #1055	; 0x41f
     e08:	3b0b3a0e 	blcc	2cf648 <__bss_end__+0x2c52a0>
     e0c:	490b3905 	stmdbmi	fp, {r0, r2, r8, fp, ip, sp}
     e10:	3c193f13 	ldccc	15, cr3, [r9], {19}
     e14:	20000019 	andcs	r0, r0, r9, lsl r0
     e18:	0e030034 	mcreq	0, 0, r0, cr3, cr4, {1}
     e1c:	0b3b0b3a 	bleq	ec3b0c <__bss_end__+0xeb9764>
     e20:	13490b39 	movtne	r0, #39737	; 0x9b39
     e24:	193c193f 	ldmdbne	ip!, {r0, r1, r2, r3, r4, r5, r8, fp, ip}
     e28:	2e210000 	cdpcs	0, 2, cr0, cr1, cr0, {0}
     e2c:	03193f01 	tsteq	r9, #1, 30
     e30:	3b0b3a0e 	blcc	2cf670 <__bss_end__+0x2c52c8>
     e34:	270b390b 	strcs	r3, [fp, -fp, lsl #18]
     e38:	19018719 	stmdbne	r1, {r0, r3, r4, r8, r9, sl, pc}
     e3c:	06120111 			; <UNDEFINED> instruction: 0x06120111
     e40:	42971840 	addsmi	r1, r7, #64, 16	; 0x400000
     e44:	00130119 	andseq	r0, r3, r9, lsl r1
     e48:	82892200 	addhi	r2, r9, #0, 4
     e4c:	01110101 	tsteq	r1, r1, lsl #2
     e50:	13011331 	movwne	r1, #4913	; 0x1331
     e54:	8a230000 	bhi	8c0e5c <__bss_end__+0x8b6ab4>
     e58:	02000182 	andeq	r0, r0, #-2147483616	; 0x80000020
     e5c:	18429118 	stmdane	r2, {r3, r4, r8, ip, pc}^
     e60:	89240000 	stmdbhi	r4!, {}	; <UNPREDICTABLE>
     e64:	11000182 	smlabbne	r0, r2, r1, r0
     e68:	00133101 	andseq	r3, r3, r1, lsl #2
     e6c:	002e2500 	eoreq	r2, lr, r0, lsl #10
     e70:	193c193f 	ldmdbne	ip!, {r0, r1, r2, r3, r4, r5, r8, fp, ip}
     e74:	0e030e6e 	cdpeq	14, 0, cr0, cr3, cr14, {3}
     e78:	0b3b0b3a 	bleq	ec3b68 <__bss_end__+0xeb97c0>
     e7c:	00000b39 	andeq	r0, r0, r9, lsr fp
     e80:	01110100 	tsteq	r1, r0, lsl #2
     e84:	0b130e25 	bleq	4c4720 <__bss_end__+0x4ba378>
     e88:	0e1b0e03 	cdpeq	14, 1, cr0, cr11, cr3, {0}
     e8c:	06120111 			; <UNDEFINED> instruction: 0x06120111
     e90:	00001710 	andeq	r1, r0, r0, lsl r7
     e94:	0b002402 	bleq	9ea4 <__FUNCTION__.4462+0x4>
     e98:	030b3e0b 	movweq	r3, #48651	; 0xbe0b
     e9c:	03000008 	movweq	r0, #8
     ea0:	0b0b0024 	bleq	2c0f38 <__bss_end__+0x2b6b90>
     ea4:	0e030b3e 	vmoveq.16	d3[0], r0
     ea8:	16040000 	strne	r0, [r4], -r0
     eac:	3a0e0300 	bcc	381ab4 <__bss_end__+0x37770c>
     eb0:	390b3b0b 	stmdbcc	fp, {r0, r1, r3, r8, r9, fp, ip, sp}
     eb4:	0013490b 	andseq	r4, r3, fp, lsl #18
     eb8:	000f0500 	andeq	r0, pc, r0, lsl #10
     ebc:	00000b0b 	andeq	r0, r0, fp, lsl #22
     ec0:	0b000f06 	bleq	4ae0 <__code_start__-0x3520>
     ec4:	0013490b 	andseq	r4, r3, fp, lsl #18
     ec8:	00130700 	andseq	r0, r3, r0, lsl #14
     ecc:	193c0e03 	ldmdbne	ip!, {r0, r1, r9, sl, fp}
     ed0:	16080000 	strne	r0, [r8], -r0
     ed4:	3a0e0300 	bcc	381adc <__bss_end__+0x377734>
     ed8:	39053b0b 	stmdbcc	r5, {r0, r1, r3, r8, r9, fp, ip, sp}
     edc:	0013490b 	andseq	r4, r3, fp, lsl #18
     ee0:	01170900 	tsteq	r7, r0, lsl #18
     ee4:	0b3a0b0b 	bleq	e83b18 <__bss_end__+0xe79770>
     ee8:	0b390b3b 	bleq	e43bdc <__bss_end__+0xe39834>
     eec:	00001301 	andeq	r1, r0, r1, lsl #6
     ef0:	03000d0a 	movweq	r0, #3338	; 0xd0a
     ef4:	3b0b3a0e 	blcc	2cf734 <__bss_end__+0x2c538c>
     ef8:	490b390b 	stmdbmi	fp, {r0, r1, r3, r8, fp, ip, sp}
     efc:	0b000013 	bleq	f50 <__code_start__-0x70b0>
     f00:	13490101 	movtne	r0, #37121	; 0x9101
     f04:	00001301 	andeq	r1, r0, r1, lsl #6
     f08:	4900210c 	stmdbmi	r0, {r2, r3, r8, sp}
     f0c:	000b2f13 	andeq	r2, fp, r3, lsl pc
     f10:	01130d00 	tsteq	r3, r0, lsl #26
     f14:	0b3a0b0b 	bleq	e83b48 <__bss_end__+0xe797a0>
     f18:	0b390b3b 	bleq	e43c0c <__bss_end__+0xe39864>
     f1c:	00001301 	andeq	r1, r0, r1, lsl #6
     f20:	03000d0e 	movweq	r0, #3342	; 0xd0e
     f24:	3b0b3a0e 	blcc	2cf764 <__bss_end__+0x2c53bc>
     f28:	490b390b 	stmdbmi	fp, {r0, r1, r3, r8, fp, ip, sp}
     f2c:	000b3813 	andeq	r3, fp, r3, lsl r8
     f30:	00260f00 	eoreq	r0, r6, r0, lsl #30
     f34:	00001349 	andeq	r1, r0, r9, asr #6
     f38:	03011310 	movweq	r1, #4880	; 0x1310
     f3c:	3a0b0b0e 	bcc	2c3b7c <__bss_end__+0x2b97d4>
     f40:	390b3b0b 	stmdbcc	fp, {r0, r1, r3, r8, r9, fp, ip, sp}
     f44:	0013010b 	andseq	r0, r3, fp, lsl #2
     f48:	000d1100 	andeq	r1, sp, r0, lsl #2
     f4c:	0b3a0803 	bleq	e82f60 <__bss_end__+0xe78bb8>
     f50:	0b390b3b 	bleq	e43c44 <__bss_end__+0xe3989c>
     f54:	0b381349 	bleq	e05c80 <__bss_end__+0xdfb8d8>
     f58:	13120000 	tstne	r2, #0, 0
     f5c:	0b0e0301 	bleq	381b68 <__bss_end__+0x3777c0>
     f60:	3b0b3a05 	blcc	2cf77c <__bss_end__+0x2c53d4>
     f64:	010b390b 	tsteq	fp, fp, lsl #18
     f68:	13000013 	movwne	r0, #19
     f6c:	0e03000d 	cdpeq	0, 0, cr0, cr3, cr13, {0}
     f70:	0b3b0b3a 	bleq	ec3c60 <__bss_end__+0xeb98b8>
     f74:	13490b39 	movtne	r0, #39737	; 0x9b39
     f78:	00000538 	andeq	r0, r0, r8, lsr r5
     f7c:	27001514 	smladcs	r0, r4, r5, r1
     f80:	15000019 	strne	r0, [r0, #-25]	; 0xffffffe7
     f84:	19270115 	stmdbne	r7!, {r0, r2, r4, r8}
     f88:	13011349 	movwne	r1, #4937	; 0x1349
     f8c:	05160000 	ldreq	r0, [r6, #-0]
     f90:	00134900 	andseq	r4, r3, r0, lsl #18
     f94:	01131700 	tsteq	r3, r0, lsl #14
     f98:	050b0e03 	streq	r0, [fp, #-3587]	; 0xfffff1fd
     f9c:	053b0b3a 	ldreq	r0, [fp, #-2874]!	; 0xfffff4c6
     fa0:	13010b39 	movwne	r0, #6969	; 0x1b39
     fa4:	0d180000 	ldceq	0, cr0, [r8, #-0]
     fa8:	3a0e0300 	bcc	381bb0 <__bss_end__+0x377808>
     fac:	39053b0b 	stmdbcc	r5, {r0, r1, r3, r8, r9, fp, ip, sp}
     fb0:	3813490b 	ldmdacc	r3, {r0, r1, r3, r8, fp, lr}
     fb4:	1900000b 	stmdbne	r0, {r0, r1, r3}
     fb8:	0e03000d 	cdpeq	0, 0, cr0, cr3, cr13, {0}
     fbc:	053b0b3a 	ldreq	r0, [fp, #-2874]!	; 0xfffff4c6
     fc0:	13490b39 	movtne	r0, #39737	; 0x9b39
     fc4:	00000538 	andeq	r0, r0, r8, lsr r5
     fc8:	0301131a 	movweq	r1, #4890	; 0x131a
     fcc:	3a0b0b0e 	bcc	2c3c0c <__bss_end__+0x2b9864>
     fd0:	39053b0b 	stmdbcc	r5, {r0, r1, r3, r8, r9, fp, ip, sp}
     fd4:	0013010b 	andseq	r0, r3, fp, lsl #2
     fd8:	01131b00 	tsteq	r3, r0, lsl #22
     fdc:	0b3a0b0b 	bleq	e83c10 <__bss_end__+0xe79868>
     fe0:	0b39053b 	bleq	e424d4 <__bss_end__+0xe3812c>
     fe4:	00001301 	andeq	r1, r0, r1, lsl #6
     fe8:	0b01171c 	bleq	46c60 <__bss_end__+0x3c8b8>
     fec:	3b0b3a0b 	blcc	2cf820 <__bss_end__+0x2c5478>
     ff0:	010b3905 	tsteq	fp, r5, lsl #18
     ff4:	1d000013 	stcne	0, cr0, [r0, #-76]	; 0xffffffb4
     ff8:	0e03000d 	cdpeq	0, 0, cr0, cr3, cr13, {0}
     ffc:	053b0b3a 	ldreq	r0, [fp, #-2874]!	; 0xfffff4c6
    1000:	13490b39 	movtne	r0, #39737	; 0x9b39
    1004:	151e0000 	ldrne	r0, [lr, #-0]
    1008:	01192701 	tsteq	r9, r1, lsl #14
    100c:	1f000013 	svcne	0x00000013
    1010:	0e030034 	mcreq	0, 0, r0, cr3, cr4, {1}
    1014:	053b0b3a 	ldreq	r0, [fp, #-2874]!	; 0xfffff4c6
    1018:	13490b39 	movtne	r0, #39737	; 0x9b39
    101c:	193c193f 	ldmdbne	ip!, {r0, r1, r2, r3, r4, r5, r8, fp, ip}
    1020:	34200000 	strtcc	r0, [r0], #-0
    1024:	3a0e0300 	bcc	381c2c <__bss_end__+0x377884>
    1028:	390b3b0b 	stmdbcc	fp, {r0, r1, r3, r8, r9, fp, ip, sp}
    102c:	3f13490b 	svccc	0x0013490b
    1030:	00193c19 	andseq	r3, r9, r9, lsl ip
    1034:	00212100 	eoreq	r2, r1, r0, lsl #2
    1038:	2e220000 	cdpcs	0, 2, cr0, cr2, cr0, {0}
    103c:	03193f01 	tsteq	r9, #1, 30
    1040:	3b0b3a0e 	blcc	2cf880 <__bss_end__+0x2c54d8>
    1044:	110b390b 	tstne	fp, fp, lsl #18
    1048:	40061201 	andmi	r1, r6, r1, lsl #4
    104c:	19429718 	stmdbne	r2, {r3, r4, r8, r9, sl, ip, pc}^
    1050:	00001301 	andeq	r1, r0, r1, lsl #6
    1054:	3f002e23 	svccc	0x00002e23
    1058:	3a0e0319 	bcc	381cc4 <__bss_end__+0x37791c>
    105c:	390b3b0b 	stmdbcc	fp, {r0, r1, r3, r8, r9, fp, ip, sp}
    1060:	3c19270b 	ldccc	7, cr2, [r9], {11}
    1064:	24000019 	strcs	r0, [r0], #-25	; 0xffffffe7
    1068:	08030034 	stmdaeq	r3, {r2, r4, r5}
    106c:	0b3b0b3a 	bleq	ec3d5c <__bss_end__+0xeb99b4>
    1070:	13490b39 	movtne	r0, #39737	; 0x9b39
    1074:	42b71702 	adcsmi	r1, r7, #524288	; 0x80000
    1078:	25000017 	strcs	r0, [r0, #-23]	; 0xffffffe9
    107c:	0e030034 	mcreq	0, 0, r0, cr3, cr4, {1}
    1080:	0b3b0b3a 	bleq	ec3d70 <__bss_end__+0xeb99c8>
    1084:	13490b39 	movtne	r0, #39737	; 0x9b39
    1088:	1d260000 	stcne	0, cr0, [r6, #-0]
    108c:	52133101 	andspl	r3, r3, #1073741824	; 0x40000000
    1090:	0b42b801 	bleq	10af09c <__bss_end__+0x10a4cf4>
    1094:	06120111 			; <UNDEFINED> instruction: 0x06120111
    1098:	0b590b58 	bleq	1643e00 <__bss_end__+0x1639a58>
    109c:	13010b57 	movwne	r0, #6999	; 0x1b57
    10a0:	34270000 	strtcc	r0, [r7], #-0
    10a4:	1c133100 	ldfnes	f3, [r3], {-0}
    10a8:	2800000b 	stmdacs	r0, {r0, r1, r3}
    10ac:	00018289 	andeq	r8, r1, r9, lsl #5
    10b0:	13310111 	teqne	r1, #1073741828	; 0x40000004
    10b4:	2e290000 	cdpcs	0, 2, cr0, cr9, cr0, {0}
    10b8:	03193f00 	tsteq	r9, #0, 30
    10bc:	3b0b3a0e 	blcc	2cf8fc <__bss_end__+0x2c5554>
    10c0:	270b390b 	strcs	r3, [fp, -fp, lsl #18]
    10c4:	11134919 	tstne	r3, r9, lsl r9
    10c8:	40061201 	andmi	r1, r6, r1, lsl #4
    10cc:	19429718 	stmdbne	r2, {r3, r4, r8, r9, sl, ip, pc}^
    10d0:	2e2a0000 	cdpcs	0, 2, cr0, cr10, cr0, {0}
    10d4:	3a0e0301 	bcc	381ce0 <__bss_end__+0x377938>
    10d8:	390b3b0b 	stmdbcc	fp, {r0, r1, r3, r8, r9, fp, ip, sp}
    10dc:	2019270b 	andscs	r2, r9, fp, lsl #14
    10e0:	0013010b 	andseq	r0, r3, fp, lsl #2
    10e4:	00342b00 	eorseq	r2, r4, r0, lsl #22
    10e8:	0b3a0803 	bleq	e830fc <__bss_end__+0xe78d54>
    10ec:	0b390b3b 	bleq	e43de0 <__bss_end__+0xe39a38>
    10f0:	00001349 	andeq	r1, r0, r9, asr #6
    10f4:	3f002e2c 	svccc	0x00002e2c
    10f8:	6e193c19 	mrcvs	12, 0, r3, cr9, cr9, {0}
    10fc:	3a0e030e 	bcc	381d3c <__bss_end__+0x377994>
    1100:	390b3b0b 	stmdbcc	fp, {r0, r1, r3, r8, r9, fp, ip, sp}
    1104:	0000000b 	andeq	r0, r0, fp
    1108:	25011101 	strcs	r1, [r1, #-257]	; 0xfffffeff
    110c:	030b130e 	movweq	r1, #45838	; 0xb30e
    1110:	110e1b0e 	tstne	lr, lr, lsl #22
    1114:	10061201 	andne	r1, r6, r1, lsl #4
    1118:	02000017 	andeq	r0, r0, #23, 0
    111c:	0b0b0024 	bleq	2c11b4 <__bss_end__+0x2b6e0c>
    1120:	08030b3e 	stmdaeq	r3, {r1, r2, r3, r4, r5, r8, r9, fp}
    1124:	26030000 	strcs	r0, [r3], -r0
    1128:	00134900 	andseq	r4, r3, r0, lsl #18
    112c:	00240400 	eoreq	r0, r4, r0, lsl #8
    1130:	0b3e0b0b 	bleq	f83d64 <__bss_end__+0xf799bc>
    1134:	00000e03 	andeq	r0, r0, r3, lsl #28
    1138:	0b000f05 	bleq	4d54 <__code_start__-0x32ac>
    113c:	0600000b 	streq	r0, [r0], -fp
    1140:	0e030016 	mcreq	0, 0, r0, cr3, cr6, {0}
    1144:	0b3b0b3a 	bleq	ec3e34 <__bss_end__+0xeb9a8c>
    1148:	13490b39 	movtne	r0, #39737	; 0x9b39
    114c:	0f070000 	svceq	0x00070000
    1150:	490b0b00 	stmdbmi	fp, {r8, r9, fp}
    1154:	08000013 	stmdaeq	r0, {r0, r1, r4}
    1158:	0e030013 	mcreq	0, 0, r0, cr3, cr3, {0}
    115c:	0000193c 	andeq	r1, r0, ip, lsr r9
    1160:	03001609 	movweq	r1, #1545	; 0x609
    1164:	3b0b3a0e 	blcc	2cf9a4 <__bss_end__+0x2c55fc>
    1168:	490b3905 	stmdbmi	fp, {r0, r2, r8, fp, ip, sp}
    116c:	0a000013 	beq	11c0 <__code_start__-0x6e40>
    1170:	0b0b0117 	bleq	2c15d4 <__bss_end__+0x2b722c>
    1174:	0b3b0b3a 	bleq	ec3e64 <__bss_end__+0xeb9abc>
    1178:	13010b39 	movwne	r0, #6969	; 0x1b39
    117c:	0d0b0000 	stceq	0, cr0, [fp, #-0]
    1180:	3a0e0300 	bcc	381d88 <__bss_end__+0x3779e0>
    1184:	390b3b0b 	stmdbcc	fp, {r0, r1, r3, r8, r9, fp, ip, sp}
    1188:	0013490b 	andseq	r4, r3, fp, lsl #18
    118c:	01010c00 	tsteq	r1, r0, lsl #24
    1190:	13011349 	movwne	r1, #4937	; 0x1349
    1194:	210d0000 	mrscs	r0, (UNDEF: 13)
    1198:	2f134900 	svccs	0x00134900
    119c:	0e00000b 	cdpeq	0, 0, cr0, cr0, cr11, {0}
    11a0:	0b0b0113 	bleq	2c15f4 <__bss_end__+0x2b724c>
    11a4:	0b3b0b3a 	bleq	ec3e94 <__bss_end__+0xeb9aec>
    11a8:	13010b39 	movwne	r0, #6969	; 0x1b39
    11ac:	0d0f0000 	stceq	0, cr0, [pc, #-0]	; 11b4 <__code_start__-0x6e4c>
    11b0:	3a0e0300 	bcc	381db8 <__bss_end__+0x377a10>
    11b4:	390b3b0b 	stmdbcc	fp, {r0, r1, r3, r8, r9, fp, ip, sp}
    11b8:	3813490b 	ldmdacc	r3, {r0, r1, r3, r8, fp, lr}
    11bc:	1000000b 	andne	r0, r0, fp
    11c0:	0e030113 	mcreq	1, 0, r0, cr3, cr3, {0}
    11c4:	0b3a0b0b 	bleq	e83df8 <__bss_end__+0xe79a50>
    11c8:	0b390b3b 	bleq	e43ebc <__bss_end__+0xe39b14>
    11cc:	00001301 	andeq	r1, r0, r1, lsl #6
    11d0:	03000d11 	movweq	r0, #3345	; 0xd11
    11d4:	3b0b3a08 	blcc	2cf9fc <__bss_end__+0x2c5654>
    11d8:	490b390b 	stmdbmi	fp, {r0, r1, r3, r8, fp, ip, sp}
    11dc:	000b3813 	andeq	r3, fp, r3, lsl r8
    11e0:	01131200 	tsteq	r3, r0, lsl #4
    11e4:	050b0e03 	streq	r0, [fp, #-3587]	; 0xfffff1fd
    11e8:	0b3b0b3a 	bleq	ec3ed8 <__bss_end__+0xeb9b30>
    11ec:	13010b39 	movwne	r0, #6969	; 0x1b39
    11f0:	0d130000 	ldceq	0, cr0, [r3, #-0]
    11f4:	3a0e0300 	bcc	381dfc <__bss_end__+0x377a54>
    11f8:	390b3b0b 	stmdbcc	fp, {r0, r1, r3, r8, r9, fp, ip, sp}
    11fc:	3813490b 	ldmdacc	r3, {r0, r1, r3, r8, fp, lr}
    1200:	14000005 	strne	r0, [r0], #-5
    1204:	19270015 	stmdbne	r7!, {r0, r2, r4}
    1208:	15150000 	ldrne	r0, [r5, #-0]
    120c:	49192701 	ldmdbmi	r9, {r0, r8, r9, sl, sp}
    1210:	00130113 	andseq	r0, r3, r3, lsl r1
    1214:	00051600 	andeq	r1, r5, r0, lsl #12
    1218:	00001349 	andeq	r1, r0, r9, asr #6
    121c:	03011317 	movweq	r1, #4887	; 0x1317
    1220:	3a050b0e 	bcc	143e60 <__bss_end__+0x139ab8>
    1224:	39053b0b 	stmdbcc	r5, {r0, r1, r3, r8, r9, fp, ip, sp}
    1228:	0013010b 	andseq	r0, r3, fp, lsl #2
    122c:	000d1800 	andeq	r1, sp, r0, lsl #16
    1230:	0b3a0e03 	bleq	e84a44 <__bss_end__+0xe7a69c>
    1234:	0b39053b 	bleq	e42728 <__bss_end__+0xe38380>
    1238:	0b381349 	bleq	e05f64 <__bss_end__+0xdfbbbc>
    123c:	0d190000 	ldceq	0, cr0, [r9, #-0]
    1240:	3a0e0300 	bcc	381e48 <__bss_end__+0x377aa0>
    1244:	39053b0b 	stmdbcc	r5, {r0, r1, r3, r8, r9, fp, ip, sp}
    1248:	3813490b 	ldmdacc	r3, {r0, r1, r3, r8, fp, lr}
    124c:	1a000005 	bne	1268 <__code_start__-0x6d98>
    1250:	0e030113 	mcreq	1, 0, r0, cr3, cr3, {0}
    1254:	0b3a0b0b 	bleq	e83e88 <__bss_end__+0xe79ae0>
    1258:	0b39053b 	bleq	e4274c <__bss_end__+0xe383a4>
    125c:	00001301 	andeq	r1, r0, r1, lsl #6
    1260:	0b01131b 	bleq	45ed4 <__bss_end__+0x3bb2c>
    1264:	3b0b3a0b 	blcc	2cfa98 <__bss_end__+0x2c56f0>
    1268:	010b3905 	tsteq	fp, r5, lsl #18
    126c:	1c000013 	stcne	0, cr0, [r0], {19}
    1270:	0b0b0117 	bleq	2c16d4 <__bss_end__+0x2b732c>
    1274:	053b0b3a 	ldreq	r0, [fp, #-2874]!	; 0xfffff4c6
    1278:	13010b39 	movwne	r0, #6969	; 0x1b39
    127c:	0d1d0000 	ldceq	0, cr0, [sp, #-0]
    1280:	3a0e0300 	bcc	381e88 <__bss_end__+0x377ae0>
    1284:	39053b0b 	stmdbcc	r5, {r0, r1, r3, r8, r9, fp, ip, sp}
    1288:	0013490b 	andseq	r4, r3, fp, lsl #18
    128c:	01151e00 	tsteq	r5, r0, lsl #28
    1290:	13011927 	movwne	r1, #6439	; 0x1927
    1294:	341f0000 	ldrcc	r0, [pc], #-0	; 129c <__code_start__-0x6d64>
    1298:	3a0e0300 	bcc	381ea0 <__bss_end__+0x377af8>
    129c:	39053b0b 	stmdbcc	r5, {r0, r1, r3, r8, r9, fp, ip, sp}
    12a0:	3f13490b 	svccc	0x0013490b
    12a4:	00193c19 	andseq	r3, r9, r9, lsl ip
    12a8:	00342000 	eorseq	r2, r4, r0
    12ac:	0b3a0e03 	bleq	e84ac0 <__bss_end__+0xe7a718>
    12b0:	0b390b3b 	bleq	e43fa4 <__bss_end__+0xe39bfc>
    12b4:	193f1349 	ldmdbne	pc!, {r0, r3, r6, r8, r9, ip}	; <UNPREDICTABLE>
    12b8:	0000193c 	andeq	r1, r0, ip, lsr r9
    12bc:	3f012e21 	svccc	0x00012e21
    12c0:	3a0e0319 	bcc	381f2c <__bss_end__+0x377b84>
    12c4:	390b3b0b 	stmdbcc	fp, {r0, r1, r3, r8, r9, fp, ip, sp}
    12c8:	8719270b 	ldrhi	r2, [r9, -fp, lsl #14]
    12cc:	01111901 	tsteq	r1, r1, lsl #18
    12d0:	18400612 	stmdane	r0, {r1, r4, r9, sl}^
    12d4:	01194297 			; <UNDEFINED> instruction: 0x01194297
    12d8:	22000013 	andcs	r0, r0, #19, 0
    12dc:	0e030034 	mcreq	0, 0, r0, cr3, cr4, {1}
    12e0:	0b3b0b3a 	bleq	ec3fd0 <__bss_end__+0xeb9c28>
    12e4:	13490b39 	movtne	r0, #39737	; 0x9b39
    12e8:	0000061c 	andeq	r0, r0, ip, lsl r6
    12ec:	03003423 	movweq	r3, #1059	; 0x423
    12f0:	3b0b3a0e 	blcc	2cfb30 <__bss_end__+0x2c5788>
    12f4:	490b390b 	stmdbmi	fp, {r0, r1, r3, r8, fp, ip, sp}
    12f8:	000b1c13 	andeq	r1, fp, r3, lsl ip
    12fc:	82892400 	addhi	r2, r9, #0, 8
    1300:	01110001 	tsteq	r1, r1
    1304:	00001331 	andeq	r1, r0, r1, lsr r3
    1308:	01828925 	orreq	r8, r2, r5, lsr #18
    130c:	31011101 	tstcc	r1, r1, lsl #2
    1310:	00130113 	andseq	r0, r3, r3, lsl r1
    1314:	828a2600 	addhi	r2, sl, #0, 12
    1318:	18020001 	stmdane	r2, {r0}
    131c:	00184291 	mulseq	r8, r1, r2
    1320:	82892700 	addhi	r2, r9, #0, 14
    1324:	01110101 	tsteq	r1, r1, lsl #2
    1328:	00001331 	andeq	r1, r0, r1, lsr r3
    132c:	3f002e28 	svccc	0x00002e28
    1330:	6e193c19 	mrcvs	12, 0, r3, cr9, cr9, {0}
    1334:	3a0e030e 	bcc	381f74 <__bss_end__+0x377bcc>
    1338:	390b3b0b 	stmdbcc	fp, {r0, r1, r3, r8, r9, fp, ip, sp}
    133c:	0000000b 	andeq	r0, r0, fp
    1340:	25011101 	strcs	r1, [r1, #-257]	; 0xfffffeff
    1344:	030b130e 	movweq	r1, #45838	; 0xb30e
    1348:	110e1b0e 	tstne	lr, lr, lsl #22
    134c:	10061201 	andne	r1, r6, r1, lsl #4
    1350:	02000017 	andeq	r0, r0, #23, 0
    1354:	0b0b0024 	bleq	2c13ec <__bss_end__+0x2b7044>
    1358:	08030b3e 	stmdaeq	r3, {r1, r2, r3, r4, r5, r8, r9, fp}
    135c:	24030000 	strcs	r0, [r3], #-0
    1360:	3e0b0b00 	vmlacc.f64	d0, d11, d0
    1364:	000e030b 	andeq	r0, lr, fp, lsl #6
    1368:	00160400 	andseq	r0, r6, r0, lsl #8
    136c:	0b3a0e03 	bleq	e84b80 <__bss_end__+0xe7a7d8>
    1370:	0b390b3b 	bleq	e44064 <__bss_end__+0xe39cbc>
    1374:	00001349 	andeq	r1, r0, r9, asr #6
    1378:	0b000f05 	bleq	4f94 <__code_start__-0x306c>
    137c:	0600000b 	streq	r0, [r0], -fp
    1380:	0b0b000f 	bleq	2c13c4 <__bss_end__+0x2b701c>
    1384:	00001349 	andeq	r1, r0, r9, asr #6
    1388:	03001307 	movweq	r1, #775	; 0x307
    138c:	00193c0e 	andseq	r3, r9, lr, lsl #24
    1390:	00160800 	andseq	r0, r6, r0, lsl #16
    1394:	0b3a0e03 	bleq	e84ba8 <__bss_end__+0xe7a800>
    1398:	0b39053b 	bleq	e4288c <__bss_end__+0xe384e4>
    139c:	00001349 	andeq	r1, r0, r9, asr #6
    13a0:	0b011709 	bleq	46fcc <__bss_end__+0x3cc24>
    13a4:	3b0b3a0b 	blcc	2cfbd8 <__bss_end__+0x2c5830>
    13a8:	010b390b 	tsteq	fp, fp, lsl #18
    13ac:	0a000013 	beq	1400 <__code_start__-0x6c00>
    13b0:	0e03000d 	cdpeq	0, 0, cr0, cr3, cr13, {0}
    13b4:	0b3b0b3a 	bleq	ec40a4 <__bss_end__+0xeb9cfc>
    13b8:	13490b39 	movtne	r0, #39737	; 0x9b39
    13bc:	010b0000 	mrseq	r0, (UNDEF: 11)
    13c0:	01134901 	tsteq	r3, r1, lsl #18
    13c4:	0c000013 	stceq	0, cr0, [r0], {19}
    13c8:	13490021 	movtne	r0, #36897	; 0x9021
    13cc:	00000b2f 	andeq	r0, r0, pc, lsr #22
    13d0:	0b01130d 	bleq	4600c <__bss_end__+0x3bc64>
    13d4:	3b0b3a0b 	blcc	2cfc08 <__bss_end__+0x2c5860>
    13d8:	010b390b 	tsteq	fp, fp, lsl #18
    13dc:	0e000013 	mcreq	0, 0, r0, cr0, cr3, {0}
    13e0:	0e03000d 	cdpeq	0, 0, cr0, cr3, cr13, {0}
    13e4:	0b3b0b3a 	bleq	ec40d4 <__bss_end__+0xeb9d2c>
    13e8:	13490b39 	movtne	r0, #39737	; 0x9b39
    13ec:	00000b38 	andeq	r0, r0, r8, lsr fp
    13f0:	4900260f 	stmdbmi	r0, {r0, r1, r2, r3, r9, sl, sp}
    13f4:	10000013 	andne	r0, r0, r3, lsl r0
    13f8:	0e030113 	mcreq	1, 0, r0, cr3, cr3, {0}
    13fc:	0b3a0b0b 	bleq	e84030 <__bss_end__+0xe79c88>
    1400:	0b390b3b 	bleq	e440f4 <__bss_end__+0xe39d4c>
    1404:	00001301 	andeq	r1, r0, r1, lsl #6
    1408:	03000d11 	movweq	r0, #3345	; 0xd11
    140c:	3b0b3a08 	blcc	2cfc34 <__bss_end__+0x2c588c>
    1410:	490b390b 	stmdbmi	fp, {r0, r1, r3, r8, fp, ip, sp}
    1414:	000b3813 	andeq	r3, fp, r3, lsl r8
    1418:	01131200 	tsteq	r3, r0, lsl #4
    141c:	050b0e03 	streq	r0, [fp, #-3587]	; 0xfffff1fd
    1420:	0b3b0b3a 	bleq	ec4110 <__bss_end__+0xeb9d68>
    1424:	13010b39 	movwne	r0, #6969	; 0x1b39
    1428:	0d130000 	ldceq	0, cr0, [r3, #-0]
    142c:	3a0e0300 	bcc	382034 <__bss_end__+0x377c8c>
    1430:	390b3b0b 	stmdbcc	fp, {r0, r1, r3, r8, r9, fp, ip, sp}
    1434:	3813490b 	ldmdacc	r3, {r0, r1, r3, r8, fp, lr}
    1438:	14000005 	strne	r0, [r0], #-5
    143c:	19270015 	stmdbne	r7!, {r0, r2, r4}
    1440:	15150000 	ldrne	r0, [r5, #-0]
    1444:	49192701 	ldmdbmi	r9, {r0, r8, r9, sl, sp}
    1448:	00130113 	andseq	r0, r3, r3, lsl r1
    144c:	00051600 	andeq	r1, r5, r0, lsl #12
    1450:	00001349 	andeq	r1, r0, r9, asr #6
    1454:	03011317 	movweq	r1, #4887	; 0x1317
    1458:	3a050b0e 	bcc	144098 <__bss_end__+0x139cf0>
    145c:	39053b0b 	stmdbcc	r5, {r0, r1, r3, r8, r9, fp, ip, sp}
    1460:	0013010b 	andseq	r0, r3, fp, lsl #2
    1464:	000d1800 	andeq	r1, sp, r0, lsl #16
    1468:	0b3a0e03 	bleq	e84c7c <__bss_end__+0xe7a8d4>
    146c:	0b39053b 	bleq	e42960 <__bss_end__+0xe385b8>
    1470:	0b381349 	bleq	e0619c <__bss_end__+0xdfbdf4>
    1474:	0d190000 	ldceq	0, cr0, [r9, #-0]
    1478:	3a0e0300 	bcc	382080 <__bss_end__+0x377cd8>
    147c:	39053b0b 	stmdbcc	r5, {r0, r1, r3, r8, r9, fp, ip, sp}
    1480:	3813490b 	ldmdacc	r3, {r0, r1, r3, r8, fp, lr}
    1484:	1a000005 	bne	14a0 <__code_start__-0x6b60>
    1488:	0e030113 	mcreq	1, 0, r0, cr3, cr3, {0}
    148c:	0b3a0b0b 	bleq	e840c0 <__bss_end__+0xe79d18>
    1490:	0b39053b 	bleq	e42984 <__bss_end__+0xe385dc>
    1494:	00001301 	andeq	r1, r0, r1, lsl #6
    1498:	0b01131b 	bleq	4610c <__bss_end__+0x3bd64>
    149c:	3b0b3a0b 	blcc	2cfcd0 <__bss_end__+0x2c5928>
    14a0:	010b3905 	tsteq	fp, r5, lsl #18
    14a4:	1c000013 	stcne	0, cr0, [r0], {19}
    14a8:	0b0b0117 	bleq	2c190c <__bss_end__+0x2b7564>
    14ac:	053b0b3a 	ldreq	r0, [fp, #-2874]!	; 0xfffff4c6
    14b0:	13010b39 	movwne	r0, #6969	; 0x1b39
    14b4:	0d1d0000 	ldceq	0, cr0, [sp, #-0]
    14b8:	3a0e0300 	bcc	3820c0 <__bss_end__+0x377d18>
    14bc:	39053b0b 	stmdbcc	r5, {r0, r1, r3, r8, r9, fp, ip, sp}
    14c0:	0013490b 	andseq	r4, r3, fp, lsl #18
    14c4:	01151e00 	tsteq	r5, r0, lsl #28
    14c8:	13011927 	movwne	r1, #6439	; 0x1927
    14cc:	341f0000 	ldrcc	r0, [pc], #-0	; 14d4 <__code_start__-0x6b2c>
    14d0:	3a0e0300 	bcc	3820d8 <__bss_end__+0x377d30>
    14d4:	39053b0b 	stmdbcc	r5, {r0, r1, r3, r8, r9, fp, ip, sp}
    14d8:	3f13490b 	svccc	0x0013490b
    14dc:	00193c19 	andseq	r3, r9, r9, lsl ip
    14e0:	00342000 	eorseq	r2, r4, r0
    14e4:	0b3a0e03 	bleq	e84cf8 <__bss_end__+0xe7a950>
    14e8:	0b390b3b 	bleq	e441dc <__bss_end__+0xe39e34>
    14ec:	193f1349 	ldmdbne	pc!, {r0, r3, r6, r8, r9, ip}	; <UNPREDICTABLE>
    14f0:	0000193c 	andeq	r1, r0, ip, lsr r9
    14f4:	3f012e21 	svccc	0x00012e21
    14f8:	3a0e0319 	bcc	382164 <__bss_end__+0x377dbc>
    14fc:	390b3b0b 	stmdbcc	fp, {r0, r1, r3, r8, r9, fp, ip, sp}
    1500:	1119270b 	tstne	r9, fp, lsl #14
    1504:	40061201 	andmi	r1, r6, r1, lsl #4
    1508:	19429718 	stmdbne	r2, {r3, r4, r8, r9, sl, ip, pc}^
    150c:	00001301 	andeq	r1, r0, r1, lsl #6
    1510:	03000522 	movweq	r0, #1314	; 0x522
    1514:	3b0b3a08 	blcc	2cfd3c <__bss_end__+0x2c5994>
    1518:	490b390b 	stmdbmi	fp, {r0, r1, r3, r8, fp, ip, sp}
    151c:	b7170213 			; <UNDEFINED> instruction: 0xb7170213
    1520:	00001742 	andeq	r1, r0, r2, asr #14
    1524:	01828923 	orreq	r8, r2, r3, lsr #18
    1528:	31011101 	tstcc	r1, r1, lsl #2
    152c:	24000013 	strcs	r0, [r0], #-19	; 0xffffffed
    1530:	0001828a 	andeq	r8, r1, sl, lsl #5
    1534:	42911802 	addsmi	r1, r1, #131072	; 0x20000
    1538:	25000018 	strcs	r0, [r0, #-24]	; 0xffffffe8
    153c:	08030034 	stmdaeq	r3, {r2, r4, r5}
    1540:	0b3b0b3a 	bleq	ec4230 <__bss_end__+0xeb9e88>
    1544:	13490b39 	movtne	r0, #39737	; 0x9b39
    1548:	42b71702 	adcsmi	r1, r7, #524288	; 0x80000
    154c:	26000017 			; <UNDEFINED> instruction: 0x26000017
    1550:	0111010b 	tsteq	r1, fp, lsl #2
    1554:	13010612 	movwne	r0, #5650	; 0x1612
    1558:	89270000 	stmdbhi	r7!, {}	; <UNPREDICTABLE>
    155c:	11000182 	smlabbne	r0, r2, r1, r0
    1560:	00133101 	andseq	r3, r3, r1, lsl #2
    1564:	012e2800 			; <UNDEFINED> instruction: 0x012e2800
    1568:	0e03193f 			; <UNDEFINED> instruction: 0x0e03193f
    156c:	0b3b0b3a 	bleq	ec425c <__bss_end__+0xeb9eb4>
    1570:	19270b39 	stmdbne	r7!, {r0, r3, r4, r5, r8, r9, fp}
    1574:	01111349 	tsteq	r1, r9, asr #6
    1578:	18400612 	stmdane	r0, {r1, r4, r9, sl}^
    157c:	01194297 			; <UNDEFINED> instruction: 0x01194297
    1580:	29000013 	stmdbcs	r0, {r0, r1, r4}
    1584:	193f002e 	ldmdbne	pc!, {r1, r2, r3, r5}	; <UNPREDICTABLE>
    1588:	0e6e193c 			; <UNDEFINED> instruction: 0x0e6e193c
    158c:	0b3a0e03 	bleq	e84da0 <__bss_end__+0xe7a9f8>
    1590:	0b390b3b 	bleq	e44284 <__bss_end__+0xe39edc>
    1594:	01000000 	mrseq	r0, (UNDEF: 0)
    1598:	0e250111 	mcreq	1, 1, r0, cr5, cr1, {0}
    159c:	0e030b13 	vmoveq.32	d3[0], r0
    15a0:	17550e1b 	smmlane	r5, fp, lr, r0
    15a4:	17100111 			; <UNDEFINED> instruction: 0x17100111
    15a8:	24020000 	strcs	r0, [r2], #-0
    15ac:	3e0b0b00 	vmlacc.f64	d0, d11, d0
    15b0:	0008030b 	andeq	r0, r8, fp, lsl #6
    15b4:	00240300 	eoreq	r0, r4, r0, lsl #6
    15b8:	0b3e0b0b 	bleq	f841ec <__bss_end__+0xf79e44>
    15bc:	00000e03 	andeq	r0, r0, r3, lsl #28
    15c0:	03001604 	movweq	r1, #1540	; 0x604
    15c4:	3b0b3a0e 	blcc	2cfe04 <__bss_end__+0x2c5a5c>
    15c8:	490b390b 	stmdbmi	fp, {r0, r1, r3, r8, fp, ip, sp}
    15cc:	05000013 	streq	r0, [r0, #-19]	; 0xffffffed
    15d0:	0b0b000f 	bleq	2c1614 <__bss_end__+0x2b726c>
    15d4:	0f060000 	svceq	0x00060000
    15d8:	490b0b00 	stmdbmi	fp, {r8, r9, fp}
    15dc:	07000013 	smladeq	r0, r3, r0, r0
    15e0:	0e030013 	mcreq	0, 0, r0, cr3, cr3, {0}
    15e4:	0000193c 	andeq	r1, r0, ip, lsr r9
    15e8:	03001608 	movweq	r1, #1544	; 0x608
    15ec:	3b0b3a0e 	blcc	2cfe2c <__bss_end__+0x2c5a84>
    15f0:	490b3905 	stmdbmi	fp, {r0, r2, r8, fp, ip, sp}
    15f4:	09000013 	stmdbeq	r0, {r0, r1, r4}
    15f8:	0b0b0117 	bleq	2c1a5c <__bss_end__+0x2b76b4>
    15fc:	0b3b0b3a 	bleq	ec42ec <__bss_end__+0xeb9f44>
    1600:	13010b39 	movwne	r0, #6969	; 0x1b39
    1604:	0d0a0000 	stceq	0, cr0, [sl, #-0]
    1608:	3a0e0300 	bcc	382210 <__bss_end__+0x377e68>
    160c:	390b3b0b 	stmdbcc	fp, {r0, r1, r3, r8, r9, fp, ip, sp}
    1610:	0013490b 	andseq	r4, r3, fp, lsl #18
    1614:	01010b00 	tsteq	r1, r0, lsl #22
    1618:	13011349 	movwne	r1, #4937	; 0x1349
    161c:	210c0000 	mrscs	r0, (UNDEF: 12)
    1620:	2f134900 	svccs	0x00134900
    1624:	0d00000b 	stceq	0, cr0, [r0, #-44]	; 0xffffffd4
    1628:	0b0b0113 	bleq	2c1a7c <__bss_end__+0x2b76d4>
    162c:	0b3b0b3a 	bleq	ec431c <__bss_end__+0xeb9f74>
    1630:	13010b39 	movwne	r0, #6969	; 0x1b39
    1634:	0d0e0000 	stceq	0, cr0, [lr, #-0]
    1638:	3a0e0300 	bcc	382240 <__bss_end__+0x377e98>
    163c:	390b3b0b 	stmdbcc	fp, {r0, r1, r3, r8, r9, fp, ip, sp}
    1640:	3813490b 	ldmdacc	r3, {r0, r1, r3, r8, fp, lr}
    1644:	0f00000b 	svceq	0x0000000b
    1648:	13490026 	movtne	r0, #36902	; 0x9026
    164c:	13100000 	tstne	r0, #0, 0
    1650:	0b0e0301 	bleq	38225c <__bss_end__+0x377eb4>
    1654:	3b0b3a0b 	blcc	2cfe88 <__bss_end__+0x2c5ae0>
    1658:	010b390b 	tsteq	fp, fp, lsl #18
    165c:	11000013 	tstne	r0, r3, lsl r0
    1660:	0803000d 	stmdaeq	r3, {r0, r2, r3}
    1664:	0b3b0b3a 	bleq	ec4354 <__bss_end__+0xeb9fac>
    1668:	13490b39 	movtne	r0, #39737	; 0x9b39
    166c:	00000b38 	andeq	r0, r0, r8, lsr fp
    1670:	03011312 	movweq	r1, #4882	; 0x1312
    1674:	3a050b0e 	bcc	1442b4 <__bss_end__+0x139f0c>
    1678:	390b3b0b 	stmdbcc	fp, {r0, r1, r3, r8, r9, fp, ip, sp}
    167c:	0013010b 	andseq	r0, r3, fp, lsl #2
    1680:	000d1300 	andeq	r1, sp, r0, lsl #6
    1684:	0b3a0e03 	bleq	e84e98 <__bss_end__+0xe7aaf0>
    1688:	0b390b3b 	bleq	e4437c <__bss_end__+0xe39fd4>
    168c:	05381349 	ldreq	r1, [r8, #-841]!	; 0xfffffcb7
    1690:	15140000 	ldrne	r0, [r4, #-0]
    1694:	00192700 	andseq	r2, r9, r0, lsl #14
    1698:	01151500 	tsteq	r5, r0, lsl #10
    169c:	13491927 	movtne	r1, #39207	; 0x9927
    16a0:	00001301 	andeq	r1, r0, r1, lsl #6
    16a4:	49000516 	stmdbmi	r0, {r1, r2, r4, r8, sl}
    16a8:	17000013 	smladne	r0, r3, r0, r0
    16ac:	0e030113 	mcreq	1, 0, r0, cr3, cr3, {0}
    16b0:	0b3a050b 	bleq	e82ae4 <__bss_end__+0xe7873c>
    16b4:	0b39053b 	bleq	e42ba8 <__bss_end__+0xe38800>
    16b8:	00001301 	andeq	r1, r0, r1, lsl #6
    16bc:	03000d18 	movweq	r0, #3352	; 0xd18
    16c0:	3b0b3a0e 	blcc	2cff00 <__bss_end__+0x2c5b58>
    16c4:	490b3905 	stmdbmi	fp, {r0, r2, r8, fp, ip, sp}
    16c8:	000b3813 	andeq	r3, fp, r3, lsl r8
    16cc:	000d1900 	andeq	r1, sp, r0, lsl #18
    16d0:	0b3a0e03 	bleq	e84ee4 <__bss_end__+0xe7ab3c>
    16d4:	0b39053b 	bleq	e42bc8 <__bss_end__+0xe38820>
    16d8:	05381349 	ldreq	r1, [r8, #-841]!	; 0xfffffcb7
    16dc:	131a0000 	tstne	sl, #0, 0
    16e0:	0b0e0301 	bleq	3822ec <__bss_end__+0x377f44>
    16e4:	3b0b3a0b 	blcc	2cff18 <__bss_end__+0x2c5b70>
    16e8:	010b3905 	tsteq	fp, r5, lsl #18
    16ec:	1b000013 	blne	1740 <__code_start__-0x68c0>
    16f0:	0b0b0113 	bleq	2c1b44 <__bss_end__+0x2b779c>
    16f4:	053b0b3a 	ldreq	r0, [fp, #-2874]!	; 0xfffff4c6
    16f8:	13010b39 	movwne	r0, #6969	; 0x1b39
    16fc:	171c0000 	ldrne	r0, [ip, -r0]
    1700:	3a0b0b01 	bcc	2c430c <__bss_end__+0x2b9f64>
    1704:	39053b0b 	stmdbcc	r5, {r0, r1, r3, r8, r9, fp, ip, sp}
    1708:	0013010b 	andseq	r0, r3, fp, lsl #2
    170c:	000d1d00 	andeq	r1, sp, r0, lsl #26
    1710:	0b3a0e03 	bleq	e84f24 <__bss_end__+0xe7ab7c>
    1714:	0b39053b 	bleq	e42c08 <__bss_end__+0xe38860>
    1718:	00001349 	andeq	r1, r0, r9, asr #6
    171c:	2701151e 	smladcs	r1, lr, r5, r1
    1720:	00130119 	andseq	r0, r3, r9, lsl r1
    1724:	00341f00 	eorseq	r1, r4, r0, lsl #30
    1728:	0b3a0e03 	bleq	e84f3c <__bss_end__+0xe7ab94>
    172c:	0b39053b 	bleq	e42c20 <__bss_end__+0xe38878>
    1730:	193f1349 	ldmdbne	pc!, {r0, r3, r6, r8, r9, ip}	; <UNPREDICTABLE>
    1734:	0000193c 	andeq	r1, r0, ip, lsr r9
    1738:	03003420 	movweq	r3, #1056	; 0x420
    173c:	3b0b3a0e 	blcc	2cff7c <__bss_end__+0x2c5bd4>
    1740:	490b390b 	stmdbmi	fp, {r0, r1, r3, r8, fp, ip, sp}
    1744:	3c193f13 	ldccc	15, cr3, [r9], {19}
    1748:	21000019 	tstcs	r0, r9, lsl r0
    174c:	0b3e0104 	bleq	f81b64 <__bss_end__+0xf777bc>
    1750:	13490b0b 	movtne	r0, #39691	; 0x9b0b
    1754:	0b3b0b3a 	bleq	ec4444 <__bss_end__+0xeba09c>
    1758:	13010b39 	movwne	r0, #6969	; 0x1b39
    175c:	28220000 	stmdacs	r2!, {}	; <UNPREDICTABLE>
    1760:	1c0e0300 	stcne	3, cr0, [lr], {-0}
    1764:	2300000b 	movwcs	r0, #11
    1768:	0e030034 	mcreq	0, 0, r0, cr3, cr4, {1}
    176c:	0b3b0b3a 	bleq	ec445c <__bss_end__+0xeba0b4>
    1770:	13490b39 	movtne	r0, #39737	; 0x9b39
    1774:	2e240000 	cdpcs	0, 2, cr0, cr4, cr0, {0}
    1778:	03193f01 	tsteq	r9, #1, 30
    177c:	3b0b3a0e 	blcc	2cffbc <__bss_end__+0x2c5c14>
    1780:	270b390b 	strcs	r3, [fp, -fp, lsl #18]
    1784:	12011119 	andne	r1, r1, #1073741830	; 0x40000006
    1788:	97184006 	ldrls	r4, [r8, -r6]
    178c:	13011942 	movwne	r1, #6466	; 0x1942
    1790:	89250000 	stmdbhi	r5!, {}	; <UNPREDICTABLE>
    1794:	11000182 	smlabbne	r0, r2, r1, r0
    1798:	00133101 	andseq	r3, r3, r1, lsl #2
    179c:	012e2600 			; <UNDEFINED> instruction: 0x012e2600
    17a0:	0e03193f 			; <UNDEFINED> instruction: 0x0e03193f
    17a4:	0b3b0b3a 	bleq	ec4494 <__bss_end__+0xeba0ec>
    17a8:	19270b39 	stmdbne	r7!, {r0, r3, r4, r5, r8, r9, fp}
    17ac:	01111349 	tsteq	r1, r9, asr #6
    17b0:	18400612 	stmdane	r0, {r1, r4, r9, sl}^
    17b4:	01194297 			; <UNDEFINED> instruction: 0x01194297
    17b8:	27000013 	smladcs	r0, r3, r0, r0
    17bc:	0e030034 	mcreq	0, 0, r0, cr3, cr4, {1}
    17c0:	0b3b0b3a 	bleq	ec44b0 <__bss_end__+0xeba108>
    17c4:	13490b39 	movtne	r0, #39737	; 0x9b39
    17c8:	42b71702 	adcsmi	r1, r7, #524288	; 0x80000
    17cc:	28000017 	stmdacs	r0, {r0, r1, r2, r4}
    17d0:	01018289 	smlabbeq	r1, r9, r2, r8
    17d4:	13310111 	teqne	r1, #1073741828	; 0x40000004
    17d8:	00001301 	andeq	r1, r0, r1, lsl #6
    17dc:	01828a29 	orreq	r8, r2, r9, lsr #20
    17e0:	91180200 	tstls	r8, r0, lsl #4
    17e4:	00001842 	andeq	r1, r0, r2, asr #16
    17e8:	0182892a 	orreq	r8, r2, sl, lsr #18
    17ec:	31011101 	tstcc	r1, r1, lsl #2
    17f0:	2b000013 	blcs	1844 <__code_start__-0x67bc>
    17f4:	08030005 	stmdaeq	r3, {r0, r2}
    17f8:	0b3b0b3a 	bleq	ec44e8 <__bss_end__+0xeba140>
    17fc:	13490b39 	movtne	r0, #39737	; 0x9b39
    1800:	42b71702 	adcsmi	r1, r7, #524288	; 0x80000
    1804:	2c000017 	stccs	0, cr0, [r0], {23}
    1808:	193f002e 	ldmdbne	pc!, {r1, r2, r3, r5}	; <UNPREDICTABLE>
    180c:	0e6e193c 			; <UNDEFINED> instruction: 0x0e6e193c
    1810:	0b3a0e03 	bleq	e85024 <__bss_end__+0xe7ac7c>
    1814:	0b390b3b 	bleq	e44508 <__bss_end__+0xe3a160>
    1818:	01000000 	mrseq	r0, (UNDEF: 0)
    181c:	0e250111 	mcreq	1, 1, r0, cr5, cr1, {0}
    1820:	0e030b13 	vmoveq.32	d3[0], r0
    1824:	01110e1b 	tsteq	r1, fp, lsl lr
    1828:	17100612 			; <UNDEFINED> instruction: 0x17100612
    182c:	24020000 	strcs	r0, [r2], #-0
    1830:	3e0b0b00 	vmlacc.f64	d0, d11, d0
    1834:	000e030b 	andeq	r0, lr, fp, lsl #6
    1838:	00240300 	eoreq	r0, r4, r0, lsl #6
    183c:	0b3e0b0b 	bleq	f84470 <__bss_end__+0xf7a0c8>
    1840:	00000803 	andeq	r0, r0, r3, lsl #16
    1844:	0b000f04 	bleq	545c <__code_start__-0x2ba4>
    1848:	0500000b 	streq	r0, [r0, #-11]
    184c:	0e030016 	mcreq	0, 0, r0, cr3, cr6, {0}
    1850:	0b3b0b3a 	bleq	ec4540 <__bss_end__+0xeba198>
    1854:	13490b39 	movtne	r0, #39737	; 0x9b39
    1858:	0f060000 	svceq	0x00060000
    185c:	490b0b00 	stmdbmi	fp, {r8, r9, fp}
    1860:	07000013 	smladeq	r0, r3, r0, r0
    1864:	0e030013 	mcreq	0, 0, r0, cr3, cr3, {0}
    1868:	0000193c 	andeq	r1, r0, ip, lsr r9
    186c:	03001608 	movweq	r1, #1544	; 0x608
    1870:	3b0b3a0e 	blcc	2d00b0 <__bss_end__+0x2c5d08>
    1874:	490b3905 	stmdbmi	fp, {r0, r2, r8, fp, ip, sp}
    1878:	09000013 	stmdbeq	r0, {r0, r1, r4}
    187c:	0b0b0117 	bleq	2c1ce0 <__bss_end__+0x2b7938>
    1880:	0b3b0b3a 	bleq	ec4570 <__bss_end__+0xeba1c8>
    1884:	13010b39 	movwne	r0, #6969	; 0x1b39
    1888:	0d0a0000 	stceq	0, cr0, [sl, #-0]
    188c:	3a0e0300 	bcc	382494 <__bss_end__+0x3780ec>
    1890:	390b3b0b 	stmdbcc	fp, {r0, r1, r3, r8, r9, fp, ip, sp}
    1894:	0013490b 	andseq	r4, r3, fp, lsl #18
    1898:	01010b00 	tsteq	r1, r0, lsl #22
    189c:	13011349 	movwne	r1, #4937	; 0x1349
    18a0:	210c0000 	mrscs	r0, (UNDEF: 12)
    18a4:	2f134900 	svccs	0x00134900
    18a8:	0d00000b 	stceq	0, cr0, [r0, #-44]	; 0xffffffd4
    18ac:	0b0b0113 	bleq	2c1d00 <__bss_end__+0x2b7958>
    18b0:	0b3b0b3a 	bleq	ec45a0 <__bss_end__+0xeba1f8>
    18b4:	13010b39 	movwne	r0, #6969	; 0x1b39
    18b8:	0d0e0000 	stceq	0, cr0, [lr, #-0]
    18bc:	3a0e0300 	bcc	3824c4 <__bss_end__+0x37811c>
    18c0:	390b3b0b 	stmdbcc	fp, {r0, r1, r3, r8, r9, fp, ip, sp}
    18c4:	3813490b 	ldmdacc	r3, {r0, r1, r3, r8, fp, lr}
    18c8:	0f00000b 	svceq	0x0000000b
    18cc:	13490026 	movtne	r0, #36902	; 0x9026
    18d0:	13100000 	tstne	r0, #0, 0
    18d4:	0b0e0301 	bleq	3824e0 <__bss_end__+0x378138>
    18d8:	3b0b3a0b 	blcc	2d010c <__bss_end__+0x2c5d64>
    18dc:	010b390b 	tsteq	fp, fp, lsl #18
    18e0:	11000013 	tstne	r0, r3, lsl r0
    18e4:	0803000d 	stmdaeq	r3, {r0, r2, r3}
    18e8:	0b3b0b3a 	bleq	ec45d8 <__bss_end__+0xeba230>
    18ec:	13490b39 	movtne	r0, #39737	; 0x9b39
    18f0:	00000b38 	andeq	r0, r0, r8, lsr fp
    18f4:	03011312 	movweq	r1, #4882	; 0x1312
    18f8:	3a050b0e 	bcc	144538 <__bss_end__+0x13a190>
    18fc:	390b3b0b 	stmdbcc	fp, {r0, r1, r3, r8, r9, fp, ip, sp}
    1900:	0013010b 	andseq	r0, r3, fp, lsl #2
    1904:	000d1300 	andeq	r1, sp, r0, lsl #6
    1908:	0b3a0e03 	bleq	e8511c <__bss_end__+0xe7ad74>
    190c:	0b390b3b 	bleq	e44600 <__bss_end__+0xe3a258>
    1910:	05381349 	ldreq	r1, [r8, #-841]!	; 0xfffffcb7
    1914:	15140000 	ldrne	r0, [r4, #-0]
    1918:	00192700 	andseq	r2, r9, r0, lsl #14
    191c:	01151500 	tsteq	r5, r0, lsl #10
    1920:	13491927 	movtne	r1, #39207	; 0x9927
    1924:	00001301 	andeq	r1, r0, r1, lsl #6
    1928:	49000516 	stmdbmi	r0, {r1, r2, r4, r8, sl}
    192c:	17000013 	smladne	r0, r3, r0, r0
    1930:	0e030113 	mcreq	1, 0, r0, cr3, cr3, {0}
    1934:	0b3a050b 	bleq	e82d68 <__bss_end__+0xe789c0>
    1938:	0b39053b 	bleq	e42e2c <__bss_end__+0xe38a84>
    193c:	00001301 	andeq	r1, r0, r1, lsl #6
    1940:	03000d18 	movweq	r0, #3352	; 0xd18
    1944:	3b0b3a0e 	blcc	2d0184 <__bss_end__+0x2c5ddc>
    1948:	490b3905 	stmdbmi	fp, {r0, r2, r8, fp, ip, sp}
    194c:	000b3813 	andeq	r3, fp, r3, lsl r8
    1950:	000d1900 	andeq	r1, sp, r0, lsl #18
    1954:	0b3a0e03 	bleq	e85168 <__bss_end__+0xe7adc0>
    1958:	0b39053b 	bleq	e42e4c <__bss_end__+0xe38aa4>
    195c:	05381349 	ldreq	r1, [r8, #-841]!	; 0xfffffcb7
    1960:	131a0000 	tstne	sl, #0, 0
    1964:	0b0e0301 	bleq	382570 <__bss_end__+0x3781c8>
    1968:	3b0b3a0b 	blcc	2d019c <__bss_end__+0x2c5df4>
    196c:	010b3905 	tsteq	fp, r5, lsl #18
    1970:	1b000013 	blne	19c4 <__code_start__-0x663c>
    1974:	0b0b0113 	bleq	2c1dc8 <__bss_end__+0x2b7a20>
    1978:	053b0b3a 	ldreq	r0, [fp, #-2874]!	; 0xfffff4c6
    197c:	13010b39 	movwne	r0, #6969	; 0x1b39
    1980:	171c0000 	ldrne	r0, [ip, -r0]
    1984:	3a0b0b01 	bcc	2c4590 <__bss_end__+0x2ba1e8>
    1988:	39053b0b 	stmdbcc	r5, {r0, r1, r3, r8, r9, fp, ip, sp}
    198c:	0013010b 	andseq	r0, r3, fp, lsl #2
    1990:	000d1d00 	andeq	r1, sp, r0, lsl #26
    1994:	0b3a0e03 	bleq	e851a8 <__bss_end__+0xe7ae00>
    1998:	0b39053b 	bleq	e42e8c <__bss_end__+0xe38ae4>
    199c:	00001349 	andeq	r1, r0, r9, asr #6
    19a0:	2701151e 	smladcs	r1, lr, r5, r1
    19a4:	00130119 	andseq	r0, r3, r9, lsl r1
    19a8:	00341f00 	eorseq	r1, r4, r0, lsl #30
    19ac:	0b3a0e03 	bleq	e851c0 <__bss_end__+0xe7ae18>
    19b0:	0b39053b 	bleq	e42ea4 <__bss_end__+0xe38afc>
    19b4:	193f1349 	ldmdbne	pc!, {r0, r3, r6, r8, r9, ip}	; <UNPREDICTABLE>
    19b8:	0000193c 	andeq	r1, r0, ip, lsr r9
    19bc:	03003420 	movweq	r3, #1056	; 0x420
    19c0:	3b0b3a0e 	blcc	2d0200 <__bss_end__+0x2c5e58>
    19c4:	490b390b 	stmdbmi	fp, {r0, r1, r3, r8, fp, ip, sp}
    19c8:	3c193f13 	ldccc	15, cr3, [r9], {19}
    19cc:	21000019 	tstcs	r0, r9, lsl r0
    19d0:	0b3e0104 	bleq	f81de8 <__bss_end__+0xf77a40>
    19d4:	13490b0b 	movtne	r0, #39691	; 0x9b0b
    19d8:	0b3b0b3a 	bleq	ec46c8 <__bss_end__+0xeba320>
    19dc:	13010b39 	movwne	r0, #6969	; 0x1b39
    19e0:	28220000 	stmdacs	r2!, {}	; <UNPREDICTABLE>
    19e4:	1c0e0300 	stcne	3, cr0, [lr], {-0}
    19e8:	2300000b 	movwcs	r0, #11
    19ec:	0e030028 	cdpeq	0, 0, cr0, cr3, cr8, {1}
    19f0:	0000061c 	andeq	r0, r0, ip, lsl r6
    19f4:	3f012e24 	svccc	0x00012e24
    19f8:	3a0e0319 	bcc	382664 <__bss_end__+0x3782bc>
    19fc:	390b3b0b 	stmdbcc	fp, {r0, r1, r3, r8, r9, fp, ip, sp}
    1a00:	1119270b 	tstne	r9, fp, lsl #14
    1a04:	40061201 	andmi	r1, r6, r1, lsl #4
    1a08:	19429718 	stmdbne	r2, {r3, r4, r8, r9, sl, ip, pc}^
    1a0c:	00001301 	andeq	r1, r0, r1, lsl #6
    1a10:	03000525 	movweq	r0, #1317	; 0x525
    1a14:	3b0b3a08 	blcc	2d023c <__bss_end__+0x2c5e94>
    1a18:	490b390b 	stmdbmi	fp, {r0, r1, r3, r8, fp, ip, sp}
    1a1c:	b7170213 			; <UNDEFINED> instruction: 0xb7170213
    1a20:	00001742 	andeq	r1, r0, r2, asr #14
    1a24:	01828926 	orreq	r8, r2, r6, lsr #18
    1a28:	31011101 	tstcc	r1, r1, lsl #2
    1a2c:	27000013 	smladcs	r0, r3, r0, r0
    1a30:	0001828a 	andeq	r8, r1, sl, lsl #5
    1a34:	42911802 	addsmi	r1, r1, #131072	; 0x20000
    1a38:	28000018 	stmdacs	r0, {r3, r4}
    1a3c:	0e030005 	cdpeq	0, 0, cr0, cr3, cr5, {0}
    1a40:	0b3b0b3a 	bleq	ec4730 <__bss_end__+0xeba388>
    1a44:	13490b39 	movtne	r0, #39737	; 0x9b39
    1a48:	42b71702 	adcsmi	r1, r7, #524288	; 0x80000
    1a4c:	29000017 	stmdbcs	r0, {r0, r1, r2, r4}
    1a50:	08030034 	stmdaeq	r3, {r2, r4, r5}
    1a54:	0b3b0b3a 	bleq	ec4744 <__bss_end__+0xeba39c>
    1a58:	13490b39 	movtne	r0, #39737	; 0x9b39
    1a5c:	42b71702 	adcsmi	r1, r7, #524288	; 0x80000
    1a60:	2a000017 	bcs	1ac4 <__code_start__-0x653c>
    1a64:	0e030034 	mcreq	0, 0, r0, cr3, cr4, {1}
    1a68:	0b3b0b3a 	bleq	ec4758 <__bss_end__+0xeba3b0>
    1a6c:	13490b39 	movtne	r0, #39737	; 0x9b39
    1a70:	42b71702 	adcsmi	r1, r7, #524288	; 0x80000
    1a74:	2b000017 	blcs	1ad8 <__code_start__-0x6528>
    1a78:	01018289 	smlabbeq	r1, r9, r2, r8
    1a7c:	13310111 	teqne	r1, #1073741828	; 0x40000004
    1a80:	00001301 	andeq	r1, r0, r1, lsl #6
    1a84:	3f012e2c 	svccc	0x00012e2c
    1a88:	3a0e0319 	bcc	3826f4 <__bss_end__+0x37834c>
    1a8c:	390b3b0b 	stmdbcc	fp, {r0, r1, r3, r8, r9, fp, ip, sp}
    1a90:	4919270b 	ldmdbmi	r9, {r0, r1, r3, r8, r9, sl, sp}
    1a94:	12011113 	andne	r1, r1, #-1073741820	; 0xc0000004
    1a98:	97184006 	ldrls	r4, [r8, -r6]
    1a9c:	13011942 	movwne	r1, #6466	; 0x1942
    1aa0:	892d0000 	pushhi	{}	; <UNPREDICTABLE>
    1aa4:	11000182 	smlabbne	r0, r2, r1, r0
    1aa8:	00133101 	andseq	r3, r3, r1, lsl #2
    1aac:	00182e00 	andseq	r2, r8, r0, lsl #28
    1ab0:	2e2f0000 	cdpcs	0, 2, cr0, cr15, cr0, {0}
    1ab4:	3c193f00 	ldccc	15, cr3, [r9], {-0}
    1ab8:	030e6e19 	movweq	r6, #60953	; 0xee19
    1abc:	3b0b3a0e 	blcc	2d02fc <__bss_end__+0x2c5f54>
    1ac0:	000b390b 	andeq	r3, fp, fp, lsl #18
    1ac4:	11010000 	mrsne	r0, (UNDEF: 1)
    1ac8:	130e2501 	movwne	r2, #58625	; 0xe501
    1acc:	1b0e030b 	blne	382700 <__bss_end__+0x378358>
    1ad0:	1201110e 	andne	r1, r1, #-2147483645	; 0x80000003
    1ad4:	00171006 	andseq	r1, r7, r6
    1ad8:	00240200 	eoreq	r0, r4, r0, lsl #4
    1adc:	0b3e0b0b 	bleq	f84710 <__bss_end__+0xf7a368>
    1ae0:	00000803 	andeq	r0, r0, r3, lsl #16
    1ae4:	0b002403 	bleq	aaf8 <__bss_end__+0x750>
    1ae8:	030b3e0b 	movweq	r3, #48651	; 0xbe0b
    1aec:	0400000e 	streq	r0, [r0], #-14
    1af0:	0b0b000f 	bleq	2c1b34 <__bss_end__+0x2b778c>
    1af4:	16050000 	strne	r0, [r5], -r0
    1af8:	3a0e0300 	bcc	382700 <__bss_end__+0x378358>
    1afc:	390b3b0b 	stmdbcc	fp, {r0, r1, r3, r8, r9, fp, ip, sp}
    1b00:	0013490b 	andseq	r4, r3, fp, lsl #18
    1b04:	000f0600 	andeq	r0, pc, r0, lsl #12
    1b08:	13490b0b 	movtne	r0, #39691	; 0x9b0b
    1b0c:	13070000 	movwne	r0, #28672	; 0x7000
    1b10:	3c0e0300 	stccc	3, cr0, [lr], {-0}
    1b14:	08000019 	stmdaeq	r0, {r0, r3, r4}
    1b18:	0e030016 	mcreq	0, 0, r0, cr3, cr6, {0}
    1b1c:	053b0b3a 	ldreq	r0, [fp, #-2874]!	; 0xfffff4c6
    1b20:	13490b39 	movtne	r0, #39737	; 0x9b39
    1b24:	17090000 	strne	r0, [r9, -r0]
    1b28:	3a0b0b01 	bcc	2c4734 <__bss_end__+0x2ba38c>
    1b2c:	390b3b0b 	stmdbcc	fp, {r0, r1, r3, r8, r9, fp, ip, sp}
    1b30:	0013010b 	andseq	r0, r3, fp, lsl #2
    1b34:	000d0a00 	andeq	r0, sp, r0, lsl #20
    1b38:	0b3a0e03 	bleq	e8534c <__bss_end__+0xe7afa4>
    1b3c:	0b390b3b 	bleq	e44830 <__bss_end__+0xe3a488>
    1b40:	00001349 	andeq	r1, r0, r9, asr #6
    1b44:	4901010b 	stmdbmi	r1, {r0, r1, r3, r8}
    1b48:	00130113 	andseq	r0, r3, r3, lsl r1
    1b4c:	00210c00 	eoreq	r0, r1, r0, lsl #24
    1b50:	0b2f1349 	bleq	bc687c <__bss_end__+0xbbc4d4>
    1b54:	130d0000 	movwne	r0, #53248	; 0xd000
    1b58:	3a0b0b01 	bcc	2c4764 <__bss_end__+0x2ba3bc>
    1b5c:	390b3b0b 	stmdbcc	fp, {r0, r1, r3, r8, r9, fp, ip, sp}
    1b60:	0013010b 	andseq	r0, r3, fp, lsl #2
    1b64:	000d0e00 	andeq	r0, sp, r0, lsl #28
    1b68:	0b3a0e03 	bleq	e8537c <__bss_end__+0xe7afd4>
    1b6c:	0b390b3b 	bleq	e44860 <__bss_end__+0xe3a4b8>
    1b70:	0b381349 	bleq	e0689c <__bss_end__+0xdfc4f4>
    1b74:	260f0000 	strcs	r0, [pc], -r0
    1b78:	00134900 	andseq	r4, r3, r0, lsl #18
    1b7c:	01131000 	tsteq	r3, r0
    1b80:	0b0b0e03 	bleq	2c5394 <__bss_end__+0x2bafec>
    1b84:	0b3b0b3a 	bleq	ec4874 <__bss_end__+0xeba4cc>
    1b88:	13010b39 	movwne	r0, #6969	; 0x1b39
    1b8c:	0d110000 	ldceq	0, cr0, [r1, #-0]
    1b90:	3a080300 	bcc	202798 <__bss_end__+0x1f83f0>
    1b94:	390b3b0b 	stmdbcc	fp, {r0, r1, r3, r8, r9, fp, ip, sp}
    1b98:	3813490b 	ldmdacc	r3, {r0, r1, r3, r8, fp, lr}
    1b9c:	1200000b 	andne	r0, r0, #11, 0
    1ba0:	0e030113 	mcreq	1, 0, r0, cr3, cr3, {0}
    1ba4:	0b3a050b 	bleq	e82fd8 <__bss_end__+0xe78c30>
    1ba8:	0b390b3b 	bleq	e4489c <__bss_end__+0xe3a4f4>
    1bac:	00001301 	andeq	r1, r0, r1, lsl #6
    1bb0:	03000d13 	movweq	r0, #3347	; 0xd13
    1bb4:	3b0b3a0e 	blcc	2d03f4 <__bss_end__+0x2c604c>
    1bb8:	490b390b 	stmdbmi	fp, {r0, r1, r3, r8, fp, ip, sp}
    1bbc:	00053813 	andeq	r3, r5, r3, lsl r8
    1bc0:	00151400 	andseq	r1, r5, r0, lsl #8
    1bc4:	00001927 	andeq	r1, r0, r7, lsr #18
    1bc8:	27011515 	smladcs	r1, r5, r5, r1
    1bcc:	01134919 	tsteq	r3, r9, lsl r9
    1bd0:	16000013 			; <UNDEFINED> instruction: 0x16000013
    1bd4:	13490005 	movtne	r0, #36869	; 0x9005
    1bd8:	13170000 	tstne	r7, #0, 0
    1bdc:	0b0e0301 	bleq	3827e8 <__bss_end__+0x378440>
    1be0:	3b0b3a05 	blcc	2d03fc <__bss_end__+0x2c6054>
    1be4:	010b3905 	tsteq	fp, r5, lsl #18
    1be8:	18000013 	stmdane	r0, {r0, r1, r4}
    1bec:	0e03000d 	cdpeq	0, 0, cr0, cr3, cr13, {0}
    1bf0:	053b0b3a 	ldreq	r0, [fp, #-2874]!	; 0xfffff4c6
    1bf4:	13490b39 	movtne	r0, #39737	; 0x9b39
    1bf8:	00000b38 	andeq	r0, r0, r8, lsr fp
    1bfc:	03000d19 	movweq	r0, #3353	; 0xd19
    1c00:	3b0b3a0e 	blcc	2d0440 <__bss_end__+0x2c6098>
    1c04:	490b3905 	stmdbmi	fp, {r0, r2, r8, fp, ip, sp}
    1c08:	00053813 	andeq	r3, r5, r3, lsl r8
    1c0c:	01131a00 	tsteq	r3, r0, lsl #20
    1c10:	0b0b0e03 	bleq	2c5424 <__bss_end__+0x2bb07c>
    1c14:	053b0b3a 	ldreq	r0, [fp, #-2874]!	; 0xfffff4c6
    1c18:	13010b39 	movwne	r0, #6969	; 0x1b39
    1c1c:	131b0000 	tstne	fp, #0, 0
    1c20:	3a0b0b01 	bcc	2c482c <__bss_end__+0x2ba484>
    1c24:	39053b0b 	stmdbcc	r5, {r0, r1, r3, r8, r9, fp, ip, sp}
    1c28:	0013010b 	andseq	r0, r3, fp, lsl #2
    1c2c:	01171c00 	tsteq	r7, r0, lsl #24
    1c30:	0b3a0b0b 	bleq	e84864 <__bss_end__+0xe7a4bc>
    1c34:	0b39053b 	bleq	e43128 <__bss_end__+0xe38d80>
    1c38:	00001301 	andeq	r1, r0, r1, lsl #6
    1c3c:	03000d1d 	movweq	r0, #3357	; 0xd1d
    1c40:	3b0b3a0e 	blcc	2d0480 <__bss_end__+0x2c60d8>
    1c44:	490b3905 	stmdbmi	fp, {r0, r2, r8, fp, ip, sp}
    1c48:	1e000013 	mcrne	0, 0, r0, cr0, cr3, {0}
    1c4c:	19270115 	stmdbne	r7!, {r0, r2, r4, r8}
    1c50:	00001301 	andeq	r1, r0, r1, lsl #6
    1c54:	0300341f 	movweq	r3, #1055	; 0x41f
    1c58:	3b0b3a0e 	blcc	2d0498 <__bss_end__+0x2c60f0>
    1c5c:	490b3905 	stmdbmi	fp, {r0, r2, r8, fp, ip, sp}
    1c60:	3c193f13 	ldccc	15, cr3, [r9], {19}
    1c64:	20000019 	andcs	r0, r0, r9, lsl r0
    1c68:	0e030034 	mcreq	0, 0, r0, cr3, cr4, {1}
    1c6c:	0b3b0b3a 	bleq	ec495c <__bss_end__+0xeba5b4>
    1c70:	13490b39 	movtne	r0, #39737	; 0x9b39
    1c74:	193c193f 	ldmdbne	ip!, {r0, r1, r2, r3, r4, r5, r8, fp, ip}
    1c78:	2e210000 	cdpcs	0, 2, cr0, cr1, cr0, {0}
    1c7c:	03193f01 	tsteq	r9, #1, 30
    1c80:	3b0b3a0e 	blcc	2d04c0 <__bss_end__+0x2c6118>
    1c84:	270b390b 	strcs	r3, [fp, -fp, lsl #18]
    1c88:	11134919 	tstne	r3, r9, lsl r9
    1c8c:	40061201 	andmi	r1, r6, r1, lsl #4
    1c90:	19429618 	stmdbne	r2, {r3, r4, r9, sl, ip, pc}^
    1c94:	05220000 	streq	r0, [r2, #-0]!
    1c98:	3a080300 	bcc	2028a0 <__bss_end__+0x1f84f8>
    1c9c:	390b3b0b 	stmdbcc	fp, {r0, r1, r3, r8, r9, fp, ip, sp}
    1ca0:	0213490b 	andseq	r4, r3, #180224	; 0x2c000
    1ca4:	1742b717 	smlaldne	fp, r2, r7, r7
    1ca8:	01000000 	mrseq	r0, (UNDEF: 0)
    1cac:	0e250111 	mcreq	1, 1, r0, cr5, cr1, {0}
    1cb0:	0e030b13 	vmoveq.32	d3[0], r0
    1cb4:	01110e1b 	tsteq	r1, fp, lsl lr
    1cb8:	17100612 			; <UNDEFINED> instruction: 0x17100612
    1cbc:	2e020000 	cdpcs	0, 0, cr0, cr2, cr0, {0}
    1cc0:	03193f00 	tsteq	r9, #0, 30
    1cc4:	3b0b3a0e 	blcc	2d0504 <__bss_end__+0x2c615c>
    1cc8:	270b390b 	strcs	r3, [fp, -fp, lsl #18]
    1ccc:	12011119 	andne	r1, r1, #1073741830	; 0x40000006
    1cd0:	97184006 	ldrls	r4, [r8, -r6]
    1cd4:	00001942 	andeq	r1, r0, r2, asr #18
	...

Disassembly of section .debug_loc:

00000000 <.debug_loc>:
	...
      14:	000002a8 	andeq	r0, r0, r8, lsr #5
      18:	00000303 	andeq	r0, r0, r3, lsl #6
      1c:	03500001 	cmpeq	r0, #1, 0
      20:	0c000003 	stceq	0, cr0, [r0], {3}
      24:	04000003 	streq	r0, [r0], #-3
      28:	5001f300 	andpl	pc, r1, r0, lsl #6
      2c:	00030c9f 	muleq	r3, pc, ip	; <UNPREDICTABLE>
      30:	00032400 	andeq	r2, r3, r0, lsl #8
      34:	50000100 	andpl	r0, r0, r0, lsl #2
      38:	00000324 	andeq	r0, r0, r4, lsr #6
      3c:	0000032c 	andeq	r0, r0, ip, lsr #6
      40:	01f30004 	mvnseq	r0, r4
      44:	032c9f50 			; <UNDEFINED> instruction: 0x032c9f50
      48:	03440000 	movteq	r0, #16384	; 0x4000
      4c:	00010000 	andeq	r0, r1, r0
      50:	00034450 	andeq	r4, r3, r0, asr r4
      54:	00034c00 	andeq	r4, r3, r0, lsl #24
      58:	f3000400 	vshl.u8	d0, d0, d0
      5c:	4c9f5001 	ldcmi	0, cr5, [pc], {1}
      60:	64000003 	strvs	r0, [r0], #-3
      64:	01000003 	tsteq	r0, r3
      68:	03645000 	cmneq	r4, #0, 0
      6c:	036c0000 	cmneq	ip, #0, 0
      70:	00040000 	andeq	r0, r4, r0
      74:	9f5001f3 	svcls	0x005001f3
      78:	0000036c 	andeq	r0, r0, ip, ror #6
      7c:	00000384 	andeq	r0, r0, r4, lsl #7
      80:	84500001 	ldrbhi	r0, [r0], #-1
      84:	b8000003 	stmdalt	r0, {r0, r1}
      88:	04000003 	streq	r0, [r0], #-3
      8c:	5001f300 	andpl	pc, r1, r0, lsl #6
      90:	0000009f 	muleq	r0, pc, r0	; <UNPREDICTABLE>
	...
      ac:	0002a800 	andeq	sl, r2, r0, lsl #16
      b0:	0002cc00 	andeq	ip, r2, r0, lsl #24
      b4:	51000100 	mrspl	r0, (UNDEF: 16)
      b8:	000002cc 	andeq	r0, r0, ip, asr #5
      bc:	000002f0 	strdeq	r0, [r0], -r0	; <UNPREDICTABLE>
      c0:	f0510001 			; <UNDEFINED> instruction: 0xf0510001
      c4:	03000002 	movweq	r0, #2
      c8:	03000003 	movweq	r0, #3
      cc:	9f017100 	svcls	0x00017100
      d0:	00000303 	andeq	r0, r0, r3, lsl #6
      d4:	0000030c 	andeq	r0, r0, ip, lsl #6
      d8:	f3380017 	vqadd.u64	d0, d8, d7
      dc:	01f35101 	mvnseq	r5, r1, lsl #2
      e0:	244b4051 	strbcs	r4, [fp], #-81	; 0xffffffaf
      e4:	00080c22 	andeq	r0, r8, r2, lsr #24
      e8:	282d8000 	stmdacs	sp!, {pc}
      ec:	13160001 	tstne	r6, #1, 0
      f0:	00030c9f 	muleq	r3, pc, ip	; <UNPREDICTABLE>
      f4:	00032000 	andeq	r2, r3, r0
      f8:	51000100 	mrspl	r0, (UNDEF: 16)
      fc:	00000320 	andeq	r0, r0, r0, lsr #6
     100:	0000032c 	andeq	r0, r0, ip, lsr #6
     104:	01f30004 	mvnseq	r0, r4
     108:	032c9f51 			; <UNDEFINED> instruction: 0x032c9f51
     10c:	03400000 	movteq	r0, #0
     110:	00010000 	andeq	r0, r1, r0
     114:	00034051 	andeq	r4, r3, r1, asr r0
     118:	00034c00 	andeq	r4, r3, r0, lsl #24
     11c:	f3000400 	vshl.u8	d0, d0, d0
     120:	4c9f5101 	ldfmis	f5, [pc], {1}
     124:	60000003 	andvs	r0, r0, r3
     128:	01000003 	tsteq	r0, r3
     12c:	03605100 	cmneq	r0, #0
     130:	03b80000 			; <UNDEFINED> instruction: 0x03b80000
     134:	00170000 	andseq	r0, r7, r0
     138:	5101f338 	tstpl	r1, r8, lsr r3	; <UNPREDICTABLE>
     13c:	405101f3 	ldrshmi	r0, [r1], #-19	; 0xffffffed
     140:	0c22244b 	cfstrseq	mvf2, [r2], #-300	; 0xfffffed4
     144:	80000008 	andhi	r0, r0, r8
     148:	0001282d 	andeq	r2, r1, sp, lsr #16
     14c:	009f1316 	addseq	r1, pc, r6, lsl r3	; <UNPREDICTABLE>
	...
     164:	d4000000 	strle	r0, [r0], #-0
     168:	e4000002 	str	r0, [r0], #-2
     16c:	01000002 	tsteq	r0, r2
     170:	02e45200 	rsceq	r5, r4, #0, 4
     174:	02ec0000 	rsceq	r0, ip, #0, 0
     178:	00050000 	andeq	r0, r5, r0
     17c:	00a39403 	adceq	r9, r3, r3, lsl #8
     180:	0002ec00 	andeq	lr, r2, r0, lsl #24
     184:	00030300 	andeq	r0, r3, r0, lsl #6
     188:	53000100 	movwpl	r0, #256	; 0x100
     18c:	0000034c 	andeq	r0, r0, ip, asr #6
     190:	0000035c 	andeq	r0, r0, ip, asr r3
     194:	5c520001 	mrrcpl	0, 0, r0, r2, cr1
     198:	67000003 	strvs	r0, [r0, -r3]
     19c:	05000003 	streq	r0, [r0, #-3]
     1a0:	a3940300 	orrsge	r0, r4, #0, 6
     1a4:	036c0000 	cmneq	ip, #0, 0
     1a8:	03700000 	cmneq	r0, #0, 0
     1ac:	00010000 	andeq	r0, r1, r0
     1b0:	00037053 	andeq	r7, r3, r3, asr r0
     1b4:	00037c00 	andeq	r7, r3, r0, lsl #24
     1b8:	38001b00 	stmdacc	r0, {r8, r9, fp, ip}
     1bc:	f35101f3 	vbsl	q8, <illegal reg q8.5>, <illegal reg q9.5>
     1c0:	4b405101 	blmi	10145cc <__bss_end__+0x100a224>
     1c4:	080c2224 	stmdaeq	ip, {r2, r5, r9, sp}
     1c8:	2d800000 	stccs	0, cr0, [r0]
     1cc:	16000128 	strne	r0, [r0], -r8, lsr #2
     1d0:	00721f13 	rsbseq	r1, r2, r3, lsl pc
     1d4:	037c9f1a 	cmneq	ip, #104	; 0x68
     1d8:	03870000 	orreq	r0, r7, #0, 0
     1dc:	00380000 	eorseq	r0, r8, r0
     1e0:	5101f338 	tstpl	r1, r8, lsr r3	; <UNPREDICTABLE>
     1e4:	405101f3 	ldrshmi	r0, [r1], #-19	; 0xffffffed
     1e8:	0c22244b 	cfstrseq	mvf2, [r2], #-300	; 0xfffffed4
     1ec:	80000008 	andhi	r0, r0, r8
     1f0:	0001282d 	andeq	r2, r1, sp, lsr #16
     1f4:	94031316 	strls	r1, [r3], #-790	; 0xfffffcea
     1f8:	060000a3 	streq	r0, [r0], -r3, lsr #1
     1fc:	381c3122 	ldmdacc	ip, {r1, r5, r8, ip, sp}
     200:	f35101f3 	vbsl	q8, <illegal reg q8.5>, <illegal reg q9.5>
     204:	4b405101 	blmi	1014610 <__bss_end__+0x100a268>
     208:	080c2224 	stmdaeq	ip, {r2, r5, r9, sp}
     20c:	2d800000 	stccs	0, cr0, [r0]
     210:	16000128 	strne	r0, [r0], -r8, lsr #2
     214:	9f1a1f13 	svcls	0x001a1f13
	...
     220:	02b80003 	adcseq	r0, r8, #3, 0
     224:	02bc0000 	adcseq	r0, ip, #0, 0
     228:	00010000 	andeq	r0, r1, r0
     22c:	00000051 	andeq	r0, r0, r1, asr r0
     230:	00000000 	andeq	r0, r0, r0
     234:	c4000200 	strgt	r0, [r0], #-512	; 0xfffffe00
     238:	cc000002 	stcgt	0, cr0, [r0], {2}
     23c:	02000002 	andeq	r0, r0, #2, 0
     240:	009f3800 	addseq	r3, pc, r0, lsl #16
     244:	00000000 	andeq	r0, r0, r0
     248:	02000000 	andeq	r0, r0, #0, 0
     24c:	0002c400 	andeq	ip, r2, r0, lsl #8
     250:	0002cc00 	andeq	ip, r2, r0, lsl #24
     254:	51000100 	mrspl	r0, (UNDEF: 16)
	...
     260:	00000001 	andeq	r0, r0, r1
     264:	02d40000 	sbcseq	r0, r4, #0, 0
     268:	02ec0000 	rsceq	r0, ip, #0, 0
     26c:	00010000 	andeq	r0, r1, r0
     270:	00034c51 	andeq	r4, r3, r1, asr ip
     274:	00036000 	andeq	r6, r3, r0
     278:	51000100 	mrspl	r0, (UNDEF: 16)
     27c:	00000360 	andeq	r0, r0, r0, ror #6
     280:	0000036c 	andeq	r0, r0, ip, ror #6
     284:	f3380017 	vqadd.u64	d0, d8, d7
     288:	01f35101 	mvnseq	r5, r1, lsl #2
     28c:	244b4051 	strbcs	r4, [fp], #-81	; 0xffffffaf
     290:	00080c22 	andeq	r0, r8, r2, lsr #24
     294:	282d8000 	stmdacs	sp!, {pc}
     298:	13160001 	tstne	r6, #1, 0
     29c:	0000009f 	muleq	r0, pc, r0	; <UNPREDICTABLE>
     2a0:	00000000 	andeq	r0, r0, r0
     2a4:	00000100 	andeq	r0, r0, r0, lsl #2
     2a8:	00000000 	andeq	r0, r0, r0
     2ac:	0002d400 	andeq	sp, r2, r0, lsl #8
     2b0:	0002e400 	andeq	lr, r2, r0, lsl #8
     2b4:	52000100 	andpl	r0, r0, #0
     2b8:	000002e4 	andeq	r0, r0, r4, ror #5
     2bc:	000002ec 	andeq	r0, r0, ip, ror #5
     2c0:	94030005 	strls	r0, [r3], #-5
     2c4:	4c0000a3 	stcmi	0, cr0, [r0], {163}	; 0xa3
     2c8:	5c000003 	stcpl	0, cr0, [r0], {3}
     2cc:	01000003 	tsteq	r0, r3
     2d0:	035c5200 	cmpeq	ip, #0, 4
     2d4:	03670000 	cmneq	r7, #0, 0
     2d8:	00050000 	andeq	r0, r5, r0
     2dc:	00a39403 	adceq	r9, r3, r3, lsl #8
	...
     2e8:	d4000400 	strle	r0, [r0], #-1024	; 0xfffffc00
     2ec:	d8000002 	stmdale	r0, {r1}
     2f0:	01000002 	tsteq	r0, r2
     2f4:	00005100 	andeq	r5, r0, r0, lsl #2
     2f8:	00000000 	andeq	r0, r0, r0
     2fc:	00030000 	andeq	r0, r3, r0
     300:	000002ec 	andeq	r0, r0, ip, ror #5
     304:	000002f0 	strdeq	r0, [r0], -r0	; <UNPREDICTABLE>
     308:	00510001 	subseq	r0, r1, r1
     30c:	00000000 	andeq	r0, r0, r0
     310:	03000000 	movweq	r0, #0
     314:	0002ec00 	andeq	lr, r2, r0, lsl #24
     318:	0002f000 	andeq	pc, r2, r0
     31c:	53000100 	movwpl	r0, #256	; 0x100
	...
     330:	00000244 	andeq	r0, r0, r4, asr #4
     334:	0000025b 	andeq	r0, r0, fp, asr r2
     338:	5b500001 	blpl	1400344 <__bss_end__+0x13f5f9c>
     33c:	78000002 	stmdavc	r0, {r1}
     340:	01000002 	tsteq	r0, r2
     344:	02785400 	rsbseq	r5, r8, #0, 8
     348:	02900000 	addseq	r0, r0, #0, 0
     34c:	00010000 	andeq	r0, r1, r0
     350:	00029050 	andeq	r9, r2, r0, asr r0
     354:	0002a800 	andeq	sl, r2, r0, lsl #16
     358:	54000100 	strpl	r0, [r0], #-256	; 0xffffff00
	...
     368:	00000260 	andeq	r0, r0, r0, ror #4
     36c:	0000026b 	andeq	r0, r0, fp, ror #4
     370:	6b500001 	blvs	140037c <__bss_end__+0x13f5fd4>
     374:	78000002 	stmdavc	r0, {r1}
     378:	01000002 	tsteq	r0, r2
     37c:	00005500 	andeq	r5, r0, r0, lsl #10
	...
     39c:	01580000 	cmpeq	r8, r0
     3a0:	016c0000 	cmneq	ip, r0
     3a4:	00010000 	andeq	r0, r1, r0
     3a8:	00016c50 	andeq	r6, r1, r0, asr ip
     3ac:	00017000 	andeq	r7, r1, r0
     3b0:	70000300 	andvc	r0, r0, r0, lsl #6
     3b4:	01709f79 	cmneq	r0, r9, ror pc
     3b8:	01a80000 			; <UNDEFINED> instruction: 0x01a80000
     3bc:	00010000 	andeq	r0, r1, r0
     3c0:	0001a853 	andeq	sl, r1, r3, asr r8
     3c4:	0001c000 	andeq	ip, r1, r0
     3c8:	50000100 	andpl	r0, r0, r0, lsl #2
     3cc:	000001c0 	andeq	r0, r0, r0, asr #3
     3d0:	000001c8 	andeq	r0, r0, r8, asr #3
     3d4:	01f30004 	mvnseq	r0, r4
     3d8:	01c89f50 	biceq	r9, r8, r0, asr pc
     3dc:	01cc0000 	biceq	r0, ip, r0
     3e0:	00010000 	andeq	r0, r1, r0
     3e4:	0001cc53 	andeq	ip, r1, r3, asr ip
     3e8:	0001e800 	andeq	lr, r1, r0, lsl #16
     3ec:	f3000900 	vmls.i8	d0, d0, d0
     3f0:	07235001 	streq	r5, [r3, -r1]!
     3f4:	9f1af809 	svcls	0x001af809
     3f8:	000001e8 	andeq	r0, r0, r8, ror #3
     3fc:	000001ec 	andeq	r0, r0, ip, ror #3
     400:	ec530001 	mrrc	0, 0, r0, r3, cr1
     404:	00000001 	andeq	r0, r0, r1
     408:	09000002 	stmdbeq	r0, {r1}
     40c:	5001f300 	andpl	pc, r1, r0, lsl #6
     410:	f8090723 			; <UNDEFINED> instruction: 0xf8090723
     414:	02009f1a 	andeq	r9, r0, #104	; 0x68
     418:	02100000 	andseq	r0, r0, #0, 0
     41c:	00010000 	andeq	r0, r1, r0
     420:	00021053 	andeq	r1, r2, r3, asr r0
     424:	00021f00 	andeq	r1, r2, r0, lsl #30
     428:	91000200 	mrsls	r0, R8_usr
     42c:	00021f68 	andeq	r1, r2, r8, ror #30
     430:	00024400 	andeq	r4, r2, r0, lsl #8
     434:	f3000900 	vmls.i8	d0, d0, d0
     438:	07235001 	streq	r5, [r3, -r1]!
     43c:	9f1af809 	svcls	0x001af809
	...
     448:	00000002 	andeq	r0, r0, r2
     44c:	00000000 	andeq	r0, r0, r0
     450:	01800000 	orreq	r0, r0, r0
     454:	01a80000 			; <UNDEFINED> instruction: 0x01a80000
     458:	00010000 	andeq	r0, r1, r0
     45c:	0001e850 	andeq	lr, r1, r0, asr r8
     460:	0001f800 	andeq	pc, r1, r0, lsl #16
     464:	50000100 	andpl	r0, r0, r0, lsl #2
     468:	000001f8 	strdeq	r0, [r0], -r8
     46c:	000001fb 	strdeq	r0, [r0], -fp
     470:	94030005 	strls	r0, [r3], #-5
     474:	000000a3 	andeq	r0, r0, r3, lsr #1
     478:	1c000002 	stcne	0, cr0, [r0], {2}
     47c:	01000002 	tsteq	r0, r2
     480:	021c5000 	andseq	r5, ip, #0, 0
     484:	021f0000 	andseq	r0, pc, #0, 0
     488:	00050000 	andeq	r0, r5, r0
     48c:	00a39403 	adceq	r9, r3, r3, lsl #8
	...
     498:	68000200 	stmdavs	r0, {r9}
     49c:	70000001 	andvc	r0, r0, r1
     4a0:	02000001 	andeq	r0, r0, #1, 0
     4a4:	009f3800 	addseq	r3, pc, r0, lsl #16
     4a8:	00000000 	andeq	r0, r0, r0
     4ac:	02000000 	andeq	r0, r0, #0, 0
     4b0:	68000000 	stmdavs	r0, {}	; <UNPREDICTABLE>
     4b4:	6c000001 	stcvs	0, cr0, [r0], {1}
     4b8:	01000001 	tsteq	r0, r1
     4bc:	016c5000 	cmneq	ip, r0
     4c0:	01700000 	cmneq	r0, r0
     4c4:	00030000 	andeq	r0, r3, r0
     4c8:	009f7970 	addseq	r7, pc, r0, ror r9	; <UNPREDICTABLE>
	...
     4dc:	30000000 	andcc	r0, r0, r0
     4e0:	4b000000 	blmi	4e8 <__code_start__-0x7b18>
     4e4:	01000000 	mrseq	r0, (UNDEF: 0)
     4e8:	004b5000 	subeq	r5, fp, r0
     4ec:	008c0000 	addeq	r0, ip, r0
     4f0:	00010000 	andeq	r0, r1, r0
     4f4:	00008c54 	andeq	r8, r0, r4, asr ip
     4f8:	00009800 	andeq	r9, r0, r0, lsl #16
     4fc:	03000500 	movweq	r0, #1280	; 0x500
     500:	0000a394 	muleq	r0, r4, r3
     504:	00000098 	muleq	r0, r8, r0
     508:	000000ac 	andeq	r0, r0, ip, lsr #1
     50c:	ac500001 	mrrcge	0, 0, r0, r0, cr1	; <UNPREDICTABLE>
     510:	b4000000 	strlt	r0, [r0], #-0
     514:	04000000 	streq	r0, [r0], #-0
     518:	5001f300 	andpl	pc, r1, r0, lsl #6
     51c:	0000b49f 	muleq	r0, pc, r4	; <UNPREDICTABLE>
     520:	00015800 	andeq	r5, r1, r0, lsl #16
     524:	54000100 	strpl	r0, [r0], #-256	; 0xffffff00
	...
     538:	00000030 	andeq	r0, r0, r0, lsr r0
     53c:	0000004b 	andeq	r0, r0, fp, asr #32
     540:	4b510001 	blmi	144054c <__bss_end__+0x14361a4>
     544:	98000000 	stmdals	r0, {}	; <UNPREDICTABLE>
     548:	01000000 	mrseq	r0, (UNDEF: 0)
     54c:	00985500 	addseq	r5, r8, r0, lsl #10
     550:	00a80000 	adceq	r0, r8, r0
     554:	00010000 	andeq	r0, r1, r0
     558:	0000a851 	andeq	sl, r0, r1, asr r8
     55c:	00015800 	andeq	r5, r1, r0, lsl #16
     560:	55000100 	strpl	r0, [r0, #-256]	; 0xffffff00
	...
     56c:	00000002 	andeq	r0, r0, r2
     570:	00000000 	andeq	r0, r0, r0
     574:	00000048 	andeq	r0, r0, r8, asr #32
     578:	0000004b 	andeq	r0, r0, fp, asr #32
     57c:	4b500001 	blmi	1400588 <__bss_end__+0x13f61e0>
     580:	8c000000 	stchi	0, cr0, [r0], {-0}
     584:	01000000 	mrseq	r0, (UNDEF: 0)
     588:	008c5400 	addeq	r5, ip, r0, lsl #8
     58c:	00980000 	addseq	r0, r8, r0
     590:	00050000 	andeq	r0, r5, r0
     594:	00a39403 	adceq	r9, r3, r3, lsl #8
     598:	0000b400 	andeq	fp, r0, r0, lsl #8
     59c:	00015800 	andeq	r5, r1, r0, lsl #16
     5a0:	54000100 	strpl	r0, [r0], #-256	; 0xffffff00
	...
     5b4:	00780000 	rsbseq	r0, r8, r0
     5b8:	00940000 	addseq	r0, r4, r0
     5bc:	00010000 	andeq	r0, r1, r0
     5c0:	00009452 	andeq	r9, r0, r2, asr r4
     5c4:	0000c000 	andeq	ip, r0, r0
     5c8:	f3000400 	vshl.u8	d0, d0, d0
     5cc:	c09f5201 	addsgt	r5, pc, r1, lsl #4
     5d0:	dc000000 	stcle	0, cr0, [r0], {-0}
     5d4:	01000000 	mrseq	r0, (UNDEF: 0)
     5d8:	00dc5200 	sbcseq	r5, ip, r0, lsl #4
     5dc:	00f80000 	rscseq	r0, r8, r0
     5e0:	00040000 	andeq	r0, r4, r0
     5e4:	9f5201f3 	svcls	0x005201f3
     5e8:	000000f8 	strdeq	r0, [r0], -r8
     5ec:	00000120 	andeq	r0, r0, r0, lsr #2
     5f0:	00520001 	subseq	r0, r2, r1
     5f4:	00000000 	andeq	r0, r0, r0
     5f8:	01000000 	mrseq	r0, (UNDEF: 0)
     5fc:	00009000 	andeq	r9, r0, r0
     600:	0000c000 	andeq	ip, r0, r0
     604:	50000100 	andpl	r0, r0, r0, lsl #2
	...
     610:	00900002 	addseq	r0, r0, r2
     614:	00c00000 	sbceq	r0, r0, r0
     618:	00010000 	andeq	r0, r1, r0
     61c:	00000051 	andeq	r0, r0, r1, asr r0
     620:	00000000 	andeq	r0, r0, r0
     624:	94000000 	strls	r0, [r0], #-0
     628:	c0000000 	andgt	r0, r0, r0
     62c:	01000000 	mrseq	r0, (UNDEF: 0)
     630:	00005200 	andeq	r5, r0, r0, lsl #4
     634:	00000000 	andeq	r0, r0, r0
     638:	00020000 	andeq	r0, r2, r0
     63c:	00000094 	muleq	r0, r4, r0
     640:	000000c0 	andeq	r0, r0, r0, asr #1
     644:	00530001 	subseq	r0, r3, r1
	...
     650:	0000dc00 	andeq	sp, r0, r0, lsl #24
     654:	0000f800 	andeq	pc, r0, r0, lsl #16
     658:	52000100 	andpl	r0, r0, #0
	...
     664:	00dc0001 	sbcseq	r0, ip, r1
     668:	00f80000 	rscseq	r0, r8, r0
     66c:	00010000 	andeq	r0, r1, r0
     670:	00000050 	andeq	r0, r0, r0, asr r0
     674:	00000000 	andeq	r0, r0, r0
     678:	dc000200 	sfmle	f0, 4, [r0], {-0}
     67c:	f8000000 			; <UNDEFINED> instruction: 0xf8000000
     680:	01000000 	mrseq	r0, (UNDEF: 0)
     684:	00005100 	andeq	r5, r0, r0, lsl #2
     688:	00000000 	andeq	r0, r0, r0
     68c:	00040000 	andeq	r0, r4, r0
     690:	00dc0000 	sbcseq	r0, ip, r0
     694:	00e00000 	rsceq	r0, r0, r0
     698:	00020000 	andeq	r0, r2, r0
     69c:	00e09f30 	rsceq	r9, r0, r0, lsr pc
     6a0:	00f80000 	rscseq	r0, r8, r0
     6a4:	00010000 	andeq	r0, r1, r0
     6a8:	00000053 	andeq	r0, r0, r3, asr r0
     6ac:	00000000 	andeq	r0, r0, r0
     6b0:	f8000000 			; <UNDEFINED> instruction: 0xf8000000
     6b4:	10000000 	andne	r0, r0, r0
     6b8:	01000001 	tsteq	r0, r1
     6bc:	00005300 	andeq	r5, r0, r0, lsl #6
	...
     6d0:	00380000 	eorseq	r0, r8, r0
     6d4:	00010000 	andeq	r0, r1, r0
     6d8:	00003850 	andeq	r3, r0, r0, asr r8
     6dc:	00004000 	andeq	r4, r0, r0
     6e0:	f3000400 	vshl.u8	d0, d0, d0
     6e4:	409f5001 	addsmi	r5, pc, r1
     6e8:	6c000000 	stcvs	0, cr0, [r0], {-0}
     6ec:	01000000 	mrseq	r0, (UNDEF: 0)
     6f0:	006c5600 	rsbeq	r5, ip, r0, lsl #12
     6f4:	00780000 	rsbseq	r0, r8, r0
     6f8:	00040000 	andeq	r0, r4, r0
     6fc:	9f5001f3 	svcls	0x005001f3
	...
     714:	00000034 	andeq	r0, r0, r4, lsr r0
     718:	34510001 	ldrbcc	r0, [r1], #-1
     71c:	40000000 	andmi	r0, r0, r0
     720:	04000000 	streq	r0, [r0], #-0
     724:	5101f300 	mrspl	pc, SP_irq	; <UNPREDICTABLE>
     728:	0000409f 	muleq	r0, pc, r0	; <UNPREDICTABLE>
     72c:	00006c00 	andeq	r6, r0, r0, lsl #24
     730:	57000100 	strpl	r0, [r0, -r0, lsl #2]
     734:	0000006c 	andeq	r0, r0, ip, rrx
     738:	00000078 	andeq	r0, r0, r8, ror r0
     73c:	01f30004 	mvnseq	r0, r4
     740:	00009f51 	andeq	r9, r0, r1, asr pc
	...
     75c:	00000018 	andeq	r0, r0, r8, lsl r0
     760:	18520001 	ldmdane	r2, {r0}^
     764:	1c000000 	stcne	0, cr0, [r0], {-0}
     768:	01000000 	mrseq	r0, (UNDEF: 0)
     76c:	001c5500 	andseq	r5, ip, r0, lsl #10
     770:	00300000 	eorseq	r0, r0, r0
     774:	00010000 	andeq	r0, r1, r0
     778:	00003052 	andeq	r3, r0, r2, asr r0
     77c:	00003b00 	andeq	r3, r0, r0, lsl #22
     780:	7d000200 	sfmvc	f0, 4, [r0, #-0]
     784:	00003b00 	andeq	r3, r0, r0, lsl #22
     788:	00004000 	andeq	r4, r0, r0
     78c:	f3000400 	vshl.u8	d0, d0, d0
     790:	409f5201 	addsmi	r5, pc, r1, lsl #4
     794:	6c000000 	stcvs	0, cr0, [r0], {-0}
     798:	01000000 	mrseq	r0, (UNDEF: 0)
     79c:	006c5500 	rsbeq	r5, ip, r0, lsl #10
     7a0:	00780000 	rsbseq	r0, r8, r0
     7a4:	00060000 	andeq	r0, r6, r0
     7a8:	355201f3 	ldrbcc	r0, [r2, #-499]	; 0xfffffe0d
     7ac:	00009f25 	andeq	r9, r0, r5, lsr #30
     7b0:	00000000 	andeq	r0, r0, r0
     7b4:	00010000 	andeq	r0, r1, r0
     7b8:	00000000 	andeq	r0, r0, r0
     7bc:	00080000 	andeq	r0, r8, r0
     7c0:	00380000 	eorseq	r0, r8, r0
     7c4:	00010000 	andeq	r0, r1, r0
     7c8:	00003850 	andeq	r3, r0, r0, asr r8
     7cc:	00004000 	andeq	r4, r0, r0
     7d0:	f3000400 	vshl.u8	d0, d0, d0
     7d4:	409f5001 	addsmi	r5, pc, r1
     7d8:	6c000000 	stcvs	0, cr0, [r0], {-0}
     7dc:	01000000 	mrseq	r0, (UNDEF: 0)
     7e0:	006c5600 	rsbeq	r5, ip, r0, lsl #12
     7e4:	00780000 	rsbseq	r0, r8, r0
     7e8:	00040000 	andeq	r0, r4, r0
     7ec:	9f5001f3 	svcls	0x005001f3
	...
     7f8:	00000002 	andeq	r0, r0, r2
     7fc:	00000000 	andeq	r0, r0, r0
     800:	00000008 	andeq	r0, r0, r8
     804:	00000034 	andeq	r0, r0, r4, lsr r0
     808:	34510001 	ldrbcc	r0, [r1], #-1
     80c:	40000000 	andmi	r0, r0, r0
     810:	04000000 	streq	r0, [r0], #-0
     814:	5101f300 	mrspl	pc, SP_irq	; <UNPREDICTABLE>
     818:	0000409f 	muleq	r0, pc, r0	; <UNPREDICTABLE>
     81c:	00006c00 	andeq	r6, r0, r0, lsl #24
     820:	57000100 	strpl	r0, [r0, -r0, lsl #2]
     824:	0000006c 	andeq	r0, r0, ip, rrx
     828:	00000078 	andeq	r0, r0, r8, ror r0
     82c:	01f30004 	mvnseq	r0, r4
     830:	00009f51 	andeq	r9, r0, r1, asr pc
     834:	00000000 	andeq	r0, r0, r0
     838:	00020000 	andeq	r0, r2, r0
     83c:	00180000 	andseq	r0, r8, r0
     840:	001c0000 	andseq	r0, ip, r0
     844:	00020000 	andeq	r0, r2, r0
     848:	00409f30 	subeq	r9, r0, r0, lsr pc
     84c:	006c0000 	rsbeq	r0, ip, r0
     850:	00010000 	andeq	r0, r1, r0
     854:	00000054 	andeq	r0, r0, r4, asr r0
	...
     868:	00004000 	andeq	r4, r0, r0
     86c:	50000100 	andpl	r0, r0, r0, lsl #2
     870:	00000040 	andeq	r0, r0, r0, asr #32
     874:	00000068 	andeq	r0, r0, r8, rrx
     878:	01f30004 	mvnseq	r0, r4
     87c:	00689f50 	rsbeq	r9, r8, r0, asr pc
     880:	007c0000 	rsbseq	r0, ip, r0
     884:	00010000 	andeq	r0, r1, r0
     888:	00007c50 	andeq	r7, r0, r0, asr ip
     88c:	0000a000 	andeq	sl, r0, r0
     890:	f3000400 	vshl.u8	d0, d0, d0
     894:	009f5001 	addseq	r5, pc, r1
	...
     8b8:	00003400 	andeq	r3, r0, r0, lsl #8
     8bc:	52000100 	andpl	r0, r0, #0
     8c0:	00000034 	andeq	r0, r0, r4, lsr r0
     8c4:	00000038 	andeq	r0, r0, r8, lsr r0
     8c8:	01f30004 	mvnseq	r0, r4
     8cc:	00389f52 	eorseq	r9, r8, r2, asr pc
     8d0:	00400000 	subeq	r0, r0, r0
     8d4:	00010000 	andeq	r0, r1, r0
     8d8:	00004052 	andeq	r4, r0, r2, asr r0
     8dc:	00004800 	andeq	r4, r0, r0, lsl #16
     8e0:	53000100 	movwpl	r0, #256	; 0x100
     8e4:	00000048 	andeq	r0, r0, r8, asr #32
     8e8:	0000004c 	andeq	r0, r0, ip, asr #32
     8ec:	4c520001 	mrrcmi	0, 0, r0, r2, cr1
     8f0:	58000000 	stmdapl	r0, {}	; <UNPREDICTABLE>
     8f4:	01000000 	mrseq	r0, (UNDEF: 0)
     8f8:	00585300 	subseq	r5, r8, r0, lsl #6
     8fc:	00680000 	rsbeq	r0, r8, r0
     900:	00040000 	andeq	r0, r4, r0
     904:	9f5201f3 	svcls	0x005201f3
     908:	00000068 	andeq	r0, r0, r8, rrx
     90c:	00000070 	andeq	r0, r0, r0, ror r0
     910:	70520001 	subsvc	r0, r2, r1
     914:	8c000000 	stchi	0, cr0, [r0], {-0}
     918:	01000000 	mrseq	r0, (UNDEF: 0)
     91c:	008c5300 	addeq	r5, ip, r0, lsl #6
     920:	00900000 	addseq	r0, r0, r0
     924:	00010000 	andeq	r0, r1, r0
     928:	00009052 	andeq	r9, r0, r2, asr r0
     92c:	0000a000 	andeq	sl, r0, r0
     930:	53000100 	movwpl	r0, #256	; 0x100
	...
     93c:	02000001 	andeq	r0, r0, #1, 0
     940:	00000002 	andeq	r0, r0, r2
     944:	00000030 	andeq	r0, r0, r0, lsr r0
     948:	00000038 	andeq	r0, r0, r8, lsr r0
     94c:	58500001 	ldmdapl	r0, {r0}^
     950:	58000000 	stmdapl	r0, {}	; <UNPREDICTABLE>
     954:	01000000 	mrseq	r0, (UNDEF: 0)
     958:	00585000 	subseq	r5, r8, r0
     95c:	005c0000 	subseq	r0, ip, r0
     960:	00030000 	andeq	r0, r3, r0
     964:	5c9f0170 	ldfpls	f0, [pc], {112}	; 0x70
     968:	68000000 	stmdavs	r0, {}	; <UNPREDICTABLE>
     96c:	01000000 	mrseq	r0, (UNDEF: 0)
     970:	00005000 	andeq	r5, r0, r0
	...
     97c:	00340000 	eorseq	r0, r4, r0
     980:	00380000 	eorseq	r0, r8, r0
     984:	00010000 	andeq	r0, r1, r0
     988:	00005852 	andeq	r5, r0, r2, asr r8
     98c:	00006800 	andeq	r6, r0, r0, lsl #16
     990:	52000100 	andpl	r0, r0, #0
	...
     99c:	00010101 	andeq	r0, r1, r1, lsl #2
     9a0:	00680000 	rsbeq	r0, r8, r0
     9a4:	007c0000 	rsbseq	r0, ip, r0
     9a8:	00010000 	andeq	r0, r1, r0
     9ac:	00007c50 	andeq	r7, r0, r0, asr ip
     9b0:	00008800 	andeq	r8, r0, r0, lsl #16
     9b4:	70000300 	andvc	r0, r0, r0, lsl #6
     9b8:	00889f08 	addeq	r9, r8, r8, lsl #30
     9bc:	00a00000 	adceq	r0, r0, r0
     9c0:	00010000 	andeq	r0, r1, r0
     9c4:	00000050 	andeq	r0, r0, r0, asr r0
     9c8:	00000000 	andeq	r0, r0, r0
     9cc:	01010100 	mrseq	r0, (UNDEF: 17)
     9d0:	38000000 	stmdacc	r0, {}	; <UNPREDICTABLE>
     9d4:	40000000 	andmi	r0, r0, r0
     9d8:	01000000 	mrseq	r0, (UNDEF: 0)
     9dc:	00405000 	subeq	r5, r0, r0
     9e0:	00440000 	subeq	r0, r4, r0
     9e4:	00030000 	andeq	r0, r3, r0
     9e8:	449f0470 	ldrmi	r0, [pc], #1136	; 9f0 <__code_start__-0x7610>
     9ec:	58000000 	stmdapl	r0, {}	; <UNPREDICTABLE>
     9f0:	01000000 	mrseq	r0, (UNDEF: 0)
     9f4:	00005000 	andeq	r5, r0, r0
	...
     a00:	0000001c 	andeq	r0, r0, ip, lsl r0
     a04:	0000002c 	andeq	r0, r0, ip, lsr #32
     a08:	00500001 	subseq	r0, r0, r1
	...
     a24:	3c000000 	stccc	0, cr0, [r0], {-0}
     a28:	50000001 	andpl	r0, r0, r1
     a2c:	01000001 	tsteq	r0, r1
     a30:	01505000 	cmpeq	r0, r0
     a34:	01780000 	cmneq	r8, r0
     a38:	00010000 	andeq	r0, r1, r0
     a3c:	00017854 	andeq	r7, r1, r4, asr r8
     a40:	00027800 	andeq	r7, r2, r0, lsl #16
     a44:	55000100 	strpl	r0, [r0, #-256]	; 0xffffff00
     a48:	00000278 	andeq	r0, r0, r8, ror r2
     a4c:	00000288 	andeq	r0, r0, r8, lsl #5
     a50:	88520001 	ldmdahi	r2, {r0}^
     a54:	e8000002 	stmda	r0, {r1}
     a58:	01000002 	tsteq	r0, r2
     a5c:	02e85500 	rsceq	r5, r8, #0, 10
     a60:	02f40000 	rscseq	r0, r4, #0, 0
     a64:	00010000 	andeq	r0, r1, r0
     a68:	0002f452 	andeq	pc, r2, r2, asr r4	; <UNPREDICTABLE>
     a6c:	0002ff00 	andeq	pc, r2, r0, lsl #30
     a70:	7d000200 	sfmvc	f0, 4, [r0, #-0]
     a74:	0002ff00 	andeq	pc, r2, r0, lsl #30
     a78:	00030400 	andeq	r0, r3, r0, lsl #8
     a7c:	74000300 	strvc	r0, [r0], #-768	; 0xfffffd00
     a80:	03049f02 	movweq	r9, #20226	; 0x4f02
     a84:	04000000 	streq	r0, [r0], #-0
     a88:	00010000 	andeq	r0, r1, r0
     a8c:	00040055 	andeq	r0, r4, r5, asr r0
     a90:	00040800 	andeq	r0, r4, r0, lsl #16
     a94:	54000100 	strpl	r0, [r0], #-256	; 0xffffff00
	...
     aa4:	00000380 	andeq	r0, r0, r0, lsl #7
     aa8:	00000390 	muleq	r0, r0, r3
     aac:	a8540001 	ldmdage	r4, {r0}^
     ab0:	ac000003 	stcge	0, cr0, [r0], {3}
     ab4:	01000003 	tsteq	r0, r3
     ab8:	00005400 	andeq	r5, r0, r0, lsl #8
	...
     ac4:	000003bc 			; <UNDEFINED> instruction: 0x000003bc
     ac8:	000003e0 	andeq	r0, r0, r0, ror #7
     acc:	00540001 	subseq	r0, r4, r1
     ad0:	00000000 	andeq	r0, r0, r0
     ad4:	01000000 	mrseq	r0, (UNDEF: 0)
     ad8:	cc000000 	stcgt	0, cr0, [r0], {-0}
     adc:	d4000002 	strle	r0, [r0], #-2
     ae0:	01000002 	tsteq	r0, r2
     ae4:	03205100 	nopeq	{0}	; <UNPREDICTABLE>
     ae8:	03270000 			; <UNDEFINED> instruction: 0x03270000
     aec:	00010000 	andeq	r0, r1, r0
     af0:	00000051 	andeq	r0, r0, r1, asr r0
     af4:	00000000 	andeq	r0, r0, r0
     af8:	00000200 	andeq	r0, r0, r0, lsl #4
     afc:	0002cc00 	andeq	ip, r2, r0, lsl #24
     b00:	0002e400 	andeq	lr, r2, r0, lsl #8
     b04:	54000100 	strpl	r0, [r0], #-256	; 0xffffff00
     b08:	00000320 	andeq	r0, r0, r0, lsr #6
     b0c:	0000032c 	andeq	r0, r0, ip, lsr #6
     b10:	00540001 	subseq	r0, r4, r1
	...
     b2c:	00002c00 	andeq	r2, r0, r0, lsl #24
     b30:	00006000 	andeq	r6, r0, r0
     b34:	50000100 	andpl	r0, r0, r0, lsl #2
     b38:	00000060 	andeq	r0, r0, r0, rrx
     b3c:	00000063 	andeq	r0, r0, r3, rrx
     b40:	007d0002 	rsbseq	r0, sp, r2
     b44:	00000063 	andeq	r0, r0, r3, rrx
     b48:	00000068 	andeq	r0, r0, r8, rrx
     b4c:	01f30004 	mvnseq	r0, r4
     b50:	00689f50 	rsbeq	r9, r8, r0, asr pc
     b54:	006c0000 	rsbeq	r0, ip, r0
     b58:	00010000 	andeq	r0, r1, r0
     b5c:	00006c50 	andeq	r6, r0, r0, asr ip
     b60:	00009000 	andeq	r9, r0, r0
     b64:	f3000400 	vshl.u8	d0, d0, d0
     b68:	909f5001 	addsls	r5, pc, r1
     b6c:	94000000 	strls	r0, [r0], #-0
     b70:	01000000 	mrseq	r0, (UNDEF: 0)
     b74:	00945000 	addseq	r5, r4, r0
     b78:	00d00000 	sbcseq	r0, r0, r0
     b7c:	00040000 	andeq	r0, r4, r0
     b80:	9f5001f3 	svcls	0x005001f3
     b84:	000000d0 	ldrdeq	r0, [r0], -r0	; <UNPREDICTABLE>
     b88:	000000d4 	ldrdeq	r0, [r0], -r4
     b8c:	d4500001 	ldrble	r0, [r0], #-1
     b90:	3c000000 	stccc	0, cr0, [r0], {-0}
     b94:	04000001 	streq	r0, [r0], #-1
     b98:	5001f300 	andpl	pc, r1, r0, lsl #6
     b9c:	0000009f 	muleq	r0, pc, r0	; <UNPREDICTABLE>
	...
     bb0:	00002c00 	andeq	r2, r0, r0, lsl #24
     bb4:	00005c00 	andeq	r5, r0, r0, lsl #24
     bb8:	51000100 	mrspl	r0, (UNDEF: 16)
     bbc:	0000005c 	andeq	r0, r0, ip, asr r0
     bc0:	00000068 	andeq	r0, r0, r8, rrx
     bc4:	01f30004 	mvnseq	r0, r4
     bc8:	00689f51 	rsbeq	r9, r8, r1, asr pc
     bcc:	00880000 	addeq	r0, r8, r0
     bd0:	00010000 	andeq	r0, r1, r0
     bd4:	00009051 	andeq	r9, r0, r1, asr r0
     bd8:	0000c400 	andeq	ip, r0, r0, lsl #8
     bdc:	51000100 	mrspl	r0, (UNDEF: 16)
     be0:	000000c4 	andeq	r0, r0, r4, asr #1
     be4:	000000d0 	ldrdeq	r0, [r0], -r0	; <UNPREDICTABLE>
     be8:	d0500001 	subsle	r0, r0, r1
     bec:	f0000000 			; <UNDEFINED> instruction: 0xf0000000
     bf0:	01000000 	mrseq	r0, (UNDEF: 0)
     bf4:	00005100 	andeq	r5, r0, r0, lsl #2
     bf8:	00000000 	andeq	r0, r0, r0
     bfc:	00010000 	andeq	r0, r1, r0
	...
     c10:	00010100 	andeq	r0, r1, r0, lsl #2
     c14:	00340000 	eorseq	r0, r4, r0
     c18:	006c0000 	rsbeq	r0, ip, r0
     c1c:	00030000 	andeq	r0, r3, r0
     c20:	6c9f4c91 	ldcvs	12, cr4, [pc], {145}	; 0x91
     c24:	80000000 	andhi	r0, r0, r0
     c28:	01000000 	mrseq	r0, (UNDEF: 0)
     c2c:	00805400 	addeq	r5, r0, r0, lsl #8
     c30:	00900000 	addseq	r0, r0, r0
     c34:	00030000 	andeq	r0, r3, r0
     c38:	909f7f74 	addsls	r7, pc, r4, ror pc	; <UNPREDICTABLE>
     c3c:	94000000 	strls	r0, [r0], #-0
     c40:	03000000 	movweq	r0, #0
     c44:	9f4c9100 	svcls	0x004c9100
     c48:	00000094 	muleq	r0, r4, r0
     c4c:	000000bc 	strheq	r0, [r0], -ip
     c50:	bc540001 	mrrclt	0, 0, r0, r4, cr1
     c54:	d0000000 	andle	r0, r0, r0
     c58:	03000000 	movweq	r0, #0
     c5c:	9f7f7400 	svcls	0x007f7400
     c60:	000000d0 	ldrdeq	r0, [r0], -r0	; <UNPREDICTABLE>
     c64:	000000d4 	ldrdeq	r0, [r0], -r4
     c68:	4c910003 	ldcmi	0, cr0, [r1], {3}
     c6c:	0000d49f 	muleq	r0, pc, r4	; <UNPREDICTABLE>
     c70:	0000e800 	andeq	lr, r0, r0, lsl #16
     c74:	54000100 	strpl	r0, [r0], #-256	; 0xffffff00
     c78:	000000e8 	andeq	r0, r0, r8, ror #1
     c7c:	000000f8 	strdeq	r0, [r0], -r8
     c80:	7f740003 	svcvc	0x00740003
     c84:	0000f89f 	muleq	r0, pc, r8	; <UNPREDICTABLE>
     c88:	0000f800 	andeq	pc, r0, r0, lsl #16
     c8c:	54000100 	strpl	r0, [r0], #-256	; 0xffffff00
     c90:	000000f8 	strdeq	r0, [r0], -r8
     c94:	00000104 	andeq	r0, r0, r4, lsl #2
     c98:	7f740003 	svcvc	0x00740003
     c9c:	0001049f 	muleq	r1, pc, r4	; <UNPREDICTABLE>
     ca0:	00011c00 	andeq	r1, r1, r0, lsl #24
     ca4:	54000100 	strpl	r0, [r0], #-256	; 0xffffff00
	...
     cb4:	00000018 	andeq	r0, r0, r8, lsl r0
     cb8:	00000028 	andeq	r0, r0, r8, lsr #32
     cbc:	28500001 	ldmdacs	r0, {r0}^
     cc0:	30000000 	andcc	r0, r0, r0
     cc4:	05000000 	streq	r0, [r0, #-0]
     cc8:	a3980300 	orrsge	r0, r8, #0, 6
	...
     cd8:	00000020 	andeq	r0, r0, r0, lsr #32
     cdc:	00000030 	andeq	r0, r0, r0, lsr r0
     ce0:	00520001 	subseq	r0, r2, r1
	...
     cf0:	0c000000 	stceq	0, cr0, [r0], {-0}
     cf4:	01000000 	mrseq	r0, (UNDEF: 0)
     cf8:	000c5000 	andeq	r5, ip, r0
     cfc:	00180000 	andseq	r0, r8, r0
     d00:	00010000 	andeq	r0, r1, r0
     d04:	00000054 	andeq	r0, r0, r4, asr r0
     d08:	00000000 	andeq	r0, r0, r0
     d0c:	01010000 	mrseq	r0, (UNDEF: 1)
     d10:	14000000 	strne	r0, [r0], #-0
     d14:	1c000000 	stcne	0, cr0, [r0], {-0}
     d18:	01000000 	mrseq	r0, (UNDEF: 0)
     d1c:	001c5300 	andseq	r5, ip, r0, lsl #6
     d20:	00240000 	eoreq	r0, r4, r0
     d24:	00030000 	andeq	r0, r3, r0
     d28:	249f0173 	ldrcs	r0, [pc], #371	; d30 <__code_start__-0x72d0>
     d2c:	2b000000 	blcs	d34 <__code_start__-0x72cc>
     d30:	01000000 	mrseq	r0, (UNDEF: 0)
     d34:	00005300 	andeq	r5, r0, r0, lsl #6
	...
     d40:	006c0000 	rsbeq	r0, ip, r0
     d44:	00780000 	rsbseq	r0, r8, r0
     d48:	00010000 	andeq	r0, r1, r0
     d4c:	00007850 	andeq	r7, r0, r0, asr r8
     d50:	00008400 	andeq	r8, r0, r0, lsl #8
     d54:	f3000400 	vshl.u8	d0, d0, d0
     d58:	009f5001 	addseq	r5, pc, r1
	...
     d64:	54000000 	strpl	r0, [r0], #-0
     d68:	60000000 	andvs	r0, r0, r0
     d6c:	01000000 	mrseq	r0, (UNDEF: 0)
     d70:	00605000 	rsbeq	r5, r0, r0
     d74:	006c0000 	rsbeq	r0, ip, r0
     d78:	00040000 	andeq	r0, r4, r0
     d7c:	9f5001f3 	svcls	0x005001f3
	...
     d8c:	00000030 	andeq	r0, r0, r0, lsr r0
     d90:	0000003b 	andeq	r0, r0, fp, lsr r0
     d94:	3b500001 	blcc	1400da0 <__bss_end__+0x13f69f8>
     d98:	54000000 	strpl	r0, [r0], #-0
     d9c:	01000000 	mrseq	r0, (UNDEF: 0)
     da0:	00005500 	andeq	r5, r0, r0, lsl #10
	...
     dac:	00000040 	andeq	r0, r0, r0, asr #32
     db0:	00000054 	andeq	r0, r0, r4, asr r0
     db4:	00540001 	subseq	r0, r4, r1
	...
     dc0:	00004400 	andeq	r4, r0, r0, lsl #8
     dc4:	00004800 	andeq	r4, r0, r0, lsl #16
     dc8:	50000100 	andpl	r0, r0, r0, lsl #2
	...
     dd8:	00000024 	andeq	r0, r0, r4, lsr #32
     ddc:	00000027 	andeq	r0, r0, r7, lsr #32
     de0:	27500001 	ldrbcs	r0, [r0, -r1]
     de4:	30000000 	andcc	r0, r0, r0
     de8:	01000000 	mrseq	r0, (UNDEF: 0)
     dec:	00005400 	andeq	r5, r0, r0, lsl #8
	...
     df8:	00009aa0 	andeq	r9, r0, r0, lsr #21
     dfc:	00009aa4 	andeq	r9, r0, r4, lsr #21
     e00:	00500001 	subseq	r0, r0, r1
     e04:	00000000 	andeq	r0, r0, r0
     e08:	01000000 	mrseq	r0, (UNDEF: 0)
     e0c:	00000000 	andeq	r0, r0, r0
     e10:	009aa000 	addseq	sl, sl, r0
     e14:	009aa400 	addseq	sl, sl, r0, lsl #8
     e18:	70000600 	andvc	r0, r0, r0, lsl #12
     e1c:	1a600800 	bne	1802e24 <__bss_end__+0x17f8a7c>
     e20:	009aa89f 	umullseq	sl, sl, pc, r8	; <UNPREDICTABLE>
     e24:	009ab300 	addseq	fp, sl, r0, lsl #6
     e28:	50000100 	andpl	r0, r0, r0, lsl #2
     e2c:	00009abc 			; <UNDEFINED> instruction: 0x00009abc
     e30:	00009abf 			; <UNDEFINED> instruction: 0x00009abf
     e34:	00500001 	subseq	r0, r0, r1
	...
     e40:	009a3400 	addseq	r3, sl, r0, lsl #8
     e44:	009a3800 	addseq	r3, sl, r0, lsl #16
     e48:	50000100 	andpl	r0, r0, r0, lsl #2
	...
     e54:	00000001 	andeq	r0, r0, r1
     e58:	00009a34 	andeq	r9, r0, r4, lsr sl
     e5c:	00009a38 	andeq	r9, r0, r8, lsr sl
     e60:	00700005 	rsbseq	r0, r0, r5
     e64:	389f1a31 	ldmcc	pc, {r0, r4, r5, r9, fp, ip}	; <UNPREDICTABLE>
     e68:	4000009a 	mulmi	r0, sl, r0
     e6c:	0100009a 	swpeq	r0, sl, [r0]	; <UNPREDICTABLE>
     e70:	00005000 	andeq	r5, r0, r0
	...
     e7c:	99f40000 	ldmibls	r4!, {}^	; <UNPREDICTABLE>
     e80:	99ff0000 	ldmibls	pc!, {}^	; <UNPREDICTABLE>
     e84:	00010000 	andeq	r0, r1, r0
     e88:	0099ff50 	addseq	pc, r9, r0, asr pc	; <UNPREDICTABLE>
     e8c:	009a2800 	addseq	r2, sl, r0, lsl #16
     e90:	f3000400 	vshl.u8	d0, d0, d0
     e94:	009f5001 	addseq	r5, pc, r1
	...
     ea0:	d8000000 	stmdale	r0, {}	; <UNPREDICTABLE>
     ea4:	e4000099 	str	r0, [r0], #-153	; 0xffffff67
     ea8:	01000099 	swpeq	r0, r9, [r0]	; <UNPREDICTABLE>
     eac:	99e85000 	stmibls	r8!, {ip, lr}^
     eb0:	99ec0000 	stmibls	ip!, {}^	; <UNPREDICTABLE>
     eb4:	00010000 	andeq	r0, r1, r0
     eb8:	00000050 	andeq	r0, r0, r0, asr r0
     ebc:	00000000 	andeq	r0, r0, r0
     ec0:	00000100 	andeq	r0, r0, r0, lsl #2
     ec4:	0099d800 	addseq	sp, r9, r0, lsl #16
     ec8:	0099e400 	addseq	lr, r9, r0, lsl #8
     ecc:	70000600 	andvc	r0, r0, r0, lsl #12
     ed0:	1a200800 	bne	802ed8 <__bss_end__+0x7f8b30>
     ed4:	0099e89f 	umullseq	lr, r9, pc, r8	; <UNPREDICTABLE>
     ed8:	0099ec00 	addseq	lr, r9, r0, lsl #24
     edc:	70000600 	andvc	r0, r0, r0, lsl #12
     ee0:	1a200800 	bne	802ee8 <__bss_end__+0x7f8b40>
     ee4:	0000009f 	muleq	r0, pc, r0	; <UNPREDICTABLE>
	...
     ef0:	009a6000 	addseq	r6, sl, r0
     ef4:	009a6300 	addseq	r6, sl, r0, lsl #6
     ef8:	50000100 	andpl	r0, r0, r0, lsl #2
     efc:	00009a63 	andeq	r9, r0, r3, ror #20
     f00:	00009a70 	andeq	r9, r0, r0, ror sl
     f04:	00540001 	subseq	r0, r4, r1
	...
     f10:	00000101 	andeq	r0, r0, r1, lsl #2
     f14:	009b0c00 	addseq	r0, fp, r0, lsl #24
     f18:	009b0c00 	addseq	r0, fp, r0, lsl #24
     f1c:	50000100 	andpl	r0, r0, r0, lsl #2
     f20:	00009b0c 	andeq	r9, r0, ip, lsl #22
     f24:	00009b10 	andeq	r9, r0, r0, lsl fp
     f28:	00700006 	rsbseq	r0, r0, r6
     f2c:	9f1afe09 	svcls	0x001afe09
     f30:	00009b10 	andeq	r9, r0, r0, lsl fp
     f34:	00009b17 	andeq	r9, r0, r7, lsl fp
     f38:	00510001 	subseq	r0, r1, r1
	...
     f44:	02020101 	andeq	r0, r2, #1073741824	; 0x40000000
     f48:	40000000 	andmi	r0, r0, r0
     f4c:	40000099 	mulmi	r0, r9, r0
     f50:	01000099 	swpeq	r0, r9, [r0]	; <UNPREDICTABLE>
     f54:	99405000 	stmdbls	r0, {ip, lr}^
     f58:	99400000 	stmdbls	r0, {}^	; <UNPREDICTABLE>
     f5c:	00060000 	andeq	r0, r6, r0
     f60:	fe090070 	mcr2	0, 0, r0, cr9, cr0, {3}
     f64:	99409f1a 	stmdbls	r0, {r1, r3, r4, r8, r9, sl, fp, ip, pc}^
     f68:	99440000 	stmdbls	r4, {}^	; <UNPREDICTABLE>
     f6c:	00050000 	andeq	r0, r5, r0
     f70:	21310070 	teqcs	r1, r0, ror r0
     f74:	0099449f 	umullseq	r4, r9, pc, r4	; <UNPREDICTABLE>
     f78:	00994b00 	addseq	r4, r9, r0, lsl #22
     f7c:	51000100 	mrspl	r0, (UNDEF: 16)
	...
     f8c:	0000017c 	andeq	r0, r0, ip, ror r1
     f90:	00000187 	andeq	r0, r0, r7, lsl #3
     f94:	87500001 	ldrbhi	r0, [r0, -r1]
     f98:	8c000001 	stchi	0, cr0, [r0], {1}
     f9c:	04000001 	streq	r0, [r0], #-1
     fa0:	5001f300 	andpl	pc, r1, r0, lsl #6
     fa4:	0000009f 	muleq	r0, pc, r0	; <UNPREDICTABLE>
	...
     fb0:	00016c00 	andeq	r6, r1, r0, lsl #24
     fb4:	00017700 	andeq	r7, r1, r0, lsl #14
     fb8:	50000100 	andpl	r0, r0, r0, lsl #2
     fbc:	00000177 	andeq	r0, r0, r7, ror r1
     fc0:	0000017c 	andeq	r0, r0, ip, ror r1
     fc4:	01f30004 	mvnseq	r0, r4
     fc8:	00009f50 	andeq	r9, r0, r0, asr pc
	...
     fe0:	000000ec 	andeq	r0, r0, ip, ror #1
     fe4:	00000124 	andeq	r0, r0, r4, lsr #2
     fe8:	24500001 	ldrbcs	r0, [r0], #-1
     fec:	30000001 	andcc	r0, r0, r1
     ff0:	01000001 	tsteq	r0, r1
     ff4:	01305400 	teqeq	r0, r0, lsl #8
     ff8:	014c0000 	mrseq	r0, (UNDEF: 76)
     ffc:	00040000 	andeq	r0, r4, r0
    1000:	9f5001f3 	svcls	0x005001f3
    1004:	0000014c 	andeq	r0, r0, ip, asr #2
    1008:	00000154 	andeq	r0, r0, r4, asr r1
    100c:	54500001 	ldrbpl	r0, [r0], #-1
    1010:	58000001 	stmdapl	r0, {r0}
    1014:	01000001 	tsteq	r0, r1
    1018:	01585400 	cmpeq	r8, r0, lsl #8
    101c:	015c0000 	cmpeq	ip, r0
    1020:	00010000 	andeq	r0, r1, r0
    1024:	00015c50 	andeq	r5, r1, r0, asr ip
    1028:	00016c00 	andeq	r6, r1, r0, lsl #24
    102c:	54000100 	strpl	r0, [r0], #-256	; 0xffffff00
	...
    1044:	000000ec 	andeq	r0, r0, ip, ror #1
    1048:	00000127 	andeq	r0, r0, r7, lsr #2
    104c:	27510001 	ldrbcs	r0, [r1, -r1]
    1050:	4c000001 	stcmi	0, cr0, [r0], {1}
    1054:	04000001 	streq	r0, [r0], #-1
    1058:	5101f300 	mrspl	pc, SP_irq	; <UNPREDICTABLE>
    105c:	00014c9f 	muleq	r1, pc, ip	; <UNPREDICTABLE>
    1060:	00015000 	andeq	r5, r1, r0
    1064:	51000100 	mrspl	r0, (UNDEF: 16)
    1068:	00000150 	andeq	r0, r0, r0, asr r1
    106c:	00000158 	andeq	r0, r0, r8, asr r1
    1070:	01f30004 	mvnseq	r0, r4
    1074:	01589f51 	cmpeq	r8, r1, asr pc
    1078:	015f0000 	cmpeq	pc, r0
    107c:	00010000 	andeq	r0, r1, r0
    1080:	00015f51 	andeq	r5, r1, r1, asr pc
    1084:	00016c00 	andeq	r6, r1, r0, lsl #24
    1088:	f3000400 	vshl.u8	d0, d0, d0
    108c:	009f5101 	addseq	r5, pc, r1, lsl #2
	...
    109c:	00011400 	andeq	r1, r1, r0, lsl #8
    10a0:	00012c00 	andeq	r2, r1, r0, lsl #24
    10a4:	55000100 	strpl	r0, [r0, #-256]	; 0xffffff00
    10a8:	0000012c 	andeq	r0, r0, ip, lsr #2
    10ac:	00000130 	andeq	r0, r0, r0, lsr r1
    10b0:	0074001e 	rsbseq	r0, r4, lr, lsl r0
    10b4:	25f72cf7 	ldrbcs	r2, [r7, #3319]!	; 0xcf7
    10b8:	cd0825f4 	cfstr32gt	mvfx2, [r8, #-976]	; 0xfffffc30
    10bc:	00cccccc 	sbceq	ip, ip, ip, asr #25
    10c0:	1e000000 	cdpne	0, 0, cr0, cr0, cr0, {0}
    10c4:	25f72008 	ldrbcs	r2, [r7, #8]!
    10c8:	f72cf725 			; <UNDEFINED> instruction: 0xf72cf725
    10cc:	9f253300 	svcls	0x00253300
    10d0:	00000130 	andeq	r0, r0, r0, lsr r1
    10d4:	0000014c 	andeq	r0, r0, ip, asr #2
    10d8:	01f3001f 	mvnseq	r0, pc, lsl r0
    10dc:	f72cf750 			; <UNDEFINED> instruction: 0xf72cf750
    10e0:	0825f425 	stmdaeq	r5!, {r0, r2, r5, sl, ip, sp, lr, pc}
    10e4:	cccccccd 	stclgt	12, cr12, [ip], {205}	; 0xcd
    10e8:	00000000 	andeq	r0, r0, r0
    10ec:	f720081e 			; <UNDEFINED> instruction: 0xf720081e
    10f0:	2cf72525 	cfldr64cs	mvdx2, [r7], #148	; 0x94
    10f4:	253300f7 	ldrcs	r0, [r3, #-247]!	; 0xffffff09
    10f8:	0000009f 	muleq	r0, pc, r0	; <UNPREDICTABLE>
    10fc:	00000000 	andeq	r0, r0, r0
    1100:	20000000 	andcs	r0, r0, r0
    1104:	4c000001 	stcmi	0, cr0, [r0], {1}
    1108:	01000001 	tsteq	r0, r1
    110c:	00005700 	andeq	r5, r0, r0, lsl #14
	...
    1118:	00010100 	andeq	r0, r1, r0, lsl #2
    111c:	01280000 			; <UNDEFINED> instruction: 0x01280000
    1120:	013c0000 	teqeq	ip, r0
    1124:	00010000 	andeq	r0, r1, r0
    1128:	00013c50 	andeq	r3, r1, r0, asr ip
    112c:	00013c00 	andeq	r3, r1, r0, lsl #24
    1130:	51000100 	mrspl	r0, (UNDEF: 16)
    1134:	0000013c 	andeq	r0, r0, ip, lsr r1
    1138:	00000140 	andeq	r0, r0, r0, asr #2
    113c:	00760009 	rsbseq	r0, r6, r9
    1140:	71240074 			; <UNDEFINED> instruction: 0x71240074
    1144:	409f2100 	addsmi	r2, pc, r0, lsl #2
    1148:	47000001 	strmi	r0, [r0, -r1]
    114c:	01000001 	tsteq	r0, r1
    1150:	00005100 	andeq	r5, r0, r0, lsl #2
	...
    115c:	00000134 	andeq	r0, r0, r4, lsr r1
    1160:	0000014c 	andeq	r0, r0, ip, asr #2
    1164:	00540001 	subseq	r0, r4, r1
	...
    1174:	a4000000 	strge	r0, [r0], #-0
    1178:	b8000000 	stmdalt	r0, {}	; <UNPREDICTABLE>
    117c:	01000000 	mrseq	r0, (UNDEF: 0)
    1180:	00b85000 	adcseq	r5, r8, r0
    1184:	00d80000 	sbcseq	r0, r8, r0
    1188:	00010000 	andeq	r0, r1, r0
    118c:	0000d854 	andeq	sp, r0, r4, asr r8
    1190:	0000e000 	andeq	lr, r0, r0
    1194:	50000100 	andpl	r0, r0, r0, lsl #2
    1198:	000000e0 	andeq	r0, r0, r0, ror #1
    119c:	000000ec 	andeq	r0, r0, ip, ror #1
    11a0:	00540001 	subseq	r0, r4, r1
    11a4:	00000000 	andeq	r0, r0, r0
    11a8:	01000000 	mrseq	r0, (UNDEF: 0)
    11ac:	00000101 	andeq	r0, r0, r1, lsl #2
    11b0:	ac000000 	stcge	0, cr0, [r0], {-0}
    11b4:	d0000000 	andle	r0, r0, r0
    11b8:	02000000 	andeq	r0, r0, #0, 0
    11bc:	d09f3000 	addsle	r3, pc, r0
    11c0:	d4000000 	strle	r0, [r0], #-0
    11c4:	06000000 	streq	r0, [r0], -r0
    11c8:	73007000 	movwvc	r7, #0
    11cc:	d49f2500 	ldrle	r2, [pc], #1280	; 11d4 <__code_start__-0x6e2c>
    11d0:	d8000000 	stmdale	r0, {}	; <UNPREDICTABLE>
    11d4:	01000000 	mrseq	r0, (UNDEF: 0)
    11d8:	00d85000 	sbcseq	r5, r8, r0
    11dc:	00ec0000 	rsceq	r0, ip, r0
    11e0:	00020000 	andeq	r0, r2, r0
    11e4:	00009f30 	andeq	r9, r0, r0, lsr pc
	...
    11f4:	000000bc 	strheq	r0, [r0], -ip
    11f8:	000000c0 	andeq	r0, r0, r0, asr #1
    11fc:	00700005 	rsbseq	r0, r0, r5
    1200:	c09f2432 	addsgt	r2, pc, r2, lsr r4	; <UNPREDICTABLE>
    1204:	c3000000 	movwgt	r0, #0
    1208:	01000000 	mrseq	r0, (UNDEF: 0)
    120c:	00c35000 	sbceq	r5, r3, r0
    1210:	00d80000 	sbcseq	r0, r8, r0
    1214:	000c0000 	andeq	r0, ip, r0
    1218:	25350074 	ldrcs	r0, [r5, #-116]!	; 0xffffff8c
    121c:	a0808d23 	addge	r8, r0, r3, lsr #26
    1220:	9f243240 	svcls	0x00243240
	...
    122c:	00c40000 	sbceq	r0, r4, r0
    1230:	00d40000 	sbcseq	r0, r4, r0
    1234:	00010000 	andeq	r0, r1, r0
    1238:	00000050 	andeq	r0, r0, r0, asr r0
    123c:	00000000 	andeq	r0, r0, r0
    1240:	c8000000 	stmdagt	r0, {}	; <UNPREDICTABLE>
    1244:	d8000000 	stmdale	r0, {}	; <UNPREDICTABLE>
    1248:	01000000 	mrseq	r0, (UNDEF: 0)
    124c:	00005300 	andeq	r5, r0, r0, lsl #6
    1250:	00000000 	andeq	r0, r0, r0
    1254:	00010000 	andeq	r0, r1, r0
    1258:	000000c8 	andeq	r0, r0, r8, asr #1
    125c:	000000d8 	ldrdeq	r0, [r0], -r8
    1260:	74310005 	ldrtvc	r0, [r1], #-5
    1264:	009f2400 	addseq	r2, pc, r0, lsl #8
	...
    1274:	88000000 	stmdahi	r0, {}	; <UNPREDICTABLE>
    1278:	97000000 	strls	r0, [r0, -r0]
    127c:	01000000 	mrseq	r0, (UNDEF: 0)
    1280:	00975000 	addseq	r5, r7, r0
    1284:	009c0000 	addseq	r0, ip, r0
    1288:	00040000 	andeq	r0, r4, r0
    128c:	9f5001f3 	svcls	0x005001f3
    1290:	0000009c 	muleq	r0, ip, r0
    1294:	0000009f 	muleq	r0, pc, r0	; <UNPREDICTABLE>
    1298:	9f500001 	svcls	0x00500001
    129c:	a4000000 	strge	r0, [r0], #-0
    12a0:	04000000 	streq	r0, [r0], #-0
    12a4:	5001f300 	andpl	pc, r1, r0, lsl #6
    12a8:	0000009f 	muleq	r0, pc, r0	; <UNPREDICTABLE>
	...
    12b8:	00008800 	andeq	r8, r0, r0, lsl #16
    12bc:	00009700 	andeq	r9, r0, r0, lsl #14
    12c0:	51000100 	mrspl	r0, (UNDEF: 16)
    12c4:	00000097 	muleq	r0, r7, r0
    12c8:	0000009c 	muleq	r0, ip, r0
    12cc:	01f30004 	mvnseq	r0, r4
    12d0:	009c9f51 	addseq	r9, ip, r1, asr pc
    12d4:	009f0000 	addseq	r0, pc, r0
    12d8:	00010000 	andeq	r0, r1, r0
    12dc:	00009f51 	andeq	r9, r0, r1, asr pc
    12e0:	0000a400 	andeq	sl, r0, r0, lsl #8
    12e4:	f3000400 	vshl.u8	d0, d0, d0
    12e8:	009f5101 	addseq	r5, pc, r1, lsl #2
	...
    12fc:	00004800 	andeq	r4, r0, r0, lsl #16
    1300:	00006c00 	andeq	r6, r0, r0, lsl #24
    1304:	50000100 	andpl	r0, r0, r0, lsl #2
    1308:	0000006c 	andeq	r0, r0, ip, rrx
    130c:	00000074 	andeq	r0, r0, r4, ror r0
    1310:	01f30004 	mvnseq	r0, r4
    1314:	00749f50 	rsbseq	r9, r4, r0, asr pc
    1318:	007c0000 	rsbseq	r0, ip, r0
    131c:	00010000 	andeq	r0, r1, r0
    1320:	00007c50 	andeq	r7, r0, r0, asr ip
    1324:	00007f00 	andeq	r7, r0, r0, lsl #30
    1328:	51000100 	mrspl	r0, (UNDEF: 16)
    132c:	0000007f 	andeq	r0, r0, pc, ror r0
    1330:	00000088 	andeq	r0, r0, r8, lsl #1
    1334:	01f30004 	mvnseq	r0, r4
    1338:	00009f50 	andeq	r9, r0, r0, asr pc
	...
    1348:	0000005c 	andeq	r0, r0, ip, asr r0
    134c:	0000006c 	andeq	r0, r0, ip, rrx
    1350:	00730005 	rsbseq	r0, r3, r5
    1354:	6c9f2432 	cfldrsvs	mvf2, [pc], {50}	; 0x32
    1358:	6f000000 	svcvs	0x00000000
    135c:	01000000 	mrseq	r0, (UNDEF: 0)
    1360:	006f5000 	rsbeq	r5, pc, r0
    1364:	00740000 	rsbseq	r0, r4, r0
    1368:	000d0000 	andeq	r0, sp, r0
    136c:	355001f3 	ldrbcc	r0, [r0, #-499]	; 0xfffffe0d
    1370:	808a2325 	addhi	r2, sl, r5, lsr #6
    1374:	243240a0 	ldrtcs	r4, [r2], #-160	; 0xffffff60
    1378:	0000009f 	muleq	r0, pc, r0	; <UNPREDICTABLE>
	...
    1384:	60000000 	andvs	r0, r0, r0
    1388:	68000000 	stmdavs	r0, {}	; <UNPREDICTABLE>
    138c:	01000000 	mrseq	r0, (UNDEF: 0)
    1390:	00685100 	rsbeq	r5, r8, r0, lsl #2
    1394:	006c0000 	rsbeq	r0, ip, r0
    1398:	00050000 	andeq	r0, r5, r0
    139c:	1a4f0070 	bne	13c1564 <__bss_end__+0x13b71bc>
    13a0:	00006c9f 	muleq	r0, pc, ip	; <UNPREDICTABLE>
    13a4:	00007400 	andeq	r7, r0, r0, lsl #8
    13a8:	f3000600 	vmax.u8	d0, d0, d0
    13ac:	1a4f5001 	bne	13d53b8 <__bss_end__+0x13cb010>
    13b0:	0000009f 	muleq	r0, pc, r0	; <UNPREDICTABLE>
    13b4:	00000000 	andeq	r0, r0, r0
    13b8:	00000100 	andeq	r0, r0, r0, lsl #2
    13bc:	60000000 	andvs	r0, r0, r0
    13c0:	68000000 	stmdavs	r0, {}	; <UNPREDICTABLE>
    13c4:	05000000 	streq	r0, [r0, #-0]
    13c8:	00713100 	rsbseq	r3, r1, r0, lsl #2
    13cc:	00689f24 	rsbeq	r9, r8, r4, lsr #30
    13d0:	006f0000 	rsbeq	r0, pc, r0
    13d4:	00010000 	andeq	r0, r1, r0
    13d8:	00006f51 	andeq	r6, r0, r1, asr pc
    13dc:	00007400 	andeq	r7, r0, r0, lsl #8
    13e0:	31000800 	tstcc	r0, r0, lsl #16
    13e4:	4f5001f3 	svcmi	0x005001f3
    13e8:	009f241a 	addseq	r2, pc, sl, lsl r4	; <UNPREDICTABLE>
	...
    13fc:	00000800 	andeq	r0, r0, r0, lsl #16
    1400:	00002c00 	andeq	r2, r0, r0, lsl #24
    1404:	50000100 	andpl	r0, r0, r0, lsl #2
    1408:	0000002c 	andeq	r0, r0, ip, lsr #32
    140c:	00000034 	andeq	r0, r0, r4, lsr r0
    1410:	01f30004 	mvnseq	r0, r4
    1414:	00349f50 	eorseq	r9, r4, r0, asr pc
    1418:	003c0000 	eorseq	r0, ip, r0
    141c:	00010000 	andeq	r0, r1, r0
    1420:	00003c50 	andeq	r3, r0, r0, asr ip
    1424:	00003f00 	andeq	r3, r0, r0, lsl #30
    1428:	51000100 	mrspl	r0, (UNDEF: 16)
    142c:	0000003f 	andeq	r0, r0, pc, lsr r0
    1430:	00000048 	andeq	r0, r0, r8, asr #32
    1434:	01f30004 	mvnseq	r0, r4
    1438:	00009f50 	andeq	r9, r0, r0, asr pc
	...
    1448:	0000001c 	andeq	r0, r0, ip, lsl r0
    144c:	0000002c 	andeq	r0, r0, ip, lsr #32
    1450:	00730005 	rsbseq	r0, r3, r5
    1454:	2c9f2432 	cfldrscs	mvf2, [pc], {50}	; 0x32
    1458:	2f000000 	svccs	0x00000000
    145c:	01000000 	mrseq	r0, (UNDEF: 0)
    1460:	002f5000 	eoreq	r5, pc, r0
    1464:	00340000 	eorseq	r0, r4, r0
    1468:	000d0000 	andeq	r0, sp, r0
    146c:	355001f3 	ldrbcc	r0, [r0, #-499]	; 0xfffffe0d
    1470:	80872325 	addhi	r2, r7, r5, lsr #6
    1474:	243240a0 	ldrtcs	r4, [r2], #-160	; 0xffffff60
    1478:	0000009f 	muleq	r0, pc, r0	; <UNPREDICTABLE>
	...
    1484:	20000000 	andcs	r0, r0, r0
    1488:	28000000 	stmdacs	r0, {}	; <UNPREDICTABLE>
    148c:	01000000 	mrseq	r0, (UNDEF: 0)
    1490:	00285100 	eoreq	r5, r8, r0, lsl #2
    1494:	002c0000 	eoreq	r0, ip, r0
    1498:	00050000 	andeq	r0, r5, r0
    149c:	1a4f0070 	bne	13c1664 <__bss_end__+0x13b72bc>
    14a0:	00002c9f 	muleq	r0, pc, ip	; <UNPREDICTABLE>
    14a4:	00003400 	andeq	r3, r0, r0, lsl #8
    14a8:	f3000600 	vmax.u8	d0, d0, d0
    14ac:	1a4f5001 	bne	13d54b8 <__bss_end__+0x13cb110>
    14b0:	0000009f 	muleq	r0, pc, r0	; <UNPREDICTABLE>
    14b4:	00000000 	andeq	r0, r0, r0
    14b8:	00000100 	andeq	r0, r0, r0, lsl #2
    14bc:	20000000 	andcs	r0, r0, r0
    14c0:	28000000 	stmdacs	r0, {}	; <UNPREDICTABLE>
    14c4:	05000000 	streq	r0, [r0, #-0]
    14c8:	00713100 	rsbseq	r3, r1, r0, lsl #2
    14cc:	00289f24 	eoreq	r9, r8, r4, lsr #30
    14d0:	002f0000 	eoreq	r0, pc, r0
    14d4:	00010000 	andeq	r0, r1, r0
    14d8:	00002f51 	andeq	r2, r0, r1, asr pc
    14dc:	00003400 	andeq	r3, r0, r0, lsl #8
    14e0:	31000800 	tstcc	r0, r0, lsl #16
    14e4:	4f5001f3 	svcmi	0x005001f3
    14e8:	009f241a 	addseq	r2, pc, sl, lsl r4	; <UNPREDICTABLE>
    14ec:	00000000 	andeq	r0, r0, r0
    14f0:	01000000 	mrseq	r0, (UNDEF: 0)
    14f4:	00000000 	andeq	r0, r0, r0
    14f8:	00000800 	andeq	r0, r0, r0, lsl #16
    14fc:	91000200 	mrsls	r0, R8_usr
    1500:	00000070 	andeq	r0, r0, r0, ror r0
    1504:	00000000 	andeq	r0, r0, r0
    1508:	01010000 	mrseq	r0, (UNDEF: 1)
    150c:	00000000 	andeq	r0, r0, r0
    1510:	00000800 	andeq	r0, r0, r0, lsl #16
    1514:	50000100 	andpl	r0, r0, r0, lsl #2
    1518:	00000008 	andeq	r0, r0, r8
    151c:	00000034 	andeq	r0, r0, r4, lsr r0
    1520:	00540001 	subseq	r0, r4, r1
    1524:	00000000 	andeq	r0, r0, r0
    1528:	Address 0x0000000000001528 is out of bounds.


Disassembly of section .debug_aranges:

00000000 <.debug_aranges>:
   0:	0000001c 	andeq	r0, r0, ip, lsl r0
   4:	00000002 	andeq	r0, r0, r2
   8:	00040000 	andeq	r0, r4, r0
   c:	00000000 	andeq	r0, r0, r0
  10:	00008e10 	andeq	r8, r0, r0, lsl lr
  14:	000003cc 	andeq	r0, r0, ip, asr #7
	...
  20:	0000001c 	andeq	r0, r0, ip, lsl r0
  24:	08ad0002 	stmiaeq	sp!, {r1}
  28:	00040000 	andeq	r0, r4, r0
  2c:	00000000 	andeq	r0, r0, r0
  30:	000091dc 	ldrdeq	r9, [r0], -ip
  34:	00000124 	andeq	r0, r0, r4, lsr #2
	...
  40:	0000001c 	andeq	r0, r0, ip, lsl r0
  44:	14de0002 	ldrbne	r0, [lr], #2
  48:	00040000 	andeq	r0, r4, r0
  4c:	00000000 	andeq	r0, r0, r0
  50:	00009300 	andeq	r9, r0, r0, lsl #6
  54:	000000a0 	andeq	r0, r0, r0, lsr #1
	...
  60:	0000001c 	andeq	r0, r0, ip, lsl r0
  64:	1ef20002 	cdpne	0, 15, cr0, cr2, cr2, {0}
  68:	00040000 	andeq	r0, r4, r0
  6c:	00000000 	andeq	r0, r0, r0
  70:	000093a0 	andeq	r9, r0, r0, lsr #7
  74:	0000041c 	andeq	r0, r0, ip, lsl r4
	...
  80:	0000001c 	andeq	r0, r0, ip, lsl r0
  84:	2c0c0002 	stccs	0, cr0, [ip], {2}
  88:	00040000 	andeq	r0, r4, r0
  8c:	00000000 	andeq	r0, r0, r0
  90:	000097bc 			; <UNDEFINED> instruction: 0x000097bc
  94:	00000030 	andeq	r0, r0, r0, lsr r0
	...
  a0:	0000001c 	andeq	r0, r0, ip, lsl r0
  a4:	35e10002 	strbcc	r0, [r1, #2]!
  a8:	00040000 	andeq	r0, r4, r0
  ac:	00000000 	andeq	r0, r0, r0
  b0:	000097ec 	andeq	r9, r0, ip, ror #15
  b4:	00000020 	andeq	r0, r0, r0, lsr #32
	...
  c0:	0000001c 	andeq	r0, r0, ip, lsl r0
  c4:	3f9f0002 	svccc	0x009f0002
  c8:	00040000 	andeq	r0, r4, r0
  cc:	00000000 	andeq	r0, r0, r0
  d0:	0000980c 	andeq	r9, r0, ip, lsl #16
  d4:	00000044 	andeq	r0, r0, r4, asr #32
	...
  e0:	0000001c 	andeq	r0, r0, ip, lsl r0
  e4:	4a300002 	bmi	c000f4 <__bss_end__+0xbf5d4c>
  e8:	00040000 	andeq	r0, r4, r0
  ec:	00000000 	andeq	r0, r0, r0
  f0:	00009850 	andeq	r9, r0, r0, asr r8
  f4:	0000003c 	andeq	r0, r0, ip, lsr r0
	...
 100:	0000001c 	andeq	r0, r0, ip, lsl r0
 104:	54400002 	strbpl	r0, [r0], #-2
 108:	00040000 	andeq	r0, r4, r0
 10c:	00000000 	andeq	r0, r0, r0
 110:	0000988c 	andeq	r9, r0, ip, lsl #17
 114:	00000084 	andeq	r0, r0, r4, lsl #1
	...
 120:	0000001c 	andeq	r0, r0, ip, lsl r0
 124:	5f160002 	svcpl	0x00160002
 128:	00040000 	andeq	r0, r4, r0
 12c:	00000000 	andeq	r0, r0, r0
 130:	00009910 	andeq	r9, r0, r0, lsl r9
 134:	00000218 	andeq	r0, r0, r8, lsl r2
	...
 140:	0000001c 	andeq	r0, r0, ip, lsl r0
 144:	6d7c0002 	ldclvs	0, cr0, [ip, #-8]!
 148:	00040000 	andeq	r0, r4, r0
 14c:	00000000 	andeq	r0, r0, r0
 150:	00009b28 	andeq	r9, r0, r8, lsr #22
 154:	0000018c 	andeq	r0, r0, ip, lsl #3
	...
 160:	0000001c 	andeq	r0, r0, ip, lsl r0
 164:	7b5e0002 	blvc	1780174 <__bss_end__+0x1775dcc>
 168:	00040000 	andeq	r0, r4, r0
 16c:	00000000 	andeq	r0, r0, r0
 170:	00009cb4 			; <UNDEFINED> instruction: 0x00009cb4
 174:	00000034 	andeq	r0, r0, r4, lsr r0
	...
 180:	0000001c 	andeq	r0, r0, ip, lsl r0
 184:	84c20002 	strbhi	r0, [r2], #2
 188:	00040000 	andeq	r0, r4, r0
 18c:	00000000 	andeq	r0, r0, r0
 190:	00009d00 	andeq	r9, r0, r0, lsl #26
 194:	00000004 	andeq	r0, r0, r4
	...

Disassembly of section .debug_ranges:

00000000 <.debug_ranges>:
   0:	00000168 	andeq	r0, r0, r8, ror #2
   4:	00000168 	andeq	r0, r0, r8, ror #2
   8:	00000168 	andeq	r0, r0, r8, ror #2
   c:	00000170 	andeq	r0, r0, r0, ror r1
	...
  18:	000002d4 	ldrdeq	r0, [r0], -r4
  1c:	000002ec 	andeq	r0, r0, ip, ror #5
  20:	0000034c 	andeq	r0, r0, ip, asr #6
  24:	0000036c 	andeq	r0, r0, ip, ror #6
	...
  30:	00000018 	andeq	r0, r0, r8, lsl r0
  34:	0000001c 	andeq	r0, r0, ip, lsl r0
  38:	00000040 	andeq	r0, r0, r0, asr #32
  3c:	00000064 	andeq	r0, r0, r4, rrx
	...
  48:	00000090 	muleq	r0, r0, r0
  4c:	0000009c 	muleq	r0, ip, r0
  50:	000000a0 	andeq	r0, r0, r0, lsr #1
  54:	000000b8 	strheq	r0, [r0], -r8
	...
  60:	00000094 	muleq	r0, r4, r0
  64:	0000009c 	muleq	r0, ip, r0
  68:	000000a0 	andeq	r0, r0, r0, lsr #1
  6c:	000000b8 	strheq	r0, [r0], -r8
	...
  78:	00000068 	andeq	r0, r0, r8, rrx
  7c:	00000078 	andeq	r0, r0, r8, ror r0
  80:	0000007c 	andeq	r0, r0, ip, ror r0
  84:	00000098 	muleq	r0, r8, r0
	...
  90:	0000015c 	andeq	r0, r0, ip, asr r1
  94:	0000015c 	andeq	r0, r0, ip, asr r1
  98:	00000174 	andeq	r0, r0, r4, ror r1
  9c:	00000400 	andeq	r0, r0, r0, lsl #8
	...
  a8:	0000015c 	andeq	r0, r0, ip, asr r1
  ac:	0000015c 	andeq	r0, r0, ip, asr r1
  b0:	00000210 	andeq	r0, r0, r0, lsl r2
  b4:	00000228 	andeq	r0, r0, r8, lsr #4
  b8:	0000022c 	andeq	r0, r0, ip, lsr #4
  bc:	00000248 	andeq	r0, r0, r8, asr #4
  c0:	0000024c 	andeq	r0, r0, ip, asr #4
  c4:	0000026c 	andeq	r0, r0, ip, ror #4
  c8:	00000270 	andeq	r0, r0, r0, ror r2
  cc:	00000360 	andeq	r0, r0, r0, ror #6
  d0:	00000364 	andeq	r0, r0, r4, ror #6
  d4:	0000038c 	andeq	r0, r0, ip, lsl #7
  d8:	00000390 	muleq	r0, r0, r3
  dc:	000003dc 	ldrdeq	r0, [r0], -ip
  e0:	000003e4 	andeq	r0, r0, r4, ror #7
  e4:	00000400 	andeq	r0, r0, r0, lsl #8
	...
  f0:	00009910 	andeq	r9, r0, r0, lsl r9
  f4:	00009b28 	andeq	r9, r0, r8, lsr #22
	...

Disassembly of section .debug_line:

00000000 <.debug_line>:
       0:	00000376 	andeq	r0, r0, r6, ror r3
       4:	00b40003 	adcseq	r0, r4, r3
       8:	01020000 	mrseq	r0, (UNDEF: 2)
       c:	000d0efb 	strdeq	r0, [sp], -fp
      10:	01010101 	tsteq	r1, r1, lsl #2
      14:	01000000 	mrseq	r0, (UNDEF: 0)
      18:	2f010000 	svccs	0x00010000
      1c:	656d6f68 	strbvs	r6, [sp, #-3944]!	; 0xfffff098
      20:	676e652f 	strbvs	r6, [lr, -pc, lsr #10]!
      24:	2f72656c 	svccs	0x0072656c
      28:	73616c63 	cmnvc	r1, #25344	; 0x6300
      2c:	73632f73 	cmnvc	r3, #460	; 0x1cc
      30:	65303431 	ldrvs	r3, [r0, #-1073]!	; 0xfffffbcf
      34:	7736322d 	ldrvc	r3, [r6, -sp, lsr #4]!
      38:	2f2f6e69 	svccs	0x002f6e69
      3c:	7062696c 	rsbvc	r6, r2, ip, ror #18
      40:	6e692f69 	cdpvs	15, 6, cr2, cr9, cr9, {3}
      44:	64756c63 	ldrbtvs	r6, [r5], #-3171	; 0xfffff39d
      48:	752f0065 	strvc	r0, [pc, #-101]!	; ffffffeb <__bss_end__+0xffff5c43>
      4c:	692f7273 	stmdbvs	pc!, {r0, r1, r4, r5, r6, r9, ip, sp, lr}	; <UNPREDICTABLE>
      50:	756c636e 	strbvc	r6, [ip, #-878]!	; 0xfffffc92
      54:	6e2f6564 	cfsh64vs	mvdx6, mvdx15, #52
      58:	696c7765 	stmdbvs	ip!, {r0, r2, r5, r6, r8, r9, sl, ip, sp, lr}^
      5c:	752f0062 	strvc	r0, [pc, #-98]!	; 2 <__code_start__-0x7ffe>
      60:	6c2f7273 	sfmvs	f7, 4, [pc], #-460	; fffffe9c <__bss_end__+0xffff5af4>
      64:	672f6269 	strvs	r6, [pc, -r9, ror #4]!
      68:	612f6363 			; <UNDEFINED> instruction: 0x612f6363
      6c:	6e2d6d72 	mcrvs	13, 1, r6, cr13, cr2, {3}
      70:	2d656e6f 	stclcs	14, cr6, [r5, #-444]!	; 0xfffffe44
      74:	69626165 	stmdbvs	r2!, {r0, r2, r5, r6, r8, sp, lr}^
      78:	2e30312f 	rsfcssp	f3, f0, #10.0
      7c:	2f312e33 	svccs	0x00312e33
      80:	6c636e69 	stclvs	14, cr6, [r3], #-420	; 0xfffffe5c
      84:	00656475 	rsbeq	r6, r5, r5, ror r4
      88:	61747300 	cmnvs	r4, r0, lsl #6
      8c:	6b2d6666 	blvs	b59a2c <__bss_end__+0xb4f684>
      90:	6c6c616d 	stfvse	f6, [ip], #-436	; 0xfffffe4c
      94:	632e636f 			; <UNDEFINED> instruction: 0x632e636f
      98:	00000000 	andeq	r0, r0, r0
      9c:	2e697072 	mcrcs	0, 3, r7, cr9, cr2, {3}
      a0:	00010068 	andeq	r0, r1, r8, rrx
      a4:	72747300 	rsbsvc	r7, r4, #0, 6
      a8:	2e676e69 	cdpcs	14, 6, cr6, cr7, cr9, {3}
      ac:	00020068 	andeq	r0, r2, r8, rrx
      b0:	64747300 	ldrbtvs	r7, [r4], #-768	; 0xfffffd00
      b4:	2e746e69 	cdpcs	14, 7, cr6, cr4, cr9, {3}
      b8:	00030068 	andeq	r0, r3, r8, rrx
      bc:	1e050000 	cdpne	0, 0, cr0, cr5, cr0, {0}
      c0:	10020500 	andne	r0, r2, r0, lsl #10
      c4:	0300008e 	movweq	r0, #142	; 0x8e
      c8:	20050133 	andcs	r0, r5, r3, lsr r1
      cc:	06310501 	ldrteq	r0, [r1], -r1, lsl #10
      d0:	06200501 	strteq	r0, [r0], -r1, lsl #10
      d4:	01220583 	smlawbeq	r2, r3, r5, r0
      d8:	01063505 	tsteq	r6, r5, lsl #10
      dc:	83061e05 	movwhi	r1, #28165	; 0x6e05
      e0:	05012005 	streq	r2, [r1, #-5]
      e4:	0501062d 	streq	r0, [r1, #-1581]	; 0xfffff9d3
      e8:	0685063f 			; <UNDEFINED> instruction: 0x0685063f
      ec:	06050501 	streq	r0, [r5], -r1, lsl #10
      f0:	07051367 	streq	r1, [r5, -r7, ror #6]
      f4:	09050106 	stmdbeq	r5, {r1, r2, r8}
      f8:	05056706 	streq	r6, [r5, #-1798]	; 0xfffff8fa
      fc:	0f051314 	svceq	0x00051314
     100:	07050106 	streq	r0, [r5, -r6, lsl #2]
     104:	0609052e 	streq	r0, [r9], -lr, lsr #10
     108:	1405054b 	strne	r0, [r5], #-1355	; 0xfffffab5
     10c:	04020001 	streq	r0, [r2], #-1
     110:	02004a02 	andeq	r4, r0, #8192	; 0x2000
     114:	05130204 	ldreq	r0, [r3, #-516]	; 0xfffffdfc
     118:	04020013 	streq	r0, [r2], #-19	; 0xffffffed
     11c:	05010602 	streq	r0, [r1, #-1538]	; 0xfffff9fe
     120:	04020007 	streq	r0, [r2], #-7
     124:	09054a02 	stmdbeq	r5, {r1, r9, fp, lr}
     128:	05054b06 	streq	r4, [r5, #-2822]	; 0xfffff4fa
     12c:	060d0515 			; <UNDEFINED> instruction: 0x060d0515
     130:	4a070501 	bmi	1c153c <__bss_end__+0x1b7194>
     134:	4b060905 	blmi	182550 <__bss_end__+0x1781a8>
     138:	05150505 	ldreq	r0, [r5, #-1285]	; 0xfffffafb
     13c:	05010617 	streq	r0, [r1, #-1559]	; 0xfffff9e9
     140:	05054a10 	streq	r4, [r5, #-2576]	; 0xfffff5f0
     144:	1b052f06 	blne	14bd64 <__bss_end__+0x1419bc>
     148:	0e050106 	adfeqs	f0, f5, f6
     14c:	2f01052e 	svccs	0x0001052e
     150:	03060905 	movweq	r0, #26885	; 0x6905
     154:	06014a6f 	streq	r4, [r1], -pc, ror #20
     158:	2e062e82 	cdpcs	14, 0, cr2, cr6, cr2, {4}
     15c:	059e0132 	ldreq	r0, [lr, #306]	; 0x132
     160:	04020005 	streq	r0, [r2], #-5
     164:	02003001 	andeq	r3, r0, #1, 0
     168:	05d60104 	ldrbeq	r0, [r6, #260]	; 0x104
     16c:	d6013009 	strle	r3, [r1], -r9
     170:	20080132 	andcs	r0, r8, r2, lsr r1
     174:	44082805 	strmi	r2, [r8], #-2053	; 0xfffff7fb
     178:	05050106 	streq	r0, [r5, #-262]	; 0xfffffefa
     17c:	06014b06 	streq	r4, [r1], -r6, lsl #22
     180:	132e062e 			; <UNDEFINED> instruction: 0x132e062e
     184:	be031805 	cdplt	8, 0, cr1, cr3, cr5, {0}
     188:	0505017f 	streq	r0, [r5, #-383]	; 0xfffffe81
     18c:	01060113 	tsteq	r6, r3, lsl r1
     190:	13150f06 	tstne	r5, #6, 30
     194:	01060e05 	tsteq	r6, r5, lsl #28
     198:	2e2e1605 	cfmadda32cs	mvax0, mvax1, mvfx14, mvfx5
     19c:	03060505 	movweq	r0, #25861	; 0x6505
     1a0:	010100c2 	smlabteq	r1, r2, r0, r0
     1a4:	02040200 	andeq	r0, r4, #0, 4
     1a8:	04020082 	streq	r0, [r2], #-130	; 0xffffff7e
     1ac:	02001402 	andeq	r1, r0, #33554432	; 0x2000000
     1b0:	05130204 	ldreq	r0, [r3, #-516]	; 0xfffffdfc
     1b4:	04020007 	streq	r0, [r2], #-7
     1b8:	05010602 	streq	r0, [r1, #-1538]	; 0xfffff9fe
     1bc:	054b0609 	strbeq	r0, [fp, #-1545]	; 0xfffff9f7
     1c0:	0a051405 	beq	1451dc <__bss_end__+0x13ae34>
     1c4:	05050106 	streq	r0, [r5, #-262]	; 0xfffffefa
     1c8:	0d056706 	stceq	7, cr6, [r5, #-24]	; 0xffffffe8
     1cc:	07050106 	streq	r0, [r5, -r6, lsl #2]
     1d0:	4e01052e 	cfsh32mi	mvfx0, mvfx1, #30
     1d4:	02000505 	andeq	r0, r0, #20971520	; 0x1400000
     1d8:	03060104 	movweq	r0, #24836	; 0x6104
     1dc:	02004a72 	andeq	r4, r0, #466944	; 0x72000
     1e0:	ba060104 	blt	1805f8 <__bss_end__+0x176250>
     1e4:	01040200 	mrseq	r0, R12_usr
     1e8:	02002e06 	andeq	r2, r0, #96	; 0x60
     1ec:	00310104 	eorseq	r0, r1, r4, lsl #2
     1f0:	06010402 	streq	r0, [r1], -r2, lsl #8
     1f4:	0402002e 	streq	r0, [r2], #-46	; 0xffffffd2
     1f8:	05ba0601 	ldreq	r0, [sl, #1537]!	; 0x601
     1fc:	06013209 	streq	r3, [r1], -r9, lsl #4
     200:	2e06662e 	cfmadd32cs	mvax1, mvfx6, mvfx6, mvfx14
     204:	82060132 	andhi	r0, r6, #-2147483636	; 0x8000000c
     208:	052e0666 	streq	r0, [lr, #-1638]!	; 0xfffff99a
     20c:	06260820 	strteq	r0, [r6], -r0, lsr #16
     210:	06050501 	streq	r0, [r5], -r1, lsl #10
     214:	0200014c 	andeq	r0, r0, #19
     218:	004a0204 	subeq	r0, sl, r4, lsl #4
     21c:	13020402 	movwne	r0, #9218	; 0x2402
     220:	02001205 	andeq	r1, r0, #1342177280	; 0x50000000
     224:	01060204 	tsteq	r6, r4, lsl #4
     228:	02040200 	andeq	r0, r4, #0, 4
     22c:	0402002e 	streq	r0, [r2], #-46	; 0xffffffd2
     230:	05052e02 	streq	r2, [r5, #-3586]	; 0xfffff1fe
     234:	02040200 	andeq	r0, r4, #0, 4
     238:	02002f06 	andeq	r2, r0, #6, 30
     23c:	05670204 	strbeq	r0, [r7, #-516]!	; 0xfffffdfc
     240:	04020001 	streq	r0, [r2], #-1
     244:	05130602 	ldreq	r0, [r3, #-1538]	; 0xfffff9fe
     248:	04020005 	streq	r0, [r2], #-5
     24c:	00620601 	rsbeq	r0, r2, r1, lsl #12
     250:	06010402 	streq	r0, [r1], -r2, lsl #8
     254:	040200ba 	streq	r0, [r2], #-186	; 0xffffff46
     258:	052e0601 	streq	r0, [lr, #-1537]!	; 0xfffff9ff
     25c:	9e09033c 	mcrls	3, 0, r0, cr9, cr12, {1}
     260:	05050106 	streq	r0, [r5, #-262]	; 0xfffffefa
     264:	06014b06 	streq	r4, [r1], -r6, lsl #22
     268:	132e062e 			; <UNDEFINED> instruction: 0x132e062e
     26c:	03180501 	tsteq	r8, #4194304	; 0x400000
     270:	05017f9e 	streq	r7, [r1, #-3998]	; 0xfffff062
     274:	11051305 	tstne	r5, r5, lsl #6
     278:	052e0106 	streq	r0, [lr, #-262]!	; 0xfffffefa
     27c:	00e10305 	rsceq	r0, r1, r5, lsl #6
     280:	134a0601 	movtne	r0, #42497	; 0xa601
     284:	94031805 	strls	r1, [r3], #-2053	; 0xfffff7fb
     288:	0505017f 	streq	r0, [r5, #-383]	; 0xfffffe81
     28c:	06160513 			; <UNDEFINED> instruction: 0x06160513
     290:	05054a01 	streq	r4, [r5, #-2561]	; 0xfffff5ff
     294:	00ef0306 	rsceq	r0, pc, r6, lsl #6
     298:	06120501 	ldreq	r0, [r2], -r1, lsl #10
     29c:	06050501 	streq	r0, [r5], -r1, lsl #10
     2a0:	0318054b 	tsteq	r8, #314572800	; 0x12c00000
     2a4:	05017f9b 	streq	r7, [r1, #-3995]	; 0xfffff065
     2a8:	05011305 	streq	r1, [r1, #-773]	; 0xfffffcfb
     2ac:	05050e18 	streq	r0, [r5, #-3608]	; 0xfffff1e8
     2b0:	06110513 			; <UNDEFINED> instruction: 0x06110513
     2b4:	05052e01 	streq	r2, [r5, #-3585]	; 0xfffff1ff
     2b8:	134a0615 	movtne	r0, #42517	; 0xa615
     2bc:	01060e05 	tsteq	r6, r5, lsl #28
     2c0:	2e16052e 	cfmul64cs	mvdx0, mvdx6, mvdx14
     2c4:	0605052e 	streq	r0, [r5], -lr, lsr #10
     2c8:	0100e403 	tsteq	r0, r3, lsl #8
     2cc:	03180501 	tsteq	r8, #4194304	; 0x400000
     2d0:	05017f91 	streq	r7, [r1, #-3985]	; 0xfffff06f
     2d4:	19051305 	stmdbne	r5, {r0, r2, r8, r9, ip}
     2d8:	052e0106 	streq	r0, [lr, #-262]!	; 0xfffffefa
     2dc:	00ee0305 	rsceq	r0, lr, r5, lsl #6
     2e0:	04020001 	streq	r0, [r2], #-1
     2e4:	004a0602 	subeq	r0, sl, r2, lsl #12
     2e8:	14020402 	strne	r0, [r2], #-1026	; 0xfffffbfe
     2ec:	02000a05 	andeq	r0, r0, #20480	; 0x5000
     2f0:	01060204 	tsteq	r6, r4, lsl #4
     2f4:	02000505 	andeq	r0, r0, #20971520	; 0x1400000
     2f8:	4b060204 	blmi	180b10 <__bss_end__+0x176768>
     2fc:	02000c05 	andeq	r0, r0, #1280	; 0x500
     300:	01060204 	tsteq	r6, r4, lsl #4
     304:	02000105 	andeq	r0, r0, #1073741825	; 0x40000001
     308:	052f0204 	streq	r0, [pc, #-516]!	; 10c <__code_start__-0x7ef4>
     30c:	04020005 	streq	r0, [r2], #-5
     310:	74030601 	strvc	r0, [r3], #-1537	; 0xfffff9ff
     314:	0402004a 	streq	r0, [r2], #-74	; 0xffffffb6
     318:	009e0601 	addseq	r0, lr, r1, lsl #12
     31c:	2e010402 	cdpcs	4, 0, cr0, cr1, cr2, {0}
     320:	01040200 	mrseq	r0, R12_usr
     324:	02002e06 	andeq	r2, r0, #96	; 0x60
     328:	002f0104 	eoreq	r0, pc, r4, lsl #2
     32c:	06010402 	streq	r0, [r1], -r2, lsl #8
     330:	0402009e 	streq	r0, [r2], #-158	; 0xffffff62
     334:	02002e01 	andeq	r2, r0, #1, 28
     338:	2e060104 	adfcss	f0, f6, f4
     33c:	2e7fa203 	cdpcs	2, 7, cr10, cr15, cr3, {0}
     340:	2e2e8206 	cdpcs	2, 2, cr8, cr14, cr6, {0}
     344:	2e062e06 	cdpcs	14, 0, cr2, cr6, cr6, {0}
     348:	01040200 	mrseq	r0, R12_usr
     34c:	00e50306 	rsceq	r0, r5, r6, lsl #6
     350:	04020001 	streq	r0, [r2], #-1
     354:	002e0601 	eoreq	r0, lr, r1, lsl #12
     358:	66010402 	strvs	r0, [r1], -r2, lsl #8
     35c:	01040200 	mrseq	r0, R12_usr
     360:	0402004a 	streq	r0, [r2], #-74	; 0xffffffb6
     364:	052e0601 	streq	r0, [lr, #-1537]!	; 0xfffff9ff
     368:	057b0816 	ldrbeq	r0, [fp, #-2070]!	; 0xfffff7ea
     36c:	1d050118 	stfnes	f0, [r5, #-96]	; 0xffffffa0
     370:	2b050106 	blcs	140790 <__bss_end__+0x1363e8>
     374:	00040266 	andeq	r0, r4, r6, ror #4
     378:	031d0101 	tsteq	sp, #1073741824	; 0x40000000
     37c:	00030000 	andeq	r0, r3, r0
     380:	00000176 	andeq	r0, r0, r6, ror r1
     384:	0efb0102 	cdpeq	1, 15, cr0, cr11, cr2, {0}
     388:	0101000d 	tsteq	r1, sp
     38c:	00000101 	andeq	r0, r0, r1, lsl #2
     390:	00000100 	andeq	r0, r0, r0, lsl #2
     394:	6c2f2e01 	stcvs	14, cr2, [pc], #-4	; 398 <__code_start__-0x7c68>
     398:	00636269 	rsbeq	r6, r3, r9, ror #4
     39c:	74706f2f 	ldrbtvc	r6, [r0], #-3887	; 0xfffff0d1
     3a0:	6d6f682f 	stclvs	8, cr6, [pc, #-188]!	; 2ec <__code_start__-0x7d14>
     3a4:	65726265 	ldrbvs	r6, [r2, #-613]!	; 0xfffffd9b
     3a8:	65432f77 	strbvs	r2, [r3, #-3959]	; 0xfffff089
     3ac:	72616c6c 	rsbvc	r6, r1, #108, 24	; 0x6c00
     3b0:	6d72612f 	ldfvse	f6, [r2, #-188]!	; 0xffffff44
     3b4:	6e6f6e2d 	cdpvs	14, 6, cr6, cr15, cr13, {1}
     3b8:	61652d65 	cmnvs	r5, r5, ror #26
     3bc:	742d6962 	strtvc	r6, [sp], #-2402	; 0xfffff69e
     3c0:	2f747365 	svccs	0x00747365
     3c4:	30322d39 	eorscc	r2, r2, r9, lsr sp
     3c8:	34713931 	ldrbtcc	r3, [r1], #-2353	; 0xfffff6cf
     3cc:	3173632d 	cmncc	r3, sp, lsr #6
     3d0:	2f653730 	svccs	0x00653730
     3d4:	2f62696c 	svccs	0x0062696c
     3d8:	2f636367 	svccs	0x00636367
     3dc:	2d6d7261 	sfmcs	f7, 2, [sp, #-388]!	; 0xfffffe7c
     3e0:	656e6f6e 	strbvs	r6, [lr, #-3950]!	; 0xfffff092
     3e4:	6261652d 	rsbvs	r6, r1, #188743680	; 0xb400000
     3e8:	2e392f69 	cdpcs	15, 3, cr2, cr9, cr9, {3}
     3ec:	2f312e32 	svccs	0x00312e32
     3f0:	6c636e69 	stclvs	14, cr6, [r3], #-420	; 0xfffffe5c
     3f4:	00656475 	rsbeq	r6, r5, r5, ror r4
     3f8:	74706f2f 	ldrbtvc	r6, [r0], #-3887	; 0xfffff0d1
     3fc:	6d6f682f 	stclvs	8, cr6, [pc, #-188]!	; 348 <__code_start__-0x7cb8>
     400:	65726265 	ldrbvs	r6, [r2, #-613]!	; 0xfffffd9b
     404:	65432f77 	strbvs	r2, [r3, #-3959]	; 0xfffff089
     408:	72616c6c 	rsbvc	r6, r1, #108, 24	; 0x6c00
     40c:	6d72612f 	ldfvse	f6, [r2, #-188]!	; 0xffffff44
     410:	6e6f6e2d 	cdpvs	14, 6, cr6, cr15, cr13, {1}
     414:	61652d65 	cmnvs	r5, r5, ror #26
     418:	742d6962 	strtvc	r6, [sp], #-2402	; 0xfffff69e
     41c:	2f747365 	svccs	0x00747365
     420:	30322d39 	eorscc	r2, r2, r9, lsr sp
     424:	34713931 	ldrbtcc	r3, [r1], #-2353	; 0xfffff6cf
     428:	3173632d 	cmncc	r3, sp, lsr #6
     42c:	2f653730 	svccs	0x00653730
     430:	2d6d7261 	sfmcs	f7, 2, [sp, #-388]!	; 0xfffffe7c
     434:	656e6f6e 	strbvs	r6, [lr, #-3950]!	; 0xfffff092
     438:	6261652d 	rsbvs	r6, r1, #188743680	; 0xb400000
     43c:	6e692f69 	cdpvs	15, 6, cr2, cr9, cr9, {3}
     440:	64756c63 	ldrbtvs	r6, [r5], #-3171	; 0xfffff39d
     444:	79732f65 	ldmdbvc	r3!, {r0, r2, r5, r6, r8, r9, sl, fp, sp}^
     448:	002e0073 	eoreq	r0, lr, r3, ror r0
     44c:	74706f2f 	ldrbtvc	r6, [r0], #-3887	; 0xfffff0d1
     450:	6d6f682f 	stclvs	8, cr6, [pc, #-188]!	; 39c <__code_start__-0x7c64>
     454:	65726265 	ldrbvs	r6, [r2, #-613]!	; 0xfffffd9b
     458:	65432f77 	strbvs	r2, [r3, #-3959]	; 0xfffff089
     45c:	72616c6c 	rsbvc	r6, r1, #108, 24	; 0x6c00
     460:	6d72612f 	ldfvse	f6, [r2, #-188]!	; 0xffffff44
     464:	6e6f6e2d 	cdpvs	14, 6, cr6, cr15, cr13, {1}
     468:	61652d65 	cmnvs	r5, r5, ror #26
     46c:	742d6962 	strtvc	r6, [sp], #-2402	; 0xfffff69e
     470:	2f747365 	svccs	0x00747365
     474:	30322d39 	eorscc	r2, r2, r9, lsr sp
     478:	34713931 	ldrbtcc	r3, [r1], #-2353	; 0xfffff6cf
     47c:	3173632d 	cmncc	r3, sp, lsr #6
     480:	2f653730 	svccs	0x00653730
     484:	2d6d7261 	sfmcs	f7, 2, [sp, #-388]!	; 0xfffffe7c
     488:	656e6f6e 	strbvs	r6, [lr, #-3950]!	; 0xfffff092
     48c:	6261652d 	rsbvs	r6, r1, #188743680	; 0xb400000
     490:	6e692f69 	cdpvs	15, 6, cr2, cr9, cr9, {3}
     494:	64756c63 	ldrbtvs	r6, [r5], #-3171	; 0xfffff39d
     498:	6d000065 	stcvs	0, cr0, [r0, #-404]	; 0xfffffe6c
     49c:	70636d65 	rsbvc	r6, r3, r5, ror #26
     4a0:	00632e79 	rsbeq	r2, r3, r9, ror lr
     4a4:	73000001 	movwvc	r0, #1
     4a8:	65646474 	strbvs	r6, [r4, #-1140]!	; 0xfffffb8c
     4ac:	00682e66 	rsbeq	r2, r8, r6, ror #28
     4b0:	73000002 	movwvc	r0, #2
     4b4:	6e696474 	mcrvs	4, 3, r6, cr9, cr4, {3}
     4b8:	63672d74 	cmnvs	r7, #116, 26	; 0x1d00
     4bc:	00682e63 	rsbeq	r2, r8, r3, ror #28
     4c0:	6c000002 	stcvs	0, cr0, [r0], {2}
     4c4:	2e6b636f 	cdpcs	3, 6, cr6, cr11, cr15, {3}
     4c8:	00030068 	andeq	r0, r3, r8, rrx
     4cc:	79745f00 	ldmdbvc	r4!, {r8, r9, sl, fp, ip, lr}^
     4d0:	2e736570 	mrccs	5, 3, r6, cr3, cr0, {3}
     4d4:	00030068 	andeq	r0, r3, r8, rrx
     4d8:	65657200 	strbvs	r7, [r5, #-512]!	; 0xfffffe00
     4dc:	682e746e 	stmdavs	lr!, {r1, r2, r3, r5, r6, sl, ip, sp, lr}
     4e0:	00000300 	andeq	r0, r0, r0, lsl #6
     4e4:	2e697072 	mcrcs	0, 3, r7, cr9, cr2, {3}
     4e8:	00040068 	andeq	r0, r4, r8, rrx
     4ec:	72747300 	rsbsvc	r7, r4, #0, 6
     4f0:	2e676e69 	cdpcs	14, 6, cr6, cr7, cr9, {3}
     4f4:	00050068 	andeq	r0, r5, r8, rrx
     4f8:	3b050000 	blcc	140500 <__bss_end__+0x136158>
     4fc:	dc020500 	cfstr32le	mvfx0, [r2], {-0}
     500:	19000091 	stmdbne	r0, {r0, r4, r7}
     504:	05050106 	streq	r0, [r5, #-262]	; 0xfffffefa
     508:	14154b06 	ldrne	r4, [r5], #-2822	; 0xfffff4fa
     50c:	01060705 	tsteq	r6, r5, lsl #14
     510:	67060905 	strvs	r0, [r6, -r5, lsl #18]
     514:	05150505 	ldreq	r0, [r5, #-1285]	; 0xfffffafb
     518:	0501060c 	streq	r0, [r1, #-1548]	; 0xfffff9f4
     51c:	052f0605 	streq	r0, [pc, #-1541]!	; ffffff1f <__bss_end__+0xffff5b77>
     520:	05050109 	streq	r0, [r5, #-265]	; 0xfffffef7
     524:	052e0106 	streq	r0, [lr, #-262]!	; 0xfffffefa
     528:	010e0609 	tsteq	lr, r9, lsl #12
     52c:	2e2e9e06 	cdpcs	14, 2, cr9, cr14, cr6, {0}
     530:	02002e06 	andeq	r2, r0, #96	; 0x60
     534:	05330304 	ldreq	r0, [r3, #-772]!	; 0xfffffcfc
     538:	0402000e 	streq	r0, [r2], #-14
     53c:	05010603 	streq	r0, [r1, #-1539]	; 0xfffff9fd
     540:	04020025 	streq	r0, [r2], #-37	; 0xffffffdb
     544:	05b90603 	ldreq	r0, [r9, #1539]!	; 0x603
     548:	04020026 	streq	r0, [r2], #-38	; 0xffffffda
     54c:	05010603 	streq	r0, [r1, #-1539]	; 0xfffff9fd
     550:	04020019 	streq	r0, [r2], #-25	; 0xffffffe7
     554:	052e0601 	streq	r0, [lr, #-1537]!	; 0xfffff9ff
     558:	04020005 	streq	r0, [r2], #-5
     55c:	05010601 	streq	r0, [r1, #-1537]	; 0xfffff9ff
     560:	054a4d01 	strbeq	r4, [sl, #-3329]	; 0xfffff2ff
     564:	05000639 	streq	r0, [r0, #-1593]	; 0xfffff9c7
     568:	00925402 	addseq	r5, r2, r2, lsl #8
     56c:	05051400 	streq	r1, [r5, #-1024]	; 0xfffffc00
     570:	06070514 			; <UNDEFINED> instruction: 0x06070514
     574:	00160501 	andseq	r0, r6, r1, lsl #10
     578:	4a010402 	bmi	41588 <__bss_end__+0x371e0>
     57c:	02002705 	andeq	r2, r0, #1310720	; 0x140000
     580:	054a0204 	strbeq	r0, [sl, #-516]	; 0xfffffdfc
     584:	134b0609 	movtne	r0, #46601	; 0xb609
     588:	06120513 			; <UNDEFINED> instruction: 0x06120513
     58c:	06090501 	streq	r0, [r9], -r1, lsl #10
     590:	010d0530 	tsteq	sp, r0, lsr r5
     594:	05011d05 	streq	r1, [r1, #-3333]	; 0xfffff2fb
     598:	05010609 	streq	r0, [r1, #-1545]	; 0xfffff9f7
     59c:	4a790339 	bmi	1e41288 <__bss_end__+0x1e36ee0>
     5a0:	02000d05 	andeq	r0, r0, #320	; 0x140
     5a4:	36060304 	strcc	r0, [r6], -r4, lsl #6
     5a8:	02001505 	andeq	r1, r0, #20971520	; 0x1400000
     5ac:	01060304 	tsteq	r6, r4, lsl #6
     5b0:	02001205 	andeq	r1, r0, #1342177280	; 0x50000000
     5b4:	054a0304 	strbeq	r0, [sl, #-772]	; 0xfffffcfc
     5b8:	04020024 	streq	r0, [r2], #-36	; 0xffffffdc
     5bc:	052d0603 	streq	r0, [sp, #-1539]!	; 0xfffff9fd
     5c0:	04020025 	streq	r0, [r2], #-37	; 0xffffffdb
     5c4:	05010603 	streq	r0, [r1, #-1539]	; 0xfffff9fd
     5c8:	0402001d 	streq	r0, [r2], #-29	; 0xffffffe3
     5cc:	052e0603 	streq	r0, [lr, #-1539]!	; 0xfffff9fd
     5d0:	04020009 	streq	r0, [r2], #-9
     5d4:	05010603 	streq	r0, [r1, #-1539]	; 0xfffff9fd
     5d8:	17030605 	strne	r0, [r3, -r5, lsl #12]
     5dc:	0601054a 	streq	r0, [r1], -sl, asr #10
     5e0:	060c0513 			; <UNDEFINED> instruction: 0x060c0513
     5e4:	054a7003 	strbeq	r7, [sl, #-3]
     5e8:	0501060e 	streq	r0, [r1, #-1550]	; 0xfffff9f2
     5ec:	0402001d 	streq	r0, [r2], #-29	; 0xffffffe3
     5f0:	2e054a01 	vmlacs.f32	s8, s10, s2
     5f4:	02040200 	andeq	r0, r4, #0, 4
     5f8:	0609054a 	streq	r0, [r9], -sl, asr #10
     5fc:	0612054b 	ldreq	r0, [r2], -fp, asr #10
     600:	06090501 	streq	r0, [r9], -r1, lsl #10
     604:	0514132f 	ldreq	r1, [r4, #-815]	; 0xfffffcd1
     608:	0905010d 	stmdbeq	r5, {r0, r2, r3, r8}
     60c:	0d050106 	stfeqs	f0, [r5, #-24]	; 0xffffffe8
     610:	03040200 	movweq	r0, #16896	; 0x4200
     614:	15052f06 	strne	r2, [r5, #-3846]	; 0xfffff0fa
     618:	03040200 	movweq	r0, #16896	; 0x4200
     61c:	12050106 	andne	r0, r5, #-2147483647	; 0x80000001
     620:	03040200 	movweq	r0, #16896	; 0x4200
     624:	0024052e 	eoreq	r0, r4, lr, lsr #10
     628:	06030402 	streq	r0, [r3], -r2, lsl #8
     62c:	0025052d 	eoreq	r0, r5, sp, lsr #10
     630:	06030402 	streq	r0, [r3], -r2, lsl #8
     634:	001d0501 	andseq	r0, sp, r1, lsl #10
     638:	06010402 	streq	r0, [r1], -r2, lsl #8
     63c:	0009052e 	andeq	r0, r9, lr, lsr #10
     640:	06010402 	streq	r0, [r1], -r2, lsl #8
     644:	04020001 	streq	r0, [r2], #-1
     648:	0d056601 	stceq	6, cr6, [r5, #-4]
     64c:	03040200 	movweq	r0, #16896	; 0x4200
     650:	15051a06 	strne	r1, [r5, #-2566]	; 0xfffff5fa
     654:	03040200 	movweq	r0, #16896	; 0x4200
     658:	12050106 	andne	r0, r5, #-2147483647	; 0x80000001
     65c:	03040200 	movweq	r0, #16896	; 0x4200
     660:	0029052e 	eoreq	r0, r9, lr, lsr #10
     664:	06030402 	streq	r0, [r3], -r2, lsl #8
     668:	002a052d 	eoreq	r0, sl, sp, lsr #10
     66c:	06030402 	streq	r0, [r3], -r2, lsl #8
     670:	001d0501 	andseq	r0, sp, r1, lsl #10
     674:	06010402 	streq	r0, [r1], -r2, lsl #8
     678:	0009052e 	andeq	r0, r9, lr, lsr #10
     67c:	06010402 	streq	r0, [r1], -r2, lsl #8
     680:	04020001 	streq	r0, [r2], #-1
     684:	02006601 	andeq	r6, r0, #1048576	; 0x100000
     688:	054a0104 	strbeq	r0, [sl, #-260]	; 0xfffffefc
     68c:	05510617 	ldrbeq	r0, [r1, #-1559]	; 0xfffff9e9
     690:	01050119 	tsteq	r5, r9, lsl r1
     694:	02020106 	andeq	r0, r2, #-2147483647	; 0x80000001
     698:	40010100 	andmi	r0, r1, r0, lsl #2
     69c:	03000002 	movweq	r0, #2
     6a0:	00017600 	andeq	r7, r1, r0, lsl #12
     6a4:	fb010200 	blx	40eae <__bss_end__+0x36b06>
     6a8:	01000d0e 	tsteq	r0, lr, lsl #26
     6ac:	00010101 	andeq	r0, r1, r1, lsl #2
     6b0:	00010000 	andeq	r0, r1, r0
     6b4:	2f2e0100 	svccs	0x002e0100
     6b8:	6362696c 	cmnvs	r2, #108, 18	; 0x1b0000
     6bc:	706f2f00 	rsbvc	r2, pc, r0, lsl #30
     6c0:	6f682f74 	svcvs	0x00682f74
     6c4:	7262656d 	rsbvc	r6, r2, #457179136	; 0x1b400000
     6c8:	432f7765 			; <UNDEFINED> instruction: 0x432f7765
     6cc:	616c6c65 	cmnvs	ip, r5, ror #24
     6d0:	72612f72 	rsbvc	r2, r1, #456	; 0x1c8
     6d4:	6f6e2d6d 	svcvs	0x006e2d6d
     6d8:	652d656e 	strvs	r6, [sp, #-1390]!	; 0xfffffa92
     6dc:	2d696261 	sfmcs	f6, 2, [r9, #-388]!	; 0xfffffe7c
     6e0:	74736574 	ldrbtvc	r6, [r3], #-1396	; 0xfffffa8c
     6e4:	322d392f 	eorcc	r3, sp, #770048	; 0xbc000
     6e8:	71393130 	teqvc	r9, r0, lsr r1
     6ec:	73632d34 	cmnvc	r3, #52, 26	; 0xd00
     6f0:	65373031 	ldrvs	r3, [r7, #-49]!	; 0xffffffcf
     6f4:	62696c2f 	rsbvs	r6, r9, #12032	; 0x2f00
     6f8:	6363672f 	cmnvs	r3, #12320768	; 0xbc0000
     6fc:	6d72612f 	ldfvse	f6, [r2, #-188]!	; 0xffffff44
     700:	6e6f6e2d 	cdpvs	14, 6, cr6, cr15, cr13, {1}
     704:	61652d65 	cmnvs	r5, r5, ror #26
     708:	392f6962 	stmdbcc	pc!, {r1, r5, r6, r8, fp, sp, lr}	; <UNPREDICTABLE>
     70c:	312e322e 			; <UNDEFINED> instruction: 0x312e322e
     710:	636e692f 	cmnvs	lr, #770048	; 0xbc000
     714:	6564756c 	strbvs	r7, [r4, #-1388]!	; 0xfffffa94
     718:	706f2f00 	rsbvc	r2, pc, r0, lsl #30
     71c:	6f682f74 	svcvs	0x00682f74
     720:	7262656d 	rsbvc	r6, r2, #457179136	; 0x1b400000
     724:	432f7765 			; <UNDEFINED> instruction: 0x432f7765
     728:	616c6c65 	cmnvs	ip, r5, ror #24
     72c:	72612f72 	rsbvc	r2, r1, #456	; 0x1c8
     730:	6f6e2d6d 	svcvs	0x006e2d6d
     734:	652d656e 	strvs	r6, [sp, #-1390]!	; 0xfffffa92
     738:	2d696261 	sfmcs	f6, 2, [r9, #-388]!	; 0xfffffe7c
     73c:	74736574 	ldrbtvc	r6, [r3], #-1396	; 0xfffffa8c
     740:	322d392f 	eorcc	r3, sp, #770048	; 0xbc000
     744:	71393130 	teqvc	r9, r0, lsr r1
     748:	73632d34 	cmnvc	r3, #52, 26	; 0xd00
     74c:	65373031 	ldrvs	r3, [r7, #-49]!	; 0xffffffcf
     750:	6d72612f 	ldfvse	f6, [r2, #-188]!	; 0xffffff44
     754:	6e6f6e2d 	cdpvs	14, 6, cr6, cr15, cr13, {1}
     758:	61652d65 	cmnvs	r5, r5, ror #26
     75c:	692f6962 	stmdbvs	pc!, {r1, r5, r6, r8, fp, sp, lr}	; <UNPREDICTABLE>
     760:	756c636e 	strbvc	r6, [ip, #-878]!	; 0xfffffc92
     764:	732f6564 			; <UNDEFINED> instruction: 0x732f6564
     768:	2e007379 	mcrcs	3, 0, r7, cr0, cr9, {3}
     76c:	706f2f00 	rsbvc	r2, pc, r0, lsl #30
     770:	6f682f74 	svcvs	0x00682f74
     774:	7262656d 	rsbvc	r6, r2, #457179136	; 0x1b400000
     778:	432f7765 			; <UNDEFINED> instruction: 0x432f7765
     77c:	616c6c65 	cmnvs	ip, r5, ror #24
     780:	72612f72 	rsbvc	r2, r1, #456	; 0x1c8
     784:	6f6e2d6d 	svcvs	0x006e2d6d
     788:	652d656e 	strvs	r6, [sp, #-1390]!	; 0xfffffa92
     78c:	2d696261 	sfmcs	f6, 2, [r9, #-388]!	; 0xfffffe7c
     790:	74736574 	ldrbtvc	r6, [r3], #-1396	; 0xfffffa8c
     794:	322d392f 	eorcc	r3, sp, #770048	; 0xbc000
     798:	71393130 	teqvc	r9, r0, lsr r1
     79c:	73632d34 	cmnvc	r3, #52, 26	; 0xd00
     7a0:	65373031 	ldrvs	r3, [r7, #-49]!	; 0xffffffcf
     7a4:	6d72612f 	ldfvse	f6, [r2, #-188]!	; 0xffffff44
     7a8:	6e6f6e2d 	cdpvs	14, 6, cr6, cr15, cr13, {1}
     7ac:	61652d65 	cmnvs	r5, r5, ror #26
     7b0:	692f6962 	stmdbvs	pc!, {r1, r5, r6, r8, fp, sp, lr}	; <UNPREDICTABLE>
     7b4:	756c636e 	strbvc	r6, [ip, #-878]!	; 0xfffffc92
     7b8:	00006564 	andeq	r6, r0, r4, ror #10
     7bc:	736d656d 	cmnvc	sp, #457179136	; 0x1b400000
     7c0:	632e7465 			; <UNDEFINED> instruction: 0x632e7465
     7c4:	00000100 	andeq	r0, r0, r0, lsl #2
     7c8:	64647473 	strbtvs	r7, [r4], #-1139	; 0xfffffb8d
     7cc:	682e6665 	stmdavs	lr!, {r0, r2, r5, r6, r9, sl, sp, lr}
     7d0:	00000200 	andeq	r0, r0, r0, lsl #4
     7d4:	69647473 	stmdbvs	r4!, {r0, r1, r4, r5, r6, sl, ip, sp, lr}^
     7d8:	672d746e 	strvs	r7, [sp, -lr, ror #8]!
     7dc:	682e6363 	stmdavs	lr!, {r0, r1, r5, r6, r8, r9, sp, lr}
     7e0:	00000200 	andeq	r0, r0, r0, lsl #4
     7e4:	6b636f6c 	blvs	18dc59c <__bss_end__+0x18d21f4>
     7e8:	0300682e 	movweq	r6, #2094	; 0x82e
     7ec:	745f0000 	ldrbvc	r0, [pc], #-0	; 7f4 <__code_start__-0x780c>
     7f0:	73657079 	cmnvc	r5, #121, 0	; 0x79
     7f4:	0300682e 	movweq	r6, #2094	; 0x82e
     7f8:	65720000 	ldrbvs	r0, [r2, #-0]!
     7fc:	2e746e65 	cdpcs	14, 7, cr6, cr4, cr5, {3}
     800:	00030068 	andeq	r0, r3, r8, rrx
     804:	69707200 	ldmdbvs	r0!, {r9, ip, sp, lr}^
     808:	0400682e 	streq	r6, [r0], #-2094	; 0xfffff7d2
     80c:	74730000 	ldrbtvc	r0, [r3], #-0
     810:	676e6972 			; <UNDEFINED> instruction: 0x676e6972
     814:	0500682e 	streq	r6, [r0, #-2094]	; 0xfffff7d2
     818:	05000000 	streq	r0, [r0, #-0]
     81c:	0205002a 	andeq	r0, r5, #42, 0	; 0x2a
     820:	00009300 	andeq	r9, r0, r0, lsl #6
     824:	13050518 	movwne	r0, #21784	; 0x5518
     828:	01060705 	tsteq	r6, r5, lsl #14
     82c:	0605052e 	streq	r0, [r5], -lr, lsr #10
     830:	06070531 			; <UNDEFINED> instruction: 0x06070531
     834:	06090501 	streq	r0, [r9], -r1, lsl #10
     838:	060b054b 	streq	r0, [fp], -fp, asr #10
     83c:	001a0501 	andseq	r0, sl, r1, lsl #10
     840:	4a010402 	bmi	41850 <__bss_end__+0x374a8>
     844:	50061005 	andpl	r1, r6, r5
     848:	01061205 	tsteq	r6, r5, lsl #4
     84c:	02002105 	andeq	r2, r0, #1073741825	; 0x40000001
     850:	054a0104 	strbeq	r0, [sl, #-260]	; 0xfffffefc
     854:	0a030605 	beq	c2070 <__bss_end__+0xb7cc8>
     858:	0615054a 	ldreq	r0, [r5], -sl, asr #10
     85c:	06050501 	streq	r0, [r5], -r1, lsl #10
     860:	060a052f 	streq	r0, [sl], -pc, lsr #10
     864:	060d0501 	streq	r0, [sp], -r1, lsl #10
     868:	132e7703 			; <UNDEFINED> instruction: 0x132e7703
     86c:	01060f05 	tsteq	r6, r5, lsl #30
     870:	2f060d05 	svccs	0x00060d05
     874:	01061205 	tsteq	r6, r5, lsl #4
     878:	2f061105 	svccs	0x00061105
     87c:	01061605 	tsteq	r6, r5, lsl #12
     880:	052d1405 	streq	r1, [sp, #-1029]!	; 0xfffffbfb
     884:	052e0612 	streq	r0, [lr, #-1554]!	; 0xfffff9ee
     888:	05010614 	streq	r0, [r1, #-1556]	; 0xfffff9ec
     88c:	2e4a2e12 	mcrcs	14, 2, r2, cr10, cr2, {0}
     890:	1a060905 	bne	182cac <__bss_end__+0x178904>
     894:	01060e05 	tsteq	r6, r5, lsl #28
     898:	2d060a05 	vstrcs	s0, [r6, #-20]	; 0xffffffec
     89c:	0d054a06 	vstreq	s8, [r5, #-24]	; 0xffffffe8
     8a0:	2e700306 	cdpcs	3, 7, cr0, cr0, cr6, {0}
     8a4:	060f0513 			; <UNDEFINED> instruction: 0x060f0513
     8a8:	060d0501 	streq	r0, [sp], -r1, lsl #10
     8ac:	0112052f 	tsteq	r2, pc, lsr #10
     8b0:	01061405 	tsteq	r6, r5, lsl #8
     8b4:	052e1205 	streq	r1, [lr, #-517]!	; 0xfffffdfb
     8b8:	4a78032a 	bmi	1e01568 <__bss_end__+0x1df71c0>
     8bc:	03061105 	movweq	r1, #24837	; 0x6105
     8c0:	16052e09 	strne	r2, [r5], -r9, lsl #28
     8c4:	14050106 	strne	r0, [r5], #-262	; 0xfffffefa
     8c8:	06120565 	ldreq	r0, [r2], -r5, ror #10
     8cc:	0614052e 	ldreq	r0, [r4], -lr, lsr #10
     8d0:	2e120501 	cfmul32cs	mvfx0, mvfx2, mvfx1
     8d4:	0301054a 	movweq	r0, #5450	; 0x154a
     8d8:	04020111 	streq	r0, [r2], #-273	; 0xfffffeef
     8dc:	bc010100 	stflts	f0, [r1], {-0}
     8e0:	03000003 	movweq	r0, #3
     8e4:	00013600 	andeq	r3, r1, r0, lsl #12
     8e8:	fb010200 	blx	410f2 <__bss_end__+0x36d4a>
     8ec:	01000d0e 	tsteq	r0, lr, lsl #26
     8f0:	00010101 	andeq	r0, r1, r1, lsl #2
     8f4:	00010000 	andeq	r0, r1, r0
     8f8:	2f2e0100 	svccs	0x002e0100
     8fc:	6362696c 	cmnvs	r2, #108, 18	; 0x1b0000
     900:	706f2f00 	rsbvc	r2, pc, r0, lsl #30
     904:	6f682f74 	svcvs	0x00682f74
     908:	7262656d 	rsbvc	r6, r2, #457179136	; 0x1b400000
     90c:	432f7765 			; <UNDEFINED> instruction: 0x432f7765
     910:	616c6c65 	cmnvs	ip, r5, ror #24
     914:	72612f72 	rsbvc	r2, r1, #456	; 0x1c8
     918:	6f6e2d6d 	svcvs	0x006e2d6d
     91c:	652d656e 	strvs	r6, [sp, #-1390]!	; 0xfffffa92
     920:	2d696261 	sfmcs	f6, 2, [r9, #-388]!	; 0xfffffe7c
     924:	74736574 	ldrbtvc	r6, [r3], #-1396	; 0xfffffa8c
     928:	322d392f 	eorcc	r3, sp, #770048	; 0xbc000
     92c:	71393130 	teqvc	r9, r0, lsr r1
     930:	73632d34 	cmnvc	r3, #52, 26	; 0xd00
     934:	65373031 	ldrvs	r3, [r7, #-49]!	; 0xffffffcf
     938:	62696c2f 	rsbvs	r6, r9, #12032	; 0x2f00
     93c:	6363672f 	cmnvs	r3, #12320768	; 0xbc0000
     940:	6d72612f 	ldfvse	f6, [r2, #-188]!	; 0xffffff44
     944:	6e6f6e2d 	cdpvs	14, 6, cr6, cr15, cr13, {1}
     948:	61652d65 	cmnvs	r5, r5, ror #26
     94c:	392f6962 	stmdbcc	pc!, {r1, r5, r6, r8, fp, sp, lr}	; <UNPREDICTABLE>
     950:	312e322e 			; <UNDEFINED> instruction: 0x312e322e
     954:	636e692f 	cmnvs	lr, #770048	; 0xbc000
     958:	6564756c 	strbvs	r7, [r4, #-1388]!	; 0xfffffa94
     95c:	706f2f00 	rsbvc	r2, pc, r0, lsl #30
     960:	6f682f74 	svcvs	0x00682f74
     964:	7262656d 	rsbvc	r6, r2, #457179136	; 0x1b400000
     968:	432f7765 			; <UNDEFINED> instruction: 0x432f7765
     96c:	616c6c65 	cmnvs	ip, r5, ror #24
     970:	72612f72 	rsbvc	r2, r1, #456	; 0x1c8
     974:	6f6e2d6d 	svcvs	0x006e2d6d
     978:	652d656e 	strvs	r6, [sp, #-1390]!	; 0xfffffa92
     97c:	2d696261 	sfmcs	f6, 2, [r9, #-388]!	; 0xfffffe7c
     980:	74736574 	ldrbtvc	r6, [r3], #-1396	; 0xfffffa8c
     984:	322d392f 	eorcc	r3, sp, #770048	; 0xbc000
     988:	71393130 	teqvc	r9, r0, lsr r1
     98c:	73632d34 	cmnvc	r3, #52, 26	; 0xd00
     990:	65373031 	ldrvs	r3, [r7, #-49]!	; 0xffffffcf
     994:	6d72612f 	ldfvse	f6, [r2, #-188]!	; 0xffffff44
     998:	6e6f6e2d 	cdpvs	14, 6, cr6, cr15, cr13, {1}
     99c:	61652d65 	cmnvs	r5, r5, ror #26
     9a0:	692f6962 	stmdbvs	pc!, {r1, r5, r6, r8, fp, sp, lr}	; <UNPREDICTABLE>
     9a4:	756c636e 	strbvc	r6, [ip, #-878]!	; 0xfffffc92
     9a8:	732f6564 			; <UNDEFINED> instruction: 0x732f6564
     9ac:	2e007379 	mcrcs	3, 0, r7, cr0, cr9, {3}
     9b0:	72700000 	rsbsvc	r0, r0, #0, 0
     9b4:	6b746e69 	blvs	1d1c360 <__bss_end__+0x1d11fb8>
     9b8:	0100632e 	tsteq	r0, lr, lsr #6
     9bc:	74730000 	ldrbtvc	r0, [r3], #-0
     9c0:	746e6964 	strbtvc	r6, [lr], #-2404	; 0xfffff69c
     9c4:	6363672d 	cmnvs	r3, #11796480	; 0xb40000
     9c8:	0200682e 	andeq	r6, r0, #3014656	; 0x2e0000
     9cc:	74730000 	ldrbtvc	r0, [r3], #-0
     9d0:	67726164 	ldrbvs	r6, [r2, -r4, ror #2]!
     9d4:	0200682e 	andeq	r6, r0, #3014656	; 0x2e0000
     9d8:	6f6c0000 	svcvs	0x006c0000
     9dc:	682e6b63 	stmdavs	lr!, {r0, r1, r5, r6, r8, r9, fp, sp, lr}
     9e0:	00000300 	andeq	r0, r0, r0, lsl #6
     9e4:	7079745f 	rsbsvc	r7, r9, pc, asr r4
     9e8:	682e7365 	stmdavs	lr!, {r0, r2, r5, r6, r8, r9, ip, sp, lr}
     9ec:	00000300 	andeq	r0, r0, r0, lsl #6
     9f0:	64647473 	strbtvs	r7, [r4], #-1139	; 0xfffffb8d
     9f4:	682e6665 	stmdavs	lr!, {r0, r2, r5, r6, r9, sl, sp, lr}
     9f8:	00000200 	andeq	r0, r0, r0, lsl #4
     9fc:	6e656572 	mcrvs	5, 3, r6, cr5, cr2, {3}
     a00:	00682e74 	rsbeq	r2, r8, r4, ror lr
     a04:	72000003 	andvc	r0, r0, #3, 0
     a08:	682e6970 	stmdavs	lr!, {r4, r5, r6, r8, fp, sp, lr}
     a0c:	00000400 	andeq	r0, r0, r0, lsl #8
     a10:	6975623c 	ldmdbvs	r5!, {r2, r3, r4, r5, r9, sp, lr}^
     a14:	692d746c 	pushvs	{r2, r3, r5, r6, sl, ip, sp, lr}
     a18:	00003e6e 	andeq	r3, r0, lr, ror #28
     a1c:	05000000 	streq	r0, [r0, #-0]
     a20:	02050022 	andeq	r0, r5, #34, 0	; 0x22
     a24:	000093a0 	andeq	r9, r0, r0, lsr #7
     a28:	0100e903 	tsteq	r0, r3, lsl #18
     a2c:	05050106 	streq	r0, [r5, #-262]	; 0xfffffefa
     a30:	13146706 	tstne	r4, #1572864	; 0x180000
     a34:	054b0805 	strbeq	r0, [fp, #-2053]	; 0xfffff7fb
     a38:	0501060e 	streq	r0, [r1, #-1550]	; 0xfffff9f2
     a3c:	134b0605 	movtne	r0, #46597	; 0xb605
     a40:	13060105 	movwne	r0, #24837	; 0x6105
     a44:	03063105 	movweq	r3, #24837	; 0x6105
     a48:	06827f95 	pkhbteq	r7, r2, r5, lsl #31
     a4c:	06050501 	streq	r0, [r5], -r1, lsl #10
     a50:	0905144b 	stmdbeq	r5, {r0, r1, r3, r6, sl, ip}
     a54:	01ba1103 			; <UNDEFINED> instruction: 0x01ba1103
     a58:	062e8206 	strteq	r8, [lr], -r6, lsl #4
     a5c:	0605052e 	streq	r0, [r5], -lr, lsr #10
     a60:	052e6f03 	streq	r6, [lr, #-3843]!	; 0xfffff0fd
     a64:	04020009 	streq	r0, [r2], #-9
     a68:	05300601 	ldreq	r0, [r0, #-1537]!	; 0xfffff9ff
     a6c:	0402000d 	streq	r0, [r2], #-13
     a70:	1b051301 	blne	14567c <__bss_end__+0x13b2d4>
     a74:	01040200 	mrseq	r0, R12_usr
     a78:	18050106 	stmdane	r5, {r1, r2, r8}
     a7c:	01040200 	mrseq	r0, R12_usr
     a80:	0012052e 	andseq	r0, r2, lr, lsr #10
     a84:	4a010402 	bmi	41a94 <__bss_end__+0x376ec>
     a88:	02001005 	andeq	r1, r0, #5, 0
     a8c:	4b060104 	blmi	180ea4 <__bss_end__+0x176afc>
     a90:	02000905 	andeq	r0, r0, #81920	; 0x14000
     a94:	01060104 	tsteq	r6, r4, lsl #2
     a98:	01040200 	mrseq	r0, R12_usr
     a9c:	4605054a 	strmi	r0, [r5], -sl, asr #10
     aa0:	02000905 	andeq	r0, r0, #81920	; 0x14000
     aa4:	35060104 	strcc	r0, [r6, #-260]	; 0xfffffefc
     aa8:	02000d05 	andeq	r0, r0, #320	; 0x140
     aac:	05130104 	ldreq	r0, [r3, #-260]	; 0xfffffefc
     ab0:	04020023 	streq	r0, [r2], #-35	; 0xffffffdd
     ab4:	05010601 	streq	r0, [r1, #-1537]	; 0xfffff9ff
     ab8:	04020020 	streq	r0, [r2], #-32	; 0xffffffe0
     abc:	1205ba01 	andne	fp, r5, #4096	; 0x1000
     ac0:	01040200 	mrseq	r0, R12_usr
     ac4:	0010054a 	andseq	r0, r0, sl, asr #10
     ac8:	06010402 	streq	r0, [r1], -r2, lsl #8
     acc:	0013054b 	andseq	r0, r3, fp, asr #10
     ad0:	06010402 	streq	r0, [r1], -r2, lsl #8
     ad4:	0009052e 	andeq	r0, r9, lr, lsr #10
     ad8:	2e010402 	cdpcs	4, 0, cr0, cr1, cr2, {0}
     adc:	77030505 	strvc	r0, [r3, -r5, lsl #10]
     ae0:	00090566 	andeq	r0, r9, r6, ror #10
     ae4:	06010402 	streq	r0, [r1], -r2, lsl #8
     ae8:	052e0c03 	streq	r0, [lr, #-3075]!	; 0xfffff3fd
     aec:	0402000d 	streq	r0, [r2], #-13
     af0:	29051301 	stmdbcs	r5, {r0, r8, r9, ip}
     af4:	01040200 	mrseq	r0, R12_usr
     af8:	26050106 	strcs	r0, [r5], -r6, lsl #2
     afc:	01040200 	mrseq	r0, R12_usr
     b00:	0012052e 	andseq	r0, r2, lr, lsr #10
     b04:	4a010402 	bmi	41b14 <__bss_end__+0x3776c>
     b08:	02001005 	andeq	r1, r0, #5, 0
     b0c:	4b060104 	blmi	180f24 <__bss_end__+0x176b7c>
     b10:	02000905 	andeq	r0, r0, #81920	; 0x14000
     b14:	01060104 	tsteq	r6, r4, lsl #2
     b18:	01040200 	mrseq	r0, R12_usr
     b1c:	1352064a 	cmpne	r2, #77594624	; 0x4a00000
     b20:	0a056606 	beq	15a340 <__bss_end__+0x14ff98>
     b24:	01040200 	mrseq	r0, R12_usr
     b28:	01052c06 	tsteq	r5, r6, lsl #24
     b2c:	054a6a06 	strbeq	r6, [sl, #-2566]	; 0xfffff5fa
     b30:	0500062a 	streq	r0, [r0, #-1578]	; 0xfffff9d6
     b34:	0094dc02 	addseq	sp, r4, r2, lsl #24
     b38:	01061600 	tsteq	r6, r0, lsl #12
     b3c:	83060505 	movwhi	r0, #25861	; 0x6505
     b40:	05300d05 	ldreq	r0, [r0, #-3333]!	; 0xfffff2fb
     b44:	66390316 			; <UNDEFINED> instruction: 0x66390316
     b48:	45031105 	strmi	r1, [r3, #-261]	; 0xfffffefb
     b4c:	06140501 	ldreq	r0, [r4], -r1, lsl #10
     b50:	000b0501 	andeq	r0, fp, r1, lsl #10
     b54:	06010402 	streq	r0, [r1], -r2, lsl #8
     b58:	0005052e 	andeq	r0, r5, lr, lsr #10
     b5c:	06010402 	streq	r0, [r1], -r2, lsl #8
     b60:	0609052e 	streq	r0, [r9], -lr, lsr #10
     b64:	060b054b 	streq	r0, [fp], -fp, asr #10
     b68:	060d0501 	streq	r0, [sp], -r1, lsl #10
     b6c:	0610054d 	ldreq	r0, [r0], -sp, asr #10
     b70:	060d0501 	streq	r0, [sp], -r1, lsl #10
     b74:	14131330 	ldrne	r1, [r3], #-816	; 0xfffffcd0
     b78:	01061405 	tsteq	r6, r5, lsl #8
     b7c:	02061705 	andeq	r1, r6, #1310720	; 0x140000
     b80:	3a05134c 	bcc	1458b8 <__bss_end__+0x13b510>
     b84:	061005ba 			; <UNDEFINED> instruction: 0x061005ba
     b88:	05017903 	streq	r7, [r1, #-2307]	; 0xfffff6fd
     b8c:	1705350d 	strne	r3, [r5, -sp, lsl #10]
     b90:	3b052f06 	blcc	14c7b0 <__bss_end__+0x142408>
     b94:	061005ba 			; <UNDEFINED> instruction: 0x061005ba
     b98:	05017803 	streq	r7, [r1, #-2051]	; 0xfffff7fd
     b9c:	1705360d 	strne	r3, [r5, -sp, lsl #12]
     ba0:	31052f06 	tstcc	r5, r6, lsl #30
     ba4:	061005d6 			; <UNDEFINED> instruction: 0x061005d6
     ba8:	05017703 	streq	r7, [r1, #-1795]	; 0xfffff8fd
     bac:	2e09030d 	cdpcs	3, 0, cr0, cr9, cr13, {0}
     bb0:	32061105 	andcc	r1, r6, #1073741825	; 0x40000001
     bb4:	01061405 	tsteq	r6, r5, lsl #8
     bb8:	2f061105 	svccs	0x00061105
     bbc:	01061405 	tsteq	r6, r5, lsl #8
     bc0:	052e1305 	streq	r1, [lr, #-773]!	; 0xfffffcfb
     bc4:	054b0615 	strbeq	r0, [fp, #-1557]	; 0xfffff9eb
     bc8:	14051311 	strne	r1, [r5], #-785	; 0xfffffcef
     bcc:	11050106 	tstne	r5, r6, lsl #2
     bd0:	14052f06 	strne	r2, [r5], #-3846	; 0xfffff0fa
     bd4:	13050106 	movwne	r0, #20742	; 0x5106
     bd8:	0615052e 	ldreq	r0, [r5], -lr, lsr #10
     bdc:	1311054b 	tstne	r1, #314572800	; 0x12c00000
     be0:	1a056883 	bne	15adf4 <__bss_end__+0x150a4c>
     be4:	11050106 	tstne	r5, r6, lsl #2
     be8:	1313da06 	tstne	r3, #24576	; 0x6000
     bec:	01061305 	tsteq	r6, r5, lsl #6
     bf0:	4c061105 	stfmis	f1, [r6], {5}
     bf4:	06140567 	ldreq	r0, [r4], -r7, ror #10
     bf8:	05017103 	streq	r7, [r1, #-259]	; 0xfffffefd
     bfc:	2e0f0311 	mcrcs	3, 0, r0, cr15, cr1, {0}
     c00:	03061505 	movweq	r1, #25861	; 0x6505
     c04:	06012e70 			; <UNDEFINED> instruction: 0x06012e70
     c08:	31660666 	cmncc	r6, r6, ror #12
     c0c:	0b03ba01 	bleq	ef418 <__bss_end__+0xe5070>
     c10:	054a062e 	strbeq	r0, [sl, #-1582]	; 0xfffff9d2
     c14:	83350611 	teqhi	r5, #17825792	; 0x1100000
     c18:	1005bb68 	andne	fp, r5, r8, ror #22
     c1c:	01580306 	cmpeq	r8, r6, lsl #6
     c20:	28031105 	stmdacs	r3, {r0, r2, r8, ip}
     c24:	0531062e 	ldreq	r0, [r1, #-1582]!	; 0xfffff9d2
     c28:	05010613 	streq	r0, [r1, #-1555]	; 0xfffff9ed
     c2c:	05830611 	streq	r0, [r3, #1553]	; 0x611
     c30:	05010613 	streq	r0, [r1, #-1555]	; 0xfffff9ed
     c34:	674e0611 	smlaldvs	r0, lr, r1, r6
     c38:	03061005 	movweq	r1, #24581	; 0x6005
     c3c:	1105014f 	tstne	r5, pc, asr #2
     c40:	052e3103 	streq	r3, [lr, #-259]!	; 0xfffffefd
     c44:	832a0615 			; <UNDEFINED> instruction: 0x832a0615
     c48:	01061705 	tsteq	r6, r5, lsl #14
     c4c:	0611052e 	ldreq	r0, [r1], -lr, lsr #10
     c50:	06170534 			; <UNDEFINED> instruction: 0x06170534
     c54:	002d0501 	eoreq	r0, sp, r1, lsl #10
     c58:	06010402 	streq	r0, [r1], -r2, lsl #8
     c5c:	00110582 	andseq	r0, r1, r2, lsl #11
     c60:	06010402 	streq	r0, [r1], -r2, lsl #8
     c64:	0015052e 	andseq	r0, r5, lr, lsr #10
     c68:	06030402 	streq	r0, [r3], -r2, lsl #8
     c6c:	0031054b 	eorseq	r0, r1, fp, asr #10
     c70:	65030402 	strvs	r0, [r3, #-1026]	; 0xfffffbfe
     c74:	02003205 	andeq	r3, r0, #1342177280	; 0x50000000
     c78:	01060304 	tsteq	r6, r4, lsl #6
     c7c:	03040200 	movweq	r0, #16896	; 0x4200
     c80:	0402002e 	streq	r0, [r2], #-46	; 0xffffffd2
     c84:	10052e03 	andne	r2, r5, r3, lsl #28
     c88:	2e014c03 	cdpcs	12, 0, cr4, cr1, cr3, {0}
     c8c:	03061605 	movweq	r1, #26117	; 0x6605
     c90:	ba012e37 	blt	4c574 <__bss_end__+0x421cc>
     c94:	01052e06 	tsteq	r5, r6, lsl #28
     c98:	0a024a17 	beq	934fc <__bss_end__+0x89154>
     c9c:	4e010100 	adfmis	f0, f1, f0
     ca0:	03000001 	movweq	r0, #1
     ca4:	00010d00 	andeq	r0, r1, r0, lsl #26
     ca8:	fb010200 	blx	414b2 <__bss_end__+0x3710a>
     cac:	01000d0e 	tsteq	r0, lr, lsl #26
     cb0:	00010101 	andeq	r0, r1, r1, lsl #2
     cb4:	00010000 	andeq	r0, r1, r0
     cb8:	2f2e0100 	svccs	0x002e0100
     cbc:	6362696c 	cmnvs	r2, #108, 18	; 0x1b0000
     cc0:	706f2f00 	rsbvc	r2, pc, r0, lsl #30
     cc4:	6f682f74 	svcvs	0x00682f74
     cc8:	7262656d 	rsbvc	r6, r2, #457179136	; 0x1b400000
     ccc:	432f7765 			; <UNDEFINED> instruction: 0x432f7765
     cd0:	616c6c65 	cmnvs	ip, r5, ror #24
     cd4:	72612f72 	rsbvc	r2, r1, #456	; 0x1c8
     cd8:	6f6e2d6d 	svcvs	0x006e2d6d
     cdc:	652d656e 	strvs	r6, [sp, #-1390]!	; 0xfffffa92
     ce0:	2d696261 	sfmcs	f6, 2, [r9, #-388]!	; 0xfffffe7c
     ce4:	74736574 	ldrbtvc	r6, [r3], #-1396	; 0xfffffa8c
     ce8:	322d392f 	eorcc	r3, sp, #770048	; 0xbc000
     cec:	71393130 	teqvc	r9, r0, lsr r1
     cf0:	73632d34 	cmnvc	r3, #52, 26	; 0xd00
     cf4:	65373031 	ldrvs	r3, [r7, #-49]!	; 0xffffffcf
     cf8:	6d72612f 	ldfvse	f6, [r2, #-188]!	; 0xffffff44
     cfc:	6e6f6e2d 	cdpvs	14, 6, cr6, cr15, cr13, {1}
     d00:	61652d65 	cmnvs	r5, r5, ror #26
     d04:	692f6962 	stmdbvs	pc!, {r1, r5, r6, r8, fp, sp, lr}	; <UNPREDICTABLE>
     d08:	756c636e 	strbvc	r6, [ip, #-878]!	; 0xfffffc92
     d0c:	732f6564 			; <UNDEFINED> instruction: 0x732f6564
     d10:	2f007379 	svccs	0x00007379
     d14:	2f74706f 	svccs	0x0074706f
     d18:	656d6f68 	strbvs	r6, [sp, #-3944]!	; 0xfffff098
     d1c:	77657262 	strbvc	r7, [r5, -r2, ror #4]!
     d20:	6c65432f 	stclvs	3, cr4, [r5], #-188	; 0xffffff44
     d24:	2f72616c 	svccs	0x0072616c
     d28:	2d6d7261 	sfmcs	f7, 2, [sp, #-388]!	; 0xfffffe7c
     d2c:	656e6f6e 	strbvs	r6, [lr, #-3950]!	; 0xfffff092
     d30:	6261652d 	rsbvs	r6, r1, #188743680	; 0xb400000
     d34:	65742d69 	ldrbvs	r2, [r4, #-3433]!	; 0xfffff297
     d38:	392f7473 	stmdbcc	pc!, {r0, r1, r4, r5, r6, sl, ip, sp, lr}	; <UNPREDICTABLE>
     d3c:	3130322d 	teqcc	r0, sp, lsr #4
     d40:	2d347139 	ldfcss	f7, [r4, #-228]!	; 0xffffff1c
     d44:	30317363 	eorscc	r7, r1, r3, ror #6
     d48:	6c2f6537 	cfstr32vs	mvfx6, [pc], #-220	; c74 <__code_start__-0x738c>
     d4c:	672f6269 	strvs	r6, [pc, -r9, ror #4]!
     d50:	612f6363 			; <UNDEFINED> instruction: 0x612f6363
     d54:	6e2d6d72 	mcrvs	13, 1, r6, cr13, cr2, {3}
     d58:	2d656e6f 	stclcs	14, cr6, [r5, #-444]!	; 0xfffffe44
     d5c:	69626165 	stmdbvs	r2!, {r0, r2, r5, r6, r8, sp, lr}^
     d60:	322e392f 	eorcc	r3, lr, #770048	; 0xbc000
     d64:	692f312e 	stmdbvs	pc!, {r1, r2, r3, r5, r8, ip, sp}	; <UNPREDICTABLE>
     d68:	756c636e 	strbvc	r6, [ip, #-878]!	; 0xfffffc92
     d6c:	2e006564 	cfsh32cs	mvfx6, mvfx0, #52
     d70:	75700000 	ldrbvc	r0, [r0, #-0]!
     d74:	61686374 	smcvs	34356	; 0x8634
     d78:	00632e72 	rsbeq	r2, r3, r2, ror lr
     d7c:	6c000001 	stcvs	0, cr0, [r0], {1}
     d80:	2e6b636f 	cdpcs	3, 6, cr6, cr11, cr15, {3}
     d84:	00020068 	andeq	r0, r2, r8, rrx
     d88:	79745f00 	ldmdbvc	r4!, {r8, r9, sl, fp, ip, lr}^
     d8c:	2e736570 	mrccs	5, 3, r6, cr3, cr0, {3}
     d90:	00020068 	andeq	r0, r2, r8, rrx
     d94:	64747300 	ldrbtvs	r7, [r4], #-768	; 0xfffffd00
     d98:	2e666564 	cdpcs	5, 6, cr6, cr6, cr4, {3}
     d9c:	00030068 	andeq	r0, r3, r8, rrx
     da0:	65657200 	strbvs	r7, [r5, #-512]!	; 0xfffffe00
     da4:	682e746e 	stmdavs	lr!, {r1, r2, r3, r5, r6, sl, ip, sp, lr}
     da8:	00000200 	andeq	r0, r0, r0, lsl #4
     dac:	2e697072 	mcrcs	0, 3, r7, cr9, cr2, {3}
     db0:	00040068 	andeq	r0, r4, r8, rrx
     db4:	23050000 	movwcs	r0, #20480	; 0x5000
     db8:	bc020500 	cfstr32lt	mvfx0, [r2], {-0}
     dbc:	03000097 	movweq	r0, #151	; 0x97
     dc0:	0106010a 	tsteq	r6, sl, lsl #2
     dc4:	4b060505 	blmi	1821e0 <__bss_end__+0x177e38>
     dc8:	2f062e06 	svccs	0x00062e06
     dcc:	13060105 	movwne	r0, #24837	; 0x6105
     dd0:	4e063305 	cdpmi	3, 0, cr3, cr6, cr5, {0}
     dd4:	05130505 	ldreq	r0, [r3, #-1285]	; 0xfffffafb
     dd8:	05010613 	streq	r0, [r1, #-1555]	; 0xfffff9ed
     ddc:	054b0605 	strbeq	r0, [fp, #-1541]	; 0xfffff9fb
     de0:	05010611 	streq	r0, [r1, #-1553]	; 0xfffff9ef
     de4:	052f0605 	streq	r0, [pc, #-1541]!	; 7e7 <__code_start__-0x7819>
     de8:	2e130601 	cfmsub32cs	mvax0, mvfx0, mvfx3, mvfx1
     dec:	01000402 	tsteq	r0, r2, lsl #8
     df0:	00013201 	andeq	r3, r1, r1, lsl #4
     df4:	17000300 	strne	r0, [r0, -r0, lsl #6]
     df8:	02000001 	andeq	r0, r0, #1, 0
     dfc:	0d0efb01 	vstreq	d15, [lr, #-4]
     e00:	01010100 	mrseq	r0, (UNDEF: 17)
     e04:	00000001 	andeq	r0, r0, r1
     e08:	01000001 	tsteq	r0, r1
     e0c:	74732f2e 	ldrbtvc	r2, [r3], #-3886	; 0xfffff0d2
     e10:	2d666661 	stclcs	6, cr6, [r6, #-388]!	; 0xfffffe7c
     e14:	00637273 	rsbeq	r7, r3, r3, ror r2
     e18:	74706f2f 	ldrbtvc	r6, [r0], #-3887	; 0xfffff0d1
     e1c:	6d6f682f 	stclvs	8, cr6, [pc, #-188]!	; d68 <__code_start__-0x7298>
     e20:	65726265 	ldrbvs	r6, [r2, #-613]!	; 0xfffffd9b
     e24:	65432f77 	strbvs	r2, [r3, #-3959]	; 0xfffff089
     e28:	72616c6c 	rsbvc	r6, r1, #108, 24	; 0x6c00
     e2c:	6d72612f 	ldfvse	f6, [r2, #-188]!	; 0xffffff44
     e30:	6e6f6e2d 	cdpvs	14, 6, cr6, cr15, cr13, {1}
     e34:	61652d65 	cmnvs	r5, r5, ror #26
     e38:	742d6962 	strtvc	r6, [sp], #-2402	; 0xfffff69e
     e3c:	2f747365 	svccs	0x00747365
     e40:	30322d39 	eorscc	r2, r2, r9, lsr sp
     e44:	34713931 	ldrbtcc	r3, [r1], #-2353	; 0xfffff6cf
     e48:	3173632d 	cmncc	r3, sp, lsr #6
     e4c:	2f653730 	svccs	0x00653730
     e50:	2d6d7261 	sfmcs	f7, 2, [sp, #-388]!	; 0xfffffe7c
     e54:	656e6f6e 	strbvs	r6, [lr, #-3950]!	; 0xfffff092
     e58:	6261652d 	rsbvs	r6, r1, #188743680	; 0xb400000
     e5c:	6e692f69 	cdpvs	15, 6, cr2, cr9, cr9, {3}
     e60:	64756c63 	ldrbtvs	r6, [r5], #-3171	; 0xfffff39d
     e64:	79732f65 	ldmdbvc	r3!, {r0, r2, r5, r6, r8, r9, sl, fp, sp}^
     e68:	6f2f0073 	svcvs	0x002f0073
     e6c:	682f7470 	stmdavs	pc!, {r4, r5, r6, sl, ip, sp, lr}	; <UNPREDICTABLE>
     e70:	62656d6f 	rsbvs	r6, r5, #7104	; 0x1bc0
     e74:	2f776572 	svccs	0x00776572
     e78:	6c6c6543 	cfstr64vs	mvdx6, [ip], #-268	; 0xfffffef4
     e7c:	612f7261 			; <UNDEFINED> instruction: 0x612f7261
     e80:	6e2d6d72 	mcrvs	13, 1, r6, cr13, cr2, {3}
     e84:	2d656e6f 	stclcs	14, cr6, [r5, #-444]!	; 0xfffffe44
     e88:	69626165 	stmdbvs	r2!, {r0, r2, r5, r6, r8, sp, lr}^
     e8c:	7365742d 	cmnvc	r5, #754974720	; 0x2d000000
     e90:	2d392f74 	ldccs	15, cr2, [r9, #-464]!	; 0xfffffe30
     e94:	39313032 	ldmdbcc	r1!, {r1, r4, r5, ip, sp}
     e98:	632d3471 			; <UNDEFINED> instruction: 0x632d3471
     e9c:	37303173 			; <UNDEFINED> instruction: 0x37303173
     ea0:	696c2f65 	stmdbvs	ip!, {r0, r2, r5, r6, r8, r9, sl, fp, sp}^
     ea4:	63672f62 	cmnvs	r7, #392	; 0x188
     ea8:	72612f63 	rsbvc	r2, r1, #396	; 0x18c
     eac:	6f6e2d6d 	svcvs	0x006e2d6d
     eb0:	652d656e 	strvs	r6, [sp, #-1390]!	; 0xfffffa92
     eb4:	2f696261 	svccs	0x00696261
     eb8:	2e322e39 	mrccs	14, 1, r2, cr2, cr9, {1}
     ebc:	6e692f31 	mcrvs	15, 3, r2, cr9, cr1, {1}
     ec0:	64756c63 	ldrbtvs	r6, [r5], #-3171	; 0xfffff39d
     ec4:	002e0065 	eoreq	r0, lr, r5, rrx
     ec8:	656c6300 	strbvs	r6, [ip, #-768]!	; 0xfffffd00
     ecc:	722d6e61 	eorvc	r6, sp, #1552	; 0x610
     ed0:	6f6f6265 	svcvs	0x006f6265
     ed4:	00632e74 	rsbeq	r2, r3, r4, ror lr
     ed8:	6c000001 	stcvs	0, cr0, [r0], {1}
     edc:	2e6b636f 	cdpcs	3, 6, cr6, cr11, cr15, {3}
     ee0:	00020068 	andeq	r0, r2, r8, rrx
     ee4:	79745f00 	ldmdbvc	r4!, {r8, r9, sl, fp, ip, lr}^
     ee8:	2e736570 	mrccs	5, 3, r6, cr3, cr0, {3}
     eec:	00020068 	andeq	r0, r2, r8, rrx
     ef0:	64747300 	ldrbtvs	r7, [r4], #-768	; 0xfffffd00
     ef4:	2e666564 	cdpcs	5, 6, cr6, cr6, cr4, {3}
     ef8:	00030068 	andeq	r0, r3, r8, rrx
     efc:	65657200 	strbvs	r7, [r5, #-512]!	; 0xfffffe00
     f00:	682e746e 	stmdavs	lr!, {r1, r2, r3, r5, r6, sl, ip, sp, lr}
     f04:	00000200 	andeq	r0, r0, r0, lsl #4
     f08:	2e697072 	mcrcs	0, 3, r7, cr9, cr2, {3}
     f0c:	00040068 	andeq	r0, r4, r8, rrx
     f10:	19050000 	stmdbne	r5, {}	; <UNPREDICTABLE>
     f14:	ec020500 	cfstr32	mvfx0, [r2], {-0}
     f18:	15000097 	strne	r0, [r0, #-151]	; 0xffffff69
     f1c:	4b2f0505 	blmi	bc2338 <__bss_end__+0xbb7f90>
     f20:	04024b2f 	streq	r4, [r2], #-2863	; 0xfffff4d1
     f24:	cb010100 	blgt	4132c <__bss_end__+0x36f84>
     f28:	03000001 	movweq	r0, #1
     f2c:	00017000 	andeq	r7, r1, r0
     f30:	fb010200 	blx	4173a <__bss_end__+0x37392>
     f34:	01000d0e 	tsteq	r0, lr, lsl #26
     f38:	00010101 	andeq	r0, r1, r1, lsl #2
     f3c:	00010000 	andeq	r0, r1, r0
     f40:	2f2e0100 	svccs	0x002e0100
     f44:	66617473 			; <UNDEFINED> instruction: 0x66617473
     f48:	72732d66 	rsbsvc	r2, r3, #6528	; 0x1980
     f4c:	552f0063 	strpl	r0, [pc, #-99]!	; ef1 <__code_start__-0x710f>
     f50:	73726573 	cmnvc	r2, #482344960	; 0x1cc00000
     f54:	6e6f692f 	vmulvs.f16	s13, s30, s31	; <UNPREDICTABLE>
     f58:	61697861 	cmnvs	r9, r1, ror #16
     f5c:	3173632f 	cmncc	r3, pc, lsr #6
     f60:	2f653034 	svccs	0x00653034
     f64:	34317363 	ldrtcc	r7, [r1], #-867	; 0xfffffc9d
     f68:	322d6530 	eorcc	r6, sp, #48, 10	; 0xc000000
     f6c:	6e697736 	mcrvs	7, 3, r7, cr9, cr6, {1}
     f70:	696c2f2f 	stmdbvs	ip!, {r0, r1, r2, r3, r5, r8, r9, sl, fp, sp}^
     f74:	2f697062 	svccs	0x00697062
     f78:	6c636e69 	stclvs	14, cr6, [r3], #-420	; 0xfffffe5c
     f7c:	00656475 	rsbeq	r6, r5, r5, ror r4
     f80:	74706f2f 	ldrbtvc	r6, [r0], #-3887	; 0xfffff0d1
     f84:	6d6f682f 	stclvs	8, cr6, [pc, #-188]!	; ed0 <__code_start__-0x7130>
     f88:	65726265 	ldrbvs	r6, [r2, #-613]!	; 0xfffffd9b
     f8c:	65432f77 	strbvs	r2, [r3, #-3959]	; 0xfffff089
     f90:	72616c6c 	rsbvc	r6, r1, #108, 24	; 0x6c00
     f94:	6d72612f 	ldfvse	f6, [r2, #-188]!	; 0xffffff44
     f98:	6e6f6e2d 	cdpvs	14, 6, cr6, cr15, cr13, {1}
     f9c:	61652d65 	cmnvs	r5, r5, ror #26
     fa0:	742d6962 	strtvc	r6, [sp], #-2402	; 0xfffff69e
     fa4:	2f747365 	svccs	0x00747365
     fa8:	30322d39 	eorscc	r2, r2, r9, lsr sp
     fac:	34713931 	ldrbtcc	r3, [r1], #-2353	; 0xfffff6cf
     fb0:	3173632d 	cmncc	r3, sp, lsr #6
     fb4:	2f653730 	svccs	0x00653730
     fb8:	2f62696c 	svccs	0x0062696c
     fbc:	2f636367 	svccs	0x00636367
     fc0:	2d6d7261 	sfmcs	f7, 2, [sp, #-388]!	; 0xfffffe7c
     fc4:	656e6f6e 	strbvs	r6, [lr, #-3950]!	; 0xfffff092
     fc8:	6261652d 	rsbvs	r6, r1, #188743680	; 0xb400000
     fcc:	2e392f69 	cdpcs	15, 3, cr2, cr9, cr9, {3}
     fd0:	2f312e32 	svccs	0x00312e32
     fd4:	6c636e69 	stclvs	14, cr6, [r3], #-420	; 0xfffffe5c
     fd8:	00656475 	rsbeq	r6, r5, r5, ror r4
     fdc:	74706f2f 	ldrbtvc	r6, [r0], #-3887	; 0xfffff0d1
     fe0:	6d6f682f 	stclvs	8, cr6, [pc, #-188]!	; f2c <__code_start__-0x70d4>
     fe4:	65726265 	ldrbvs	r6, [r2, #-613]!	; 0xfffffd9b
     fe8:	65432f77 	strbvs	r2, [r3, #-3959]	; 0xfffff089
     fec:	72616c6c 	rsbvc	r6, r1, #108, 24	; 0x6c00
     ff0:	6d72612f 	ldfvse	f6, [r2, #-188]!	; 0xffffff44
     ff4:	6e6f6e2d 	cdpvs	14, 6, cr6, cr15, cr13, {1}
     ff8:	61652d65 	cmnvs	r5, r5, ror #26
     ffc:	742d6962 	strtvc	r6, [sp], #-2402	; 0xfffff69e
    1000:	2f747365 	svccs	0x00747365
    1004:	30322d39 	eorscc	r2, r2, r9, lsr sp
    1008:	34713931 	ldrbtcc	r3, [r1], #-2353	; 0xfffff6cf
    100c:	3173632d 	cmncc	r3, sp, lsr #6
    1010:	2f653730 	svccs	0x00653730
    1014:	2d6d7261 	sfmcs	f7, 2, [sp, #-388]!	; 0xfffffe7c
    1018:	656e6f6e 	strbvs	r6, [lr, #-3950]!	; 0xfffff092
    101c:	6261652d 	rsbvs	r6, r1, #188743680	; 0xb400000
    1020:	6e692f69 	cdpvs	15, 6, cr2, cr9, cr9, {3}
    1024:	64756c63 	ldrbtvs	r6, [r5], #-3171	; 0xfffff39d
    1028:	79732f65 	ldmdbvc	r3!, {r0, r2, r5, r6, r8, r9, sl, fp, sp}^
    102c:	002e0073 	eoreq	r0, lr, r3, ror r0
    1030:	74736300 	ldrbtvc	r6, [r3], #-768	; 0xfffffd00
    1034:	2e747261 	cdpcs	2, 7, cr7, cr4, cr1, {3}
    1038:	00010063 	andeq	r0, r1, r3, rrx
    103c:	63796300 	cmnvs	r9, #0, 6
    1040:	632d656c 			; <UNDEFINED> instruction: 0x632d656c
    1044:	746e756f 	strbtvc	r7, [lr], #-1391	; 0xfffffa91
    1048:	0200682e 	andeq	r6, r0, #3014656	; 0x2e0000
    104c:	74730000 	ldrbtvc	r0, [r3], #-0
    1050:	746e6964 	strbtvc	r6, [lr], #-2404	; 0xfffff69c
    1054:	6363672d 	cmnvs	r3, #11796480	; 0xb40000
    1058:	0300682e 	movweq	r6, #2094	; 0x82e
    105c:	6f6c0000 	svcvs	0x006c0000
    1060:	682e6b63 	stmdavs	lr!, {r0, r1, r5, r6, r8, r9, fp, sp, lr}
    1064:	00000400 	andeq	r0, r0, r0, lsl #8
    1068:	7079745f 	rsbsvc	r7, r9, pc, asr r4
    106c:	682e7365 	stmdavs	lr!, {r0, r2, r5, r6, r8, r9, ip, sp, lr}
    1070:	00000400 	andeq	r0, r0, r0, lsl #8
    1074:	64647473 	strbtvs	r7, [r4], #-1139	; 0xfffffb8d
    1078:	682e6665 	stmdavs	lr!, {r0, r2, r5, r6, r9, sl, sp, lr}
    107c:	00000300 	andeq	r0, r0, r0, lsl #6
    1080:	6e656572 	mcrvs	5, 3, r6, cr5, cr2, {3}
    1084:	00682e74 	rsbeq	r2, r8, r4, ror lr
    1088:	72000004 	andvc	r0, r0, #4, 0
    108c:	682e6970 	stmdavs	lr!, {r4, r5, r6, r8, fp, sp, lr}
    1090:	00000500 	andeq	r0, r0, r0, lsl #10
    1094:	6d6d656d 	cfstr64vs	mvdx6, [sp, #-436]!	; 0xfffffe4c
    1098:	682e7061 	stmdavs	lr!, {r0, r5, r6, ip, sp, lr}
    109c:	00000200 	andeq	r0, r0, r0, lsl #4
    10a0:	00190500 	andseq	r0, r9, r0, lsl #10
    10a4:	980c0205 	stmdals	ip, {r0, r2, r9}
    10a8:	0d030000 	stceq	0, cr0, [r3, #-0]
    10ac:	13050501 	movwne	r0, #21761	; 0x5501
    10b0:	13060105 	movwne	r0, #24837	; 0x6105
    10b4:	03061005 	movweq	r1, #24581	; 0x6005
    10b8:	02056609 	andeq	r6, r5, #9437184	; 0x900000
    10bc:	0305052f 	movweq	r0, #21807	; 0x552f
    10c0:	13130115 	tstne	r3, #1073741829	; 0x40000005
    10c4:	060f0513 			; <UNDEFINED> instruction: 0x060f0513
    10c8:	060a0510 			; <UNDEFINED> instruction: 0x060a0510
    10cc:	4b090530 	blmi	242594 <__bss_end__+0x2381ec>
    10d0:	01061005 	tsteq	r6, r5
    10d4:	0605054a 	streq	r0, [r5], -sl, asr #10
    10d8:	0109032f 	tsteq	r9, pc, lsr #6
    10dc:	05020435 	streq	r0, [r2, #-1077]	; 0xfffffbcb
    10e0:	01430314 	cmpeq	r3, r4, lsl r3
    10e4:	13130505 	tstne	r3, #20971520	; 0x1400000
    10e8:	c2030104 	andgt	r0, r3, #1
    10ec:	02054a00 	andeq	r4, r5, #0, 20
    10f0:	00060231 	andeq	r0, r6, r1, lsr r2
    10f4:	01430101 	cmpeq	r3, r1, lsl #2
    10f8:	00030000 	andeq	r0, r3, r0
    10fc:	00000111 	andeq	r0, r0, r1, lsl r1
    1100:	0efb0102 	cdpeq	1, 15, cr0, cr11, cr2, {0}
    1104:	0101000d 	tsteq	r1, sp
    1108:	00000101 	andeq	r0, r0, r1, lsl #2
    110c:	00000100 	andeq	r0, r0, r0, lsl #2
    1110:	732f2e01 			; <UNDEFINED> instruction: 0x732f2e01
    1114:	66666174 			; <UNDEFINED> instruction: 0x66666174
    1118:	6372732d 	cmnvs	r2, #-1275068416	; 0xb4000000
    111c:	706f2f00 	rsbvc	r2, pc, r0, lsl #30
    1120:	6f682f74 	svcvs	0x00682f74
    1124:	7262656d 	rsbvc	r6, r2, #457179136	; 0x1b400000
    1128:	432f7765 			; <UNDEFINED> instruction: 0x432f7765
    112c:	616c6c65 	cmnvs	ip, r5, ror #24
    1130:	72612f72 	rsbvc	r2, r1, #456	; 0x1c8
    1134:	6f6e2d6d 	svcvs	0x006e2d6d
    1138:	652d656e 	strvs	r6, [sp, #-1390]!	; 0xfffffa92
    113c:	2d696261 	sfmcs	f6, 2, [r9, #-388]!	; 0xfffffe7c
    1140:	74736574 	ldrbtvc	r6, [r3], #-1396	; 0xfffffa8c
    1144:	322d392f 	eorcc	r3, sp, #770048	; 0xbc000
    1148:	71393130 	teqvc	r9, r0, lsr r1
    114c:	73632d34 	cmnvc	r3, #52, 26	; 0xd00
    1150:	65373031 	ldrvs	r3, [r7, #-49]!	; 0xffffffcf
    1154:	6d72612f 	ldfvse	f6, [r2, #-188]!	; 0xffffff44
    1158:	6e6f6e2d 	cdpvs	14, 6, cr6, cr15, cr13, {1}
    115c:	61652d65 	cmnvs	r5, r5, ror #26
    1160:	692f6962 	stmdbvs	pc!, {r1, r5, r6, r8, fp, sp, lr}	; <UNPREDICTABLE>
    1164:	756c636e 	strbvc	r6, [ip, #-878]!	; 0xfffffc92
    1168:	732f6564 			; <UNDEFINED> instruction: 0x732f6564
    116c:	2f007379 	svccs	0x00007379
    1170:	2f74706f 	svccs	0x0074706f
    1174:	656d6f68 	strbvs	r6, [sp, #-3944]!	; 0xfffff098
    1178:	77657262 	strbvc	r7, [r5, -r2, ror #4]!
    117c:	6c65432f 	stclvs	3, cr4, [r5], #-188	; 0xffffff44
    1180:	2f72616c 	svccs	0x0072616c
    1184:	2d6d7261 	sfmcs	f7, 2, [sp, #-388]!	; 0xfffffe7c
    1188:	656e6f6e 	strbvs	r6, [lr, #-3950]!	; 0xfffff092
    118c:	6261652d 	rsbvs	r6, r1, #188743680	; 0xb400000
    1190:	65742d69 	ldrbvs	r2, [r4, #-3433]!	; 0xfffff297
    1194:	392f7473 	stmdbcc	pc!, {r0, r1, r4, r5, r6, sl, ip, sp, lr}	; <UNPREDICTABLE>
    1198:	3130322d 	teqcc	r0, sp, lsr #4
    119c:	2d347139 	ldfcss	f7, [r4, #-228]!	; 0xffffff1c
    11a0:	30317363 	eorscc	r7, r1, r3, ror #6
    11a4:	6c2f6537 	cfstr32vs	mvfx6, [pc], #-220	; 10d0 <__code_start__-0x6f30>
    11a8:	672f6269 	strvs	r6, [pc, -r9, ror #4]!
    11ac:	612f6363 			; <UNDEFINED> instruction: 0x612f6363
    11b0:	6e2d6d72 	mcrvs	13, 1, r6, cr13, cr2, {3}
    11b4:	2d656e6f 	stclcs	14, cr6, [r5, #-444]!	; 0xfffffe44
    11b8:	69626165 	stmdbvs	r2!, {r0, r2, r5, r6, r8, sp, lr}^
    11bc:	322e392f 	eorcc	r3, lr, #770048	; 0xbc000
    11c0:	692f312e 	stmdbvs	pc!, {r1, r2, r3, r5, r8, ip, sp}	; <UNPREDICTABLE>
    11c4:	756c636e 	strbvc	r6, [ip, #-878]!	; 0xfffffc92
    11c8:	2e006564 	cfsh32cs	mvfx6, mvfx0, #52
    11cc:	65720000 	ldrbvs	r0, [r2, #-0]!
    11d0:	746f6f62 	strbtvc	r6, [pc], #-3938	; 11d8 <__code_start__-0x6e28>
    11d4:	0100632e 	tsteq	r0, lr, lsr #6
    11d8:	6f6c0000 	svcvs	0x006c0000
    11dc:	682e6b63 	stmdavs	lr!, {r0, r1, r5, r6, r8, r9, fp, sp, lr}
    11e0:	00000200 	andeq	r0, r0, r0, lsl #4
    11e4:	7079745f 	rsbsvc	r7, r9, pc, asr r4
    11e8:	682e7365 	stmdavs	lr!, {r0, r2, r5, r6, r8, r9, ip, sp, lr}
    11ec:	00000200 	andeq	r0, r0, r0, lsl #4
    11f0:	64647473 	strbtvs	r7, [r4], #-1139	; 0xfffffb8d
    11f4:	682e6665 	stmdavs	lr!, {r0, r2, r5, r6, r9, sl, sp, lr}
    11f8:	00000300 	andeq	r0, r0, r0, lsl #6
    11fc:	6e656572 	mcrvs	5, 3, r6, cr5, cr2, {3}
    1200:	00682e74 	rsbeq	r2, r8, r4, ror lr
    1204:	72000002 	andvc	r0, r0, #2, 0
    1208:	682e6970 	stmdavs	lr!, {r4, r5, r6, r8, fp, sp, lr}
    120c:	00000400 	andeq	r0, r0, r0, lsl #8
    1210:	00170500 	andseq	r0, r7, r0, lsl #10
    1214:	98500205 	ldmdals	r0, {r0, r2, r9}^
    1218:	05150000 	ldreq	r0, [r5, #-0]
    121c:	4d2f2f05 	stcmi	15, cr2, [pc, #-20]!	; 1210 <__code_start__-0x6df0>
    1220:	15131313 	ldrne	r1, [r3, #-787]	; 0xfffffced
    1224:	04020067 	streq	r0, [r2], #-103	; 0xffffff99
    1228:	0d056701 	stceq	7, cr6, [r5, #-4]
    122c:	01040200 	mrseq	r0, R12_usr
    1230:	000a0501 	andeq	r0, sl, r1, lsl #10
    1234:	01010402 	tsteq	r1, r2, lsl #8
    1238:	01000a02 	tsteq	r0, r2, lsl #20
    123c:	00019701 	andeq	r9, r1, r1, lsl #14
    1240:	20000300 	andcs	r0, r0, r0, lsl #6
    1244:	02000001 	andeq	r0, r0, #1, 0
    1248:	0d0efb01 	vstreq	d15, [lr, #-4]
    124c:	01010100 	mrseq	r0, (UNDEF: 17)
    1250:	00000001 	andeq	r0, r0, r1
    1254:	01000001 	tsteq	r0, r1
    1258:	74732f2e 	ldrbtvc	r2, [r3], #-3886	; 0xfffff0d2
    125c:	2d666661 	stclcs	6, cr6, [r6, #-388]!	; 0xfffffe7c
    1260:	00637273 	rsbeq	r7, r3, r3, ror r2
    1264:	74706f2f 	ldrbtvc	r6, [r0], #-3887	; 0xfffff0d1
    1268:	6d6f682f 	stclvs	8, cr6, [pc, #-188]!	; 11b4 <__code_start__-0x6e4c>
    126c:	65726265 	ldrbvs	r6, [r2, #-613]!	; 0xfffffd9b
    1270:	65432f77 	strbvs	r2, [r3, #-3959]	; 0xfffff089
    1274:	72616c6c 	rsbvc	r6, r1, #108, 24	; 0x6c00
    1278:	6d72612f 	ldfvse	f6, [r2, #-188]!	; 0xffffff44
    127c:	6e6f6e2d 	cdpvs	14, 6, cr6, cr15, cr13, {1}
    1280:	61652d65 	cmnvs	r5, r5, ror #26
    1284:	742d6962 	strtvc	r6, [sp], #-2402	; 0xfffff69e
    1288:	2f747365 	svccs	0x00747365
    128c:	30322d39 	eorscc	r2, r2, r9, lsr sp
    1290:	34713931 	ldrbtcc	r3, [r1], #-2353	; 0xfffff6cf
    1294:	3173632d 	cmncc	r3, sp, lsr #6
    1298:	2f653730 	svccs	0x00653730
    129c:	2f62696c 	svccs	0x0062696c
    12a0:	2f636367 	svccs	0x00636367
    12a4:	2d6d7261 	sfmcs	f7, 2, [sp, #-388]!	; 0xfffffe7c
    12a8:	656e6f6e 	strbvs	r6, [lr, #-3950]!	; 0xfffff092
    12ac:	6261652d 	rsbvs	r6, r1, #188743680	; 0xb400000
    12b0:	2e392f69 	cdpcs	15, 3, cr2, cr9, cr9, {3}
    12b4:	2f312e32 	svccs	0x00312e32
    12b8:	6c636e69 	stclvs	14, cr6, [r3], #-420	; 0xfffffe5c
    12bc:	00656475 	rsbeq	r6, r5, r5, ror r4
    12c0:	74706f2f 	ldrbtvc	r6, [r0], #-3887	; 0xfffff0d1
    12c4:	6d6f682f 	stclvs	8, cr6, [pc, #-188]!	; 1210 <__code_start__-0x6df0>
    12c8:	65726265 	ldrbvs	r6, [r2, #-613]!	; 0xfffffd9b
    12cc:	65432f77 	strbvs	r2, [r3, #-3959]	; 0xfffff089
    12d0:	72616c6c 	rsbvc	r6, r1, #108, 24	; 0x6c00
    12d4:	6d72612f 	ldfvse	f6, [r2, #-188]!	; 0xffffff44
    12d8:	6e6f6e2d 	cdpvs	14, 6, cr6, cr15, cr13, {1}
    12dc:	61652d65 	cmnvs	r5, r5, ror #26
    12e0:	742d6962 	strtvc	r6, [sp], #-2402	; 0xfffff69e
    12e4:	2f747365 	svccs	0x00747365
    12e8:	30322d39 	eorscc	r2, r2, r9, lsr sp
    12ec:	34713931 	ldrbtcc	r3, [r1], #-2353	; 0xfffff6cf
    12f0:	3173632d 	cmncc	r3, sp, lsr #6
    12f4:	2f653730 	svccs	0x00653730
    12f8:	2d6d7261 	sfmcs	f7, 2, [sp, #-388]!	; 0xfffffe7c
    12fc:	656e6f6e 	strbvs	r6, [lr, #-3950]!	; 0xfffff092
    1300:	6261652d 	rsbvs	r6, r1, #188743680	; 0xb400000
    1304:	6e692f69 	cdpvs	15, 6, cr2, cr9, cr9, {3}
    1308:	64756c63 	ldrbtvs	r6, [r5], #-3171	; 0xfffff39d
    130c:	79732f65 	ldmdbvc	r3!, {r0, r2, r5, r6, r8, r9, sl, fp, sp}^
    1310:	002e0073 	eoreq	r0, lr, r3, ror r0
    1314:	6d697400 	cfstrdvs	mvd7, [r9, #-0]
    1318:	632e7265 			; <UNDEFINED> instruction: 0x632e7265
    131c:	00000100 	andeq	r0, r0, r0, lsl #2
    1320:	69647473 	stmdbvs	r4!, {r0, r1, r4, r5, r6, sl, ip, sp, lr}^
    1324:	672d746e 	strvs	r7, [sp, -lr, ror #8]!
    1328:	682e6363 	stmdavs	lr!, {r0, r1, r5, r6, r8, r9, sp, lr}
    132c:	00000200 	andeq	r0, r0, r0, lsl #4
    1330:	6b636f6c 	blvs	18dd0e8 <__bss_end__+0x18d2d40>
    1334:	0300682e 	movweq	r6, #2094	; 0x82e
    1338:	745f0000 	ldrbvc	r0, [pc], #-0	; 1340 <__code_start__-0x6cc0>
    133c:	73657079 	cmnvc	r5, #121, 0	; 0x79
    1340:	0300682e 	movweq	r6, #2094	; 0x82e
    1344:	74730000 	ldrbtvc	r0, [r3], #-0
    1348:	66656464 	strbtvs	r6, [r5], -r4, ror #8
    134c:	0200682e 	andeq	r6, r0, #3014656	; 0x2e0000
    1350:	65720000 	ldrbvs	r0, [r2, #-0]!
    1354:	2e746e65 	cdpcs	14, 7, cr6, cr4, cr5, {3}
    1358:	00030068 	andeq	r0, r3, r8, rrx
    135c:	69707200 	ldmdbvs	r0!, {r9, ip, sp, lr}^
    1360:	0400682e 	streq	r6, [r0], #-2094	; 0xfffff7d2
    1364:	05000000 	streq	r0, [r0, #-0]
    1368:	02050023 	andeq	r0, r5, #35, 0	; 0x23
    136c:	0000988c 	andeq	r9, r0, ip, lsl #17
    1370:	2f050515 	svccs	0x00050515
    1374:	01060c05 	tsteq	r6, r5, lsl #24
    1378:	054b0105 	strbeq	r0, [fp, #-261]	; 0xfffffefb
    137c:	054f061f 	strbeq	r0, [pc, #-1567]	; d65 <__code_start__-0x729b>
    1380:	052f2f05 	streq	r2, [pc, #-3845]!	; 483 <__code_start__-0x7b7d>
    1384:	05010612 	streq	r0, [r1, #-1554]	; 0xfffff9ee
    1388:	2f4b0605 	svccs	0x004b0605
    138c:	13060105 	movwne	r0, #24837	; 0x6105
    1390:	4c061c05 	stcmi	12, cr1, [r6], {5}
    1394:	05050106 	streq	r0, [r5, #-262]	; 0xfffffefa
    1398:	12054b06 	andne	r4, r5, #6144	; 0x1800
    139c:	052e0106 	streq	r0, [lr, #-262]!	; 0xfffffefa
    13a0:	052f0605 	streq	r0, [pc, #-1541]!	; da3 <__code_start__-0x725d>
    13a4:	16051309 	strne	r1, [r5], -r9, lsl #6
    13a8:	09050106 	stmdbeq	r5, {r1, r2, r8}
    13ac:	10052f06 	andne	r2, r5, r6, lsl #30
    13b0:	0c050106 	stfeqs	f0, [r5], {6}
    13b4:	061c052e 	ldreq	r0, [ip], -lr, lsr #10
    13b8:	0501066c 	streq	r0, [r1, #-1644]	; 0xfffff994
    13bc:	062f0605 	strteq	r0, [pc], -r5, lsl #12
    13c0:	4b01054a 	blmi	428f0 <__bss_end__+0x38548>
    13c4:	31061e05 	tstcc	r6, r5, lsl #28
    13c8:	05050106 	streq	r0, [r5, #-262]	; 0xfffffefa
    13cc:	4a062f06 	bmi	18cfec <__bss_end__+0x182c44>
    13d0:	024b0105 	subeq	r0, fp, #1073741825	; 0x40000001
    13d4:	01010002 	tsteq	r1, r2
    13d8:	000002be 			; <UNDEFINED> instruction: 0x000002be
    13dc:	01600003 	cmneq	r0, r3
    13e0:	01020000 	mrseq	r0, (UNDEF: 2)
    13e4:	000d0efb 	strdeq	r0, [sp], -fp
    13e8:	01010101 	tsteq	r1, r1, lsl #2
    13ec:	01000000 	mrseq	r0, (UNDEF: 0)
    13f0:	73010000 	movwvc	r0, #4096	; 0x1000
    13f4:	2f006372 	svccs	0x00006372
    13f8:	2f74706f 	svccs	0x0074706f
    13fc:	656d6f68 	strbvs	r6, [sp, #-3944]!	; 0xfffff098
    1400:	77657262 	strbvc	r7, [r5, -r2, ror #4]!
    1404:	6c65432f 	stclvs	3, cr4, [r5], #-188	; 0xffffff44
    1408:	2f72616c 	svccs	0x0072616c
    140c:	2d6d7261 	sfmcs	f7, 2, [sp, #-388]!	; 0xfffffe7c
    1410:	656e6f6e 	strbvs	r6, [lr, #-3950]!	; 0xfffff092
    1414:	6261652d 	rsbvs	r6, r1, #188743680	; 0xb400000
    1418:	65742d69 	ldrbvs	r2, [r4, #-3433]!	; 0xfffff297
    141c:	392f7473 	stmdbcc	pc!, {r0, r1, r4, r5, r6, sl, ip, sp, lr}	; <UNPREDICTABLE>
    1420:	3130322d 	teqcc	r0, sp, lsr #4
    1424:	2d347139 	ldfcss	f7, [r4, #-228]!	; 0xffffff1c
    1428:	30317363 	eorscc	r7, r1, r3, ror #6
    142c:	6c2f6537 	cfstr32vs	mvfx6, [pc], #-220	; 1358 <__code_start__-0x6ca8>
    1430:	672f6269 	strvs	r6, [pc, -r9, ror #4]!
    1434:	612f6363 			; <UNDEFINED> instruction: 0x612f6363
    1438:	6e2d6d72 	mcrvs	13, 1, r6, cr13, cr2, {3}
    143c:	2d656e6f 	stclcs	14, cr6, [r5, #-444]!	; 0xfffffe44
    1440:	69626165 	stmdbvs	r2!, {r0, r2, r5, r6, r8, sp, lr}^
    1444:	322e392f 	eorcc	r3, lr, #770048	; 0xbc000
    1448:	692f312e 	stmdbvs	pc!, {r1, r2, r3, r5, r8, ip, sp}	; <UNPREDICTABLE>
    144c:	756c636e 	strbvc	r6, [ip, #-878]!	; 0xfffffc92
    1450:	2f006564 	svccs	0x00006564
    1454:	2f74706f 	svccs	0x0074706f
    1458:	656d6f68 	strbvs	r6, [sp, #-3944]!	; 0xfffff098
    145c:	77657262 	strbvc	r7, [r5, -r2, ror #4]!
    1460:	6c65432f 	stclvs	3, cr4, [r5], #-188	; 0xffffff44
    1464:	2f72616c 	svccs	0x0072616c
    1468:	2d6d7261 	sfmcs	f7, 2, [sp, #-388]!	; 0xfffffe7c
    146c:	656e6f6e 	strbvs	r6, [lr, #-3950]!	; 0xfffff092
    1470:	6261652d 	rsbvs	r6, r1, #188743680	; 0xb400000
    1474:	65742d69 	ldrbvs	r2, [r4, #-3433]!	; 0xfffff297
    1478:	392f7473 	stmdbcc	pc!, {r0, r1, r4, r5, r6, sl, ip, sp, lr}	; <UNPREDICTABLE>
    147c:	3130322d 	teqcc	r0, sp, lsr #4
    1480:	2d347139 	ldfcss	f7, [r4, #-228]!	; 0xffffff1c
    1484:	30317363 	eorscc	r7, r1, r3, ror #6
    1488:	612f6537 			; <UNDEFINED> instruction: 0x612f6537
    148c:	6e2d6d72 	mcrvs	13, 1, r6, cr13, cr2, {3}
    1490:	2d656e6f 	stclcs	14, cr6, [r5, #-444]!	; 0xfffffe44
    1494:	69626165 	stmdbvs	r2!, {r0, r2, r5, r6, r8, sp, lr}^
    1498:	636e692f 	cmnvs	lr, #770048	; 0xbc000
    149c:	6564756c 	strbvs	r7, [r4, #-1388]!	; 0xfffffa94
    14a0:	7379732f 	cmnvc	r9, #-1140850688	; 0xbc000000
    14a4:	2f002e00 	svccs	0x00002e00
    14a8:	72657355 	rsbvc	r7, r5, #1409286145	; 0x54000001
    14ac:	6f692f73 	svcvs	0x00692f73
    14b0:	6978616e 	ldmdbvs	r8!, {r1, r2, r3, r5, r6, r8, sp, lr}^
    14b4:	73632f61 	cmnvc	r3, #388	; 0x184
    14b8:	65303431 	ldrvs	r3, [r0, #-1073]!	; 0xfffffbcf
    14bc:	3173632f 	cmncc	r3, pc, lsr #6
    14c0:	2d653034 	stclcs	0, cr3, [r5, #-208]!	; 0xffffff30
    14c4:	69773632 	ldmdbvs	r7!, {r1, r4, r5, r9, sl, ip, sp}^
    14c8:	6c2f2f6e 	stcvs	15, cr2, [pc], #-440	; 1318 <__code_start__-0x6ce8>
    14cc:	69706269 	ldmdbvs	r0!, {r0, r3, r5, r6, r9, sp, lr}^
    14d0:	636e692f 	cmnvs	lr, #770048	; 0xbc000
    14d4:	6564756c 	strbvs	r7, [r4, #-1388]!	; 0xfffffa94
    14d8:	61750000 	cmnvs	r5, r0
    14dc:	632e7472 			; <UNDEFINED> instruction: 0x632e7472
    14e0:	00000100 	andeq	r0, r0, r0, lsl #2
    14e4:	69647473 	stmdbvs	r4!, {r0, r1, r4, r5, r6, sl, ip, sp, lr}^
    14e8:	672d746e 	strvs	r7, [sp, -lr, ror #8]!
    14ec:	682e6363 	stmdavs	lr!, {r0, r1, r5, r6, r8, r9, sp, lr}
    14f0:	00000200 	andeq	r0, r0, r0, lsl #4
    14f4:	6b636f6c 	blvs	18dd2ac <__bss_end__+0x18d2f04>
    14f8:	0300682e 	movweq	r6, #2094	; 0x82e
    14fc:	745f0000 	ldrbvc	r0, [pc], #-0	; 1504 <__code_start__-0x6afc>
    1500:	73657079 	cmnvc	r5, #121, 0	; 0x79
    1504:	0300682e 	movweq	r6, #2094	; 0x82e
    1508:	74730000 	ldrbtvc	r0, [r3], #-0
    150c:	66656464 	strbtvs	r6, [r5], -r4, ror #8
    1510:	0200682e 	andeq	r6, r0, #3014656	; 0x2e0000
    1514:	65720000 	ldrbvs	r0, [r2, #-0]!
    1518:	2e746e65 	cdpcs	14, 7, cr6, cr4, cr5, {3}
    151c:	00030068 	andeq	r0, r3, r8, rrx
    1520:	69707200 	ldmdbvs	r0!, {r9, ip, sp, lr}^
    1524:	0400682e 	streq	r6, [r0], #-2094	; 0xfffff7d2
    1528:	77730000 	ldrbvc	r0, [r3, -r0]!
    152c:	7261752d 	rsbvc	r7, r1, #188743680	; 0xb400000
    1530:	00682e74 	rsbeq	r2, r8, r4, ror lr
    1534:	67000005 	strvs	r0, [r0, -r5]
    1538:	2e6f6970 			; <UNDEFINED> instruction: 0x2e6f6970
    153c:	00050068 	andeq	r0, r5, r8, rrx
    1540:	16050000 	strne	r0, [r5], -r0
    1544:	10020500 	andne	r0, r2, r0, lsl #10
    1548:	03000099 	movweq	r0, #153	; 0x99
    154c:	050100ec 	streq	r0, [r1, #-236]	; 0xffffff14
    1550:	672f2f05 	strvs	r2, [pc, -r5, lsl #30]!
    1554:	1b053067 	blne	14d6f8 <__bss_end__+0x143350>
    1558:	05050106 	streq	r0, [r5, #-262]	; 0xfffffefa
    155c:	13136706 	tstne	r3, #1572864	; 0x180000
    1560:	4b062e06 	blmi	18cd80 <__bss_end__+0x1829d8>
    1564:	67678330 			; <UNDEFINED> instruction: 0x67678330
    1568:	68676767 	stmdavs	r7!, {r0, r1, r2, r5, r6, r8, r9, sl, sp, lr}^
    156c:	30060105 	andcc	r0, r6, r5, lsl #2
    1570:	03061905 	movweq	r1, #26885	; 0x6905
    1574:	0505f21e 	streq	pc, [r5, #-542]	; 0xfffffde2
    1578:	06160530 			; <UNDEFINED> instruction: 0x06160530
    157c:	06050501 	streq	r0, [r5], -r1, lsl #10
    1580:	0805134b 	stmdaeq	r5, {r0, r1, r3, r6, r8, r9, ip}
    1584:	0c050106 	stfeqs	f0, [r5], {6}
    1588:	10052e4f 	andne	r2, r5, pc, asr #28
    158c:	3201052b 	andcc	r0, r1, #180355072	; 0xac00000
    1590:	4e061a05 	vmlami.f32	s2, s12, s10
    1594:	05050106 	streq	r0, [r5, #-262]	; 0xfffffefa
    1598:	05304b06 	ldreq	r4, [r0, #-2822]!	; 0xfffff4fa
    159c:	0402001f 	streq	r0, [r2], #-31	; 0xffffffe1
    15a0:	0b050101 	bleq	1419ac <__bss_end__+0x137604>
    15a4:	01040200 	mrseq	r0, R12_usr
    15a8:	000d0501 	andeq	r0, sp, r1, lsl #10
    15ac:	06010402 	streq	r0, [r1], -r2, lsl #8
    15b0:	000b0501 	andeq	r0, fp, r1, lsl #10
    15b4:	2e010402 	cdpcs	4, 0, cr0, cr1, cr2, {0}
    15b8:	4b060505 	blmi	1829d4 <__bss_end__+0x17862c>
    15bc:	01052f67 	tsteq	r5, r7, ror #30
    15c0:	19051406 	stmdbne	r5, {r1, r2, sl, ip}
    15c4:	05056b06 	streq	r6, [r5, #-2822]	; 0xfffff4fa
    15c8:	06160530 			; <UNDEFINED> instruction: 0x06160530
    15cc:	06050501 	streq	r0, [r5], -r1, lsl #10
    15d0:	0105144b 	tsteq	r5, fp, asr #8
    15d4:	052e1306 	streq	r1, [lr, #-774]!	; 0xfffffcfa
    15d8:	54030615 	strpl	r0, [r3], #-1557	; 0xfffff9eb
    15dc:	2f05054a 	svccs	0x0005054a
    15e0:	001f052f 	andseq	r0, pc, pc, lsr #10
    15e4:	01010402 	tsteq	r1, r2, lsl #8
    15e8:	02000b05 	andeq	r0, r0, #5120	; 0x1400
    15ec:	05010104 	streq	r0, [r1, #-260]	; 0xfffffefc
    15f0:	0402000d 	streq	r0, [r2], #-13
    15f4:	05010601 	streq	r0, [r1, #-1537]	; 0xfffff9ff
    15f8:	0402000b 	streq	r0, [r2], #-11
    15fc:	05052e01 	streq	r2, [r5, #-3585]	; 0xfffff1ff
    1600:	1b054c06 	blne	154620 <__bss_end__+0x14a278>
    1604:	05050106 	streq	r0, [r5, #-262]	; 0xfffffefa
    1608:	052f6706 	streq	r6, [pc, #-1798]!	; f0a <__code_start__-0x70f6>
    160c:	05130601 	ldreq	r0, [r3, #-1537]	; 0xfffff9ff
    1610:	2a03061b 	bcs	c2e84 <__bss_end__+0xb8adc>
    1614:	2f050566 	svccs	0x00050566
    1618:	01060905 	tsteq	r6, r5, lsl #18
    161c:	052e0705 	streq	r0, [lr, #-1797]!	; 0xfffff8fb
    1620:	054c0605 	strbeq	r0, [ip, #-1541]	; 0xfffff9fb
    1624:	0501060c 	streq	r0, [r1, #-1548]	; 0xfffff9f4
    1628:	01054910 	tsteq	r5, r0, lsl r9
    162c:	061c0530 			; <UNDEFINED> instruction: 0x061c0530
    1630:	2f050533 	svccs	0x00050533
    1634:	0616052f 	ldreq	r0, [r6], -pc, lsr #10
    1638:	06050501 	streq	r0, [r5], -r1, lsl #10
    163c:	0c05134b 	stceq	3, cr1, [r5], {75}	; 0x4b
    1640:	052e0106 	streq	r0, [lr, #-262]!	; 0xfffffefa
    1644:	052f0605 	streq	r0, [pc, #-1541]!	; 1047 <__code_start__-0x6fb9>
    1648:	05010608 	streq	r0, [r1, #-1544]	; 0xfffff9f8
    164c:	2f4e0605 	svccs	0x004e0605
    1650:	01060c05 	tsteq	r6, r5, lsl #24
    1654:	052f0105 	streq	r0, [pc, #-261]!	; 1557 <__code_start__-0x6aa9>
    1658:	2f290609 	svccs	0x00290609
    165c:	01061005 	tsteq	r6, r5
    1660:	03061a05 	movweq	r1, #27141	; 0x6a05
    1664:	0505660e 	streq	r6, [r5, #-1550]	; 0xfffff9f2
    1668:	010a052f 	tsteq	sl, pc, lsr #10
    166c:	01060c05 	tsteq	r6, r5, lsl #24
    1670:	052e0a05 	streq	r0, [lr, #-2565]!	; 0xfffff5fb
    1674:	054b0609 	strbeq	r0, [fp, #-1545]	; 0xfffff9f7
    1678:	7fa00319 	svcvc	0x00a00319
    167c:	2f05054a 	svccs	0x0005054a
    1680:	30672f2f 	rsbcc	r2, r7, pc, lsr #30
    1684:	01061b05 	tsteq	r6, r5, lsl #22
    1688:	67060505 	strvs	r0, [r6, -r5, lsl #10]
    168c:	062e0613 			; <UNDEFINED> instruction: 0x062e0613
    1690:	0601054b 	streq	r0, [r1], -fp, asr #10
    1694:	0006022f 	andeq	r0, r6, pc, lsr #4
    1698:	02cc0101 	sbceq	r0, ip, #1073741824	; 0x40000000
    169c:	00030000 	andeq	r0, r3, r0
    16a0:	00000143 	andeq	r0, r0, r3, asr #2
    16a4:	0efb0102 	cdpeq	1, 15, cr0, cr11, cr2, {0}
    16a8:	0101000d 	tsteq	r1, sp
    16ac:	00000101 	andeq	r0, r0, r1, lsl #2
    16b0:	00000100 	andeq	r0, r0, r0, lsl #2
    16b4:	63727301 	cmnvs	r2, #67108864	; 0x4000000
    16b8:	706f2f00 	rsbvc	r2, pc, r0, lsl #30
    16bc:	6f682f74 	svcvs	0x00682f74
    16c0:	7262656d 	rsbvc	r6, r2, #457179136	; 0x1b400000
    16c4:	432f7765 			; <UNDEFINED> instruction: 0x432f7765
    16c8:	616c6c65 	cmnvs	ip, r5, ror #24
    16cc:	72612f72 	rsbvc	r2, r1, #456	; 0x1c8
    16d0:	6f6e2d6d 	svcvs	0x006e2d6d
    16d4:	652d656e 	strvs	r6, [sp, #-1390]!	; 0xfffffa92
    16d8:	2d696261 	sfmcs	f6, 2, [r9, #-388]!	; 0xfffffe7c
    16dc:	74736574 	ldrbtvc	r6, [r3], #-1396	; 0xfffffa8c
    16e0:	322d392f 	eorcc	r3, sp, #770048	; 0xbc000
    16e4:	71393130 	teqvc	r9, r0, lsr r1
    16e8:	73632d34 	cmnvc	r3, #52, 26	; 0xd00
    16ec:	65373031 	ldrvs	r3, [r7, #-49]!	; 0xffffffcf
    16f0:	6d72612f 	ldfvse	f6, [r2, #-188]!	; 0xffffff44
    16f4:	6e6f6e2d 	cdpvs	14, 6, cr6, cr15, cr13, {1}
    16f8:	61652d65 	cmnvs	r5, r5, ror #26
    16fc:	692f6962 	stmdbvs	pc!, {r1, r5, r6, r8, fp, sp, lr}	; <UNPREDICTABLE>
    1700:	756c636e 	strbvc	r6, [ip, #-878]!	; 0xfffffc92
    1704:	732f6564 			; <UNDEFINED> instruction: 0x732f6564
    1708:	2f007379 	svccs	0x00007379
    170c:	2f74706f 	svccs	0x0074706f
    1710:	656d6f68 	strbvs	r6, [sp, #-3944]!	; 0xfffff098
    1714:	77657262 	strbvc	r7, [r5, -r2, ror #4]!
    1718:	6c65432f 	stclvs	3, cr4, [r5], #-188	; 0xffffff44
    171c:	2f72616c 	svccs	0x0072616c
    1720:	2d6d7261 	sfmcs	f7, 2, [sp, #-388]!	; 0xfffffe7c
    1724:	656e6f6e 	strbvs	r6, [lr, #-3950]!	; 0xfffff092
    1728:	6261652d 	rsbvs	r6, r1, #188743680	; 0xb400000
    172c:	65742d69 	ldrbvs	r2, [r4, #-3433]!	; 0xfffff297
    1730:	392f7473 	stmdbcc	pc!, {r0, r1, r4, r5, r6, sl, ip, sp, lr}	; <UNPREDICTABLE>
    1734:	3130322d 	teqcc	r0, sp, lsr #4
    1738:	2d347139 	ldfcss	f7, [r4, #-228]!	; 0xffffff1c
    173c:	30317363 	eorscc	r7, r1, r3, ror #6
    1740:	6c2f6537 	cfstr32vs	mvfx6, [pc], #-220	; 166c <__code_start__-0x6994>
    1744:	672f6269 	strvs	r6, [pc, -r9, ror #4]!
    1748:	612f6363 			; <UNDEFINED> instruction: 0x612f6363
    174c:	6e2d6d72 	mcrvs	13, 1, r6, cr13, cr2, {3}
    1750:	2d656e6f 	stclcs	14, cr6, [r5, #-444]!	; 0xfffffe44
    1754:	69626165 	stmdbvs	r2!, {r0, r2, r5, r6, r8, sp, lr}^
    1758:	322e392f 	eorcc	r3, lr, #770048	; 0xbc000
    175c:	692f312e 	stmdbvs	pc!, {r1, r2, r3, r5, r8, ip, sp}	; <UNPREDICTABLE>
    1760:	756c636e 	strbvc	r6, [ip, #-878]!	; 0xfffffc92
    1764:	2e006564 	cfsh32cs	mvfx6, mvfx0, #52
    1768:	73552f00 	cmpvc	r5, #0, 30
    176c:	2f737265 	svccs	0x00737265
    1770:	616e6f69 	cmnvs	lr, r9, ror #30
    1774:	2f616978 	svccs	0x00616978
    1778:	34317363 	ldrtcc	r7, [r1], #-867	; 0xfffffc9d
    177c:	632f6530 			; <UNDEFINED> instruction: 0x632f6530
    1780:	30343173 	eorscc	r3, r4, r3, ror r1
    1784:	36322d65 	ldrtcc	r2, [r2], -r5, ror #26
    1788:	2f6e6977 	svccs	0x006e6977
    178c:	62696c2f 	rsbvs	r6, r9, #12032	; 0x2f00
    1790:	692f6970 	stmdbvs	pc!, {r4, r5, r6, r8, fp, sp, lr}	; <UNPREDICTABLE>
    1794:	756c636e 	strbvc	r6, [ip, #-878]!	; 0xfffffc92
    1798:	00006564 	andeq	r6, r0, r4, ror #10
    179c:	6f697067 	svcvs	0x00697067
    17a0:	0100632e 	tsteq	r0, lr, lsr #6
    17a4:	6f6c0000 	svcvs	0x006c0000
    17a8:	682e6b63 	stmdavs	lr!, {r0, r1, r5, r6, r8, r9, fp, sp, lr}
    17ac:	00000200 	andeq	r0, r0, r0, lsl #4
    17b0:	7079745f 	rsbsvc	r7, r9, pc, asr r4
    17b4:	682e7365 	stmdavs	lr!, {r0, r2, r5, r6, r8, r9, ip, sp, lr}
    17b8:	00000200 	andeq	r0, r0, r0, lsl #4
    17bc:	64647473 	strbtvs	r7, [r4], #-1139	; 0xfffffb8d
    17c0:	682e6665 	stmdavs	lr!, {r0, r2, r5, r6, r9, sl, sp, lr}
    17c4:	00000300 	andeq	r0, r0, r0, lsl #6
    17c8:	6e656572 	mcrvs	5, 3, r6, cr5, cr2, {3}
    17cc:	00682e74 	rsbeq	r2, r8, r4, ror lr
    17d0:	72000002 	andvc	r0, r0, #2, 0
    17d4:	682e6970 	stmdavs	lr!, {r4, r5, r6, r8, fp, sp, lr}
    17d8:	00000400 	andeq	r0, r0, r0, lsl #8
    17dc:	6f697067 	svcvs	0x00697067
    17e0:	0500682e 	streq	r6, [r0, #-2094]	; 0xfffff7d2
    17e4:	05000000 	streq	r0, [r0, #-0]
    17e8:	02050027 	andeq	r0, r5, #39, 0	; 0x27
    17ec:	00009b28 	andeq	r9, r0, r8, lsr #22
    17f0:	06011403 	streq	r1, [r1], -r3, lsl #8
    17f4:	00050501 	andeq	r0, r5, r1, lsl #10
    17f8:	06010402 	streq	r0, [r1], -r2, lsl #8
    17fc:	000d052f 	andeq	r0, sp, pc, lsr #10
    1800:	01010402 	tsteq	r1, r2, lsl #8
    1804:	02000a05 	andeq	r0, r0, #20480	; 0x5000
    1808:	05010104 	streq	r0, [r1, #-260]	; 0xfffffefc
    180c:	2e2c0320 	cdpcs	3, 2, cr0, cr12, cr0, {1}
    1810:	05050106 	streq	r0, [r5, #-262]	; 0xfffffefa
    1814:	07052f06 	streq	r2, [r5, -r6, lsl #30]
    1818:	05050106 	streq	r0, [r5, #-262]	; 0xfffffefa
    181c:	23055106 	movwcs	r5, #20742	; 0x5106
    1820:	05050106 	streq	r0, [r5, #-262]	; 0xfffffefa
    1824:	0e054b06 	vmlaeq.f64	d4, d5, d6
    1828:	05050106 	streq	r0, [r5, #-262]	; 0xfffffefa
    182c:	06132f06 	ldreq	r2, [r3], -r6, lsl #30
    1830:	01052e4a 	tsteq	r5, sl, asr #28
    1834:	06090530 			; <UNDEFINED> instruction: 0x06090530
    1838:	062e7503 	strteq	r7, [lr], -r3, lsl #10
    183c:	21052e4a 	tstcs	r5, sl, asr #28
    1840:	02050006 	andeq	r0, r5, #6, 0
    1844:	00009b70 	andeq	r9, r0, r0, ror fp
    1848:	06010e03 	streq	r0, [r1], -r3, lsl #28
    184c:	06050501 	streq	r0, [r5], -r1, lsl #10
    1850:	0607052f 	streq	r0, [r7], -pc, lsr #10
    1854:	06050501 	streq	r0, [r5], -r1, lsl #10
    1858:	06250551 			; <UNDEFINED> instruction: 0x06250551
    185c:	06050501 	streq	r0, [r5], -r1, lsl #10
    1860:	060e054b 	streq	r0, [lr], -fp, asr #10
    1864:	06050501 	streq	r0, [r5], -r1, lsl #10
    1868:	4a06132f 	bmi	18652c <__bss_end__+0x17c184>
    186c:	3001052e 	andcc	r0, r1, lr, lsr #10
    1870:	03060905 	movweq	r0, #26885	; 0x6905
    1874:	4a062e75 	bmi	18d250 <__bss_end__+0x182ea8>
    1878:	062b052e 	strteq	r0, [fp], -lr, lsr #10
    187c:	b0020500 	andlt	r0, r2, r0, lsl #10
    1880:	0300009b 	movweq	r0, #155	; 0x9b
    1884:	0106010e 	tsteq	r6, lr, lsl #2
    1888:	2f060505 	svccs	0x00060505
    188c:	01060705 	tsteq	r6, r5, lsl #14
    1890:	4b060905 	blmi	183cac <__bss_end__+0x179904>
    1894:	30062e06 	andcc	r2, r6, r6, lsl #28
    1898:	2f060105 	svccs	0x00060105
    189c:	35061d05 	strcc	r1, [r6, #-3333]	; 0xfffff2fb
    18a0:	05050106 	streq	r0, [r5, #-262]	; 0xfffffefa
    18a4:	05144b06 	ldreq	r4, [r4, #-2822]	; 0xfffff4fa
    18a8:	05010607 	streq	r0, [r1, #-1543]	; 0xfffff9f9
    18ac:	054d0605 	strbeq	r0, [sp, #-1541]	; 0xfffff9fb
    18b0:	2e010625 	cfmadd32cs	mvax1, mvfx0, mvfx1, mvfx5
    18b4:	2f060505 	svccs	0x00060505
    18b8:	01061a05 	tsteq	r6, r5, lsl #20
    18bc:	0605052e 	streq	r0, [r5], -lr, lsr #10
    18c0:	060e052f 	streq	r0, [lr], -pc, lsr #10
    18c4:	06050501 	streq	r0, [r5], -r1, lsl #10
    18c8:	0b05132f 	bleq	14658c <__bss_end__+0x13c1e4>
    18cc:	05050106 	streq	r0, [r5, #-262]	; 0xfffffefa
    18d0:	05154b06 	ldreq	r4, [r5, #-2822]	; 0xfffff4fa
    18d4:	2e130601 	cfmsub32cs	mvax0, mvfx0, mvfx3, mvfx1
    18d8:	03060905 	movweq	r0, #26885	; 0x6905
    18dc:	4a062e75 	bmi	18d2b8 <__bss_end__+0x182f10>
    18e0:	03063805 	movweq	r3, #26629	; 0x6805
    18e4:	0106660d 	tsteq	r6, sp, lsl #12
    18e8:	4b060505 	blmi	182d04 <__bss_end__+0x17895c>
    18ec:	01060705 	tsteq	r6, r5, lsl #14
    18f0:	69060505 	stmdbvs	r6, {r0, r2, r8, sl}
    18f4:	01060705 	tsteq	r6, r5, lsl #14
    18f8:	4d060505 	cfstr32mi	mvfx0, [r6, #-20]	; 0xffffffec
    18fc:	01060e05 	tsteq	r6, r5, lsl #28
    1900:	67060505 	strvs	r0, [r6, -r5, lsl #10]
    1904:	01062405 	tsteq	r6, r5, lsl #8
    1908:	054a0e05 	strbeq	r0, [sl, #-3589]	; 0xfffff1fb
    190c:	052f0605 	streq	r0, [pc, #-1541]!	; 130f <__code_start__-0x6cf1>
    1910:	2e01061a 	mcrcs	6, 0, r0, cr1, cr10, {0}
    1914:	2f060505 	svccs	0x00060505
    1918:	01061f05 	tsteq	r6, r5, lsl #30
    191c:	2e0e052e 	cfsh32cs	mvfx0, mvfx14, #30
    1920:	2f060505 	svccs	0x00060505
    1924:	01060b05 	tsteq	r6, r5, lsl #22
    1928:	4b060505 	blmi	182d44 <__bss_end__+0x17899c>
    192c:	052e0613 	streq	r0, [lr, #-1555]!	; 0xfffff9ed
    1930:	09054b01 	stmdbeq	r5, {r0, r8, r9, fp, lr}
    1934:	2e740306 	cdpcs	3, 7, cr0, cr4, cr6, {0}
    1938:	062e2e06 	strteq	r2, [lr], -r6, lsl #28
    193c:	2e2e0631 	mcrcs	6, 1, r0, cr14, cr1, {1}
    1940:	00062305 	andeq	r2, r6, r5, lsl #6
    1944:	9c940205 	lfmls	f0, 4, [r4], {5}
    1948:	0b030000 	bleq	c1950 <__bss_end__+0xb75a8>
    194c:	05010601 	streq	r0, [r1, #-1537]	; 0xfffff9ff
    1950:	052f0605 	streq	r0, [pc, #-1541]!	; 1353 <__code_start__-0x6cad>
    1954:	054b0601 	strbeq	r0, [fp, #-1537]	; 0xfffff9ff
    1958:	06300624 	ldrteq	r0, [r0], -r4, lsr #12
    195c:	06050501 	streq	r0, [r5], -r1, lsl #10
    1960:	0601052f 	streq	r0, [r1], -pc, lsr #10
    1964:	0002024b 	andeq	r0, r2, fp, asr #4
    1968:	01580101 	cmpeq	r8, r1, lsl #2
    196c:	00030000 	andeq	r0, r3, r0
    1970:	0000010a 	andeq	r0, r0, sl, lsl #2
    1974:	0efb0102 	cdpeq	1, 15, cr0, cr11, cr2, {0}
    1978:	0101000d 	tsteq	r1, sp
    197c:	00000101 	andeq	r0, r0, r1, lsl #2
    1980:	00000100 	andeq	r0, r0, r0, lsl #2
    1984:	6c2f2e01 	stcvs	14, cr2, [pc], #-4	; 1988 <__code_start__-0x6678>
    1988:	00636269 	rsbeq	r6, r3, r9, ror #4
    198c:	74706f2f 	ldrbtvc	r6, [r0], #-3887	; 0xfffff0d1
    1990:	6d6f682f 	stclvs	8, cr6, [pc, #-188]!	; 18dc <__code_start__-0x6724>
    1994:	65726265 	ldrbvs	r6, [r2, #-613]!	; 0xfffffd9b
    1998:	65432f77 	strbvs	r2, [r3, #-3959]	; 0xfffff089
    199c:	72616c6c 	rsbvc	r6, r1, #108, 24	; 0x6c00
    19a0:	6d72612f 	ldfvse	f6, [r2, #-188]!	; 0xffffff44
    19a4:	6e6f6e2d 	cdpvs	14, 6, cr6, cr15, cr13, {1}
    19a8:	61652d65 	cmnvs	r5, r5, ror #26
    19ac:	742d6962 	strtvc	r6, [sp], #-2402	; 0xfffff69e
    19b0:	2f747365 	svccs	0x00747365
    19b4:	30322d39 	eorscc	r2, r2, r9, lsr sp
    19b8:	34713931 	ldrbtcc	r3, [r1], #-2353	; 0xfffff6cf
    19bc:	3173632d 	cmncc	r3, sp, lsr #6
    19c0:	2f653730 	svccs	0x00653730
    19c4:	2d6d7261 	sfmcs	f7, 2, [sp, #-388]!	; 0xfffffe7c
    19c8:	656e6f6e 	strbvs	r6, [lr, #-3950]!	; 0xfffff092
    19cc:	6261652d 	rsbvs	r6, r1, #188743680	; 0xb400000
    19d0:	6e692f69 	cdpvs	15, 6, cr2, cr9, cr9, {3}
    19d4:	64756c63 	ldrbtvs	r6, [r5], #-3171	; 0xfffff39d
    19d8:	79732f65 	ldmdbvc	r3!, {r0, r2, r5, r6, r8, r9, sl, fp, sp}^
    19dc:	6f2f0073 	svcvs	0x002f0073
    19e0:	682f7470 	stmdavs	pc!, {r4, r5, r6, sl, ip, sp, lr}	; <UNPREDICTABLE>
    19e4:	62656d6f 	rsbvs	r6, r5, #7104	; 0x1bc0
    19e8:	2f776572 	svccs	0x00776572
    19ec:	6c6c6543 	cfstr64vs	mvdx6, [ip], #-268	; 0xfffffef4
    19f0:	612f7261 			; <UNDEFINED> instruction: 0x612f7261
    19f4:	6e2d6d72 	mcrvs	13, 1, r6, cr13, cr2, {3}
    19f8:	2d656e6f 	stclcs	14, cr6, [r5, #-444]!	; 0xfffffe44
    19fc:	69626165 	stmdbvs	r2!, {r0, r2, r5, r6, r8, sp, lr}^
    1a00:	7365742d 	cmnvc	r5, #754974720	; 0x2d000000
    1a04:	2d392f74 	ldccs	15, cr2, [r9, #-464]!	; 0xfffffe30
    1a08:	39313032 	ldmdbcc	r1!, {r1, r4, r5, ip, sp}
    1a0c:	632d3471 			; <UNDEFINED> instruction: 0x632d3471
    1a10:	37303173 			; <UNDEFINED> instruction: 0x37303173
    1a14:	696c2f65 	stmdbvs	ip!, {r0, r2, r5, r6, r8, r9, sl, fp, sp}^
    1a18:	63672f62 	cmnvs	r7, #392	; 0x188
    1a1c:	72612f63 	rsbvc	r2, r1, #396	; 0x18c
    1a20:	6f6e2d6d 	svcvs	0x006e2d6d
    1a24:	652d656e 	strvs	r6, [sp, #-1390]!	; 0xfffffa92
    1a28:	2f696261 	svccs	0x00696261
    1a2c:	2e322e39 	mrccs	14, 1, r2, cr2, cr9, {1}
    1a30:	6e692f31 	mcrvs	15, 3, r2, cr9, cr1, {1}
    1a34:	64756c63 	ldrbtvs	r6, [r5], #-3171	; 0xfffff39d
    1a38:	002e0065 	eoreq	r0, lr, r5, rrx
    1a3c:	74757000 	ldrbtvc	r7, [r5], #-0
    1a40:	00632e6b 	rsbeq	r2, r3, fp, ror #28
    1a44:	6c000001 	stcvs	0, cr0, [r0], {1}
    1a48:	2e6b636f 	cdpcs	3, 6, cr6, cr11, cr15, {3}
    1a4c:	00020068 	andeq	r0, r2, r8, rrx
    1a50:	79745f00 	ldmdbvc	r4!, {r8, r9, sl, fp, ip, lr}^
    1a54:	2e736570 	mrccs	5, 3, r6, cr3, cr0, {3}
    1a58:	00020068 	andeq	r0, r2, r8, rrx
    1a5c:	64747300 	ldrbtvs	r7, [r4], #-768	; 0xfffffd00
    1a60:	2e666564 	cdpcs	5, 6, cr6, cr6, cr4, {3}
    1a64:	00030068 	andeq	r0, r3, r8, rrx
    1a68:	65657200 	strbvs	r7, [r5, #-512]!	; 0xfffffe00
    1a6c:	682e746e 	stmdavs	lr!, {r1, r2, r3, r5, r6, sl, ip, sp, lr}
    1a70:	00000200 	andeq	r0, r0, r0, lsl #4
    1a74:	2e697072 	mcrcs	0, 3, r7, cr9, cr2, {3}
    1a78:	00040068 	andeq	r0, r4, r8, rrx
    1a7c:	19050000 	stmdbne	r5, {}	; <UNPREDICTABLE>
    1a80:	b4020500 	strlt	r0, [r2], #-1280	; 0xfffffb00
    1a84:	1400009c 	strne	r0, [r0], #-156	; 0xffffff64
    1a88:	05050106 	streq	r0, [r5, #-262]	; 0xfffffefa
    1a8c:	0b054b06 	bleq	1546ac <__bss_end__+0x14a304>
    1a90:	01040200 	mrseq	r0, R12_usr
    1a94:	00050501 	andeq	r0, r5, r1, lsl #10
    1a98:	06010402 	streq	r0, [r1], -r2, lsl #8
    1a9c:	0009052e 	andeq	r0, r9, lr, lsr #10
    1aa0:	06020402 	streq	r0, [r2], -r2, lsl #8
    1aa4:	000f054b 	andeq	r0, pc, fp, asr #10
    1aa8:	65020402 	strvs	r0, [r2, #-1026]	; 0xfffffbfe
    1aac:	02001005 	andeq	r1, r0, #5, 0
    1ab0:	01060204 	tsteq	r6, r4, lsl #4
    1ab4:	02040200 	andeq	r0, r4, #0, 4
    1ab8:	0605052e 	streq	r0, [r5], -lr, lsr #10
    1abc:	06010532 			; <UNDEFINED> instruction: 0x06010532
    1ac0:	00060213 	andeq	r0, r6, r3, lsl r2
    1ac4:	00490101 	subeq	r0, r9, r1, lsl #2
    1ac8:	00030000 	andeq	r0, r3, r0
    1acc:	0000002d 	andeq	r0, r0, sp, lsr #32
    1ad0:	0efb0102 	cdpeq	1, 15, cr0, cr11, cr2, {0}
    1ad4:	0101000d 	tsteq	r1, sp
    1ad8:	00000101 	andeq	r0, r0, r1, lsl #2
    1adc:	00000100 	andeq	r0, r0, r0, lsl #2
    1ae0:	732f2e01 			; <UNDEFINED> instruction: 0x732f2e01
    1ae4:	66666174 			; <UNDEFINED> instruction: 0x66666174
    1ae8:	6372732d 	cmnvs	r2, #-1275068416	; 0xb4000000
    1aec:	70720000 	rsbsvc	r0, r2, r0
    1af0:	61772d69 	cmnvs	r7, r9, ror #26
    1af4:	632e7469 			; <UNDEFINED> instruction: 0x632e7469
    1af8:	00000100 	andeq	r0, r0, r0, lsl #2
    1afc:	00150500 	andseq	r0, r5, r0, lsl #10
    1b00:	9d000205 	sfmls	f0, 4, [r0, #-20]	; 0xffffffec
    1b04:	05130000 	ldreq	r0, [r3, #-0]
    1b08:	01050117 	tsteq	r5, r7, lsl r1
    1b0c:	02020106 	andeq	r0, r2, #-2147483647	; 0x80000001
    1b10:	Address 0x0000000000001b10 is out of bounds.


Disassembly of section .debug_str:

00000000 <.debug_str>:
   0:	6c616d6b 	stclvs	13, cr6, [r1], #-428	; 0xfffffe54
   4:	5f636f6c 	svcpl	0x00636f6c
   8:	67696c61 	strbvs	r6, [r9, -r1, ror #24]!
   c:	0064656e 	rsbeq	r6, r4, lr, ror #10
  10:	676f7270 			; <UNDEFINED> instruction: 0x676f7270
  14:	5f6d6172 	svcpl	0x006d6172
  18:	00646e65 	rsbeq	r6, r4, r5, ror #28
  1c:	726f6873 	rsbvc	r6, pc, #7536640	; 0x730000
  20:	6e752074 	mrcvs	0, 3, r2, cr5, cr4, {3}
  24:	6e676973 			; <UNDEFINED> instruction: 0x6e676973
  28:	69206465 	stmdbvs	r0!, {r0, r2, r5, r6, sl, sp, lr}
  2c:	6b00746e 	blvs	1d1ec <__bss_end__+0x12e44>
  30:	65657266 	strbvs	r7, [r5, #-614]!	; 0xfffffd9a
  34:	6c6c615f 	stfvse	f6, [ip], #-380	; 0xfffffe84
  38:	616d6b00 	cmnvs	sp, r0, lsl #22
  3c:	636f6c6c 	cmnvs	pc, #108, 24	; 0x6c00
  40:	6165685f 	cmnvs	r5, pc, asr r8
  44:	6e655f70 	mcrvs	15, 3, r5, cr5, cr0, {3}
  48:	74730064 	ldrbtvc	r0, [r3], #-100	; 0xffffff9c
  4c:	2d666661 	stclcs	6, cr6, [r6, #-388]!	; 0xfffffe7c
  50:	6c616d6b 	stclvs	13, cr6, [r1], #-428	; 0xfffffe54
  54:	2e636f6c 	cdpcs	15, 6, cr6, cr3, cr12, {3}
  58:	6e750063 	cdpvs	0, 7, cr0, cr5, cr3, {3}
  5c:	6e676973 			; <UNDEFINED> instruction: 0x6e676973
  60:	63206465 			; <UNDEFINED> instruction: 0x63206465
  64:	00726168 	rsbseq	r6, r2, r8, ror #2
  68:	61656c63 	cmnvs	r5, r3, ror #24
  6c:	65725f6e 	ldrbvs	r5, [r2, #-3950]!	; 0xfffff092
  70:	746f6f62 	strbtvc	r6, [pc], #-3938	; 78 <__code_start__-0x7f88>
  74:	78616d00 	stmdavc	r1!, {r8, sl, fp, sp, lr}^
  78:	79626e5f 	stmdbvc	r2!, {r0, r1, r2, r3, r4, r6, r9, sl, fp, sp, lr}^
  7c:	00736574 	rsbseq	r6, r3, r4, ror r5
  80:	67696c61 	strbvs	r6, [r9, -r1, ror #24]!
  84:	6e656d6e 	cdpvs	13, 6, cr6, cr5, cr14, {3}
  88:	6d6b0074 	stclvs	0, cr0, [fp, #-464]!	; 0xfffffe30
  8c:	6f6c6c61 	svcvs	0x006c6c61
  90:	73690063 	cmnvc	r9, #99, 0	; 0x63
  94:	776f705f 			; <UNDEFINED> instruction: 0x776f705f
  98:	656d0032 	strbvs	r0, [sp, #-50]!	; 0xffffffce
  9c:	7465736d 	strbtvc	r7, [r5], #-877	; 0xfffffc93
  a0:	756f7200 	strbvc	r7, [pc, #-512]!	; fffffea8 <__bss_end__+0xffff5b00>
  a4:	7075646e 	rsbsvc	r6, r5, lr, ror #8
  a8:	756f6400 	strbvc	r6, [pc, #-1024]!	; fffffcb0 <__bss_end__+0xffff5908>
  ac:	00656c62 	rsbeq	r6, r5, r2, ror #24
  b0:	55465f5f 	strbpl	r5, [r6, #-3935]	; 0xfffff0a1
  b4:	4954434e 	ldmdbmi	r4, {r1, r2, r3, r6, r8, r9, lr}^
  b8:	5f5f4e4f 	svcpl	0x005f4e4f
  bc:	554e4700 	strbpl	r4, [lr, #-1792]	; 0xfffff900
  c0:	39394320 	ldmdbcc	r9!, {r5, r8, r9, lr}
  c4:	2e303120 	rsfcssp	f3, f0, f0
  c8:	20312e33 	eorscs	r2, r1, r3, lsr lr
  cc:	31323032 	teqcc	r2, r2, lsr r0
  d0:	31323630 	teqcc	r2, r0, lsr r6
  d4:	65722820 	ldrbvs	r2, [r2, #-2080]!	; 0xfffff7e0
  d8:	7361656c 	cmnvc	r1, #108, 10	; 0x1b000000
  dc:	2d202965 			; <UNDEFINED> instruction: 0x2d202965
  e0:	7570636d 	ldrbvc	r6, [r0, #-877]!	; 0xfffffc93
  e4:	6d72613d 	ldfvse	f6, [r2, #-244]!	; 0xffffff0c
  e8:	36373131 			; <UNDEFINED> instruction: 0x36373131
  ec:	2d667a6a 	vstmdbcs	r6!, {s15-s120}
  f0:	6d2d2073 	stcvs	0, cr2, [sp, #-460]!	; 0xfffffe34
  f4:	656e7574 	strbvs	r7, [lr, #-1396]!	; 0xfffffa8c
  f8:	6d72613d 	ldfvse	f6, [r2, #-244]!	; 0xffffff0c
  fc:	36373131 			; <UNDEFINED> instruction: 0x36373131
 100:	2d667a6a 	vstmdbcs	r6!, {s15-s120}
 104:	6d2d2073 	stcvs	0, cr2, [sp, #-460]!	; 0xfffffe34
 108:	752d6f6e 	strvc	r6, [sp, #-3950]!	; 0xfffff092
 10c:	696c616e 	stmdbvs	ip!, {r1, r2, r3, r5, r6, r8, sp, lr}^
 110:	64656e67 	strbtvs	r6, [r5], #-3687	; 0xfffff199
 114:	6363612d 	cmnvs	r3, #1073741835	; 0x4000000b
 118:	20737365 	rsbscs	r7, r3, r5, ror #6
 11c:	70746d2d 	rsbsvc	r6, r4, sp, lsr #26
 120:	666f733d 			; <UNDEFINED> instruction: 0x666f733d
 124:	6d2d2074 	stcvs	0, cr2, [sp, #-464]!	; 0xfffffe30
 128:	616f6c66 	cmnvs	pc, r6, ror #24
 12c:	62612d74 	rsbvs	r2, r1, #116, 26	; 0x1d00
 130:	6f733d69 	svcvs	0x00733d69
 134:	2d207466 	cfstrscs	mvf7, [r0, #-408]!	; 0xfffffe68
 138:	6d72616d 	ldfvse	f6, [r2, #-436]!	; 0xfffffe4c
 13c:	616d2d20 	cmnvs	sp, r0, lsr #26
 140:	3d686372 	stclcc	3, cr6, [r8, #-456]!	; 0xfffffe38
 144:	766d7261 	strbtvc	r7, [sp], -r1, ror #4
 148:	207a6b36 	rsbscs	r6, sl, r6, lsr fp
 14c:	6467672d 	strbtvs	r6, [r7], #-1837	; 0xfffff8d3
 150:	4f2d2062 	svcmi	0x002d2062
 154:	732d2067 			; <UNDEFINED> instruction: 0x732d2067
 158:	673d6474 			; <UNDEFINED> instruction: 0x673d6474
 15c:	3939756e 	ldmdbcc	r9!, {r1, r2, r3, r5, r6, r8, sl, ip, sp, lr}
 160:	66662d20 	strbtvs	r2, [r6], -r0, lsr #26
 164:	73656572 	cmnvc	r5, #478150656	; 0x1c800000
 168:	646e6174 	strbtvs	r6, [lr], #-372	; 0xfffffe8c
 16c:	00676e69 	rsbeq	r6, r7, r9, ror #28
 170:	6d6f682f 	stclvs	8, cr6, [pc, #-188]!	; bc <__code_start__-0x7f44>
 174:	6e652f65 	cdpvs	15, 6, cr2, cr5, cr5, {3}
 178:	72656c67 	rsbvc	r6, r5, #26368	; 0x6700
 17c:	616c632f 	cmnvs	ip, pc, lsr #6
 180:	632f7373 			; <UNDEFINED> instruction: 0x632f7373
 184:	30343173 	eorscc	r3, r4, r3, ror r1
 188:	36322d65 	ldrtcc	r2, [r2], -r5, ror #26
 18c:	2f6e6977 	svccs	0x006e6977
 190:	7062696c 	rsbvc	r6, r2, ip, ror #18
 194:	74732f69 	ldrbtvc	r2, [r3], #-3945	; 0xfffff097
 198:	2d666661 	stclcs	6, cr6, [r6, #-388]!	; 0xfffffe7c
 19c:	76697270 			; <UNDEFINED> instruction: 0x76697270
 1a0:	00657461 	rsbeq	r7, r5, r1, ror #8
 1a4:	676e6f6c 	strbvs	r6, [lr, -ip, ror #30]!
 1a8:	6e6f6c20 	cdpvs	12, 6, cr6, cr15, cr0, {1}
 1ac:	6e752067 	cdpvs	0, 7, cr2, cr5, cr7, {3}
 1b0:	6e676973 			; <UNDEFINED> instruction: 0x6e676973
 1b4:	69206465 	stmdbvs	r0!, {r0, r2, r5, r6, sl, sp, lr}
 1b8:	6800746e 	stmdavs	r0, {r1, r2, r3, r5, r6, sl, ip, sp, lr}
 1bc:	00706165 	rsbseq	r6, r0, r5, ror #2
 1c0:	6c616d6b 	stclvs	13, cr6, [r1], #-428	; 0xfffffe54
 1c4:	5f636f6c 	svcpl	0x00636f6c
 1c8:	70616568 	rsbvc	r6, r1, r8, ror #10
 1cc:	7274705f 	rsbsvc	r7, r4, #95, 0	; 0x5f
 1d0:	656e6f00 	strbvs	r6, [lr, #-3840]!	; 0xfffff100
 1d4:	00626d5f 	rsbeq	r6, r2, pc, asr sp
 1d8:	6c616d6b 	stclvs	13, cr6, [r1], #-428	; 0xfffffe54
 1dc:	5f636f6c 	svcpl	0x00636f6c
 1e0:	7a746f6e 	bvc	1d1bfa0 <__bss_end__+0x1d11bf8>
 1e4:	006f7265 	rsbeq	r7, pc, r5, ror #4
 1e8:	676e6f6c 	strbvs	r6, [lr, -ip, ror #30]!
 1ec:	6e6f6c20 	cdpvs	12, 6, cr6, cr15, cr0, {1}
 1f0:	6e692067 	cdpvs	0, 6, cr2, cr9, cr7, {3}
 1f4:	616d0074 	smcvs	53252	; 0xd004
 1f8:	33755f78 	cmncc	r5, #120, 30	; 0x1e0
 1fc:	68730032 	ldmdavs	r3!, {r1, r4, r5}^
 200:	2074726f 	rsbscs	r7, r4, pc, ror #4
 204:	00746e69 	rsbseq	r6, r4, r9, ror #28
 208:	6c616d6b 	stclvs	13, cr6, [r1], #-428	; 0xfffffe54
 20c:	5f636f6c 	svcpl	0x00636f6c
 210:	70616568 	rsbvc	r6, r1, r8, ror #10
 214:	6174735f 	cmnvs	r4, pc, asr r3
 218:	75007472 	strvc	r7, [r0, #-1138]	; 0xfffffb8e
 21c:	33746e69 	cmncc	r4, #1680	; 0x690
 220:	00745f32 	rsbseq	r5, r4, r2, lsr pc
 224:	615f7369 	cmpvs	pc, r9, ror #6
 228:	6e67696c 	vnmulvs.f16	s13, s14, s25	; <UNPREDICTABLE>
 22c:	6b006465 	blvs	193c8 <__bss_end__+0xf020>
 230:	6c6c616d 	stfvse	f6, [ip], #-436	; 0xfffffe4c
 234:	695f636f 	ldmdbvs	pc, {r0, r1, r2, r3, r5, r6, r8, r9, sp, lr}^	; <UNPREDICTABLE>
 238:	5f74696e 	svcpl	0x0074696e
 23c:	5f746573 	svcpl	0x00746573
 240:	72617473 	rsbvc	r7, r1, #1929379840	; 0x73000000
 244:	615f0074 	cmpvs	pc, r4, ror r0	; <UNPREDICTABLE>
 248:	00726464 	rsbseq	r6, r2, r4, ror #8
 24c:	6f73645f 	svcvs	0x0073645f
 250:	6e61685f 	mcrvs	8, 3, r6, cr1, cr15, {2}
 254:	00656c64 	rsbeq	r6, r5, r4, ror #24
 258:	636d656d 	cmnvs	sp, #457179136	; 0x1b400000
 25c:	35327970 	ldrcc	r7, [r2, #-2416]!	; 0xfffff690
 260:	735f0036 	cmpvc	pc, #54, 0	; 0x36
 264:	00657a69 	rsbeq	r7, r5, r9, ror #20
 268:	657a6973 	ldrbvs	r6, [sl, #-2419]!	; 0xfffff68d
 26c:	5f00745f 	svcpl	0x0000745f
 270:	646e6172 	strbtvs	r6, [lr], #-370	; 0xfffffe8e
 274:	5f003834 	svcpl	0x00003834
 278:	72656d65 	rsbvc	r6, r5, #6464	; 0x1940
 27c:	636e6567 	cmnvs	lr, #432013312	; 0x19c00000
 280:	69750079 	ldmdbvs	r5!, {r0, r3, r4, r5, r6}^
 284:	3436746e 	ldrtcc	r7, [r6], #-1134	; 0xfffffb92
 288:	5f00745f 	svcpl	0x0000745f
 28c:	74726377 	ldrbtvc	r6, [r2], #-887	; 0xfffffc89
 290:	5f626d6f 	svcpl	0x00626d6f
 294:	74617473 	strbtvc	r7, [r1], #-1139	; 0xfffffb8d
 298:	775f0065 	ldrbvc	r0, [pc, -r5, rrx]
 29c:	74727363 	ldrbtvc	r7, [r2], #-867	; 0xfffffc9d
 2a0:	73626d6f 	cmnvc	r2, #7104	; 0x1bc0
 2a4:	6174735f 	cmnvs	r4, pc, asr r3
 2a8:	5f006574 	svcpl	0x00006574
 2ac:	7366626c 	cmnvc	r6, #108, 4	; 0xc0000006
 2b0:	00657a69 	rsbeq	r7, r5, r9, ror #20
 2b4:	6f6c5f5f 	svcvs	0x006c5f5f
 2b8:	656c6163 	strbvs	r6, [ip, #-355]!	; 0xfffffe9d
 2bc:	5f00745f 	svcpl	0x0000745f
 2c0:	7472626d 	ldrbtvc	r6, [r2], #-621	; 0xfffffd93
 2c4:	5f63776f 	svcpl	0x0063776f
 2c8:	74617473 	strbtvc	r7, [r1], #-1139	; 0xfffffb8d
 2cc:	5f5f0065 	svcpl	0x005f0065
 2d0:	735f6d74 	cmpvc	pc, #116, 26	; 0x1d00
 2d4:	5f006365 	svcpl	0x00006365
 2d8:	66756275 			; <UNDEFINED> instruction: 0x66756275
 2dc:	61625f00 	cmnvs	r2, r0, lsl #30
 2e0:	5f006573 	svcpl	0x00006573
 2e4:	5f6d745f 	svcpl	0x006d745f
 2e8:	72756f68 	rsbsvc	r6, r5, #104, 30	; 0x1a0
 2ec:	735f5f00 	cmpvc	pc, #0, 30
 2f0:	6f5f0066 	svcvs	0x005f0066
 2f4:	78655f6e 	stmdavc	r5!, {r1, r2, r3, r5, r6, r8, r9, sl, fp, ip, lr}^
 2f8:	615f7469 	cmpvs	pc, r9, ror #8
 2fc:	00736772 	rsbseq	r6, r3, r2, ror r7
 300:	6f6f635f 	svcvs	0x006f635f
 304:	0065696b 	rsbeq	r6, r5, fp, ror #18
 308:	67735f5f 			; <UNDEFINED> instruction: 0x67735f5f
 30c:	0065756c 	rsbeq	r7, r5, ip, ror #10
 310:	616c665f 	cmnvs	ip, pc, asr r6
 314:	5f007367 	svcpl	0x00007367
 318:	635f7369 	cmpvs	pc, #-1543503871	; 0xa4000001
 31c:	5f006178 	svcpl	0x00006178
 320:	69647473 	stmdbvs	r4!, {r0, r1, r4, r5, r6, sl, ip, sp, lr}^
 324:	625f006e 	subsvs	r0, pc, #110, 0	; 0x6e
 328:	69736b6c 	ldmdbvs	r3!, {r2, r3, r5, r6, r8, r9, fp, sp, lr}^
 32c:	6d00657a 	cfstr32vs	mvfx6, [r0, #-488]	; 0xfffffe18
 330:	70636d65 	rsbvc	r6, r3, r5, ror #26
 334:	6e655f79 	mcrvs	15, 3, r5, cr5, cr9, {3}
 338:	2f2e0064 	svccs	0x002e0064
 33c:	6362696c 	cmnvs	r2, #108, 18	; 0x1b0000
 340:	6d656d2f 	stclvs	13, cr6, [r5, #-188]!	; 0xffffff44
 344:	2e797063 	cdpcs	0, 7, cr7, cr9, cr3, {3}
 348:	635f0063 	cmpvs	pc, #99, 0	; 0x63
 34c:	75627476 	strbvc	r7, [r2, #-1142]!	; 0xfffffb8a
 350:	6f5f0066 	svcvs	0x005f0066
 354:	65736666 	ldrbvs	r6, [r3, #-1638]!	; 0xfffff99a
 358:	4e470074 	mcrmi	0, 2, r0, cr7, cr4, {3}
 35c:	39432055 	stmdbcc	r3, {r0, r2, r4, r6, sp}^
 360:	2e392039 	mrccs	0, 1, r2, cr9, cr9, {1}
 364:	20312e32 	eorscs	r2, r1, r2, lsr lr
 368:	39313032 	ldmdbcc	r1!, {r1, r4, r5, ip, sp}
 36c:	35323031 	ldrcc	r3, [r2, #-49]!	; 0xffffffcf
 370:	65722820 	ldrbvs	r2, [r2, #-2080]!	; 0xfffff7e0
 374:	7361656c 	cmnvc	r1, #108, 10	; 0x1b000000
 378:	5b202965 	blpl	80a914 <__bss_end__+0x80056c>
 37c:	2f4d5241 	svccs	0x004d5241
 380:	2d6d7261 	sfmcs	f7, 2, [sp, #-388]!	; 0xfffffe7c
 384:	72622d39 	rsbvc	r2, r2, #3648	; 0xe40
 388:	68636e61 	stmdavs	r3!, {r0, r5, r6, r9, sl, fp, sp, lr}^
 38c:	76657220 	strbtvc	r7, [r5], -r0, lsr #4
 390:	6f697369 	svcvs	0x00697369
 394:	3732206e 	ldrcc	r2, [r2, -lr, rrx]!
 398:	39393537 	ldmdbcc	r9!, {r0, r1, r2, r4, r5, r8, sl, ip, sp}
 39c:	6d2d205d 	stcvs	0, cr2, [sp, #-372]!	; 0xfffffe8c
 3a0:	3d757063 	ldclcc	0, cr7, [r5, #-396]!	; 0xfffffe74
 3a4:	316d7261 	cmncc	sp, r1, ror #4
 3a8:	6a363731 	bvs	d8e074 <__bss_end__+0xd83ccc>
 3ac:	732d667a 			; <UNDEFINED> instruction: 0x732d667a
 3b0:	746d2d20 	strbtvc	r2, [sp], #-3360	; 0xfffff2e0
 3b4:	3d656e75 	stclcc	14, cr6, [r5, #-468]!	; 0xfffffe2c
 3b8:	316d7261 	cmncc	sp, r1, ror #4
 3bc:	6a363731 	bvs	d8e088 <__bss_end__+0xd83ce0>
 3c0:	732d667a 			; <UNDEFINED> instruction: 0x732d667a
 3c4:	6e6d2d20 	cdpvs	13, 6, cr2, cr13, cr0, {1}
 3c8:	6e752d6f 	cdpvs	13, 7, cr2, cr5, cr15, {3}
 3cc:	67696c61 	strbvs	r6, [r9, -r1, ror #24]!
 3d0:	2d64656e 	cfstr64cs	mvdx6, [r4, #-440]!	; 0xfffffe48
 3d4:	65636361 	strbvs	r6, [r3, #-865]!	; 0xfffffc9f
 3d8:	2d207373 	stccs	3, cr7, [r0, #-460]!	; 0xfffffe34
 3dc:	3d70746d 	cfldrdcc	mvd7, [r0, #-436]!	; 0xfffffe4c
 3e0:	74666f73 	strbtvc	r6, [r6], #-3955	; 0xfffff08d
 3e4:	666d2d20 	strbtvs	r2, [sp], -r0, lsr #26
 3e8:	74616f6c 	strbtvc	r6, [r1], #-3948	; 0xfffff094
 3ec:	6962612d 	stmdbvs	r2!, {r0, r2, r3, r5, r8, sp, lr}^
 3f0:	666f733d 			; <UNDEFINED> instruction: 0x666f733d
 3f4:	6d2d2074 	stcvs	0, cr2, [sp, #-464]!	; 0xfffffe30
 3f8:	206d7261 	rsbcs	r7, sp, r1, ror #4
 3fc:	72616d2d 	rsbvc	r6, r1, #2880	; 0xb40
 400:	613d6863 	teqvs	sp, r3, ror #16
 404:	36766d72 			; <UNDEFINED> instruction: 0x36766d72
 408:	2d207a6b 	vstmdbcs	r0!, {s14-s120}
 40c:	62646767 	rsbvs	r6, r4, #27000832	; 0x19c0000
 410:	674f2d20 	strbvs	r2, [pc, -r0, lsr #26]
 414:	74732d20 	ldrbtvc	r2, [r3], #-3360	; 0xfffff2e0
 418:	6e673d64 	cdpvs	13, 6, cr3, cr7, cr4, {3}
 41c:	20393975 	eorscs	r3, r9, r5, ror r9
 420:	7266662d 	rsbvc	r6, r6, #47185920	; 0x2d00000
 424:	74736565 	ldrbtvc	r6, [r3], #-1381	; 0xfffffa9b
 428:	69646e61 	stmdbvs	r4!, {r0, r5, r6, r9, sl, fp, sp, lr}^
 42c:	5f00676e 	svcpl	0x0000676e
 430:	7273626d 	rsbsvc	r6, r3, #-805306362	; 0xd0000006
 434:	63776f74 	cmnvs	r7, #116, 30	; 0x1d0
 438:	74735f73 	ldrbtvc	r5, [r3], #-3955	; 0xfffff08d
 43c:	00657461 	rsbeq	r7, r5, r1, ror #8
 440:	72626d5f 	rsbvc	r6, r2, #6080	; 0x17c0
 444:	5f6e656c 	svcpl	0x006e656c
 448:	74617473 	strbtvc	r7, [r1], #-1139	; 0xfffffb8d
 44c:	665f0065 	ldrbvs	r0, [pc], -r5, rrx
 450:	6772616e 	ldrbvs	r6, [r2, -lr, ror #2]!
 454:	665f0073 			; <UNDEFINED> instruction: 0x665f0073
 458:	5f00736e 	svcpl	0x0000736e
 45c:	6e676973 			; <UNDEFINED> instruction: 0x6e676973
 460:	6c665f00 	stclvs	15, cr5, [r6], #-0
 464:	5f6b636f 	svcpl	0x006b636f
 468:	735f0074 	cmpvc	pc, #116, 0	; 0x74
 46c:	72656474 	rsbvc	r6, r5, #116, 8	; 0x74000000
 470:	425f0072 	subsmi	r0, pc, #114, 0	; 0x72
 474:	6e696769 	cdpvs	7, 6, cr6, cr9, cr9, {3}
 478:	675f0074 			; <UNDEFINED> instruction: 0x675f0074
 47c:	616d6d61 	cmnvs	sp, r1, ror #26
 480:	6769735f 			; <UNDEFINED> instruction: 0x6769735f
 484:	6d61676e 	stclvs	7, cr6, [r1, #-440]!	; 0xfffffe48
 488:	65725f00 	ldrbvs	r5, [r2, #-3840]!	; 0xfffff100
 48c:	746c7573 	strbtvc	r7, [ip], #-1395	; 0xfffffa8d
 490:	72006b5f 	andvc	r6, r0, #97280	; 0x17c00
 494:	705f6970 	subsvc	r6, pc, r0, ror r9	; <UNPREDICTABLE>
 498:	68637475 	stmdavs	r3!, {r0, r2, r4, r5, r6, sl, ip, sp, lr}^
 49c:	5f007261 	svcpl	0x00007261
 4a0:	006d745f 	rsbeq	r7, sp, pc, asr r4
 4a4:	63775f5f 	cmnvs	r7, #380	; 0x17c
 4a8:	5f006268 	svcpl	0x00006268
 4ac:	6f647473 	svcvs	0x00647473
 4b0:	5f007475 	svcpl	0x00007475
 4b4:	6c747663 	ldclvs	6, cr7, [r4], #-396	; 0xfffffe74
 4b8:	5f006e65 	svcpl	0x00006e65
 4bc:	656c6966 	strbvs	r6, [ip, #-2406]!	; 0xfffff69a
 4c0:	73552f00 	cmpvc	r5, #0, 30
 4c4:	2f737265 	svccs	0x00737265
 4c8:	616e6f69 	cmnvs	lr, r9, ror #30
 4cc:	2f616978 	svccs	0x00616978
 4d0:	34315343 	ldrtcc	r5, [r1], #-835	; 0xfffffcbd
 4d4:	632f4530 			; <UNDEFINED> instruction: 0x632f4530
 4d8:	30343173 	eorscc	r3, r4, r3, ror r1
 4dc:	36322d65 	ldrtcc	r2, [r2], -r5, ror #26
 4e0:	2f6e6977 	svccs	0x006e6977
 4e4:	7062696c 	rsbvc	r6, r2, ip, ror #18
 4e8:	6e5f0069 	cdpvs	0, 5, cr0, cr15, cr9, {3}
 4ec:	73626f69 	cmnvc	r2, #420	; 0x1a4
 4f0:	74615f00 	strbtvc	r5, [r1], #-3840	; 0xfffff100
 4f4:	74697865 	strbtvc	r7, [r9], #-2149	; 0xfffff79b
 4f8:	735f0030 	cmpvc	pc, #48, 0	; 0x30
 4fc:	616e6769 	cmnvs	lr, r9, ror #14
 500:	75625f6c 	strbvc	r5, [r2, #-3948]!	; 0xfffff094
 504:	615f0066 	cmpvs	pc, r6, rrx
 508:	69746373 	ldmdbvs	r4!, {r0, r1, r4, r5, r6, r8, r9, sp, lr}^
 50c:	625f656d 	subsvs	r6, pc, #457179136	; 0x1b400000
 510:	5f006675 	svcpl	0x00006675
 514:	75736572 	ldrbvc	r6, [r3, #-1394]!	; 0xfffffa8e
 518:	5f00746c 	svcpl	0x0000746c
 51c:	6863775f 	stmdavs	r3!, {r0, r1, r2, r3, r4, r6, r8, r9, sl, ip, sp, lr}^
 520:	6d656d00 	stclvs	13, cr6, [r5, #-0]
 524:	00797063 	rsbseq	r7, r9, r3, rrx
 528:	434f4c5f 	movtmi	r4, #64607	; 0xfc5f
 52c:	00545f4b 	subseq	r5, r4, fp, asr #30
 530:	746e6977 	strbtvc	r6, [lr], #-2423	; 0xfffff689
 534:	5f00745f 	svcpl	0x0000745f
 538:	67616c66 	strbvs	r6, [r1, -r6, ror #24]!
 53c:	5f003273 	svcpl	0x00003273
 540:	5f6d745f 	svcpl	0x006d745f
 544:	72616579 	rsbvc	r6, r1, #507510784	; 0x1e400000
 548:	656e5f00 	strbvs	r5, [lr, #-3840]!	; 0xfffff100
 54c:	00667478 	rsbeq	r7, r6, r8, ror r4
 550:	6d745f5f 	ldclvs	15, cr5, [r4, #-380]!	; 0xfffffe84
 554:	6e6f6d5f 	mcrvs	13, 3, r6, cr15, cr15, {2}
 558:	74615f00 	strbtvc	r5, [r1], #-3840	; 0xfffff100
 55c:	74697865 	strbtvc	r7, [r9], #-2149	; 0xfffff79b
 560:	735f5f00 	cmpvc	pc, #0, 30
 564:	69646964 	stmdbvs	r4!, {r2, r5, r6, r8, fp, sp, lr}^
 568:	0074696e 	rsbseq	r6, r4, lr, ror #18
 56c:	66666f5f 	uqsaxvs	r6, r6, pc	; <UNPREDICTABLE>
 570:	5f00745f 	svcpl	0x0000745f
 574:	65657266 	strbvs	r7, [r5, #-614]!	; 0xfffffd9a
 578:	7473696c 	ldrbtvc	r6, [r3], #-2412	; 0xfffff694
 57c:	63775f00 	cmnvs	r7, #0, 30
 580:	626d6f74 	rsbvs	r6, sp, #116, 30	; 0x1d0
 584:	6174735f 	cmnvs	r4, pc, asr r3
 588:	5f006574 	svcpl	0x00006574
 58c:	0077656e 	rsbseq	r6, r7, lr, ror #10
 590:	655f685f 	ldrbvs	r6, [pc, #-2143]	; fffffd39 <__bss_end__+0xffff5991>
 594:	6f6e7272 	svcvs	0x006e7272
 598:	745f5f00 	ldrbvc	r5, [pc], #-3840	; 5a0 <__code_start__-0x7a60>
 59c:	64795f6d 	ldrbtvs	r5, [r9], #-3949	; 0xfffff093
 5a0:	5f007961 	svcpl	0x00007961
 5a4:	7562735f 	strbvc	r7, [r2, #-863]!	; 0xfffffca1
 5a8:	695f0066 	ldmdbvs	pc, {r1, r2, r5, r6}^	; <UNPREDICTABLE>
 5ac:	0073626f 	rsbseq	r6, r3, pc, ror #4
 5b0:	49465f5f 	stmdbmi	r6, {r0, r1, r2, r3, r4, r6, r8, r9, sl, fp, ip, lr}^
 5b4:	5f00454c 	svcpl	0x0000454c
 5b8:	7473626d 	ldrbtvc	r6, [r3], #-621	; 0xfffffd93
 5bc:	5f657461 	svcpl	0x00657461
 5c0:	5f5f0074 	svcpl	0x005f0074
 5c4:	4c494673 	mcrrmi	6, 7, r4, r9, cr3
 5c8:	6d5f0045 	ldclvs	0, cr0, [pc, #-276]	; 4bc <__code_start__-0x7b44>
 5cc:	61747362 	cmnvs	r4, r2, ror #6
 5d0:	5f006574 	svcpl	0x00006574
 5d4:	646e6172 	strbtvs	r6, [lr], #-370	; 0xfffffe8e
 5d8:	78656e5f 	stmdavc	r5!, {r0, r1, r2, r3, r4, r6, r9, sl, fp, sp, lr}^
 5dc:	6d5f0074 	ldclvs	0, cr0, [pc, #-464]	; 414 <__code_start__-0x7bec>
 5e0:	6e656c62 	cdpvs	12, 6, cr6, cr5, cr2, {3}
 5e4:	6174735f 	cmnvs	r4, pc, asr r3
 5e8:	5f006574 	svcpl	0x00006574
 5ec:	00636e69 	rsbeq	r6, r3, r9, ror #28
 5f0:	646e695f 	strbtvs	r6, [lr], #-2399	; 0xfffff6a1
 5f4:	6f6c5f00 	svcvs	0x006c5f00
 5f8:	656c6163 	strbvs	r6, [ip, #-355]!	; 0xfffffe9d
 5fc:	635f5f00 	cmpvs	pc, #0, 30
 600:	6e61656c 	cdpvs	5, 6, cr6, cr1, cr12, {3}
 604:	5f007075 	svcpl	0x00007075
 608:	70736e75 	rsbsvc	r6, r3, r5, ror lr
 60c:	66696365 	strbtvs	r6, [r9], -r5, ror #6
 610:	5f646569 	svcpl	0x00646569
 614:	61636f6c 	cmnvs	r3, ip, ror #30
 618:	695f656c 	ldmdbvs	pc, {r2, r3, r5, r6, r8, sl, sp, lr}^	; <UNPREDICTABLE>
 61c:	006f666e 	rsbeq	r6, pc, lr, ror #12
 620:	78616d5f 	stmdavc	r1!, {r0, r1, r2, r3, r4, r6, r8, sl, fp, sp, lr}^
 624:	00736477 	rsbseq	r6, r3, r7, ror r4
 628:	6565725f 	strbvs	r7, [r5, #-607]!	; 0xfffffda1
 62c:	5f00746e 	svcpl	0x0000746e
 630:	64656573 	strbtvs	r6, [r5], #-1395	; 0xfffffa8d
 634:	635f5f00 	cmpvs	pc, #0, 30
 638:	746e756f 	strbtvc	r7, [lr], #-1391	; 0xfffffa91
 63c:	6c5f5f00 	mrrcvs	15, 0, r5, pc, cr0	; <UNPREDICTABLE>
 640:	006b636f 	rsbeq	r6, fp, pc, ror #6
 644:	6565735f 	strbvs	r7, [r5, #-863]!	; 0xfffffca1
 648:	665f006b 	ldrbvs	r0, [pc], -fp, rrx
 64c:	5f736f70 	svcpl	0x00736f70
 650:	70720074 	rsbsvc	r0, r2, r4, ror r0
 654:	75705f69 	ldrbvc	r5, [r0, #-3945]!	; 0xfffff097
 658:	61686374 	smcvs	34356	; 0x8634
 65c:	00745f72 	rsbseq	r5, r4, r2, ror pc
 660:	6d745f5f 	ldclvs	15, cr5, [r4, #-380]!	; 0xfffffe84
 664:	6e696d5f 	mcrvs	13, 3, r6, cr9, cr15, {2}
 668:	756d5f00 	strbvc	r5, [sp, #-3840]!	; 0xfffff100
 66c:	5f00746c 	svcpl	0x0000746c
 670:	74727473 	ldrbtvc	r7, [r2], #-1139	; 0xfffffb8d
 674:	6c5f6b6f 	mrrcvs	11, 6, r6, pc, cr15	; <UNPREDICTABLE>
 678:	00747361 	rsbseq	r7, r4, r1, ror #6
 67c:	61765f5f 	cmnvs	r6, pc, asr pc
 680:	0065756c 	rsbeq	r7, r5, ip, ror #10
 684:	746e665f 	strbtvc	r6, [lr], #-1631	; 0xfffff9a1
 688:	73657079 	cmnvc	r5, #121, 0	; 0x79
 68c:	64615f00 	strbtvs	r5, [r1], #-3840	; 0xfffff100
 690:	5f5f0064 	svcpl	0x005f0064
 694:	6e6f4c55 	mcrvs	12, 3, r4, cr15, cr5, {2}
 698:	675f0067 	ldrbvs	r0, [pc, -r7, rrx]
 69c:	61647465 	cmnvs	r4, r5, ror #8
 6a0:	655f6574 	ldrbvs	r6, [pc, #-1396]	; 134 <__code_start__-0x7ecc>
 6a4:	5f007272 	svcpl	0x00007272
 6a8:	626f6c67 	rsbvs	r6, pc, #26368	; 0x6700
 6ac:	695f6c61 	ldmdbvs	pc, {r0, r5, r6, sl, fp, sp, lr}^	; <UNPREDICTABLE>
 6b0:	7275706d 	rsbsvc	r7, r5, #109, 0	; 0x6d
 6b4:	74705f65 	ldrbtvc	r5, [r0], #-3941	; 0xfffff09b
 6b8:	755f0072 	ldrbvc	r0, [pc, #-114]	; 64e <__code_start__-0x79b2>
 6bc:	6573756e 	ldrbvs	r7, [r3, #-1390]!	; 0xfffffa92
 6c0:	61725f64 	cmnvs	r2, r4, ror #30
 6c4:	5f00646e 	svcpl	0x0000646e
 6c8:	00736477 	rsbseq	r6, r3, r7, ror r4
 6cc:	6d745f5f 	ldclvs	15, cr5, [r4, #-380]!	; 0xfffffe84
 6d0:	6164775f 	cmnvs	r4, pc, asr r7
 6d4:	675f0079 			; <UNDEFINED> instruction: 0x675f0079
 6d8:	0065756c 	rsbeq	r7, r5, ip, ror #10
 6dc:	616d6e5f 	cmnvs	sp, pc, asr lr
 6e0:	636f6c6c 	cmnvs	pc, #108, 24	; 0x6c00
 6e4:	366c5f00 	strbtcc	r5, [ip], -r0, lsl #30
 6e8:	625f6134 	subsvs	r6, pc, #13
 6ec:	5f006675 	svcpl	0x00006675
 6f0:	5f676973 	svcpl	0x00676973
 6f4:	636e7566 	cmnvs	lr, #427819008	; 0x19800000
 6f8:	626e5f00 	rsbvs	r5, lr, #0, 30
 6fc:	5f006675 	svcpl	0x00006675
 700:	73756e75 	cmnvc	r5, #1872	; 0x750
 704:	5f006465 	svcpl	0x00006465
 708:	5f6d745f 	svcpl	0x006d745f
 70c:	73647369 	cmnvc	r4, #-1543503871	; 0xa4000001
 710:	6c5f0074 	mrrcvs	0, 7, r0, pc, cr4	; <UNPREDICTABLE>
 714:	6c61636f 	stclvs	3, cr6, [r1], #-444	; 0xfffffe44
 718:	656d6974 	strbvs	r6, [sp, #-2420]!	; 0xfffff68c
 71c:	6675625f 			; <UNDEFINED> instruction: 0x6675625f
 720:	6c635f00 	stclvs	15, cr5, [r3], #-0
 724:	0065736f 	rsbeq	r7, r5, pc, ror #6
 728:	3834725f 	ldmdacc	r4!, {r0, r1, r2, r3, r4, r6, r9, ip, sp, lr}
 72c:	626d5f00 	rsbvs	r5, sp, #0, 30
 730:	63776f74 	cmnvs	r7, #116, 30	; 0x1d0
 734:	6174735f 	cmnvs	r4, pc, asr r3
 738:	5f006574 	svcpl	0x00006574
 73c:	00733570 	rsbseq	r3, r3, r0, ror r5
 740:	6d745f5f 	ldclvs	15, cr5, [r4, #-380]!	; 0xfffffe84
 744:	61646d5f 	cmnvs	r4, pc, asr sp
 748:	2f2e0079 	svccs	0x002e0079
 74c:	6362696c 	cmnvs	r2, #108, 18	; 0x1b0000
 750:	6d656d2f 	stclvs	13, cr6, [r5, #-188]!	; 0xffffff44
 754:	2e746573 	mrccs	5, 3, r6, cr4, cr3, {3}
 758:	5f5f0063 	svcpl	0x005f0063
 75c:	6c5f6176 	ldfvse	f6, [pc], {118}	; 0x76
 760:	00747369 	rsbseq	r7, r4, r9, ror #6
 764:	6e675f5f 	mcrvs	15, 3, r5, cr7, cr15, {2}
 768:	765f6375 			; <UNDEFINED> instruction: 0x765f6375
 76c:	696c5f61 	stmdbvs	ip!, {r0, r5, r6, r8, r9, sl, fp, ip, lr}^
 770:	2e007473 	mcrcs	4, 0, r7, cr0, cr3, {3}
 774:	62696c2f 	rsbvs	r6, r9, #12032	; 0x2f00
 778:	72702f63 	rsbsvc	r2, r0, #396	; 0x18c
 77c:	6b746e69 	blvs	1d1c128 <__bss_end__+0x1d11d80>
 780:	7600632e 	strvc	r6, [r0], -lr, lsr #6
 784:	6e697270 	mcrvs	2, 3, r7, cr9, cr0, {3}
 788:	5f006b74 	svcpl	0x00006b74
 78c:	0070615f 	rsbseq	r6, r0, pc, asr r1
 790:	74696d65 	strbtvc	r6, [r9], #-3429	; 0xfffff29b
 794:	6c61765f 	stclvs	6, cr7, [r1], #-380	; 0xfffffe84
 798:	6c2f2e00 	stcvs	14, cr2, [pc], #-0	; 7a0 <__code_start__-0x7860>
 79c:	2f636269 	svccs	0x00636269
 7a0:	63747570 	cmnvs	r4, #112, 10	; 0x1c000000
 7a4:	2e726168 	rpwcssz	f6, f2, #0.0
 7a8:	70720063 	rsbsvc	r0, r2, r3, rrx
 7ac:	75705f69 	ldrbvc	r5, [r0, #-3945]!	; 0xfffff097
 7b0:	61686374 	smcvs	34356	; 0x8634
 7b4:	65735f72 	ldrbvs	r5, [r3, #-3954]!	; 0xfffff08e
 7b8:	61750074 	cmnvs	r5, r4, ror r0
 7bc:	705f7472 	subsvc	r7, pc, r2, ror r4	; <UNPREDICTABLE>
 7c0:	00387475 	eorseq	r7, r8, r5, ror r4
 7c4:	63747570 	cmnvs	r4, #112, 10	; 0x1c000000
 7c8:	66656400 	strbtvs	r6, [r5], -r0, lsl #8
 7cc:	746c7561 	strbtvc	r7, [ip], #-1377	; 0xfffffa9f
 7d0:	7475705f 	ldrbtvc	r7, [r5], #-95	; 0xffffffa1
 7d4:	72616863 	rsbvc	r6, r1, #6488064	; 0x630000
 7d8:	732f2e00 			; <UNDEFINED> instruction: 0x732f2e00
 7dc:	66666174 			; <UNDEFINED> instruction: 0x66666174
 7e0:	6372732d 	cmnvs	r2, #-1275068416	; 0xb4000000
 7e4:	656c632f 	strbvs	r6, [ip, #-815]!	; 0xfffffcd1
 7e8:	722d6e61 	eorvc	r6, sp, #1552	; 0x610
 7ec:	6f6f6265 	svcvs	0x006f6265
 7f0:	00632e74 	rsbeq	r2, r3, r4, ror lr
 7f4:	74726175 	ldrbtvc	r6, [r2], #-373	; 0xfffffe8b
 7f8:	756c665f 	strbvc	r6, [ip, #-1631]!	; 0xfffff9a1
 7fc:	745f6873 	ldrbvc	r6, [pc], #-2163	; 804 <__code_start__-0x77fc>
 800:	75700078 	ldrbvc	r0, [r0, #-120]!	; 0xffffff88
 804:	64006b74 	strvs	r6, [r0], #-2932	; 0xfffff48c
 808:	79616c65 	stmdbvc	r1!, {r0, r2, r5, r6, sl, fp, sp, lr}^
 80c:	00736d5f 	rsbseq	r6, r3, pc, asr sp
 810:	5f697072 	svcpl	0x00697072
 814:	6f626572 	svcvs	0x00626572
 818:	6e00746f 	cdpvs	4, 0, cr7, cr0, cr15, {3}
 81c:	616d746f 	cmnvs	sp, pc, ror #8
 820:	75006e69 	strvc	r6, [r0, #-3689]	; 0xfffff197
 824:	5f747261 	svcpl	0x00747261
 828:	74696e69 	strbtvc	r6, [r9], #-3689	; 0xfffff197
 82c:	73635f00 	cmnvc	r3, #0, 30
 830:	74726174 	ldrbtvc	r6, [r2], #-372	; 0xfffffe8c
 834:	63796300 	cmnvs	r9, #0, 6
 838:	635f656c 	cmpvs	pc, #108, 10	; 0x1b000000
 83c:	695f746e 	ldmdbvs	pc, {r1, r2, r3, r5, r6, sl, ip, sp, lr}^	; <UNPREDICTABLE>
 840:	0074696e 	rsbseq	r6, r4, lr, ror #18
 844:	5f737362 	svcpl	0x00737362
 848:	00646e65 	rsbeq	r6, r4, r5, ror #28
 84c:	73625f5f 	cmnvc	r2, #380	; 0x17c
 850:	74735f73 	ldrbtvc	r5, [r3], #-3955	; 0xfffff08d
 854:	5f747261 	svcpl	0x00747261
 858:	5f5f005f 	svcpl	0x005f005f
 85c:	5f737362 	svcpl	0x00737362
 860:	5f646e65 	svcpl	0x00646e65
 864:	5f5f005f 	svcpl	0x005f005f
 868:	65646f63 	strbvs	r6, [r4, #-3939]!	; 0xfffff09d
 86c:	646e655f 	strbtvs	r6, [lr], #-1375	; 0xfffffaa1
 870:	2e005f5f 	mcrcs	15, 0, r5, cr0, cr15, {2}
 874:	6174732f 	cmnvs	r4, pc, lsr #6
 878:	732d6666 			; <UNDEFINED> instruction: 0x732d6666
 87c:	632f6372 			; <UNDEFINED> instruction: 0x632f6372
 880:	72617473 	rsbvc	r7, r1, #1929379840	; 0x73000000
 884:	00632e74 	rsbeq	r2, r3, r4, ror lr
 888:	65685f5f 	strbvs	r5, [r8, #-3935]!	; 0xfffff0a1
 88c:	735f7061 	cmpvc	pc, #97, 0	; 0x61
 890:	74726174 	ldrbtvc	r6, [r2], #-372	; 0xfffffe8c
 894:	5f005f5f 	svcpl	0x00005f5f
 898:	6f72705f 	svcvs	0x0072705f
 89c:	6e655f67 	cdpvs	15, 6, cr5, cr5, cr7, {3}
 8a0:	005f5f64 	subseq	r5, pc, r4, ror #30
 8a4:	61645f5f 	cmnvs	r4, pc, asr pc
 8a8:	735f6174 	cmpvc	pc, #29
 8ac:	74726174 	ldrbtvc	r6, [r2], #-372	; 0xfffffe8c
 8b0:	5f005f5f 	svcpl	0x00005f5f
 8b4:	7461645f 	strbtvc	r6, [r1], #-1119	; 0xfffffba1
 8b8:	6e655f61 	cdpvs	15, 6, cr5, cr5, cr1, {3}
 8bc:	005f5f64 	subseq	r5, pc, r4, ror #30
 8c0:	746e6975 	strbtvc	r6, [lr], #-2421	; 0xfffff68b
 8c4:	00745f38 	rsbseq	r5, r4, r8, lsr pc
 8c8:	6f635f5f 	svcvs	0x00635f5f
 8cc:	735f6564 	cmpvc	pc, #100, 10	; 0x19000000
 8d0:	74726174 	ldrbtvc	r6, [r2], #-372	; 0xfffffe8c
 8d4:	50005f5f 	andpl	r5, r0, pc, asr pc
 8d8:	53525f4d 	cmppl	r2, #308	; 0x134
 8dc:	50004354 	andpl	r4, r0, r4, asr r3
 8e0:	32335455 	eorscc	r5, r3, #1426063360	; 0x55000000
 8e4:	5f4d5000 	svcpl	0x004d5000
 8e8:	43545352 	cmpmi	r4, #1207959553	; 0x48000001
 8ec:	4352575f 	cmpmi	r2, #24903680	; 0x17c0000
 8f0:	465f4746 	ldrbmi	r4, [pc], -r6, asr #14
 8f4:	5f4c4c55 	svcpl	0x004c4c55
 8f8:	45534552 	ldrbmi	r4, [r3, #-1362]	; 0xfffffaae
 8fc:	4d500054 	ldclmi	0, cr0, [r0, #-336]	; 0xfffffeb0
 900:	4f44575f 	svcmi	0x0044575f
 904:	2f2e0047 	svccs	0x002e0047
 908:	66617473 			; <UNDEFINED> instruction: 0x66617473
 90c:	72732d66 	rsbsvc	r2, r3, #6528	; 0x1980
 910:	65722f63 	ldrbvs	r2, [r2, #-3939]!	; 0xfffff09d
 914:	746f6f62 	strbtvc	r6, [pc], #-3938	; 91c <__code_start__-0x76e4>
 918:	5000632e 	andpl	r6, r0, lr, lsr #6
 91c:	41505f4d 	cmpmi	r0, sp, asr #30
 920:	4f575353 	svcmi	0x00575353
 924:	74004452 	strvc	r4, [r0], #-1106	; 0xfffffbae
 928:	72656d69 	rsbvc	r6, r5, #6720	; 0x1a40
 92c:	7465675f 	strbtvc	r6, [r5], #-1887	; 0xfffff8a1
 930:	6573755f 	ldrbvs	r7, [r3, #-1375]!	; 0xfffffaa1
 934:	65640063 	strbvs	r0, [r4, #-99]!	; 0xffffff9d
 938:	5f79616c 	svcpl	0x0079616c
 93c:	00636573 	rsbeq	r6, r3, r3, ror r5
 940:	74732f2e 	ldrbtvc	r2, [r3], #-3886	; 0xfffff0d2
 944:	2d666661 	stclcs	6, cr6, [r6, #-388]!	; 0xfffffe7c
 948:	2f637273 	svccs	0x00637273
 94c:	656d6974 	strbvs	r6, [sp, #-2420]!	; 0xfffff68c
 950:	00632e72 	rsbeq	r2, r3, r2, ror lr
 954:	5f766564 	svcpl	0x00766564
 958:	72726162 	rsbsvc	r6, r2, #-2147483624	; 0x80000018
 95c:	00726569 	rsbseq	r6, r2, r9, ror #10
 960:	33544547 	cmpcc	r4, #297795584	; 0x11c00000
 964:	69740032 	ldmdbvs	r4!, {r1, r4, r5}^
 968:	5f72656d 	svcpl	0x0072656d
 96c:	5f746567 	svcpl	0x00746567
 970:	63657375 	cmnvs	r5, #-738197503	; 0xd4000001
 974:	7761725f 			; <UNDEFINED> instruction: 0x7761725f
 978:	6c656400 	cfstrdvs	mvd6, [r5], #-0
 97c:	755f7961 	ldrbvc	r7, [pc, #-2401]	; 23 <__code_start__-0x7fdd>
 980:	50470073 	subpl	r0, r7, r3, ror r0
 984:	465f4f49 	ldrbmi	r4, [pc], -r9, asr #30
 988:	5f434e55 	svcpl	0x00434e55
 98c:	55504e49 	ldrbpl	r4, [r0, #-3657]	; 0xfffff1b7
 990:	73750054 	cmnvc	r5, #84, 0	; 0x54
 994:	705f6365 	subsvc	r6, pc, r5, ror #6
 998:	625f7265 	subsvs	r7, pc, #1342177286	; 0x50000006
 99c:	47007469 	strmi	r7, [r0, -r9, ror #8]
 9a0:	5f4f4950 	svcpl	0x004f4950
 9a4:	434e5546 	movtmi	r5, #58694	; 0xe546
 9a8:	544c415f 	strbpl	r4, [ip], #-351	; 0xfffffea1
 9ac:	70670031 	rsbvc	r0, r7, r1, lsr r0
 9b0:	735f6f69 	cmpvc	pc, #420	; 0x1a4
 9b4:	665f7465 	ldrbvs	r7, [pc], -r5, ror #8
 9b8:	74636e75 	strbtvc	r6, [r3], #-3701	; 0xfffff18b
 9bc:	006e6f69 	rsbeq	r6, lr, r9, ror #30
 9c0:	74726175 	ldrbtvc	r6, [r2], #-373	; 0xfffffe8b
 9c4:	7465675f 	strbtvc	r6, [r5], #-1887	; 0xfffff8a1
 9c8:	70720038 	rsbsvc	r0, r2, r8, lsr r0
 9cc:	61775f69 	cmnvs	r7, r9, ror #30
 9d0:	73007469 	movwvc	r7, #1129	; 0x469
 9d4:	61755f77 	cmnvs	r5, r7, ror pc
 9d8:	75007472 	strvc	r7, [r0, #-1138]	; 0xfffffb8e
 9dc:	5f747261 	svcpl	0x00747261
 9e0:	5f6e6163 	svcpl	0x006e6163
 9e4:	38747570 	ldmdacc	r4!, {r4, r5, r6, r8, sl, ip, sp, lr}^
 9e8:	74616400 	strbtvc	r6, [r1], #-1024	; 0xfffffc00
 9ec:	65725f61 	ldrbvs	r5, [r2, #-3937]!	; 0xfffff09f
 9f0:	00796461 	rsbseq	r6, r9, r1, ror #8
 9f4:	74726175 	ldrbtvc	r6, [r2], #-373	; 0xfffffe8b
 9f8:	7465675f 	strbtvc	r6, [r5], #-1887	; 0xfffff8a1
 9fc:	73615f38 	cmnvc	r1, #56, 30	; 0xe0
 a00:	00636e79 	rsbeq	r6, r3, r9, ror lr
 a04:	755f7773 	ldrbvc	r7, [pc, #-1907]	; 299 <__code_start__-0x7d67>
 a08:	5f747261 	svcpl	0x00747261
 a0c:	61620074 	smcvs	8196	; 0x2004
 a10:	75006475 	strvc	r6, [r0, #-1141]	; 0xfffffb8b
 a14:	5f747261 	svcpl	0x00747261
 a18:	695f7874 	ldmdbvs	pc, {r2, r4, r5, r6, fp, ip, sp, lr}^	; <UNPREDICTABLE>
 a1c:	6d655f73 	stclvs	15, cr5, [r5, #-460]!	; 0xfffffe34
 a20:	00797470 	rsbseq	r7, r9, r0, ror r4
 a24:	64616572 	strbtvs	r6, [r1], #-1394	; 0xfffffa8e
 a28:	6c61765f 	stclvs	6, cr7, [r1], #-380	; 0xfffffe84
 a2c:	63006575 	movwvs	r6, #1397	; 0x575
 a30:	655f7275 	ldrbvs	r7, [pc, #-629]	; 7c3 <__code_start__-0x783d>
 a34:	6c62616e 	stfvse	f6, [r2], #-440	; 0xfffffe48
 a38:	72730065 	rsbsvc	r0, r3, #101, 0	; 0x65
 a3c:	61752f63 	cmnvs	r5, r3, ror #30
 a40:	632e7472 			; <UNDEFINED> instruction: 0x632e7472
 a44:	49504700 	ldmdbmi	r0, {r8, r9, sl, lr}^
 a48:	55465f4f 	strbpl	r5, [r6, #-3919]	; 0xfffff0b1
 a4c:	4f5f434e 	svcmi	0x005f434e
 a50:	55505455 	ldrbpl	r5, [r0, #-1109]	; 0xfffffbab
 a54:	50470054 	subpl	r0, r7, r4, asr r0
 a58:	465f4f49 	ldrbmi	r4, [pc], -r9, asr #30
 a5c:	5f434e55 	svcpl	0x00434e55
 a60:	32544c41 	subscc	r4, r4, #16640	; 0x4100
 a64:	72617500 	rsbvc	r7, r1, #0, 10
 a68:	61685f74 	smcvs	34292	; 0x85f4
 a6c:	61645f73 	smcvs	17907	; 0x45f3
 a70:	47006174 	smlsdxmi	r0, r4, r1, r6
 a74:	5f4f4950 	svcpl	0x004f4950
 a78:	434e5546 	movtmi	r5, #58694	; 0xe546
 a7c:	544c415f 	strbpl	r4, [ip], #-351	; 0xfffffea1
 a80:	50470030 	subpl	r0, r7, r0, lsr r0
 a84:	465f4f49 	ldrbmi	r4, [pc], -r9, asr #30
 a88:	5f434e55 	svcpl	0x00434e55
 a8c:	33544c41 	cmpcc	r4, #16640	; 0x4100
 a90:	49504700 	ldmdbmi	r0, {r8, r9, sl, lr}^
 a94:	55465f4f 	strbpl	r5, [r6, #-3919]	; 0xfffff0b1
 a98:	415f434e 	cmpmi	pc, lr, asr #6
 a9c:	0034544c 	eorseq	r5, r4, ip, asr #8
 aa0:	4f495047 	svcmi	0x00495047
 aa4:	4e55465f 	mrcmi	6, 2, r4, cr5, cr15, {2}
 aa8:	4c415f43 	mcrrmi	15, 4, r5, r1, cr3
 aac:	75003554 	strvc	r3, [r0, #-1364]	; 0xfffffaac
 ab0:	5f747261 	svcpl	0x00747261
 ab4:	61736964 	cmnvs	r3, r4, ror #18
 ab8:	00656c62 	rsbeq	r6, r5, r2, ror #24
 abc:	6c637963 			; <UNDEFINED> instruction: 0x6c637963
 ac0:	65705f65 	ldrbvs	r5, [r0, #-3941]!	; 0xfffff09b
 ac4:	69625f72 	stmdbvs	r2!, {r1, r4, r5, r6, r8, r9, sl, fp, ip, lr}^
 ac8:	70670074 	rsbvc	r0, r7, r4, ror r0
 acc:	635f6f69 	cmpvs	pc, #420	; 0x1a4
 ad0:	7261656c 	rsbvc	r6, r1, #108, 10	; 0x1b000000
 ad4:	49504700 	ldmdbmi	r0, {r8, r9, sl, lr}^
 ad8:	41425f4f 	cmpmi	r2, pc, asr #30
 adc:	67004553 	smlsdvs	r0, r3, r5, r4
 ae0:	5f6f6970 	svcpl	0x006f6970
 ae4:	00746573 	rsbseq	r6, r4, r3, ror r5
 ae8:	6f697067 	svcvs	0x00697067
 aec:	7465735f 	strbtvc	r7, [r5], #-863	; 0xfffffca1
 af0:	66666f5f 	uqsaxvs	r6, r6, pc	; <UNPREDICTABLE>
 af4:	49504700 	ldmdbmi	r0, {r8, r9, sl, lr}^
 af8:	414d5f4f 	cmpmi	sp, pc, asr #30
 afc:	49505f58 	ldmdbmi	r0, {r3, r4, r6, r8, r9, sl, fp, ip, lr}^
 b00:	6873004e 	ldmdavs	r3!, {r1, r2, r3, r6}^
 b04:	00746669 	rsbseq	r6, r4, r9, ror #12
 b08:	6b73616d 	blvs	1cd90c4 <__bss_end__+0x1cced1c>
 b0c:	69706700 	ldmdbvs	r0!, {r8, r9, sl, sp, lr}^
 b10:	65725f6f 	ldrbvs	r5, [r2, #-3951]!	; 0xfffff091
 b14:	67006461 	strvs	r6, [r0, -r1, ror #8]
 b18:	5f6f6970 	svcpl	0x006f6970
 b1c:	5f746573 	svcpl	0x00746573
 b20:	7074756f 	rsbsvc	r7, r4, pc, ror #10
 b24:	67007475 	smlsdxvs	r0, r5, r4, r7
 b28:	5f6f6970 	svcpl	0x006f6970
 b2c:	74697277 	strbtvc	r7, [r9], #-631	; 0xfffffd89
 b30:	70670065 	rsbvc	r0, r7, r5, rrx
 b34:	735f6f69 	cmpvc	pc, #420	; 0x1a4
 b38:	00307465 	eorseq	r7, r0, r5, ror #8
 b3c:	6f697067 	svcvs	0x00697067
 b40:	76656c5f 			; <UNDEFINED> instruction: 0x76656c5f
 b44:	70670030 	rsbvc	r0, r7, r0, lsr r0
 b48:	735f6f69 	cmpvc	pc, #420	; 0x1a4
 b4c:	695f7465 	ldmdbvs	pc, {r0, r2, r5, r6, sl, ip, sp, lr}^	; <UNPREDICTABLE>
 b50:	7475706e 	ldrbtvc	r7, [r5], #-110	; 0xffffff92
 b54:	69706700 	ldmdbvs	r0!, {r8, r9, sl, sp, lr}^
 b58:	73665f6f 	cmnvc	r6, #444	; 0x1bc
 b5c:	67006c65 	strvs	r6, [r0, -r5, ror #24]
 b60:	5f6f6970 	svcpl	0x006f6970
 b64:	696e6170 	stmdbvs	lr!, {r4, r5, r6, r8, sp, lr}^
 b68:	70670063 	rsbvc	r0, r7, r3, rrx
 b6c:	735f6f69 	cmpvc	pc, #420	; 0x1a4
 b70:	6f5f7465 	svcvs	0x005f7465
 b74:	7067006e 	rsbvc	r0, r7, lr, rrx
 b78:	6c5f6f69 	mrrcvs	15, 6, r6, pc, cr9	; <UNPREDICTABLE>
 b7c:	6c657665 	stclvs	6, cr7, [r5], #-404	; 0xfffffe6c
 b80:	69706700 	ldmdbvs	r0!, {r8, r9, sl, sp, lr}^
 b84:	75665f6f 	strbvc	r5, [r6, #-3951]!	; 0xfffff091
 b88:	745f636e 	ldrbvc	r6, [pc], #-878	; b90 <__code_start__-0x7470>
 b8c:	63727300 	cmnvs	r2, #0, 6
 b90:	6970672f 	ldmdbvs	r0!, {r0, r1, r2, r3, r5, r8, r9, sl, sp, lr}^
 b94:	00632e6f 	rsbeq	r2, r3, pc, ror #28
 b98:	6f697067 	svcvs	0x00697067
 b9c:	726c635f 	rsbvc	r6, ip, #2080374785	; 0x7c000001
 ba0:	2f2e0030 	svccs	0x002e0030
 ba4:	6362696c 	cmnvs	r2, #108, 18	; 0x1b0000
 ba8:	7475702f 	ldrbtvc	r7, [r5], #-47	; 0xffffffd1
 bac:	00632e6b 	rsbeq	r2, r3, fp, ror #28
 bb0:	74732f2e 	ldrbtvc	r2, [r3], #-3886	; 0xfffff0d2
 bb4:	2d666661 	stclcs	6, cr6, [r6, #-388]!	; 0xfffffe7c
 bb8:	2f637273 	svccs	0x00637273
 bbc:	2d697072 	stclcs	0, cr7, [r9, #-456]!	; 0xfffffe38
 bc0:	74696177 	strbtvc	r6, [r9], #-375	; 0xfffffe89
 bc4:	2f00632e 	svccs	0x0000632e
 bc8:	72657355 	rsbvc	r7, r5, #1409286145	; 0x54000001
 bcc:	6f692f73 	svcvs	0x00692f73
 bd0:	6978616e 	ldmdbvs	r8!, {r1, r2, r3, r5, r6, r8, sp, lr}^
 bd4:	73632f61 	cmnvc	r3, #388	; 0x184
 bd8:	65303431 	ldrvs	r3, [r0, #-1073]!	; 0xfffffbcf
 bdc:	3173632f 	cmncc	r3, pc, lsr #6
 be0:	2d653034 	stclcs	0, cr3, [r5, #-208]!	; 0xffffff30
 be4:	69773632 	ldmdbvs	r7!, {r1, r4, r5, r9, sl, ip, sp}^
 be8:	696c2f6e 	stmdbvs	ip!, {r1, r2, r3, r5, r6, r8, r9, sl, fp, sp}^
 bec:	00697062 	rsbeq	r7, r9, r2, rrx

Disassembly of section .debug_frame:

00000000 <.debug_frame>:
   0:	0000000c 	andeq	r0, r0, ip
   4:	ffffffff 			; <UNDEFINED> instruction: 0xffffffff
   8:	7c020001 	stcvc	0, cr0, [r2], {1}
   c:	000d0c0e 	andeq	r0, sp, lr, lsl #24
  10:	0000000c 	andeq	r0, r0, ip
  14:	00000000 	andeq	r0, r0, r0
  18:	00008e10 	andeq	r8, r0, r0, lsl lr
  1c:	00000010 	andeq	r0, r0, r0, lsl r0
  20:	0000000c 	andeq	r0, r0, ip
  24:	00000000 	andeq	r0, r0, r0
  28:	00008e20 	andeq	r8, r0, r0, lsr #28
  2c:	00000010 	andeq	r0, r0, r0, lsl r0
  30:	0000000c 	andeq	r0, r0, ip
  34:	00000000 	andeq	r0, r0, r0
  38:	00008e30 	andeq	r8, r0, r0, lsr lr
  3c:	00000010 	andeq	r0, r0, r0, lsl r0
  40:	00000020 	andeq	r0, r0, r0, lsr #32
  44:	00000000 	andeq	r0, r0, r0
  48:	00008e40 	andeq	r8, r0, r0, asr #28
  4c:	00000128 	andeq	r0, r0, r8, lsr #2
  50:	840c0e42 	strhi	r0, [ip], #-3650	; 0xfffff1be
  54:	8e028503 	cfsh32hi	mvfx8, mvfx2, #3
  58:	180e4201 	stmdane	lr, {r0, r9, lr}
  5c:	0c0e0a6e 			; <UNDEFINED> instruction: 0x0c0e0a6e
  60:	00000b42 	andeq	r0, r0, r2, asr #22
  64:	0000001c 	andeq	r0, r0, ip, lsl r0
  68:	00000000 	andeq	r0, r0, r0
  6c:	00008f68 	andeq	r8, r0, r8, ror #30
  70:	000000ec 	andeq	r0, r0, ip, ror #1
  74:	8e040e42 	cdphi	14, 0, cr0, cr4, cr2, {2}
  78:	100e4201 	andne	r4, lr, r1, lsl #4
  7c:	040e0a62 	streq	r0, [lr], #-2658	; 0xfffff59e
  80:	00000b42 	andeq	r0, r0, r2, asr #22
  84:	00000020 	andeq	r0, r0, r0, lsr #32
  88:	00000000 	andeq	r0, r0, r0
  8c:	00009054 	andeq	r9, r0, r4, asr r0
  90:	00000064 	andeq	r0, r0, r4, rrx
  94:	840c0e42 	strhi	r0, [ip], #-3650	; 0xfffff1be
  98:	8e028503 	cfsh32hi	mvfx8, mvfx2, #3
  9c:	180e4201 	stmdane	lr, {r0, r9, lr}
  a0:	0c0e0a54 			; <UNDEFINED> instruction: 0x0c0e0a54
  a4:	00000b42 	andeq	r0, r0, r2, asr #22
  a8:	0000001c 	andeq	r0, r0, ip, lsl r0
  ac:	00000000 	andeq	r0, r0, r0
  b0:	000090b8 	strheq	r9, [r0], -r8
  b4:	00000110 	andeq	r0, r0, r0, lsl r1
  b8:	8e040e42 	cdphi	14, 0, cr0, cr4, cr2, {2}
  bc:	100e4201 	andne	r4, lr, r1, lsl #4
  c0:	040e0a6c 	streq	r0, [lr], #-2668	; 0xfffff594
  c4:	00000b42 	andeq	r0, r0, r2, asr #22
  c8:	0000000c 	andeq	r0, r0, ip
  cc:	00000000 	andeq	r0, r0, r0
  d0:	000091c8 	andeq	r9, r0, r8, asr #3
  d4:	00000014 	andeq	r0, r0, r4, lsl r0
  d8:	0000000c 	andeq	r0, r0, ip
  dc:	ffffffff 			; <UNDEFINED> instruction: 0xffffffff
  e0:	7c020001 	stcvc	0, cr0, [r2], {1}
  e4:	000d0c0e 	andeq	r0, sp, lr, lsl #24
  e8:	00000020 	andeq	r0, r0, r0, lsr #32
  ec:	000000d8 	ldrdeq	r0, [r0], -r8
  f0:	000091dc 	ldrdeq	r9, [r0], -ip
  f4:	00000078 	andeq	r0, r0, r8, ror r0
  f8:	84140e42 	ldrhi	r0, [r4], #-3650	; 0xfffff1be
  fc:	86048505 	strhi	r8, [r4], -r5, lsl #10
 100:	8e028703 	cdphi	7, 0, cr8, cr2, cr3, {0}
 104:	200e4201 	andcs	r4, lr, r1, lsl #4
 108:	00140e70 	andseq	r0, r4, r0, ror lr
 10c:	00000018 	andeq	r0, r0, r8, lsl r0
 110:	000000d8 	ldrdeq	r0, [r0], -r8
 114:	00009254 	andeq	r9, r0, r4, asr r2
 118:	000000a8 	andeq	r0, r0, r8, lsr #1
 11c:	84080e54 	strhi	r0, [r8], #-3668	; 0xfffff1ac
 120:	4e018502 	cfsh32mi	mvfx8, mvfx1, #2
 124:	000ec4c5 	andeq	ip, lr, r5, asr #9
 128:	0000000c 	andeq	r0, r0, ip
 12c:	000000d8 	ldrdeq	r0, [r0], -r8
 130:	000092fc 	strdeq	r9, [r0], -ip
 134:	00000004 	andeq	r0, r0, r4
 138:	0000000c 	andeq	r0, r0, ip
 13c:	ffffffff 			; <UNDEFINED> instruction: 0xffffffff
 140:	7c020001 	stcvc	0, cr0, [r2], {1}
 144:	000d0c0e 	andeq	r0, sp, lr, lsl #24
 148:	00000018 	andeq	r0, r0, r8, lsl r0
 14c:	00000138 	andeq	r0, r0, r8, lsr r1
 150:	00009300 	andeq	r9, r0, r0, lsl #6
 154:	000000a0 	andeq	r0, r0, r0, lsr #1
 158:	84080e7e 	strhi	r0, [r8], #-3710	; 0xfffff182
 15c:	50018502 	andpl	r8, r1, r2, lsl #10
 160:	000ec4c5 	andeq	ip, lr, r5, asr #9
 164:	0000000c 	andeq	r0, r0, ip
 168:	ffffffff 			; <UNDEFINED> instruction: 0xffffffff
 16c:	7c020001 	stcvc	0, cr0, [r2], {1}
 170:	000d0c0e 	andeq	r0, sp, lr, lsl #24
 174:	00000030 	andeq	r0, r0, r0, lsr r0
 178:	00000164 	andeq	r0, r0, r4, ror #2
 17c:	000093a0 	andeq	r9, r0, r0, lsr #7
 180:	0000002c 	andeq	r0, r0, ip, lsr #32
 184:	80100e42 	andshi	r0, r0, r2, asr #28
 188:	82038104 	andhi	r8, r3, #1
 18c:	42018302 	andmi	r8, r1, #134217728	; 0x8000000
 190:	058e140e 	streq	r1, [lr, #1038]	; 0x40e
 194:	4a200e42 	bmi	803aa4 <__bss_end__+0x7f96fc>
 198:	ce42140e 	cdpgt	4, 4, cr1, cr2, cr14, {0}
 19c:	c342100e 	movtgt	r1, #8206	; 0x200e
 1a0:	0ec0c1c2 	acseqdm	f4, f2
 1a4:	00000000 	andeq	r0, r0, r0
 1a8:	0000001c 	andeq	r0, r0, ip, lsl r0
 1ac:	00000164 	andeq	r0, r0, r4, ror #2
 1b0:	000093cc 	andeq	r9, r0, ip, asr #7
 1b4:	00000110 	andeq	r0, r0, r0, lsl r1
 1b8:	84080e42 	strhi	r0, [r8], #-3650	; 0xfffff1be
 1bc:	42018e02 	andmi	r8, r1, #2, 28
 1c0:	7202380e 	andvc	r3, r2, #917504	; 0xe0000
 1c4:	0000080e 	andeq	r0, r0, lr, lsl #16
 1c8:	00000020 	andeq	r0, r0, r0, lsr #32
 1cc:	00000164 	andeq	r0, r0, r4, ror #2
 1d0:	000094dc 	ldrdeq	r9, [r0], -ip
 1d4:	000002e0 	andeq	r0, r0, r0, ror #5
 1d8:	840c0e42 	strhi	r0, [ip], #-3650	; 0xfffff1be
 1dc:	8e028503 	cfsh32hi	mvfx8, mvfx2, #3
 1e0:	200e4201 	andcs	r4, lr, r1, lsl #4
 1e4:	0e016003 	cdpeq	0, 0, cr6, cr1, cr3, {0}
 1e8:	0000000c 	andeq	r0, r0, ip
 1ec:	0000000c 	andeq	r0, r0, ip
 1f0:	ffffffff 			; <UNDEFINED> instruction: 0xffffffff
 1f4:	7c020001 	stcvc	0, cr0, [r2], {1}
 1f8:	000d0c0e 	andeq	r0, sp, lr, lsl #24
 1fc:	00000014 	andeq	r0, r0, r4, lsl r0
 200:	000001ec 	andeq	r0, r0, ip, ror #3
 204:	000097bc 			; <UNDEFINED> instruction: 0x000097bc
 208:	00000018 	andeq	r0, r0, r8, lsl r0
 20c:	84080e42 	strhi	r0, [r8], #-3650	; 0xfffff1be
 210:	00018e02 	andeq	r8, r1, r2, lsl #28
 214:	0000000c 	andeq	r0, r0, ip
 218:	000001ec 	andeq	r0, r0, ip, ror #3
 21c:	000097d4 	ldrdeq	r9, [r0], -r4
 220:	00000018 	andeq	r0, r0, r8, lsl r0
 224:	0000000c 	andeq	r0, r0, ip
 228:	ffffffff 			; <UNDEFINED> instruction: 0xffffffff
 22c:	7c020001 	stcvc	0, cr0, [r2], {1}
 230:	000d0c0e 	andeq	r0, sp, lr, lsl #24
 234:	00000014 	andeq	r0, r0, r4, lsl r0
 238:	00000224 	andeq	r0, r0, r4, lsr #4
 23c:	000097ec 	andeq	r9, r0, ip, ror #15
 240:	00000020 	andeq	r0, r0, r0, lsr #32
 244:	84080e42 	strhi	r0, [r8], #-3650	; 0xfffff1be
 248:	00018e02 	andeq	r8, r1, r2, lsl #28
 24c:	0000000c 	andeq	r0, r0, ip
 250:	ffffffff 			; <UNDEFINED> instruction: 0xffffffff
 254:	7c020001 	stcvc	0, cr0, [r2], {1}
 258:	000d0c0e 	andeq	r0, sp, lr, lsl #24
 25c:	0000000c 	andeq	r0, r0, ip
 260:	0000024c 	andeq	r0, r0, ip, asr #4
 264:	0000980c 	andeq	r9, r0, ip, lsl #16
 268:	0000000c 	andeq	r0, r0, ip
 26c:	00000014 	andeq	r0, r0, r4, lsl r0
 270:	0000024c 	andeq	r0, r0, ip, asr #4
 274:	00009818 	andeq	r9, r0, r8, lsl r8
 278:	00000038 	andeq	r0, r0, r8, lsr r0
 27c:	84080e42 	strhi	r0, [r8], #-3650	; 0xfffff1be
 280:	00018e02 	andeq	r8, r1, r2, lsl #28
 284:	0000000c 	andeq	r0, r0, ip
 288:	ffffffff 			; <UNDEFINED> instruction: 0xffffffff
 28c:	7c020001 	stcvc	0, cr0, [r2], {1}
 290:	000d0c0e 	andeq	r0, sp, lr, lsl #24
 294:	00000014 	andeq	r0, r0, r4, lsl r0
 298:	00000284 	andeq	r0, r0, r4, lsl #5
 29c:	00009850 	andeq	r9, r0, r0, asr r8
 2a0:	0000003c 	andeq	r0, r0, ip, lsr r0
 2a4:	84080e42 	strhi	r0, [r8], #-3650	; 0xfffff1be
 2a8:	00018e02 	andeq	r8, r1, r2, lsl #28
 2ac:	0000000c 	andeq	r0, r0, ip
 2b0:	ffffffff 			; <UNDEFINED> instruction: 0xffffffff
 2b4:	7c020001 	stcvc	0, cr0, [r2], {1}
 2b8:	000d0c0e 	andeq	r0, sp, lr, lsl #24
 2bc:	00000014 	andeq	r0, r0, r4, lsl r0
 2c0:	000002ac 	andeq	r0, r0, ip, lsr #5
 2c4:	0000988c 	andeq	r9, r0, ip, lsl #17
 2c8:	00000014 	andeq	r0, r0, r4, lsl r0
 2cc:	84080e42 	strhi	r0, [r8], #-3650	; 0xfffff1be
 2d0:	00018e02 	andeq	r8, r1, r2, lsl #28
 2d4:	00000014 	andeq	r0, r0, r4, lsl r0
 2d8:	000002ac 	andeq	r0, r0, ip, lsr #5
 2dc:	000098a0 	andeq	r9, r0, r0, lsr #17
 2e0:	0000001c 	andeq	r0, r0, ip, lsl r0
 2e4:	84080e42 	strhi	r0, [r8], #-3650	; 0xfffff1be
 2e8:	00018e02 	andeq	r8, r1, r2, lsl #28
 2ec:	00000018 	andeq	r0, r0, r8, lsl r0
 2f0:	000002ac 	andeq	r0, r0, ip, lsr #5
 2f4:	000098bc 			; <UNDEFINED> instruction: 0x000098bc
 2f8:	00000024 	andeq	r0, r0, r4, lsr #32
 2fc:	84100e42 	ldrhi	r0, [r0], #-3650	; 0xfffff1be
 300:	86038504 	strhi	r8, [r3], -r4, lsl #10
 304:	00018e02 	andeq	r8, r1, r2, lsl #28
 308:	00000014 	andeq	r0, r0, r4, lsl r0
 30c:	000002ac 	andeq	r0, r0, ip, lsr #5
 310:	000098e0 	andeq	r9, r0, r0, ror #17
 314:	00000018 	andeq	r0, r0, r8, lsl r0
 318:	84080e42 	strhi	r0, [r8], #-3650	; 0xfffff1be
 31c:	00018e02 	andeq	r8, r1, r2, lsl #28
 320:	00000014 	andeq	r0, r0, r4, lsl r0
 324:	000002ac 	andeq	r0, r0, ip, lsr #5
 328:	000098f8 	strdeq	r9, [r0], -r8
 32c:	00000018 	andeq	r0, r0, r8, lsl r0
 330:	84080e42 	strhi	r0, [r8], #-3650	; 0xfffff1be
 334:	00018e02 	andeq	r8, r1, r2, lsl #28
 338:	0000000c 	andeq	r0, r0, ip
 33c:	ffffffff 			; <UNDEFINED> instruction: 0xffffffff
 340:	7c020001 	stcvc	0, cr0, [r2], {1}
 344:	000d0c0e 	andeq	r0, sp, lr, lsl #24
 348:	00000014 	andeq	r0, r0, r4, lsl r0
 34c:	00000338 	andeq	r0, r0, r8, lsr r3
 350:	00009910 	andeq	r9, r0, r0, lsl r9
 354:	000000bc 	strheq	r0, [r0], -ip
 358:	84080e42 	strhi	r0, [r8], #-3650	; 0xfffff1be
 35c:	00018e02 	andeq	r8, r1, r2, lsl #28
 360:	00000014 	andeq	r0, r0, r4, lsl r0
 364:	00000338 	andeq	r0, r0, r8, lsr r3
 368:	000099cc 	andeq	r9, r0, ip, asr #19
 36c:	00000028 	andeq	r0, r0, r8, lsr #32
 370:	84080e42 	strhi	r0, [r8], #-3650	; 0xfffff1be
 374:	00018e02 	andeq	r8, r1, r2, lsl #28
 378:	00000014 	andeq	r0, r0, r4, lsl r0
 37c:	00000338 	andeq	r0, r0, r8, lsr r3
 380:	000099f4 	strdeq	r9, [r0], -r4
 384:	00000034 	andeq	r0, r0, r4, lsr r0
 388:	84080e42 	strhi	r0, [r8], #-3650	; 0xfffff1be
 38c:	00018e02 	andeq	r8, r1, r2, lsl #28
 390:	00000014 	andeq	r0, r0, r4, lsl r0
 394:	00000338 	andeq	r0, r0, r8, lsr r3
 398:	00009a28 	andeq	r9, r0, r8, lsr #20
 39c:	00000018 	andeq	r0, r0, r8, lsl r0
 3a0:	84080e42 	strhi	r0, [r8], #-3650	; 0xfffff1be
 3a4:	00018e02 	andeq	r8, r1, r2, lsl #28
 3a8:	00000014 	andeq	r0, r0, r4, lsl r0
 3ac:	00000338 	andeq	r0, r0, r8, lsr r3
 3b0:	00009a40 	andeq	r9, r0, r0, asr #20
 3b4:	00000030 	andeq	r0, r0, r0, lsr r0
 3b8:	84080e42 	strhi	r0, [r8], #-3650	; 0xfffff1be
 3bc:	00018e02 	andeq	r8, r1, r2, lsl #28
 3c0:	00000014 	andeq	r0, r0, r4, lsl r0
 3c4:	00000338 	andeq	r0, r0, r8, lsr r3
 3c8:	00009a70 	andeq	r9, r0, r0, ror sl
 3cc:	00000020 	andeq	r0, r0, r0, lsr #32
 3d0:	84080e42 	strhi	r0, [r8], #-3650	; 0xfffff1be
 3d4:	00018e02 	andeq	r8, r1, r2, lsl #28
 3d8:	00000014 	andeq	r0, r0, r4, lsl r0
 3dc:	00000338 	andeq	r0, r0, r8, lsr r3
 3e0:	00009a90 	muleq	r0, r0, sl
 3e4:	0000003c 	andeq	r0, r0, ip, lsr r0
 3e8:	84080e42 	strhi	r0, [r8], #-3650	; 0xfffff1be
 3ec:	00018e02 	andeq	r8, r1, r2, lsl #28
 3f0:	00000014 	andeq	r0, r0, r4, lsl r0
 3f4:	00000338 	andeq	r0, r0, r8, lsr r3
 3f8:	00009acc 	andeq	r9, r0, ip, asr #21
 3fc:	00000018 	andeq	r0, r0, r8, lsl r0
 400:	84080e42 	strhi	r0, [r8], #-3650	; 0xfffff1be
 404:	00018e02 	andeq	r8, r1, r2, lsl #28
 408:	00000014 	andeq	r0, r0, r4, lsl r0
 40c:	00000338 	andeq	r0, r0, r8, lsr r3
 410:	00009ae4 	andeq	r9, r0, r4, ror #21
 414:	00000044 	andeq	r0, r0, r4, asr #32
 418:	84080e42 	strhi	r0, [r8], #-3650	; 0xfffff1be
 41c:	00018e02 	andeq	r8, r1, r2, lsl #28
 420:	0000000c 	andeq	r0, r0, ip
 424:	ffffffff 			; <UNDEFINED> instruction: 0xffffffff
 428:	7c020001 	stcvc	0, cr0, [r2], {1}
 42c:	000d0c0e 	andeq	r0, sp, lr, lsl #24
 430:	00000018 	andeq	r0, r0, r8, lsl r0
 434:	00000420 	andeq	r0, r0, r0, lsr #8
 438:	00009b28 	andeq	r9, r0, r8, lsr #22
 43c:	00000008 	andeq	r0, r0, r8
 440:	80100e42 	andshi	r0, r0, r2, asr #28
 444:	82038104 	andhi	r8, r3, #1
 448:	00018302 	andeq	r8, r1, r2, lsl #6
 44c:	00000014 	andeq	r0, r0, r4, lsl r0
 450:	00000420 	andeq	r0, r0, r0, lsr #8
 454:	00009b30 	andeq	r9, r0, r0, lsr fp
 458:	00000040 	andeq	r0, r0, r0, asr #32
 45c:	84080e42 	strhi	r0, [r8], #-3650	; 0xfffff1be
 460:	00018e02 	andeq	r8, r1, r2, lsl #28
 464:	00000014 	andeq	r0, r0, r4, lsl r0
 468:	00000420 	andeq	r0, r0, r0, lsr #8
 46c:	00009b70 	andeq	r9, r0, r0, ror fp
 470:	00000040 	andeq	r0, r0, r0, asr #32
 474:	84080e42 	strhi	r0, [r8], #-3650	; 0xfffff1be
 478:	00018e02 	andeq	r8, r1, r2, lsl #28
 47c:	00000014 	andeq	r0, r0, r4, lsl r0
 480:	00000420 	andeq	r0, r0, r0, lsr #8
 484:	00009bb0 			; <UNDEFINED> instruction: 0x00009bb0
 488:	0000001c 	andeq	r0, r0, ip, lsl r0
 48c:	84080e42 	strhi	r0, [r8], #-3650	; 0xfffff1be
 490:	00018e02 	andeq	r8, r1, r2, lsl #28
 494:	00000014 	andeq	r0, r0, r4, lsl r0
 498:	00000420 	andeq	r0, r0, r0, lsr #8
 49c:	00009bcc 	andeq	r9, r0, ip, asr #23
 4a0:	00000048 	andeq	r0, r0, r8, asr #32
 4a4:	84080e42 	strhi	r0, [r8], #-3650	; 0xfffff1be
 4a8:	00018e02 	andeq	r8, r1, r2, lsl #28
 4ac:	0000001c 	andeq	r0, r0, ip, lsl r0
 4b0:	00000420 	andeq	r0, r0, r0, lsr #8
 4b4:	00009c14 	andeq	r9, r0, r4, lsl ip
 4b8:	00000080 	andeq	r0, r0, r0, lsl #1
 4bc:	84180e42 	ldrhi	r0, [r8], #-3650	; 0xfffff1be
 4c0:	86058506 	strhi	r8, [r5], -r6, lsl #10
 4c4:	88038704 	stmdahi	r3, {r2, r8, r9, sl, pc}
 4c8:	00018e02 	andeq	r8, r1, r2, lsl #28
 4cc:	00000014 	andeq	r0, r0, r4, lsl r0
 4d0:	00000420 	andeq	r0, r0, r0, lsr #8
 4d4:	00009c94 	muleq	r0, r4, ip
 4d8:	00000010 	andeq	r0, r0, r0, lsl r0
 4dc:	84080e42 	strhi	r0, [r8], #-3650	; 0xfffff1be
 4e0:	00018e02 	andeq	r8, r1, r2, lsl #28
 4e4:	00000014 	andeq	r0, r0, r4, lsl r0
 4e8:	00000420 	andeq	r0, r0, r0, lsr #8
 4ec:	00009ca4 	andeq	r9, r0, r4, lsr #25
 4f0:	00000010 	andeq	r0, r0, r0, lsl r0
 4f4:	84080e42 	strhi	r0, [r8], #-3650	; 0xfffff1be
 4f8:	00018e02 	andeq	r8, r1, r2, lsl #28
 4fc:	0000000c 	andeq	r0, r0, ip
 500:	ffffffff 			; <UNDEFINED> instruction: 0xffffffff
 504:	7c020001 	stcvc	0, cr0, [r2], {1}
 508:	000d0c0e 	andeq	r0, sp, lr, lsl #24
 50c:	00000014 	andeq	r0, r0, r4, lsl r0
 510:	000004fc 	strdeq	r0, [r0], -ip
 514:	00009cb4 			; <UNDEFINED> instruction: 0x00009cb4
 518:	00000034 	andeq	r0, r0, r4, lsr r0
 51c:	84080e42 	strhi	r0, [r8], #-3650	; 0xfffff1be
 520:	00018e02 	andeq	r8, r1, r2, lsl #28
 524:	0000000c 	andeq	r0, r0, ip
 528:	ffffffff 			; <UNDEFINED> instruction: 0xffffffff
 52c:	7c020001 	stcvc	0, cr0, [r2], {1}
 530:	000d0c0e 	andeq	r0, sp, lr, lsl #24
 534:	0000000c 	andeq	r0, r0, ip
 538:	00000524 	andeq	r0, r0, r4, lsr #10
 53c:	00009d00 	andeq	r9, r0, r0, lsl #26
 540:	00000004 	andeq	r0, r0, r4
